

Microchip MPLAB XC8 Assembler V2.41 build 20230208172133 
                                                                                               Sat Nov 25 21:42:08 2023

Microchip MPLAB XC8 C Compiler v2.41 (Free license) build 20230208172133 Og1 
     1                           	processor	18F45K20
     2                           	fnconf	rparam,??,?,0
     3                           	pagewidth 120
     4                           	opt	flic
     5                           	psect	idataBANK0,global,class=CODE,delta=1,noexec
     6                           	psect	nvBANK0,global,class=BANK0,space=1,delta=1,lowdata,noexec
     7                           	psect	smallconst,global,reloc=2,class=SMALLCONST,delta=1,noexec
     8                           	psect	cinit,global,reloc=2,class=CODE,delta=1
     9                           	psect	bssCOMRAM,global,class=COMRAM,space=1,delta=1,lowdata,noexec
    10                           	psect	bssBANK0,global,class=BANK0,space=1,delta=1,lowdata,noexec
    11                           	psect	dataBANK0,global,class=BANK0,space=1,delta=1,lowdata,noexec
    12                           	psect	bssBANK1,global,class=BANK1,space=1,delta=1,lowdata,noexec
    13                           	psect	cstackBANK0,global,class=BANK0,space=1,delta=1,lowdata,noexec
    14                           	psect	cstackCOMRAM,global,class=COMRAM,space=1,delta=1,lowdata,noexec
    15                           	psect	text0,global,reloc=2,class=CODE,delta=1
    16                           	psect	text1,global,reloc=2,class=CODE,delta=1,group=3
    17                           	psect	text2,global,reloc=2,class=CODE,delta=1,group=1
    18                           	psect	text3,global,reloc=2,class=CODE,delta=1,group=1
    19                           	psect	text4,global,reloc=2,class=CODE,delta=1,group=3
    20                           	psect	text5,global,reloc=2,class=CODE,delta=1,group=1
    21                           	psect	text6,global,reloc=2,class=CODE,delta=1,group=3
    22                           	psect	text7,global,reloc=2,class=CODE,delta=1,group=1
    23                           	psect	text8,global,reloc=2,class=CODE,delta=1,group=3
    24                           	psect	text9,global,reloc=2,class=CODE,delta=1,group=3
    25                           	psect	text10,global,reloc=2,class=CODE,delta=1,group=3
    26                           	psect	text11,global,reloc=2,class=CODE,delta=1,group=3
    27                           	psect	text12,global,reloc=2,class=CODE,delta=1,group=3
    28                           	psect	text13,global,reloc=2,class=CODE,delta=1,group=2
    29                           	psect	text14,global,reloc=2,class=CODE,delta=1,group=2
    30                           	psect	text15,global,reloc=2,class=CODE,delta=1,group=2
    31                           	psect	text16,global,reloc=2,class=CODE,delta=1,group=2
    32                           	psect	text17,global,reloc=2,class=CODE,delta=1,group=2
    33                           	psect	text18,global,reloc=2,class=CODE,delta=1,group=2
    34                           	psect	text19,global,reloc=2,class=CODE,delta=1,group=2
    35                           	psect	text20,global,reloc=2,class=CODE,delta=1,group=2
    36                           	psect	text21,global,reloc=2,class=CODE,delta=1,group=1
    37                           	psect	text22,global,reloc=2,class=CODE,delta=1,group=1
    38                           	psect	text23,global,reloc=2,class=CODE,delta=1,group=3
    39                           	psect	text24,global,reloc=2,class=CODE,delta=1,group=3
    40                           	psect	text25,global,reloc=2,class=CODE,delta=1,group=3
    41                           	psect	text26,global,reloc=2,class=CODE,delta=1,group=3
    42                           	psect	text27,global,reloc=2,class=CODE,delta=1,group=2
    43                           	psect	text28,global,reloc=2,class=CODE,delta=1,group=2
    44                           	psect	text29,global,reloc=2,class=CODE,delta=1
    45                           	psect	text30,global,reloc=2,class=CODE,delta=1,group=2
    46                           	psect	text31,global,reloc=2,class=CODE,delta=1,group=2
    47                           	psect	text32,global,reloc=2,class=CODE,delta=1,group=2
    48                           	psect	text33,global,reloc=2,class=CODE,delta=1
    49                           	psect	text34,global,reloc=2,class=CODE,delta=1
    50                           	psect	text35,global,reloc=2,class=CODE,delta=1
    51                           	psect	text36,global,reloc=2,class=CODE,delta=1
    52                           	psect	text37,global,reloc=2,class=CODE,delta=1
    53                           	psect	text38,global,reloc=2,class=CODE,delta=1
    54                           	psect	text39,global,reloc=2,class=CODE,delta=1
    55                           	psect	text40,global,reloc=2,class=CODE,delta=1
    56                           	psect	text41,global,reloc=2,class=CODE,delta=1
    57                           	psect	text42,global,reloc=2,class=CODE,delta=1
    58                           	psect	text43,global,reloc=2,class=CODE,delta=1
    59                           	psect	intsave_regs,global,class=BIGRAM,space=1,delta=1,noexec
    60                           	psect	rparam,global,class=COMRAM,space=1,delta=1,noexec
    61                           	psect	config,global,abs,ovrld,class=CONFIG,space=4,delta=1,noexec
    62   000000                     
    63                           ; Generated 11/09/2023 GMT
    64                           ; 
    65                           ; Copyright © 2023, Microchip Technology Inc. and its subsidiaries ("Microchip")
    66                           ; All rights reserved.
    67                           ; 
    68                           ; This software is developed by Microchip Technology Inc. and its subsidiaries ("Microch
      +                          ip").
    69                           ; 
    70                           ; Redistribution and use in source and binary forms, with or without modification, are
    71                           ; permitted provided that the following conditions are met:
    72                           ; 
    73                           ;     1. Redistributions of source code must retain the above copyright notice, this lis
      +                          t of
    74                           ;        conditions and the following disclaimer.
    75                           ; 
    76                           ;     2. Redistributions in binary form must reproduce the above copyright notice, this 
      +                          list
    77                           ;        of conditions and the following disclaimer in the documentation and/or other
    78                           ;        materials provided with the distribution. Publication is not required when
    79                           ;        this file is used in an embedded application.
    80                           ; 
    81                           ;     3. Microchip's name may not be used to endorse or promote products derived from th
      +                          is
    82                           ;        software without specific prior written permission.
    83                           ; 
    84                           ; THIS SOFTWARE IS PROVIDED BY MICROCHIP "AS IS" AND ANY EXPRESS OR IMPLIED WARRANTIES,
    85                           ; INCLUDING, BUT NOT LIMITED TO, THE IMPLIED WARRANTIES OF MERCHANTABILITY AND FITNESS F
      +                          OR
    86                           ; PURPOSE ARE DISCLAIMED.  IN NO EVENT SHALL MICROCHIP BE LIABLE FOR ANY DIRECT, INDIREC
      +                          T,
    87                           ; INCIDENTAL, SPECIAL, EXEMPLARY, OR CONSEQUENTIAL DAMAGES (INCLUDING BUT NOT LIMITED TO
    88                           ; PROCUREMENT OF SUBSTITUTE GOODS OR SERVICES; LOSS OF USE, DATA OR PROFITS; OR BUSINESS
    89                           ; INTERRUPTION) HOWSOEVER CAUSED AND ON ANY THEORY OF LIABILITY, WHETHER IN CONTRACT, ST
      +                          RICT
    90                           ; LIABILITY, OR TORT (INCLUDING NEGLIGENCE OR OTHERWISE) ARISING IN ANY WAY OUT OF THE U
      +                          SE OF
    91                           ; THIS SOFTWARE, EVEN IF ADVISED OF THE POSSIBILITY OF SUCH DAMAGE.
    92                           ; 
    93                           ; 
    94                           ; Code-generator required, PIC18F45K20 Definitions
    95                           ; 
    96                           ; SFR Addresses
    97   000000                     
    98 ;; Function _EUSART_DefaultFramingErrorHandler is unused but had its address taken
    99   000000                     
   100 ;; Function _EUSART_DefaultOverrunErrorHandler is unused but had its address taken
   101   000000                     
   102 ;; Function _EUSART_DefaultErrorHandler is unused but had its address taken
   103   000000                     
   104                           	psect	idataBANK0
   105   003584                     __pidataBANK0:
   106                           	callstack 0
   107                           
   108                           ;initializer for stoa@F1179
   109   003584  28                 	db	40
   110   003585  6E                 	db	110
   111   003586  75                 	db	117
   112   003587  6C                 	db	108
   113   003588  6C                 	db	108
   114   003589  29                 	db	41
   115   00358A  00                 	db	0
   116   000000                     _ADCON0	set	4034
   117   000000                     _ADRESL	set	4035
   118   000000                     _TXREG	set	4013
   119   000000                     _RCREG	set	4014
   120   000000                     _SPBRG	set	4015
   121   000000                     _TXSTA	set	4012
   122   000000                     _TRISD	set	3989
   123   000000                     _TRISC	set	3988
   124   000000                     _TRISB	set	3987
   125   000000                     _LATC	set	3979
   126   000000                     _LATB	set	3978
   127                           
   128                           	psect	nvBANK0
   129   0000DE                     __pnvBANK0:
   130                           	callstack 0
   131   0000DE                     _outputValue:
   132                           	callstack 0
   133   0000DE                     	ds	4
   134   0000E2                     _sensorValue:
   135                           	callstack 0
   136   0000E2                     	ds	2
   137   0000E4                     _EUSART_ErrorHandler:
   138                           	callstack 0
   139   0000E4                     	ds	2
   140   0000E6                     _EUSART_OverrunErrorHandler:
   141                           	callstack 0
   142   0000E6                     	ds	2
   143   0000E8                     _EUSART_FramingErrorHandler:
   144                           	callstack 0
   145   0000E8                     	ds	2
   146   000000                     _ADCON0bits	set	4034
   147   000000                     _RCSTAbits	set	4011
   148   000000                     _TXSTAbits	set	4012
   149   000000                     _WPUB	set	3964
   150   000000                     _ANSEL	set	3966
   151   000000                     _LATA	set	3977
   152   000000                     _LATD	set	3980
   153   000000                     _LATE	set	3981
   154   000000                     _PIR1bits	set	3998
   155   000000                     _RCSTA	set	4011
   156   000000                     _BAUDCON	set	4024
   157   000000                     _INTCON2bits	set	4081
   158   000000                     _TRISA	set	3986
   159   000000                     _TRISE	set	3990
   160   000000                     _OSCTUNE	set	3995
   161   000000                     _ANSELH	set	3967
   162   000000                     _INTCONbits	set	4082
   163   000000                     _ADCON2	set	4032
   164   000000                     _ADCON1	set	4033
   165   000000                     _SPBRGH	set	4016
   166   000000                     _OSCCON	set	4051
   167   000000                     _ADRESH	set	4036
   168                           
   169                           	psect	smallconst
   170   000600                     __psmallconst:
   171                           	callstack 0
   172   000600  00                 	db	0
   173   000601                     STR_2:
   174   000601  4D                 	db	77	;'M'
   175   000602  50                 	db	80	;'P'
   176   000603  58                 	db	88	;'X'
   177   000604  56                 	db	86	;'V'
   178   000605  37                 	db	55	;'7'
   179   000606  30                 	db	48	;'0'
   180   000607  30                 	db	48	;'0'
   181   000608  37                 	db	55	;'7'
   182   000609  47                 	db	71	;'G'
   183   00060A  43                 	db	67	;'C'
   184   00060B  36                 	db	54	;'6'
   185   00060C  55                 	db	85	;'U'
   186   00060D  20                 	db	32
   187   00060E  53                 	db	83	;'S'
   188   00060F  65                 	db	101	;'e'
   189   000610  6E                 	db	110	;'n'
   190   000611  73                 	db	115	;'s'
   191   000612  6F                 	db	111	;'o'
   192   000613  72                 	db	114	;'r'
   193   000614  20                 	db	32
   194   000615  3A                 	db	58	;':'
   195   000616  20                 	db	32
   196   000617  00                 	db	0
   197   000618                     STR_3:
   198   000618  09                 	db	9
   199   000619  6F                 	db	111	;'o'
   200   00061A  75                 	db	117	;'u'
   201   00061B  74                 	db	116	;'t'
   202   00061C  70                 	db	112	;'p'
   203   00061D  75                 	db	117	;'u'
   204   00061E  74                 	db	116	;'t'
   205   00061F  20                 	db	32
   206   000620  3A                 	db	58	;':'
   207   000621  20                 	db	32
   208   000622  00                 	db	0
   209   000623                     STR_1:
   210   000623  25                 	db	37
   211   000624  73                 	db	115	;'s'
   212   000625  25                 	db	37
   213   000626  64                 	db	100	;'d'
   214   000627  25                 	db	37
   215   000628  73                 	db	115	;'s'
   216   000629  25                 	db	37
   217   00062A  66                 	db	102	;'f'
   218   00062B  25                 	db	37
   219   00062C  73                 	db	115	;'s'
   220   00062D  00                 	db	0
   221   00062E                     STR_5:
   222   00062E  69                 	db	105	;'i'
   223   00062F  6E                 	db	110	;'n'
   224   000630  66                 	db	102	;'f'
   225   000631  00                 	db	0
   226   000632                     STR_8:
   227   000632  6E                 	db	110	;'n'
   228   000633  61                 	db	97	;'a'
   229   000634  6E                 	db	110	;'n'
   230   000635  00                 	db	0
   231   000636                     STR_11:
   232   000636  6C                 	db	108	;'l'
   233   000637  6C                 	db	108	;'l'
   234   000638  73                 	db	115	;'s'
   235   000639  00                 	db	0
   236   00063A                     STR_4:
   237   00063A  0D                 	db	13
   238   00063B  0A                 	db	10
   239   00063C  00                 	db	0
   240   00063D  00                 	db	0	; dummy byte at the end
   241   000000                     
   242                           ; #config settings
   243                           
   244                           	psect	cinit
   245   003268                     __pcinit:
   246                           	callstack 0
   247   003268                     start_initialization:
   248                           	callstack 0
   249   003268                     __initialization:
   250                           	callstack 0
   251                           
   252                           ; Initialize objects allocated to BANK0 (7 bytes)
   253                           ; load TBLPTR registers with __pidataBANK0
   254   003268  0E84               	movlw	low __pidataBANK0
   255   00326A  6EF6               	movwf	tblptrl,c
   256   00326C  0E35               	movlw	high __pidataBANK0
   257   00326E  6EF7               	movwf	tblptrh,c
   258   003270  0E00               	movlw	low (__pidataBANK0 shr (0+16))
   259   003272  6EF8               	movwf	tblptru,c
   260   003274  EE00  F0EA         	lfsr	0,__pdataBANK0
   261   003278  EE10 F007          	lfsr	1,7
   262   00327C                     copy_data0:
   263   00327C  0009               	tblrd		*+
   264   00327E  CFF5 FFEE          	movff	tablat,postinc0
   265   003282  50E5               	movf	postdec1,w,c
   266   003284  50E1               	movf	fsr1l,w,c
   267   003286  E1FA               	bnz	copy_data0
   268                           
   269                           ; Clear objects allocated to BANK1 (80 bytes)
   270   003288  EE01  F000         	lfsr	0,__pbssBANK1
   271   00328C  0E50               	movlw	80
   272   00328E                     clear_0:
   273   00328E  6AEE               	clrf	postinc0,c
   274   003290  06E8               	decf	wreg,f,c
   275   003292  E1FD               	bnz	clear_0
   276                           
   277                           ; Clear objects allocated to BANK0 (60 bytes)
   278   003294  EE00  F0A2         	lfsr	0,__pbssBANK0
   279   003298  0E3C               	movlw	60
   280   00329A                     clear_1:
   281   00329A  6AEE               	clrf	postinc0,c
   282   00329C  06E8               	decf	wreg,f,c
   283   00329E  E1FD               	bnz	clear_1
   284                           
   285                           ; Clear objects allocated to COMRAM (6 bytes)
   286   0032A0  6A5E               	clrf	(__pbssCOMRAM+5)& (0+255),c
   287   0032A2  6A5D               	clrf	(__pbssCOMRAM+4)& (0+255),c
   288   0032A4  6A5C               	clrf	(__pbssCOMRAM+3)& (0+255),c
   289   0032A6  6A5B               	clrf	(__pbssCOMRAM+2)& (0+255),c
   290   0032A8  6A5A               	clrf	(__pbssCOMRAM+1)& (0+255),c
   291   0032AA  6A59               	clrf	__pbssCOMRAM& (0+255),c
   292   0032AC                     end_of_initialization:
   293                           	callstack 0
   294   0032AC                     __end_of__initialization:
   295                           	callstack 0
   296   0032AC  0E00               	movlw	low (__Lmediumconst shr (0+16))
   297   0032AE  6EF8               	movwf	tblptru,c
   298   0032B0  0100               	movlb	0
   299   0032B2  EF7C  F015         	goto	_main	;jump to C main() function
   300                           
   301                           	psect	bssCOMRAM
   302   000059                     __pbssCOMRAM:
   303                           	callstack 0
   304   000059                     _width:
   305                           	callstack 0
   306   000059                     	ds	2
   307   00005B                     _prec:
   308                           	callstack 0
   309   00005B                     	ds	2
   310   00005D                     _flags:
   311                           	callstack 0
   312   00005D                     	ds	1
   313   00005E                     _eusartRxLastError:
   314                           	callstack 0
   315   00005E                     	ds	1
   316                           
   317                           	psect	bssBANK0
   318   0000A2                     __pbssBANK0:
   319                           	callstack 0
   320   0000A2                     floorf@F526:
   321                           	callstack 0
   322   0000A2                     	ds	4
   323   0000A6                     ___fpclassifyf@F465:
   324                           	callstack 0
   325   0000A6                     	ds	4
   326   0000AA                     _ADC_InterruptHandler:
   327                           	callstack 0
   328   0000AA                     	ds	2
   329   0000AC                     _xvalueASCII:
   330                           	callstack 0
   331   0000AC                     	ds	50
   332                           
   333                           	psect	dataBANK0
   334   0000EA                     __pdataBANK0:
   335                           	callstack 0
   336   0000EA                     stoa@F1179:
   337                           	callstack 0
   338   0000EA                     	ds	7
   339                           
   340                           	psect	bssBANK1
   341   000100                     __pbssBANK1:
   342                           	callstack 0
   343   000100                     _dbuf:
   344                           	callstack 0
   345   000100                     	ds	80
   346                           
   347                           	psect	cstackBANK0
   348   000060                     __pcstackBANK0:
   349                           	callstack 0
   350   000060                     efgtoa@ne:
   351                           	callstack 0
   352                           
   353                           ; 2 bytes @ 0x0
   354   000060                     	ds	2
   355   000062                     efgtoa@p:
   356                           	callstack 0
   357                           
   358                           ; 2 bytes @ 0x2
   359   000062                     	ds	2
   360   000064                     efgtoa@t:
   361                           	callstack 0
   362                           
   363                           ; 2 bytes @ 0x4
   364   000064                     	ds	2
   365   000066                     _efgtoa$1128:
   366                           	callstack 0
   367                           
   368                           ; 2 bytes @ 0x6
   369   000066                     	ds	2
   370   000068                     efgtoa@pp:
   371                           	callstack 0
   372                           
   373                           ; 1 bytes @ 0x8
   374   000068                     	ds	1
   375   000069                     efgtoa@mode:
   376                           	callstack 0
   377                           
   378                           ; 1 bytes @ 0x9
   379   000069                     	ds	1
   380   00006A                     efgtoa@nmode:
   381                           	callstack 0
   382                           
   383                           ; 1 bytes @ 0xA
   384   00006A                     	ds	1
   385   00006B                     efgtoa@d:
   386                           	callstack 0
   387                           
   388                           ; 2 bytes @ 0xB
   389   00006B                     	ds	2
   390   00006D                     efgtoa@m:
   391                           	callstack 0
   392                           
   393                           ; 2 bytes @ 0xD
   394   00006D                     	ds	2
   395   00006F                     efgtoa@e:
   396                           	callstack 0
   397                           
   398                           ; 2 bytes @ 0xF
   399   00006F                     	ds	2
   400   000071                     efgtoa@w:
   401                           	callstack 0
   402                           
   403                           ; 2 bytes @ 0x11
   404   000071                     	ds	2
   405   000073                     efgtoa@ou:
   406                           	callstack 0
   407                           
   408                           ; 4 bytes @ 0x13
   409   000073                     	ds	4
   410   000077                     efgtoa@i:
   411                           	callstack 0
   412                           
   413                           ; 2 bytes @ 0x17
   414   000077                     	ds	2
   415   000079                     efgtoa@h:
   416                           	callstack 0
   417                           
   418                           ; 4 bytes @ 0x19
   419   000079                     	ds	4
   420   00007D                     efgtoa@l:
   421                           	callstack 0
   422                           
   423                           ; 4 bytes @ 0x1D
   424   00007D                     	ds	4
   425   000081                     efgtoa@sign:
   426                           	callstack 0
   427                           
   428                           ; 1 bytes @ 0x21
   429   000081                     	ds	1
   430   000082                     efgtoa@n:
   431                           	callstack 0
   432                           
   433                           ; 2 bytes @ 0x22
   434   000082                     	ds	2
   435   000084                     efgtoa@g:
   436                           	callstack 0
   437                           
   438                           ; 4 bytes @ 0x24
   439   000084                     	ds	4
   440   000088                     efgtoa@u:
   441                           	callstack 0
   442                           
   443                           ; 4 bytes @ 0x28
   444   000088                     	ds	4
   445   00008C                     ?_vfprintf:
   446                           	callstack 0
   447   00008C                     vfprintf@fp:
   448                           	callstack 0
   449                           
   450                           ; 2 bytes @ 0x2C
   451   00008C                     	ds	2
   452   00008E                     vfprintf@fmt:
   453                           	callstack 0
   454                           
   455                           ; 2 bytes @ 0x2E
   456   00008E                     	ds	2
   457   000090                     vfprintf@ap:
   458                           	callstack 0
   459                           
   460                           ; 2 bytes @ 0x30
   461   000090                     	ds	2
   462   000092                     ?_sprintf:
   463                           	callstack 0
   464   000092                     sprintf@s:
   465                           	callstack 0
   466                           
   467                           ; 2 bytes @ 0x32
   468   000092                     	ds	2
   469   000094                     sprintf@fmt:
   470                           	callstack 0
   471                           
   472                           ; 2 bytes @ 0x34
   473   000094                     	ds	14
   474                           
   475                           	psect	cstackCOMRAM
   476   000001                     __pcstackCOMRAM:
   477                           	callstack 0
   478   000001                     ?___fpclassifyf:
   479                           	callstack 0
   480   000001                     ?_strlen:
   481                           	callstack 0
   482   000001                     ?_strncmp:
   483                           	callstack 0
   484   000001                     ?_ADC_GetConversion:
   485                           	callstack 0
   486   000001                     ?___awdiv:
   487                           	callstack 0
   488   000001                     ?___awmod:
   489                           	callstack 0
   490   000001                     ?___fladd:
   491                           	callstack 0
   492   000001                     ?___fldiv:
   493                           	callstack 0
   494   000001                     ?___flmul:
   495                           	callstack 0
   496   000001                     ?_labs:
   497                           	callstack 0
   498   000001                     ?___lmul:
   499                           	callstack 0
   500   000001                     ?___flneg:
   501                           	callstack 0
   502   000001                     ?___fltol:
   503                           	callstack 0
   504   000001                     EUSART_Write@txData:
   505                           	callstack 0
   506   000001                     EUSART_SetFramingErrorHandler@interruptHandler:
   507                           	callstack 0
   508   000001                     EUSART_SetOverrunErrorHandler@interruptHandler:
   509                           	callstack 0
   510   000001                     EUSART_SetErrorHandler@interruptHandler:
   511                           	callstack 0
   512   000001                     ___awdiv@dividend:
   513                           	callstack 0
   514   000001                     ___awmod@dividend:
   515                           	callstack 0
   516   000001                     memcpy@d1:
   517                           	callstack 0
   518   000001                     fputc@c:
   519                           	callstack 0
   520   000001                     strcpy@dest:
   521                           	callstack 0
   522   000001                     strlen@s:
   523                           	callstack 0
   524   000001                     strncmp@_l:
   525                           	callstack 0
   526   000001                     ___lmul@multiplier:
   527                           	callstack 0
   528   000001                     ___fleq@ff1:
   529                           	callstack 0
   530   000001                     ___flneg@f1:
   531                           	callstack 0
   532   000001                     ___fltol@f1:
   533                           	callstack 0
   534   000001                     ___fladd@b:
   535                           	callstack 0
   536   000001                     ___fldiv@b:
   537                           	callstack 0
   538   000001                     ___flmul@b:
   539                           	callstack 0
   540   000001                     ___fpclassifyf@x:
   541                           	callstack 0
   542   000001                     labs@a:
   543                           	callstack 0
   544                           
   545                           ; 4 bytes @ 0x0
   546   000001                     	ds	1
   547   000002                     SendUsartString@str:
   548                           	callstack 0
   549                           
   550                           ; 2 bytes @ 0x1
   551   000002                     	ds	1
   552   000003                     ??_ADC_GetConversion:
   553   000003                     ___awdiv@divisor:
   554                           	callstack 0
   555   000003                     ___awmod@divisor:
   556                           	callstack 0
   557   000003                     memcpy@s1:
   558                           	callstack 0
   559   000003                     fputc@fp:
   560                           	callstack 0
   561   000003                     strcpy@src:
   562                           	callstack 0
   563   000003                     strlen@a:
   564                           	callstack 0
   565   000003                     strncmp@_r:
   566                           	callstack 0
   567                           
   568                           ; 2 bytes @ 0x2
   569   000003                     	ds	1
   570   000004                     
   571                           ; 1 bytes @ 0x3
   572   000004                     	ds	1
   573   000005                     ??_fputc:
   574   000005                     ??___fpclassifyf:
   575   000005                     ??_labs:
   576   000005                     ??___fltol:
   577   000005                     ADC_GetConversion@channel:
   578                           	callstack 0
   579   000005                     ___awdiv@counter:
   580                           	callstack 0
   581   000005                     ___awmod@counter:
   582                           	callstack 0
   583   000005                     memcpy@n:
   584                           	callstack 0
   585   000005                     strcpy@s:
   586                           	callstack 0
   587   000005                     strncmp@n:
   588                           	callstack 0
   589   000005                     ___lmul@multiplicand:
   590                           	callstack 0
   591   000005                     ___fleq@ff2:
   592                           	callstack 0
   593   000005                     ___fladd@a:
   594                           	callstack 0
   595   000005                     ___fldiv@a:
   596                           	callstack 0
   597   000005                     ___flmul@a:
   598                           	callstack 0
   599                           
   600                           ; 4 bytes @ 0x4
   601   000005                     	ds	1
   602   000006                     ___awdiv@sign:
   603                           	callstack 0
   604   000006                     ___awmod@sign:
   605                           	callstack 0
   606                           
   607                           ; 1 bytes @ 0x5
   608   000006                     	ds	1
   609   000007                     ??_strncmp:
   610   000007                     ?_abs:
   611                           	callstack 0
   612   000007                     ___awdiv@quotient:
   613                           	callstack 0
   614   000007                     abs@a:
   615                           	callstack 0
   616   000007                     memcpy@d:
   617                           	callstack 0
   618   000007                     strcpy@d:
   619                           	callstack 0
   620                           
   621                           ; 2 bytes @ 0x6
   622   000007                     	ds	1
   623   000008                     strncmp@l:
   624                           	callstack 0
   625                           
   626                           ; 2 bytes @ 0x7
   627   000008                     	ds	1
   628   000009                     ??___fladd:
   629   000009                     ??___fldiv:
   630   000009                     ??___flmul:
   631   000009                     ??_abs:
   632   000009                     ??___fleq:
   633   000009                     ___fltol@sign1:
   634                           	callstack 0
   635   000009                     ___fpclassifyf@e:
   636                           	callstack 0
   637   000009                     memcpy@s:
   638                           	callstack 0
   639   000009                     ___lmul@product:
   640                           	callstack 0
   641                           
   642                           ; 4 bytes @ 0x8
   643   000009                     	ds	1
   644   00000A                     ___fltol@exp1:
   645                           	callstack 0
   646   00000A                     stoa@fp:
   647                           	callstack 0
   648   00000A                     fputs@s:
   649                           	callstack 0
   650   00000A                     strncmp@r:
   651                           	callstack 0
   652                           
   653                           ; 2 bytes @ 0x9
   654   00000A                     	ds	1
   655   00000B                     memcpy@tmp:
   656                           	callstack 0
   657   00000B                     ___fpclassifyf@u:
   658                           	callstack 0
   659                           
   660                           ; 4 bytes @ 0xA
   661   00000B                     	ds	1
   662   00000C                     stoa@s:
   663                           	callstack 0
   664   00000C                     fputs@fp:
   665                           	callstack 0
   666                           
   667                           ; 2 bytes @ 0xB
   668   00000C                     	ds	1
   669   00000D                     ?___aldiv:
   670                           	callstack 0
   671   00000D                     ___fladd@signs:
   672                           	callstack 0
   673   00000D                     ___flmul@sign:
   674                           	callstack 0
   675   00000D                     ___aldiv@dividend:
   676                           	callstack 0
   677   00000D                     ___fldiv@rem:
   678                           	callstack 0
   679                           
   680                           ; 4 bytes @ 0xC
   681   00000D                     	ds	1
   682   00000E                     ??_stoa:
   683   00000E                     ___fladd@aexp:
   684                           	callstack 0
   685   00000E                     fputs@c:
   686                           	callstack 0
   687   00000E                     ___flmul@grs:
   688                           	callstack 0
   689                           
   690                           ; 4 bytes @ 0xD
   691   00000E                     	ds	1
   692   00000F                     ___fladd@bexp:
   693                           	callstack 0
   694   00000F                     fputs@i:
   695                           	callstack 0
   696   00000F                     stoa@nuls:
   697                           	callstack 0
   698                           
   699                           ; 7 bytes @ 0xE
   700   00000F                     	ds	1
   701   000010                     ___fladd@grs:
   702                           	callstack 0
   703                           
   704                           ; 1 bytes @ 0xF
   705   000010                     	ds	1
   706   000011                     ___fldiv@sign:
   707                           	callstack 0
   708   000011                     pad@fp:
   709                           	callstack 0
   710   000011                     ___aldiv@divisor:
   711                           	callstack 0
   712                           
   713                           ; 4 bytes @ 0x10
   714   000011                     	ds	1
   715   000012                     ___flmul@aexp:
   716                           	callstack 0
   717   000012                     ___fldiv@new_exp:
   718                           	callstack 0
   719                           
   720                           ; 2 bytes @ 0x11
   721   000012                     	ds	1
   722   000013                     ___flmul@bexp:
   723                           	callstack 0
   724   000013                     pad@buf:
   725                           	callstack 0
   726                           
   727                           ; 2 bytes @ 0x12
   728   000013                     	ds	1
   729   000014                     ___fldiv@grs:
   730                           	callstack 0
   731   000014                     ___flmul@prod:
   732                           	callstack 0
   733                           
   734                           ; 4 bytes @ 0x13
   735   000014                     	ds	1
   736   000015                     ___aldiv@counter:
   737                           	callstack 0
   738   000015                     pad@p:
   739                           	callstack 0
   740                           
   741                           ; 2 bytes @ 0x14
   742   000015                     	ds	1
   743   000016                     ___aldiv@sign:
   744                           	callstack 0
   745   000016                     stoa@w:
   746                           	callstack 0
   747                           
   748                           ; 2 bytes @ 0x15
   749   000016                     	ds	1
   750   000017                     ??_pad:
   751   000017                     ___aldiv@quotient:
   752                           	callstack 0
   753                           
   754                           ; 4 bytes @ 0x16
   755   000017                     	ds	1
   756   000018                     ___fldiv@bexp:
   757                           	callstack 0
   758   000018                     ___flmul@temp:
   759                           	callstack 0
   760   000018                     pad@i:
   761                           	callstack 0
   762   000018                     stoa@i:
   763                           	callstack 0
   764                           
   765                           ; 2 bytes @ 0x17
   766   000018                     	ds	1
   767   000019                     ___fldiv@aexp:
   768                           	callstack 0
   769                           
   770                           ; 1 bytes @ 0x18
   771   000019                     	ds	1
   772   00001A                     ?___flsub:
   773                           	callstack 0
   774   00001A                     ?_floorf:
   775                           	callstack 0
   776   00001A                     pad@w:
   777                           	callstack 0
   778   00001A                     stoa@cp:
   779                           	callstack 0
   780   00001A                     ___flge@ff1:
   781                           	callstack 0
   782   00001A                     ___flsub@b:
   783                           	callstack 0
   784   00001A                     floorf@x:
   785                           	callstack 0
   786                           
   787                           ; 4 bytes @ 0x19
   788   00001A                     	ds	1
   789   00001B                     ?_map:
   790                           	callstack 0
   791   00001B                     map@x:
   792                           	callstack 0
   793                           
   794                           ; 4 bytes @ 0x1A
   795   00001B                     	ds	1
   796   00001C                     dtoa@fp:
   797                           	callstack 0
   798   00001C                     stoa@l:
   799                           	callstack 0
   800                           
   801                           ; 2 bytes @ 0x1B
   802   00001C                     	ds	2
   803   00001E                     ??_floorf:
   804   00001E                     dtoa@d:
   805                           	callstack 0
   806   00001E                     stoa@p:
   807                           	callstack 0
   808   00001E                     ___flge@ff2:
   809                           	callstack 0
   810   00001E                     ___flsub@a:
   811                           	callstack 0
   812                           
   813                           ; 4 bytes @ 0x1D
   814   00001E                     	ds	1
   815   00001F                     map@in_min:
   816                           	callstack 0
   817                           
   818                           ; 4 bytes @ 0x1E
   819   00001F                     	ds	1
   820   000020                     _dtoa$1097:
   821                           	callstack 0
   822                           
   823                           ; 2 bytes @ 0x1F
   824   000020                     	ds	2
   825   000022                     ??___flge:
   826   000022                     dtoa@p:
   827                           	callstack 0
   828                           
   829                           ; 2 bytes @ 0x21
   830   000022                     	ds	1
   831   000023                     map@in_max:
   832                           	callstack 0
   833                           
   834                           ; 4 bytes @ 0x22
   835   000023                     	ds	1
   836   000024                     dtoa@w:
   837                           	callstack 0
   838   000024                     floorf@m:
   839                           	callstack 0
   840                           
   841                           ; 4 bytes @ 0x23
   842   000024                     	ds	2
   843   000026                     dtoa@i:
   844                           	callstack 0
   845                           
   846                           ; 2 bytes @ 0x25
   847   000026                     	ds	1
   848   000027                     map@out_min:
   849                           	callstack 0
   850                           
   851                           ; 4 bytes @ 0x26
   852   000027                     	ds	1
   853   000028                     dtoa@s:
   854                           	callstack 0
   855   000028                     floorf@e:
   856                           	callstack 0
   857                           
   858                           ; 2 bytes @ 0x27
   859   000028                     	ds	2
   860   00002A                     floorf@u:
   861                           	callstack 0
   862                           
   863                           ; 4 bytes @ 0x29
   864   00002A                     	ds	1
   865   00002B                     map@out_max:
   866                           	callstack 0
   867                           
   868                           ; 4 bytes @ 0x2A
   869   00002B                     	ds	3
   870   00002E                     efgtoa@fp:
   871                           	callstack 0
   872                           
   873                           ; 2 bytes @ 0x2D
   874   00002E                     	ds	1
   875   00002F                     ?___xxtofl:
   876                           	callstack 0
   877   00002F                     ___xxtofl@val:
   878                           	callstack 0
   879                           
   880                           ; 4 bytes @ 0x2E
   881   00002F                     	ds	1
   882   000030                     efgtoa@f:
   883                           	callstack 0
   884                           
   885                           ; 4 bytes @ 0x2F
   886   000030                     	ds	3
   887   000033                     ??___xxtofl:
   888                           
   889                           ; 1 bytes @ 0x32
   890   000033                     	ds	1
   891   000034                     efgtoa@c:
   892                           	callstack 0
   893                           
   894                           ; 1 bytes @ 0x33
   895   000034                     	ds	1
   896   000035                     ??_efgtoa:
   897                           
   898                           ; 1 bytes @ 0x34
   899   000035                     	ds	2
   900   000037                     ___xxtofl@sign:
   901                           	callstack 0
   902   000037                     vfpfcnvrt@fp:
   903                           	callstack 0
   904                           
   905                           ; 2 bytes @ 0x36
   906   000037                     	ds	1
   907   000038                     ___xxtofl@exp:
   908                           	callstack 0
   909                           
   910                           ; 1 bytes @ 0x37
   911   000038                     	ds	1
   912   000039                     vfpfcnvrt@fmt:
   913                           	callstack 0
   914   000039                     ___xxtofl@arg:
   915                           	callstack 0
   916                           
   917                           ; 4 bytes @ 0x38
   918   000039                     	ds	2
   919   00003B                     vfpfcnvrt@ap:
   920                           	callstack 0
   921                           
   922                           ; 2 bytes @ 0x3A
   923   00003B                     	ds	2
   924   00003D                     ??_vfpfcnvrt:
   925                           
   926                           ; 1 bytes @ 0x3C
   927   00003D                     	ds	2
   928   00003F                     _vfpfcnvrt$1161:
   929                           	callstack 0
   930                           
   931                           ; 2 bytes @ 0x3E
   932   00003F                     	ds	2
   933   000041                     vfpfcnvrt@convarg:
   934                           	callstack 0
   935                           
   936                           ; 4 bytes @ 0x40
   937   000041                     	ds	4
   938   000045                     vfpfcnvrt@c:
   939                           	callstack 0
   940                           
   941                           ; 1 bytes @ 0x44
   942   000045                     	ds	1
   943   000046                     vfpfcnvrt@cp:
   944                           	callstack 0
   945                           
   946                           ; 2 bytes @ 0x45
   947   000046                     	ds	2
   948   000048                     vfprintf@cfmt:
   949                           	callstack 0
   950                           
   951                           ; 2 bytes @ 0x47
   952   000048                     	ds	2
   953   00004A                     sprintf@ap:
   954                           	callstack 0
   955                           
   956                           ; 2 bytes @ 0x49
   957   00004A                     	ds	2
   958   00004C                     sprintf@f:
   959                           	callstack 0
   960                           
   961                           ; 12 bytes @ 0x4B
   962   00004C                     	ds	12
   963   000058                     ??_main:
   964                           
   965                           ; 1 bytes @ 0x57
   966   000058                     	ds	1
   967                           
   968 ;;
   969 ;;Main: autosize = 0, tempsize = 1, incstack = 0, save=0
   970 ;;
   971 ;; *************** function _main *****************
   972 ;; Defined at:
   973 ;;		line 22 in file "main.c"
   974 ;; Parameters:    Size  Location     Type
   975 ;;		None
   976 ;; Auto vars:     Size  Location     Type
   977 ;;		None
   978 ;; Return value:  Size  Location     Type
   979 ;;                  1    wreg      void 
   980 ;; Registers used:
   981 ;;		wreg, fsr1l, fsr1h, fsr2l, fsr2h, status,2, status,0, tblptrl, tblptrh, tblptru, prodl, prodh, cstack
   982 ;; Tracked objects:
   983 ;;		On entry : 0/0
   984 ;;		On exit  : 0/0
   985 ;;		Unchanged: 0/0
   986 ;; Data sizes:     COMRAM   BANK0   BANK1   BANK2   BANK3   BANK4   BANK5
   987 ;;      Params:         0       0       0       0       0       0       0
   988 ;;      Locals:         0       0       0       0       0       0       0
   989 ;;      Temps:          1       0       0       0       0       0       0
   990 ;;      Totals:         1       0       0       0       0       0       0
   991 ;;Total ram usage:        1 bytes
   992 ;; Hardware stack levels required when called: 8
   993 ;; This function calls:
   994 ;;		_ADC_GetConversion
   995 ;;		_SYSTEM_Initialize
   996 ;;		_SendUsartString
   997 ;;		___xxtofl
   998 ;;		_map
   999 ;;		_sprintf
  1000 ;; This function is called by:
  1001 ;;		Startup code after reset
  1002 ;; This function uses a non-reentrant model
  1003 ;;
  1004                           
  1005                           	psect	text0
  1006   002AF8                     __ptext0:
  1007                           	callstack 0
  1008   002AF8                     _main:
  1009                           	callstack 23
  1010   002AF8                     
  1011                           ;main.c: 25:     SYSTEM_Initialize();
  1012   002AF8  ECA5  F01A         	call	_SYSTEM_Initialize	;wreg free
  1013   002AFC                     l207:
  1014                           
  1015                           ;main.c: 28:     {;main.c: 29:         sensorValue = ADC_GetConversion(0);
  1016   002AFC  0E00               	movlw	0
  1017   002AFE  EC26  F01A         	call	_ADC_GetConversion
  1018   002B02  C001  F0E2         	movff	?_ADC_GetConversion,_sensorValue
  1019   002B06  C002  F0E3         	movff	?_ADC_GetConversion+1,_sensorValue+1
  1020                           
  1021                           ;main.c: 30:         outputValue = map(sensorValue, 0, 1023, -7000, 7000);
  1022   002B0A  0E58               	movlw	88
  1023   002B0C  6E2B               	movwf	map@out_max^0,c
  1024   002B0E  0E1B               	movlw	27
  1025   002B10  6E2C               	movwf	(map@out_max+1)^0,c
  1026   002B12  0E00               	movlw	0
  1027   002B14  6E2D               	movwf	(map@out_max+2)^0,c
  1028   002B16  0E00               	movlw	0
  1029   002B18  6E2E               	movwf	(map@out_max+3)^0,c
  1030   002B1A  0EA8               	movlw	168
  1031   002B1C  6E27               	movwf	map@out_min^0,c
  1032   002B1E  0EE4               	movlw	228
  1033   002B20  6E28               	movwf	(map@out_min+1)^0,c
  1034   002B22  0EFF               	movlw	255
  1035   002B24  6E29               	movwf	(map@out_min+2)^0,c
  1036   002B26  0EFF               	movlw	255
  1037   002B28  6E2A               	movwf	(map@out_min+3)^0,c
  1038   002B2A  0EFF               	movlw	255
  1039   002B2C  6E23               	movwf	map@in_max^0,c
  1040   002B2E  0E03               	movlw	3
  1041   002B30  6E24               	movwf	(map@in_max+1)^0,c
  1042   002B32  0E00               	movlw	0
  1043   002B34  6E25               	movwf	(map@in_max+2)^0,c
  1044   002B36  0E00               	movlw	0
  1045   002B38  6E26               	movwf	(map@in_max+3)^0,c
  1046   002B3A  0E00               	movlw	0
  1047   002B3C  6E1F               	movwf	map@in_min^0,c
  1048   002B3E  0E00               	movlw	0
  1049   002B40  6E20               	movwf	(map@in_min+1)^0,c
  1050   002B42  0E00               	movlw	0
  1051   002B44  6E21               	movwf	(map@in_min+2)^0,c
  1052   002B46  0E00               	movlw	0
  1053   002B48  6E22               	movwf	(map@in_min+3)^0,c
  1054   002B4A  C0E2  F01B         	movff	_sensorValue,map@x
  1055   002B4E  C0E3  F01C         	movff	_sensorValue+1,map@x+1
  1056   002B52  0E00               	movlw	0
  1057   002B54  BE1C               	btfsc	(map@x+1)^0,7,c
  1058   002B56  0EFF               	movlw	-1
  1059   002B58  6E1D               	movwf	(map@x+2)^0,c
  1060   002B5A  6E1E               	movwf	(map@x+3)^0,c
  1061   002B5C  EC17  F018         	call	_map	;wreg free
  1062   002B60  C01B  F02F         	movff	?_map,___xxtofl@val
  1063   002B64  C01C  F030         	movff	?_map+1,___xxtofl@val+1
  1064   002B68  C01D  F031         	movff	?_map+2,___xxtofl@val+2
  1065   002B6C  C01E  F032         	movff	?_map+3,___xxtofl@val+3
  1066   002B70  0E01               	movlw	1
  1067   002B72  EC31  F011         	call	___xxtofl
  1068   002B76  C02F  F0DE         	movff	?___xxtofl,_outputValue
  1069   002B7A  C030  F0DF         	movff	?___xxtofl+1,_outputValue+1
  1070   002B7E  C031  F0E0         	movff	?___xxtofl+2,_outputValue+2
  1071   002B82  C032  F0E1         	movff	?___xxtofl+3,_outputValue+3
  1072   002B86                     
  1073                           ;main.c: 31:         sprintf(xvalueASCII, "%s%d%s%f%s", "MPXV7007GC6U Sensor : ", sensor
      +                          Value, "\toutput : ",outputValue,"\r\n");
  1074   002B86  0EAC               	movlw	low _xvalueASCII
  1075   002B88  0100               	movlb	0	; () banked
  1076   002B8A  6F92               	movwf	sprintf@s& (0+255),b
  1077   002B8C  0E00               	movlw	high _xvalueASCII
  1078   002B8E  6F93               	movwf	(sprintf@s+1)& (0+255),b
  1079   002B90  0E23               	movlw	low STR_1
  1080   002B92  6F94               	movwf	sprintf@fmt& (0+255),b
  1081   002B94  0E06               	movlw	high STR_1
  1082   002B96  6F95               	movwf	(sprintf@fmt+1)& (0+255),b
  1083   002B98  0E01               	movlw	low STR_2
  1084   002B9A  6F96               	movwf	(?_sprintf+4)& (0+255),b
  1085   002B9C  0E06               	movlw	high STR_2
  1086   002B9E  6F97               	movwf	(?_sprintf+5)& (0+255),b
  1087   002BA0  C0E2  F098         	movff	_sensorValue,?_sprintf+6
  1088   002BA4  C0E3  F099         	movff	_sensorValue+1,?_sprintf+7
  1089   002BA8  0E18               	movlw	low STR_3
  1090   002BAA  6F9A               	movwf	(?_sprintf+8)& (0+255),b
  1091   002BAC  0E06               	movlw	high STR_3
  1092   002BAE  6F9B               	movwf	(?_sprintf+9)& (0+255),b
  1093   002BB0  C0DE  F09C         	movff	_outputValue,?_sprintf+10
  1094   002BB4  C0DF  F09D         	movff	_outputValue+1,?_sprintf+11
  1095   002BB8  C0E0  F09E         	movff	_outputValue+2,?_sprintf+12
  1096   002BBC  C0E1  F09F         	movff	_outputValue+3,?_sprintf+13
  1097   002BC0  0E3A               	movlw	low STR_4
  1098   002BC2  6FA0               	movwf	(?_sprintf+14)& (0+255),b
  1099   002BC4  0E06               	movlw	high STR_4
  1100   002BC6  6FA1               	movwf	(?_sprintf+15)& (0+255),b
  1101   002BC8  ECBC  F018         	call	_sprintf	;wreg free
  1102   002BCC                     
  1103                           ;main.c: 32:         SendUsartString(xvalueASCII);
  1104   002BCC  0EAC               	movlw	low _xvalueASCII
  1105   002BCE  6E02               	movwf	SendUsartString@str^0,c
  1106   002BD0  0E00               	movlw	high _xvalueASCII
  1107   002BD2  6E03               	movwf	(SendUsartString@str+1)^0,c
  1108   002BD4  EC5F  F01A         	call	_SendUsartString	;wreg free
  1109   002BD8                     
  1110                           ;main.c: 33:         _delay((unsigned long)((20)*(20000000/4000.0)));
  1111   002BD8  0E82               	movlw	130
  1112   002BDA  6E58               	movwf	??_main^0,c
  1113   002BDC  0EDE               	movlw	222
  1114   002BDE                     u4497:
  1115   002BDE  2EE8               	decfsz	wreg,f,c
  1116   002BE0  D7FE               	bra	u4497
  1117   002BE2  2E58               	decfsz	??_main^0,f,c
  1118   002BE4  D7FC               	bra	u4497
  1119   002BE6  EF7E  F015         	goto	l207
  1120   002BEA  EF01  F000         	goto	start
  1121   002BEE                     __end_of_main:
  1122                           	callstack 0
  1123                           
  1124 ;; *************** function _sprintf *****************
  1125 ;; Defined at:
  1126 ;;		line 9 in file "C:\Program Files\Microchip\xc8\v2.41\pic\sources\c99\common\nf_sprintf.c"
  1127 ;; Parameters:    Size  Location     Type
  1128 ;;  s               2   50[BANK0 ] PTR unsigned char 
  1129 ;;		 -> xvalueASCII(50), 
  1130 ;;  fmt             2   52[BANK0 ] PTR const unsigned char 
  1131 ;;		 -> STR_1(11), 
  1132 ;; Auto vars:     Size  Location     Type
  1133 ;;  f              12   75[COMRAM] struct _IO_FILE
  1134 ;;  ap              2   73[COMRAM] PTR void [1]
  1135 ;;		 -> ?_sprintf(2), 
  1136 ;;  ret             2    0        int 
  1137 ;; Return value:  Size  Location     Type
  1138 ;;                  2   50[BANK0 ] int 
  1139 ;; Registers used:
  1140 ;;		wreg, fsr1l, fsr1h, fsr2l, fsr2h, status,2, status,0, tblptrl, tblptrh, tblptru, prodl, prodh, cstack
  1141 ;; Tracked objects:
  1142 ;;		On entry : 0/0
  1143 ;;		On exit  : 0/0
  1144 ;;		Unchanged: 0/0
  1145 ;; Data sizes:     COMRAM   BANK0   BANK1   BANK2   BANK3   BANK4   BANK5
  1146 ;;      Params:         0      16       0       0       0       0       0
  1147 ;;      Locals:        14       0       0       0       0       0       0
  1148 ;;      Temps:          0       0       0       0       0       0       0
  1149 ;;      Totals:        14      16       0       0       0       0       0
  1150 ;;Total ram usage:       30 bytes
  1151 ;; Hardware stack levels used: 1
  1152 ;; Hardware stack levels required when called: 7
  1153 ;; This function calls:
  1154 ;;		_vfprintf
  1155 ;; This function is called by:
  1156 ;;		_main
  1157 ;; This function uses a non-reentrant model
  1158 ;;
  1159                           
  1160                           	psect	text1
  1161   003178                     __ptext1:
  1162                           	callstack 0
  1163   003178                     _sprintf:
  1164                           	callstack 23
  1165   003178  0E96               	movlw	low (?_sprintf+4)
  1166   00317A  6E4A               	movwf	sprintf@ap^0,c
  1167   00317C  0E00               	movlw	high (?_sprintf+4)
  1168   00317E  6E4B               	movwf	(sprintf@ap+1)^0,c
  1169   003180  C092  F04C         	movff	sprintf@s,sprintf@f
  1170   003184  C093  F04D         	movff	sprintf@s+1,sprintf@f+1
  1171   003188  0E00               	movlw	0
  1172   00318A  6E50               	movwf	(sprintf@f+4)^0,c
  1173   00318C  0E00               	movlw	0
  1174   00318E  6E4F               	movwf	(sprintf@f+3)^0,c
  1175   003190  0E00               	movlw	0
  1176   003192  6E57               	movwf	(sprintf@f+11)^0,c
  1177   003194  0E00               	movlw	0
  1178   003196  6E56               	movwf	(sprintf@f+10)^0,c
  1179   003198  0E4C               	movlw	low sprintf@f
  1180   00319A  0100               	movlb	0	; () banked
  1181   00319C  6F8C               	movwf	vfprintf@fp& (0+255),b
  1182   00319E  0E00               	movlw	high sprintf@f
  1183   0031A0  6F8D               	movwf	(vfprintf@fp+1)& (0+255),b
  1184   0031A2  C094  F08E         	movff	sprintf@fmt,vfprintf@fmt
  1185   0031A6  C095  F08F         	movff	sprintf@fmt+1,vfprintf@fmt+1
  1186   0031AA  0E4A               	movlw	low sprintf@ap
  1187   0031AC  6F90               	movwf	vfprintf@ap& (0+255),b
  1188   0031AE  0E00               	movlw	high sprintf@ap
  1189   0031B0  6F91               	movwf	(vfprintf@ap+1)& (0+255),b
  1190   0031B2  ECE4  F018         	call	_vfprintf	;wreg free
  1191   0031B6  504F               	movf	(sprintf@f+3)^0,w,c
  1192   0031B8  0100               	movlb	0	; () banked
  1193   0031BA  2592               	addwf	sprintf@s& (0+255),w,b
  1194   0031BC  6ED9               	movwf	fsr2l,c
  1195   0031BE  5050               	movf	(sprintf@f+4)^0,w,c
  1196   0031C0  2193               	addwfc	(sprintf@s+1)& (0+255),w,b
  1197   0031C2  6EDA               	movwf	fsr2h,c
  1198   0031C4  6ADF               	clrf	indf2,c
  1199   0031C6                     
  1200                           ; BSR set to: 0
  1201   0031C6  0012               	return		;funcret
  1202   0031C8                     __end_of_sprintf:
  1203                           	callstack 0
  1204                           
  1205 ;; *************** function _vfprintf *****************
  1206 ;; Defined at:
  1207 ;;		line 1546 in file "C:\Program Files\Microchip\xc8\v2.41\pic\sources\c99\common\doprnt.c"
  1208 ;; Parameters:    Size  Location     Type
  1209 ;;  fp              2   44[BANK0 ] PTR struct _IO_FILE
  1210 ;;		 -> sprintf@f(12), 
  1211 ;;  fmt             2   46[BANK0 ] PTR const unsigned char 
  1212 ;;		 -> STR_1(11), 
  1213 ;;  ap              2   48[BANK0 ] PTR PTR void 
  1214 ;;		 -> sprintf@ap(2), 
  1215 ;; Auto vars:     Size  Location     Type
  1216 ;;  cfmt            2   71[COMRAM] PTR unsigned char 
  1217 ;;		 -> STR_1(11), 
  1218 ;; Return value:  Size  Location     Type
  1219 ;;                  2   44[BANK0 ] int 
  1220 ;; Registers used:
  1221 ;;		wreg, fsr1l, fsr1h, fsr2l, fsr2h, status,2, status,0, tblptrl, tblptrh, tblptru, prodl, prodh, cstack
  1222 ;; Tracked objects:
  1223 ;;		On entry : 0/0
  1224 ;;		On exit  : 0/0
  1225 ;;		Unchanged: 0/0
  1226 ;; Data sizes:     COMRAM   BANK0   BANK1   BANK2   BANK3   BANK4   BANK5
  1227 ;;      Params:         0       6       0       0       0       0       0
  1228 ;;      Locals:         2       0       0       0       0       0       0
  1229 ;;      Temps:          0       0       0       0       0       0       0
  1230 ;;      Totals:         2       6       0       0       0       0       0
  1231 ;;Total ram usage:        8 bytes
  1232 ;; Hardware stack levels used: 1
  1233 ;; Hardware stack levels required when called: 6
  1234 ;; This function calls:
  1235 ;;		_vfpfcnvrt
  1236 ;; This function is called by:
  1237 ;;		_sprintf
  1238 ;; This function uses a non-reentrant model
  1239 ;;
  1240                           
  1241                           	psect	text2
  1242   0031C8                     __ptext2:
  1243                           	callstack 0
  1244   0031C8                     _vfprintf:
  1245                           	callstack 23
  1246   0031C8                     
  1247                           ;C:\Program Files\Microchip\xc8\v2.41\pic\sources\c99\common\doprnt.c: 1546: int vfprint
      +                          f(FILE *fp, const char *fmt, va_list ap);C:\Program Files\Microchip\xc8\v2.41\pic\source
      +                          s\c99\common\doprnt.c: 1547: {;C:\Program Files\Microchip\xc8\v2.41\pic\sources\c99\comm
      +                          on\doprnt.c: 1549:     char *cfmt;;C:\Program Files\Microchip\xc8\v2.41\pic\sources\c99\
      +                          common\doprnt.c: 1551:     cfmt = (char *)fmt;
  1248   0031C8  C08E  F048         	movff	vfprintf@fmt,vfprintf@cfmt
  1249   0031CC  C08F  F049         	movff	vfprintf@fmt+1,vfprintf@cfmt+1
  1250                           
  1251                           ;C:\Program Files\Microchip\xc8\v2.41\pic\sources\c99\common\doprnt.c: 1555:     while (
      +                          *cfmt) {
  1252   0031D0  EFF8  F018         	goto	l3949
  1253   0031D4                     l3947:
  1254                           
  1255                           ;C:\Program Files\Microchip\xc8\v2.41\pic\sources\c99\common\doprnt.c: 1559:    vfpfcnvr
      +                          t(fp, &cfmt, ap);
  1256   0031D4  C08C  F037         	movff	vfprintf@fp,vfpfcnvrt@fp
  1257   0031D8  C08D  F038         	movff	vfprintf@fp+1,vfpfcnvrt@fp+1
  1258   0031DC  0E48               	movlw	low vfprintf@cfmt
  1259   0031DE  6E39               	movwf	vfpfcnvrt@fmt^0,c
  1260   0031E0  0E00               	movlw	high vfprintf@cfmt
  1261   0031E2  6E3A               	movwf	(vfpfcnvrt@fmt+1)^0,c
  1262   0031E4  C090  F03B         	movff	vfprintf@ap,vfpfcnvrt@ap
  1263   0031E8  C091  F03C         	movff	vfprintf@ap+1,vfpfcnvrt@ap+1
  1264   0031EC  EC5E  F00E         	call	_vfpfcnvrt	;wreg free
  1265   0031F0                     l3949:
  1266                           
  1267                           ;C:\Program Files\Microchip\xc8\v2.41\pic\sources\c99\common\doprnt.c: 1555:     while (
      +                          *cfmt) {
  1268   0031F0  C048  FFF6         	movff	vfprintf@cfmt,tblptrl
  1269   0031F4  C049  FFF7         	movff	vfprintf@cfmt+1,tblptrh
  1270   0031F8                     	if	0	;tblptru may be non-zero
  1271   0031F8                     	endif
  1272   0031F8                     	if	0	;tblptru may be non-zero
  1273   0031F8                     	endif
  1274   0031F8  0008               	tblrd		*
  1275   0031FA  50F5               	movf	tablat,w,c
  1276   0031FC  0900               	iorlw	0
  1277   0031FE  A4D8               	btfss	status,2,c
  1278   003200  EF04  F019         	goto	u4361
  1279   003204  EF06  F019         	goto	u4360
  1280   003208                     u4361:
  1281   003208  EFEA  F018         	goto	l3947
  1282   00320C                     u4360:
  1283   00320C                     
  1284                           ;C:\Program Files\Microchip\xc8\v2.41\pic\sources\c99\common\doprnt.c: 1564:  return 0;
  1285   00320C  0E00               	movlw	0
  1286   00320E  0100               	movlb	0	; () banked
  1287   003210  6F8D               	movwf	(?_vfprintf+1)& (0+255),b
  1288   003212  0E00               	movlw	0
  1289   003214  6F8C               	movwf	?_vfprintf& (0+255),b
  1290   003216                     
  1291                           ; BSR set to: 0
  1292   003216  0012               	return		;funcret
  1293   003218                     __end_of_vfprintf:
  1294                           	callstack 0
  1295                           
  1296 ;; *************** function _vfpfcnvrt *****************
  1297 ;; Defined at:
  1298 ;;		line 1048 in file "C:\Program Files\Microchip\xc8\v2.41\pic\sources\c99\common\doprnt.c"
  1299 ;; Parameters:    Size  Location     Type
  1300 ;;  fp              2   54[COMRAM] PTR struct _IO_FILE
  1301 ;;		 -> sprintf@f(12), 
  1302 ;;  fmt             2   56[COMRAM] PTR PTR unsigned char 
  1303 ;;		 -> vfprintf@cfmt(2), 
  1304 ;;  ap              2   58[COMRAM] PTR PTR void 
  1305 ;;		 -> sprintf@ap(2), 
  1306 ;; Auto vars:     Size  Location     Type
  1307 ;;  convarg         4   64[COMRAM] struct .
  1308 ;;  cp              2   69[COMRAM] PTR unsigned char 
  1309 ;;		 -> STR_1(11), 
  1310 ;;  i               2    0        int 
  1311 ;;  done            2    0        int 
  1312 ;;  c               1   68[COMRAM] unsigned char 
  1313 ;; Return value:  Size  Location     Type
  1314 ;;                  1    wreg      void 
  1315 ;; Registers used:
  1316 ;;		wreg, fsr1l, fsr1h, fsr2l, fsr2h, status,2, status,0, tblptrl, tblptrh, tblptru, prodl, prodh, cstack
  1317 ;; Tracked objects:
  1318 ;;		On entry : 0/0
  1319 ;;		On exit  : 0/0
  1320 ;;		Unchanged: 0/0
  1321 ;; Data sizes:     COMRAM   BANK0   BANK1   BANK2   BANK3   BANK4   BANK5
  1322 ;;      Params:         6       0       0       0       0       0       0
  1323 ;;      Locals:         9       0       0       0       0       0       0
  1324 ;;      Temps:          2       0       0       0       0       0       0
  1325 ;;      Totals:        17       0       0       0       0       0       0
  1326 ;;Total ram usage:       17 bytes
  1327 ;; Hardware stack levels used: 1
  1328 ;; Hardware stack levels required when called: 5
  1329 ;; This function calls:
  1330 ;;		_dtoa
  1331 ;;		_efgtoa
  1332 ;;		_fputc
  1333 ;;		_stoa
  1334 ;;		_strncmp
  1335 ;; This function is called by:
  1336 ;;		_vfprintf
  1337 ;; This function uses a non-reentrant model
  1338 ;;
  1339                           
  1340                           	psect	text3
  1341   001CBC                     __ptext3:
  1342                           	callstack 0
  1343   001CBC                     _vfpfcnvrt:
  1344                           	callstack 23
  1345   001CBC                     
  1346                           ;C:\Program Files\Microchip\xc8\v2.41\pic\sources\c99\common\doprnt.c: 1048: vfpfcnvrt(F
      +                          ILE *fp, char *fmt[], va_list ap);C:\Program Files\Microchip\xc8\v2.41\pic\sources\c99\c
      +                          ommon\doprnt.c: 1049: {;C:\Program Files\Microchip\xc8\v2.41\pic\sources\c99\common\dopr
      +                          nt.c: 1050:     char c, *cp;;C:\Program Files\Microchip\xc8\v2.41\pic\sources\c99\common
      +                          \doprnt.c: 1051:     int done, i;;C:\Program Files\Microchip\xc8\v2.41\pic\sources\c99\c
      +                          ommon\doprnt.c: 1059:  } convarg;;C:\Program Files\Microchip\xc8\v2.41\pic\sources\c99\c
      +                          ommon\doprnt.c: 1062:     if ((*fmt)[0] == '%') {
  1347   001CBC  C039  FFD9         	movff	vfpfcnvrt@fmt,fsr2l
  1348   001CC0  C03A  FFDA         	movff	vfpfcnvrt@fmt+1,fsr2h
  1349   001CC4  CFDE FFF6          	movff	postinc2,tblptrl
  1350   001CC8  CFDD FFF7          	movff	postdec2,tblptrh
  1351   001CCC                     	if	0	;tblptru may be non-zero
  1352   001CCC                     	endif
  1353   001CCC                     	if	0	;tblptru may be non-zero
  1354   001CCC                     	endif
  1355   001CCC  0008               	tblrd		*
  1356   001CCE  50F5               	movf	tablat,w,c
  1357   001CD0  0A25               	xorlw	37
  1358   001CD2  A4D8               	btfss	status,2,c
  1359   001CD4  EF6E  F00E         	goto	u4201
  1360   001CD8  EF70  F00E         	goto	u4200
  1361   001CDC                     u4201:
  1362   001CDC  EF13  F010         	goto	l3843
  1363   001CE0                     u4200:
  1364   001CE0                     
  1365                           ;C:\Program Files\Microchip\xc8\v2.41\pic\sources\c99\common\doprnt.c: 1063:         ++*
      +                          fmt;
  1366   001CE0  C039  FFD9         	movff	vfpfcnvrt@fmt,fsr2l
  1367   001CE4  C03A  FFDA         	movff	vfpfcnvrt@fmt+1,fsr2h
  1368   001CE8  2ADE               	incf	postinc2,f,c
  1369   001CEA  0E00               	movlw	0
  1370   001CEC  22DD               	addwfc	postdec2,f,c
  1371   001CEE                     
  1372                           ;C:\Program Files\Microchip\xc8\v2.41\pic\sources\c99\common\doprnt.c: 1065:         fla
      +                          gs = width = 0;
  1373   001CEE  0E00               	movlw	0
  1374   001CF0  6E5A               	movwf	(_width+1)^0,c
  1375   001CF2  0E00               	movlw	0
  1376   001CF4  6E59               	movwf	_width^0,c
  1377   001CF6  C059  F05D         	movff	_width,_flags
  1378   001CFA                     
  1379                           ;C:\Program Files\Microchip\xc8\v2.41\pic\sources\c99\common\doprnt.c: 1066:         pre
      +                          c = -1;
  1380   001CFA  685B               	setf	_prec^0,c
  1381   001CFC  685C               	setf	(_prec+1)^0,c
  1382   001CFE                     
  1383                           ;C:\Program Files\Microchip\xc8\v2.41\pic\sources\c99\common\doprnt.c: 1143:   cp = *fmt
      +                          ;
  1384   001CFE  C039  FFD9         	movff	vfpfcnvrt@fmt,fsr2l
  1385   001D02  C03A  FFDA         	movff	vfpfcnvrt@fmt+1,fsr2h
  1386   001D06  CFDE F046          	movff	postinc2,vfpfcnvrt@cp
  1387   001D0A  CFDD F047          	movff	postdec2,vfpfcnvrt@cp+1
  1388   001D0E                     
  1389                           ;C:\Program Files\Microchip\xc8\v2.41\pic\sources\c99\common\doprnt.c: 1213:   if (*cp =
      +                          = 'd' || *cp == 'i') {
  1390   001D0E  C046  FFF6         	movff	vfpfcnvrt@cp,tblptrl
  1391   001D12  C047  FFF7         	movff	vfpfcnvrt@cp+1,tblptrh
  1392   001D16                     	if	0	;tblptru may be non-zero
  1393   001D16                     	endif
  1394   001D16                     	if	0	;tblptru may be non-zero
  1395   001D16                     	endif
  1396   001D16  0008               	tblrd		*
  1397   001D18  50F5               	movf	tablat,w,c
  1398   001D1A  0A64               	xorlw	100
  1399   001D1C  B4D8               	btfsc	status,2,c
  1400   001D1E  EF93  F00E         	goto	u4211
  1401   001D22  EF95  F00E         	goto	u4210
  1402   001D26                     u4211:
  1403   001D26  EFA3  F00E         	goto	l3783
  1404   001D2A                     u4210:
  1405   001D2A  C046  FFF6         	movff	vfpfcnvrt@cp,tblptrl
  1406   001D2E  C047  FFF7         	movff	vfpfcnvrt@cp+1,tblptrh
  1407   001D32                     	if	0	;tblptru may be non-zero
  1408   001D32                     	endif
  1409   001D32                     	if	0	;tblptru may be non-zero
  1410   001D32                     	endif
  1411   001D32  0008               	tblrd		*
  1412   001D34  50F5               	movf	tablat,w,c
  1413   001D36  0A69               	xorlw	105
  1414   001D38  A4D8               	btfss	status,2,c
  1415   001D3A  EFA1  F00E         	goto	u4221
  1416   001D3E  EFA3  F00E         	goto	u4220
  1417   001D42                     u4221:
  1418   001D42  EFD1  F00E         	goto	l3789
  1419   001D46                     u4220:
  1420   001D46                     l3783:
  1421                           
  1422                           ;C:\Program Files\Microchip\xc8\v2.41\pic\sources\c99\common\doprnt.c: 1256:    convarg.
      +                          sint = (vfpf_sint_t)(int)(*(int *)__va_arg(*(int **)ap, (int)0));
  1423   001D46  C03B  FFD9         	movff	vfpfcnvrt@ap,fsr2l
  1424   001D4A  C03C  FFDA         	movff	vfpfcnvrt@ap+1,fsr2h
  1425   001D4E  CFDF F03D          	movff	indf2,??_vfpfcnvrt
  1426   001D52  0E02               	movlw	2
  1427   001D54  26DE               	addwf	postinc2,f,c
  1428   001D56  CFDF F03E          	movff	indf2,??_vfpfcnvrt+1
  1429   001D5A  0E00               	movlw	0
  1430   001D5C  22DD               	addwfc	postdec2,f,c
  1431   001D5E  C03D  FFD9         	movff	??_vfpfcnvrt,fsr2l
  1432   001D62  C03E  FFDA         	movff	??_vfpfcnvrt+1,fsr2h
  1433   001D66  CFDE F041          	movff	postinc2,vfpfcnvrt@convarg
  1434   001D6A  CFDD F042          	movff	postdec2,vfpfcnvrt@convarg+1
  1435                           
  1436                           ;C:\Program Files\Microchip\xc8\v2.41\pic\sources\c99\common\doprnt.c: 1258:    *fmt = c
      +                          p+1;
  1437   001D6E  0E01               	movlw	1
  1438   001D70  2446               	addwf	vfpfcnvrt@cp^0,w,c
  1439   001D72  6E3D               	movwf	??_vfpfcnvrt^0,c
  1440   001D74  0E00               	movlw	0
  1441   001D76  2047               	addwfc	(vfpfcnvrt@cp+1)^0,w,c
  1442   001D78  6E3E               	movwf	(??_vfpfcnvrt+1)^0,c
  1443   001D7A  C039  FFD9         	movff	vfpfcnvrt@fmt,fsr2l
  1444   001D7E  C03A  FFDA         	movff	vfpfcnvrt@fmt+1,fsr2h
  1445   001D82  C03D  FFDE         	movff	??_vfpfcnvrt,postinc2
  1446   001D86  C03E  FFDD         	movff	??_vfpfcnvrt+1,postdec2
  1447   001D8A                     
  1448                           ;C:\Program Files\Microchip\xc8\v2.41\pic\sources\c99\common\doprnt.c: 1259:    return (
      +                          void) dtoa(fp, convarg.sint);;	Return value of _vfpfcnvrt is never used
  1449   001D8A  C037  F01C         	movff	vfpfcnvrt@fp,dtoa@fp
  1450   001D8E  C038  F01D         	movff	vfpfcnvrt@fp+1,dtoa@fp+1
  1451   001D92  C041  F01E         	movff	vfpfcnvrt@convarg,dtoa@d
  1452   001D96  C042  F01F         	movff	vfpfcnvrt@convarg+1,dtoa@d+1
  1453   001D9A  EC0B  F012         	call	_dtoa	;wreg free
  1454   001D9E  EF27  F010         	goto	l1036
  1455   001DA2                     l3789:
  1456                           
  1457                           ;C:\Program Files\Microchip\xc8\v2.41\pic\sources\c99\common\doprnt.c: 1409:         if 
      +                          (*fmt[0] == 's' || !strncmp(*fmt, "lls", ((sizeof("lls")/sizeof("lls"[0]))-1))) {
  1458   001DA2  C039  FFD9         	movff	vfpfcnvrt@fmt,fsr2l
  1459   001DA6  C03A  FFDA         	movff	vfpfcnvrt@fmt+1,fsr2h
  1460   001DAA  CFDE FFF6          	movff	postinc2,tblptrl
  1461   001DAE  CFDD FFF7          	movff	postdec2,tblptrh
  1462   001DB2                     	if	0	;tblptru may be non-zero
  1463   001DB2                     	endif
  1464   001DB2                     	if	0	;tblptru may be non-zero
  1465   001DB2                     	endif
  1466   001DB2  0008               	tblrd		*
  1467   001DB4  50F5               	movf	tablat,w,c
  1468   001DB6  0A73               	xorlw	115
  1469   001DB8  B4D8               	btfsc	status,2,c
  1470   001DBA  EFE1  F00E         	goto	u4231
  1471   001DBE  EFE3  F00E         	goto	u4230
  1472   001DC2                     u4231:
  1473   001DC2  EFFE  F00E         	goto	l3793
  1474   001DC6                     u4230:
  1475   001DC6  C039  FFD9         	movff	vfpfcnvrt@fmt,fsr2l
  1476   001DCA  C03A  FFDA         	movff	vfpfcnvrt@fmt+1,fsr2h
  1477   001DCE  CFDE F001          	movff	postinc2,strncmp@_l
  1478   001DD2  CFDD F002          	movff	postdec2,strncmp@_l+1
  1479   001DD6  0E36               	movlw	low STR_11
  1480   001DD8  6E03               	movwf	strncmp@_r^0,c
  1481   001DDA  0E06               	movlw	high STR_11
  1482   001DDC  6E04               	movwf	(strncmp@_r+1)^0,c
  1483   001DDE  0E00               	movlw	0
  1484   001DE0  6E06               	movwf	(strncmp@n+1)^0,c
  1485   001DE2  0E03               	movlw	3
  1486   001DE4  6E05               	movwf	strncmp@n^0,c
  1487   001DE6  ECF7  F015         	call	_strncmp	;wreg free
  1488   001DEA  5001               	movf	?_strncmp^0,w,c
  1489   001DEC  1002               	iorwf	(?_strncmp+1)^0,w,c
  1490   001DEE  A4D8               	btfss	status,2,c
  1491   001DF0  EFFC  F00E         	goto	u4241
  1492   001DF4  EFFE  F00E         	goto	u4240
  1493   001DF8                     u4241:
  1494   001DF8  EF3E  F00F         	goto	l3805
  1495   001DFC                     u4240:
  1496   001DFC                     l3793:
  1497                           
  1498                           ;C:\Program Files\Microchip\xc8\v2.41\pic\sources\c99\common\doprnt.c: 1411:    *fmt += 
      +                          *fmt[0] == 's' ? 1 : ((sizeof("lls")/sizeof("lls"[0]))-1);
  1499   001DFC  C039  FFD9         	movff	vfpfcnvrt@fmt,fsr2l
  1500   001E00  C03A  FFDA         	movff	vfpfcnvrt@fmt+1,fsr2h
  1501   001E04  CFDE FFF6          	movff	postinc2,tblptrl
  1502   001E08  CFDD FFF7          	movff	postdec2,tblptrh
  1503   001E0C                     	if	0	;tblptru may be non-zero
  1504   001E0C                     	endif
  1505   001E0C                     	if	0	;tblptru may be non-zero
  1506   001E0C                     	endif
  1507   001E0C  0008               	tblrd		*
  1508   001E0E  50F5               	movf	tablat,w,c
  1509   001E10  0A73               	xorlw	115
  1510   001E12  B4D8               	btfsc	status,2,c
  1511   001E14  EF0E  F00F         	goto	u4251
  1512   001E18  EF10  F00F         	goto	u4250
  1513   001E1C                     u4251:
  1514   001E1C  EF16  F00F         	goto	l3797
  1515   001E20                     u4250:
  1516   001E20  0E00               	movlw	0
  1517   001E22  6E40               	movwf	(_vfpfcnvrt$1161+1)^0,c
  1518   001E24  0E03               	movlw	3
  1519   001E26  6E3F               	movwf	_vfpfcnvrt$1161^0,c
  1520   001E28  EF1A  F00F         	goto	l3799
  1521   001E2C                     l3797:
  1522   001E2C  0E00               	movlw	0
  1523   001E2E  6E40               	movwf	(_vfpfcnvrt$1161+1)^0,c
  1524   001E30  0E01               	movlw	1
  1525   001E32  6E3F               	movwf	_vfpfcnvrt$1161^0,c
  1526   001E34                     l3799:
  1527   001E34  C039  FFD9         	movff	vfpfcnvrt@fmt,fsr2l
  1528   001E38  C03A  FFDA         	movff	vfpfcnvrt@fmt+1,fsr2h
  1529   001E3C  503F               	movf	_vfpfcnvrt$1161^0,w,c
  1530   001E3E  26DE               	addwf	postinc2,f,c
  1531   001E40  5040               	movf	(_vfpfcnvrt$1161+1)^0,w,c
  1532   001E42  22DD               	addwfc	postdec2,f,c
  1533   001E44                     
  1534                           ;C:\Program Files\Microchip\xc8\v2.41\pic\sources\c99\common\doprnt.c: 1412:            
      +                           return (void) stoa(fp, (*(char * *)__va_arg(*(char * **)ap, (char *)0)));;	Return value
      +                           of _vfpfcnvrt is never used
  1535   001E44  C037  F00A         	movff	vfpfcnvrt@fp,stoa@fp
  1536   001E48  C038  F00B         	movff	vfpfcnvrt@fp+1,stoa@fp+1
  1537   001E4C  C03B  FFD9         	movff	vfpfcnvrt@ap,fsr2l
  1538   001E50  C03C  FFDA         	movff	vfpfcnvrt@ap+1,fsr2h
  1539   001E54  CFDF F03D          	movff	indf2,??_vfpfcnvrt
  1540   001E58  0E02               	movlw	2
  1541   001E5A  26DE               	addwf	postinc2,f,c
  1542   001E5C  CFDF F03E          	movff	indf2,??_vfpfcnvrt+1
  1543   001E60  0E00               	movlw	0
  1544   001E62  22DD               	addwfc	postdec2,f,c
  1545   001E64  C03D  FFD9         	movff	??_vfpfcnvrt,fsr2l
  1546   001E68  C03E  FFDA         	movff	??_vfpfcnvrt+1,fsr2h
  1547   001E6C  CFDE F00C          	movff	postinc2,stoa@s
  1548   001E70  CFDD F00D          	movff	postdec2,stoa@s+1
  1549   001E74  ECD5  F012         	call	_stoa	;wreg free
  1550   001E78  EF27  F010         	goto	l1036
  1551   001E7C                     l3805:
  1552                           
  1553                           ;C:\Program Files\Microchip\xc8\v2.41\pic\sources\c99\common\doprnt.c: 1418:   cp = *fmt
      +                          ;
  1554   001E7C  C039  FFD9         	movff	vfpfcnvrt@fmt,fsr2l
  1555   001E80  C03A  FFDA         	movff	vfpfcnvrt@fmt+1,fsr2h
  1556   001E84  CFDE F046          	movff	postinc2,vfpfcnvrt@cp
  1557   001E88  CFDD F047          	movff	postdec2,vfpfcnvrt@cp+1
  1558   001E8C                     
  1559                           ;C:\Program Files\Microchip\xc8\v2.41\pic\sources\c99\common\doprnt.c: 1419:   c = *cp;
  1560   001E8C  C046  FFF6         	movff	vfpfcnvrt@cp,tblptrl
  1561   001E90  C047  FFF7         	movff	vfpfcnvrt@cp+1,tblptrh
  1562   001E94                     	if	0	;tblptru may be non-zero
  1563   001E94                     	endif
  1564   001E94                     	if	0	;tblptru may be non-zero
  1565   001E94                     	endif
  1566   001E94  0008               	tblrd		*
  1567   001E96  CFF5 F045          	movff	tablat,vfpfcnvrt@c
  1568                           
  1569                           ;C:\Program Files\Microchip\xc8\v2.41\pic\sources\c99\common\doprnt.c: 1420:   switch(c)
      +                           {
  1570   001E9A  EF5B  F00F         	goto	l3817
  1571   001E9E                     l3809:
  1572                           
  1573                           ;C:\Program Files\Microchip\xc8\v2.41\pic\sources\c99\common\doprnt.c: 1424:     cp++;
  1574   001E9E  4A46               	infsnz	vfpfcnvrt@cp^0,f,c
  1575   001EA0  2A47               	incf	(vfpfcnvrt@cp+1)^0,f,c
  1576                           
  1577                           ;C:\Program Files\Microchip\xc8\v2.41\pic\sources\c99\common\doprnt.c: 1425:     break;
  1578   001EA2  EF74  F00F         	goto	l3819
  1579   001EA6                     l3811:
  1580                           
  1581                           ;C:\Program Files\Microchip\xc8\v2.41\pic\sources\c99\common\doprnt.c: 1450:     c = 'l'
      +                          ;
  1582   001EA6  0E6C               	movlw	108
  1583   001EA8  6E45               	movwf	vfpfcnvrt@c^0,c
  1584                           
  1585                           ;C:\Program Files\Microchip\xc8\v2.41\pic\sources\c99\common\doprnt.c: 1451:     break;
  1586   001EAA  EF74  F00F         	goto	l3819
  1587   001EAE                     l3813:
  1588                           
  1589                           ;C:\Program Files\Microchip\xc8\v2.41\pic\sources\c99\common\doprnt.c: 1453:     c = 0;
  1590   001EAE  0E00               	movlw	0
  1591   001EB0  6E45               	movwf	vfpfcnvrt@c^0,c
  1592                           
  1593                           ;C:\Program Files\Microchip\xc8\v2.41\pic\sources\c99\common\doprnt.c: 1454:     break;
  1594   001EB2  EF74  F00F         	goto	l3819
  1595   001EB6                     l3817:
  1596   001EB6  5045               	movf	vfpfcnvrt@c^0,w,c
  1597   001EB8  6E3D               	movwf	??_vfpfcnvrt^0,c
  1598   001EBA  6A3E               	clrf	(??_vfpfcnvrt+1)^0,c
  1599                           
  1600                           ; Switch on 2 bytes has been partitioned into a top level switch of size 1, and 1 sub-sw
      +                          itches
  1601                           ; Switch size 1, requested type "simple"
  1602                           ; Number of cases is 1, Range of values is 0 to 0
  1603                           ; switch strategies available:
  1604                           ; Name         Instructions Cycles
  1605                           ; simple_byte            4     3 (average)
  1606                           ;	Chosen strategy is simple_byte
  1607   001EBC  503E               	movf	(??_vfpfcnvrt+1)^0,w,c
  1608   001EBE  0A00               	xorlw	0	; case 0
  1609   001EC0  B4D8               	btfsc	status,2,c
  1610   001EC2  EF65  F00F         	goto	l4107
  1611   001EC6  EF57  F00F         	goto	l3813
  1612   001ECA                     l4107:
  1613                           
  1614                           ; Switch size 1, requested type "simple"
  1615                           ; Number of cases is 3, Range of values is 76 to 108
  1616                           ; switch strategies available:
  1617                           ; Name         Instructions Cycles
  1618                           ; simple_byte           10     6 (average)
  1619                           ;	Chosen strategy is simple_byte
  1620   001ECA  503D               	movf	??_vfpfcnvrt^0,w,c
  1621   001ECC  0A4C               	xorlw	76	; case 76
  1622   001ECE  B4D8               	btfsc	status,2,c
  1623   001ED0  EF4F  F00F         	goto	l3809
  1624   001ED4  0A2A               	xorlw	42	; case 102
  1625   001ED6  B4D8               	btfsc	status,2,c
  1626   001ED8  EF53  F00F         	goto	l3811
  1627   001EDC  0A0A               	xorlw	10	; case 108
  1628   001EDE  B4D8               	btfsc	status,2,c
  1629   001EE0  EF4F  F00F         	goto	l3809
  1630   001EE4  EF57  F00F         	goto	l3813
  1631   001EE8                     l3819:
  1632   001EE8  C046  FFF6         	movff	vfpfcnvrt@cp,tblptrl
  1633   001EEC  C047  FFF7         	movff	vfpfcnvrt@cp+1,tblptrh
  1634   001EF0                     	if	0	;tblptru may be non-zero
  1635   001EF0                     	endif
  1636   001EF0                     	if	0	;tblptru may be non-zero
  1637   001EF0                     	endif
  1638   001EF0  0008               	tblrd		*
  1639   001EF2  50F5               	movf	tablat,w,c
  1640   001EF4  0A66               	xorlw	102
  1641   001EF6  A4D8               	btfss	status,2,c
  1642   001EF8  EF80  F00F         	goto	u4261
  1643   001EFC  EF82  F00F         	goto	u4260
  1644   001F00                     u4261:
  1645   001F00  EF0A  F010         	goto	l3839
  1646   001F04                     u4260:
  1647   001F04  EFB8  F00F         	goto	l3827
  1648   001F08                     l3821:
  1649                           
  1650                           ;C:\Program Files\Microchip\xc8\v2.41\pic\sources\c99\common\doprnt.c: 1485:      convar
      +                          g.f = (long double)(*(double *)__va_arg(*(double **)ap, (double)0));
  1651   001F08  C03B  FFD9         	movff	vfpfcnvrt@ap,fsr2l
  1652   001F0C  C03C  FFDA         	movff	vfpfcnvrt@ap+1,fsr2h
  1653   001F10  CFDF F03D          	movff	indf2,??_vfpfcnvrt
  1654   001F14  0E04               	movlw	4
  1655   001F16  26DE               	addwf	postinc2,f,c
  1656   001F18  CFDF F03E          	movff	indf2,??_vfpfcnvrt+1
  1657   001F1C  0E00               	movlw	0
  1658   001F1E  22DD               	addwfc	postdec2,f,c
  1659   001F20  C03D  FFD9         	movff	??_vfpfcnvrt,fsr2l
  1660   001F24  C03E  FFDA         	movff	??_vfpfcnvrt+1,fsr2h
  1661   001F28  CFDE F041          	movff	postinc2,vfpfcnvrt@convarg
  1662   001F2C  CFDE F042          	movff	postinc2,vfpfcnvrt@convarg+1
  1663   001F30  CFDE F043          	movff	postinc2,vfpfcnvrt@convarg+2
  1664   001F34  CFDE F044          	movff	postinc2,vfpfcnvrt@convarg+3
  1665                           
  1666                           ;C:\Program Files\Microchip\xc8\v2.41\pic\sources\c99\common\doprnt.c: 1486:      break;
  1667   001F38  EFCD  F00F         	goto	l3829
  1668   001F3C                     l3823:
  1669                           
  1670                           ;C:\Program Files\Microchip\xc8\v2.41\pic\sources\c99\common\doprnt.c: 1488:      convar
      +                          g.f = (long double)(*(long double *)__va_arg(*(long double **)ap, (long double)0));
  1671   001F3C  C03B  FFD9         	movff	vfpfcnvrt@ap,fsr2l
  1672   001F40  C03C  FFDA         	movff	vfpfcnvrt@ap+1,fsr2h
  1673   001F44  CFDF F03D          	movff	indf2,??_vfpfcnvrt
  1674   001F48  0E04               	movlw	4
  1675   001F4A  26DE               	addwf	postinc2,f,c
  1676   001F4C  CFDF F03E          	movff	indf2,??_vfpfcnvrt+1
  1677   001F50  0E00               	movlw	0
  1678   001F52  22DD               	addwfc	postdec2,f,c
  1679   001F54  C03D  FFD9         	movff	??_vfpfcnvrt,fsr2l
  1680   001F58  C03E  FFDA         	movff	??_vfpfcnvrt+1,fsr2h
  1681   001F5C  CFDE F041          	movff	postinc2,vfpfcnvrt@convarg
  1682   001F60  CFDE F042          	movff	postinc2,vfpfcnvrt@convarg+1
  1683   001F64  CFDE F043          	movff	postinc2,vfpfcnvrt@convarg+2
  1684   001F68  CFDE F044          	movff	postinc2,vfpfcnvrt@convarg+3
  1685                           
  1686                           ;C:\Program Files\Microchip\xc8\v2.41\pic\sources\c99\common\doprnt.c: 1489:      break;
  1687   001F6C  EFCD  F00F         	goto	l3829
  1688   001F70                     l3827:
  1689   001F70  5045               	movf	vfpfcnvrt@c^0,w,c
  1690   001F72  6E3D               	movwf	??_vfpfcnvrt^0,c
  1691   001F74  6A3E               	clrf	(??_vfpfcnvrt+1)^0,c
  1692                           
  1693                           ; Switch on 2 bytes has been partitioned into a top level switch of size 1, and 1 sub-sw
      +                          itches
  1694                           ; Switch size 1, requested type "simple"
  1695                           ; Number of cases is 1, Range of values is 0 to 0
  1696                           ; switch strategies available:
  1697                           ; Name         Instructions Cycles
  1698                           ; simple_byte            4     3 (average)
  1699                           ;	Chosen strategy is simple_byte
  1700   001F76  503E               	movf	(??_vfpfcnvrt+1)^0,w,c
  1701   001F78  0A00               	xorlw	0	; case 0
  1702   001F7A  B4D8               	btfsc	status,2,c
  1703   001F7C  EFC2  F00F         	goto	l4109
  1704   001F80  EFCD  F00F         	goto	l3829
  1705   001F84                     l4109:
  1706                           
  1707                           ; Switch size 1, requested type "simple"
  1708                           ; Number of cases is 2, Range of values is 76 to 108
  1709                           ; switch strategies available:
  1710                           ; Name         Instructions Cycles
  1711                           ; simple_byte            7     4 (average)
  1712                           ;	Chosen strategy is simple_byte
  1713   001F84  503D               	movf	??_vfpfcnvrt^0,w,c
  1714   001F86  0A4C               	xorlw	76	; case 76
  1715   001F88  B4D8               	btfsc	status,2,c
  1716   001F8A  EF9E  F00F         	goto	l3823
  1717   001F8E  0A20               	xorlw	32	; case 108
  1718   001F90  B4D8               	btfsc	status,2,c
  1719   001F92  EF84  F00F         	goto	l3821
  1720   001F96  EFCD  F00F         	goto	l3829
  1721   001F9A                     l3829:
  1722                           
  1723                           ;C:\Program Files\Microchip\xc8\v2.41\pic\sources\c99\common\doprnt.c: 1491:    *fmt = c
      +                          p+1;
  1724   001F9A  0E01               	movlw	1
  1725   001F9C  2446               	addwf	vfpfcnvrt@cp^0,w,c
  1726   001F9E  6E3D               	movwf	??_vfpfcnvrt^0,c
  1727   001FA0  0E00               	movlw	0
  1728   001FA2  2047               	addwfc	(vfpfcnvrt@cp+1)^0,w,c
  1729   001FA4  6E3E               	movwf	(??_vfpfcnvrt+1)^0,c
  1730   001FA6  C039  FFD9         	movff	vfpfcnvrt@fmt,fsr2l
  1731   001FAA  C03A  FFDA         	movff	vfpfcnvrt@fmt+1,fsr2h
  1732   001FAE  C03D  FFDE         	movff	??_vfpfcnvrt,postinc2
  1733   001FB2  C03E  FFDD         	movff	??_vfpfcnvrt+1,postdec2
  1734                           
  1735                           ;C:\Program Files\Microchip\xc8\v2.41\pic\sources\c99\common\doprnt.c: 1492:    switch (
      +                          *cp) {
  1736   001FB6  EFF4  F00F         	goto	l3837
  1737   001FBA                     l3831:
  1738                           
  1739                           ;C:\Program Files\Microchip\xc8\v2.41\pic\sources\c99\common\doprnt.c: 1519:      return
      +                           (void) efgtoa(fp, convarg.f, *cp);;	Return value of _vfpfcnvrt is never used
  1740   001FBA  C037  F02E         	movff	vfpfcnvrt@fp,efgtoa@fp
  1741   001FBE  C038  F02F         	movff	vfpfcnvrt@fp+1,efgtoa@fp+1
  1742   001FC2  C041  F030         	movff	vfpfcnvrt@convarg,efgtoa@f
  1743   001FC6  C042  F031         	movff	vfpfcnvrt@convarg+1,efgtoa@f+1
  1744   001FCA  C043  F032         	movff	vfpfcnvrt@convarg+2,efgtoa@f+2
  1745   001FCE  C044  F033         	movff	vfpfcnvrt@convarg+3,efgtoa@f+3
  1746   001FD2  C046  FFF6         	movff	vfpfcnvrt@cp,tblptrl
  1747   001FD6  C047  FFF7         	movff	vfpfcnvrt@cp+1,tblptrh
  1748   001FDA                     	if	0	;tblptru may be non-zero
  1749   001FDA                     	endif
  1750   001FDA                     	if	0	;tblptru may be non-zero
  1751   001FDA                     	endif
  1752   001FDA  0008               	tblrd		*
  1753   001FDC  CFF5 F034          	movff	tablat,efgtoa@c
  1754   001FE0  EC1F  F003         	call	_efgtoa	;wreg free
  1755   001FE4  EF27  F010         	goto	l1036
  1756   001FE8                     l3837:
  1757   001FE8  C046  FFF6         	movff	vfpfcnvrt@cp,tblptrl
  1758   001FEC  C047  FFF7         	movff	vfpfcnvrt@cp+1,tblptrh
  1759   001FF0                     	if	0	;tblptru may be non-zero
  1760   001FF0                     	endif
  1761   001FF0                     	if	0	;tblptru may be non-zero
  1762   001FF0                     	endif
  1763   001FF0  0008               	tblrd		*
  1764   001FF2  50F5               	movf	tablat,w,c
  1765   001FF4  6E3D               	movwf	??_vfpfcnvrt^0,c
  1766   001FF6  6A3E               	clrf	(??_vfpfcnvrt+1)^0,c
  1767                           
  1768                           ; Switch on 2 bytes has been partitioned into a top level switch of size 1, and 1 sub-sw
      +                          itches
  1769                           ; Switch size 1, requested type "simple"
  1770                           ; Number of cases is 1, Range of values is 0 to 0
  1771                           ; switch strategies available:
  1772                           ; Name         Instructions Cycles
  1773                           ; simple_byte            4     3 (average)
  1774                           ;	Chosen strategy is simple_byte
  1775   001FF8  503E               	movf	(??_vfpfcnvrt+1)^0,w,c
  1776   001FFA  0A00               	xorlw	0	; case 0
  1777   001FFC  B4D8               	btfsc	status,2,c
  1778   001FFE  EF03  F010         	goto	l4111
  1779   002002  EF0A  F010         	goto	l3839
  1780   002006                     l4111:
  1781                           
  1782                           ; Switch size 1, requested type "simple"
  1783                           ; Number of cases is 1, Range of values is 102 to 102
  1784                           ; switch strategies available:
  1785                           ; Name         Instructions Cycles
  1786                           ; simple_byte            4     3 (average)
  1787                           ;	Chosen strategy is simple_byte
  1788   002006  503D               	movf	??_vfpfcnvrt^0,w,c
  1789   002008  0A66               	xorlw	102	; case 102
  1790   00200A  B4D8               	btfsc	status,2,c
  1791   00200C  EFDD  F00F         	goto	l3831
  1792   002010  EF0A  F010         	goto	l3839
  1793   002014                     l3839:
  1794                           
  1795                           ;C:\Program Files\Microchip\xc8\v2.41\pic\sources\c99\common\doprnt.c: 1535:         ++*
      +                          fmt;
  1796   002014  C039  FFD9         	movff	vfpfcnvrt@fmt,fsr2l
  1797   002018  C03A  FFDA         	movff	vfpfcnvrt@fmt+1,fsr2h
  1798   00201C  2ADE               	incf	postinc2,f,c
  1799   00201E  0E00               	movlw	0
  1800   002020  22DD               	addwfc	postdec2,f,c
  1801   002022  EF27  F010         	goto	l1036
  1802   002026                     l3843:
  1803                           
  1804                           ;C:\Program Files\Microchip\xc8\v2.41\pic\sources\c99\common\doprnt.c: 1540:     fputc((
      +                          int)(*fmt)[0], fp);
  1805   002026  C039  FFD9         	movff	vfpfcnvrt@fmt,fsr2l
  1806   00202A  C03A  FFDA         	movff	vfpfcnvrt@fmt+1,fsr2h
  1807   00202E  CFDE FFF6          	movff	postinc2,tblptrl
  1808   002032  CFDD FFF7          	movff	postdec2,tblptrh
  1809   002036                     	if	0	;tblptru may be non-zero
  1810   002036                     	endif
  1811   002036                     	if	0	;tblptru may be non-zero
  1812   002036                     	endif
  1813   002036  0008               	tblrd		*
  1814   002038  50F5               	movf	tablat,w,c
  1815   00203A  6E01               	movwf	fputc@c^0,c
  1816   00203C  6A02               	clrf	(fputc@c+1)^0,c
  1817   00203E  C037  F003         	movff	vfpfcnvrt@fp,fputc@fp
  1818   002042  C038  F004         	movff	vfpfcnvrt@fp+1,fputc@fp+1
  1819   002046  EC66  F016         	call	_fputc	;wreg free
  1820   00204A  EF0A  F010         	goto	l3839
  1821   00204E                     l1036:
  1822   00204E  0012               	return		;funcret
  1823   002050                     __end_of_vfpfcnvrt:
  1824                           	callstack 0
  1825                           
  1826 ;; *************** function _strncmp *****************
  1827 ;; Defined at:
  1828 ;;		line 3 in file "C:\Program Files\Microchip\xc8\v2.41\pic\sources\c99\common\strncmp.c"
  1829 ;; Parameters:    Size  Location     Type
  1830 ;;  _l              2    0[COMRAM] PTR const unsigned char 
  1831 ;;		 -> STR_1(11), 
  1832 ;;  _r              2    2[COMRAM] PTR const unsigned char 
  1833 ;;		 -> STR_13(4), 
  1834 ;;  n               2    4[COMRAM] unsigned int 
  1835 ;; Auto vars:     Size  Location     Type
  1836 ;;  r               2    9[COMRAM] PTR const unsigned char 
  1837 ;;		 -> STR_13(4), 
  1838 ;;  l               2    7[COMRAM] PTR const unsigned char 
  1839 ;;		 -> STR_1(11), 
  1840 ;; Return value:  Size  Location     Type
  1841 ;;                  2    0[COMRAM] int 
  1842 ;; Registers used:
  1843 ;;		wreg, status,2, status,0, tblptrl, tblptrh, tblptru
  1844 ;; Tracked objects:
  1845 ;;		On entry : 0/0
  1846 ;;		On exit  : 0/0
  1847 ;;		Unchanged: 0/0
  1848 ;; Data sizes:     COMRAM   BANK0   BANK1   BANK2   BANK3   BANK4   BANK5
  1849 ;;      Params:         6       0       0       0       0       0       0
  1850 ;;      Locals:         4       0       0       0       0       0       0
  1851 ;;      Temps:          1       0       0       0       0       0       0
  1852 ;;      Totals:        11       0       0       0       0       0       0
  1853 ;;Total ram usage:       11 bytes
  1854 ;; Hardware stack levels used: 1
  1855 ;; This function calls:
  1856 ;;		Nothing
  1857 ;; This function is called by:
  1858 ;;		_vfpfcnvrt
  1859 ;; This function uses a non-reentrant model
  1860 ;;
  1861                           
  1862                           	psect	text4
  1863   002BEE                     __ptext4:
  1864                           	callstack 0
  1865   002BEE                     _strncmp:
  1866                           	callstack 27
  1867   002BEE  C001  F008         	movff	strncmp@_l,strncmp@l
  1868   002BF2  C002  F009         	movff	strncmp@_l+1,strncmp@l+1
  1869   002BF6  C003  F00A         	movff	strncmp@_r,strncmp@r
  1870   002BFA  C004  F00B         	movff	strncmp@_r+1,strncmp@r+1
  1871   002BFE  0605               	decf	strncmp@n^0,f,c
  1872   002C00  A0D8               	btfss	status,0,c
  1873   002C02  0606               	decf	(strncmp@n+1)^0,f,c
  1874   002C04  2805               	incf	strncmp@n^0,w,c
  1875   002C06  E106               	bnz	u4151
  1876   002C08  2806               	incf	(strncmp@n+1)^0,w,c
  1877   002C0A  A4D8               	btfss	status,2,c
  1878   002C0C  EF0A  F016         	goto	u4151
  1879   002C10  EF0C  F016         	goto	u4150
  1880   002C14                     u4151:
  1881   002C14  EF19  F016         	goto	l3751
  1882   002C18                     u4150:
  1883   002C18  0E00               	movlw	0
  1884   002C1A  6E02               	movwf	(?_strncmp+1)^0,c
  1885   002C1C  0E00               	movlw	0
  1886   002C1E  6E01               	movwf	?_strncmp^0,c
  1887   002C20  EF65  F016         	goto	l1148
  1888   002C24                     l3749:
  1889   002C24  4A08               	infsnz	strncmp@l^0,f,c
  1890   002C26  2A09               	incf	(strncmp@l+1)^0,f,c
  1891   002C28  4A0A               	infsnz	strncmp@r^0,f,c
  1892   002C2A  2A0B               	incf	(strncmp@r+1)^0,f,c
  1893   002C2C  0605               	decf	strncmp@n^0,f,c
  1894   002C2E  A0D8               	btfss	status,0,c
  1895   002C30  0606               	decf	(strncmp@n+1)^0,f,c
  1896   002C32                     l3751:
  1897   002C32  C008  FFF6         	movff	strncmp@l,tblptrl
  1898   002C36  C009  FFF7         	movff	strncmp@l+1,tblptrh
  1899   002C3A                     	if	0	;tblptru may be non-zero
  1900   002C3A                     	endif
  1901   002C3A                     	if	0	;tblptru may be non-zero
  1902   002C3A                     	endif
  1903   002C3A  0008               	tblrd		*
  1904   002C3C  50F5               	movf	tablat,w,c
  1905   002C3E  0900               	iorlw	0
  1906   002C40  B4D8               	btfsc	status,2,c
  1907   002C42  EF25  F016         	goto	u4161
  1908   002C46  EF27  F016         	goto	u4160
  1909   002C4A                     u4161:
  1910   002C4A  EF53  F016         	goto	l3759
  1911   002C4E                     u4160:
  1912   002C4E  C00A  FFF6         	movff	strncmp@r,tblptrl
  1913   002C52  C00B  FFF7         	movff	strncmp@r+1,tblptrh
  1914   002C56                     	if	0	;tblptru may be non-zero
  1915   002C56                     	endif
  1916   002C56                     	if	0	;tblptru may be non-zero
  1917   002C56                     	endif
  1918   002C56  0008               	tblrd		*
  1919   002C58  50F5               	movf	tablat,w,c
  1920   002C5A  0900               	iorlw	0
  1921   002C5C  B4D8               	btfsc	status,2,c
  1922   002C5E  EF33  F016         	goto	u4171
  1923   002C62  EF35  F016         	goto	u4170
  1924   002C66                     u4171:
  1925   002C66  EF53  F016         	goto	l3759
  1926   002C6A                     u4170:
  1927   002C6A  5005               	movf	strncmp@n^0,w,c
  1928   002C6C  1006               	iorwf	(strncmp@n+1)^0,w,c
  1929   002C6E  B4D8               	btfsc	status,2,c
  1930   002C70  EF3C  F016         	goto	u4181
  1931   002C74  EF3E  F016         	goto	u4180
  1932   002C78                     u4181:
  1933   002C78  EF53  F016         	goto	l3759
  1934   002C7C                     u4180:
  1935   002C7C  C008  FFF6         	movff	strncmp@l,tblptrl
  1936   002C80  C009  FFF7         	movff	strncmp@l+1,tblptrh
  1937   002C84                     	if	0	;tblptru may be non-zero
  1938   002C84                     	endif
  1939   002C84                     	if	0	;tblptru may be non-zero
  1940   002C84                     	endif
  1941   002C84  0008               	tblrd		*
  1942   002C86  CFF5 F007          	movff	tablat,??_strncmp
  1943   002C8A  C00A  FFF6         	movff	strncmp@r,tblptrl
  1944   002C8E  C00B  FFF7         	movff	strncmp@r+1,tblptrh
  1945   002C92                     	if	0	;tblptru may be non-zero
  1946   002C92                     	endif
  1947   002C92                     	if	0	;tblptru may be non-zero
  1948   002C92                     	endif
  1949   002C92  0008               	tblrd		*
  1950   002C94  50F5               	movf	tablat,w,c
  1951   002C96  1807               	xorwf	??_strncmp^0,w,c
  1952   002C98  B4D8               	btfsc	status,2,c
  1953   002C9A  EF51  F016         	goto	u4191
  1954   002C9E  EF53  F016         	goto	u4190
  1955   002CA2                     u4191:
  1956   002CA2  EF12  F016         	goto	l3749
  1957   002CA6                     u4190:
  1958   002CA6                     l3759:
  1959   002CA6  C008  FFF6         	movff	strncmp@l,tblptrl
  1960   002CAA  C009  FFF7         	movff	strncmp@l+1,tblptrh
  1961   002CAE                     	if	0	;tblptru may be non-zero
  1962   002CAE                     	endif
  1963   002CAE                     	if	0	;tblptru may be non-zero
  1964   002CAE                     	endif
  1965   002CAE  0008               	tblrd		*
  1966   002CB0  CFF5 F007          	movff	tablat,??_strncmp
  1967   002CB4  C00A  FFF6         	movff	strncmp@r,tblptrl
  1968   002CB8  C00B  FFF7         	movff	strncmp@r+1,tblptrh
  1969   002CBC                     	if	0	;tblptru may be non-zero
  1970   002CBC                     	endif
  1971   002CBC                     	if	0	;tblptru may be non-zero
  1972   002CBC                     	endif
  1973   002CBC  0008               	tblrd		*
  1974   002CBE  50F5               	movf	tablat,w,c
  1975   002CC0  5C07               	subwf	??_strncmp^0,w,c
  1976   002CC2  6E01               	movwf	?_strncmp^0,c
  1977   002CC4  6A02               	clrf	(?_strncmp+1)^0,c
  1978   002CC6  A0D8               	btfss	status,0,c
  1979   002CC8  0602               	decf	(?_strncmp+1)^0,f,c
  1980   002CCA                     l1148:
  1981   002CCA  0012               	return		;funcret
  1982   002CCC                     __end_of_strncmp:
  1983                           	callstack 0
  1984                           
  1985 ;; *************** function _stoa *****************
  1986 ;; Defined at:
  1987 ;;		line 862 in file "C:\Program Files\Microchip\xc8\v2.41\pic\sources\c99\common\doprnt.c"
  1988 ;; Parameters:    Size  Location     Type
  1989 ;;  fp              2    9[COMRAM] PTR struct _IO_FILE
  1990 ;;		 -> sprintf@f(12), 
  1991 ;;  s               2   11[COMRAM] PTR unsigned char 
  1992 ;;		 -> ?_sprintf(2), STR_4(3), STR_3(11), STR_2(23), 
  1993 ;; Auto vars:     Size  Location     Type
  1994 ;;  nuls            7   14[COMRAM] unsigned char [7]
  1995 ;;  p               2   29[COMRAM] int 
  1996 ;;  l               2   27[COMRAM] int 
  1997 ;;  cp              2   25[COMRAM] PTR unsigned char 
  1998 ;;		 -> stoa@nuls(7), ?_sprintf(2), STR_4(3), STR_3(11), 
  1999 ;;		 -> STR_2(23), 
  2000 ;;  i               2   23[COMRAM] int 
  2001 ;;  w               2   21[COMRAM] int 
  2002 ;; Return value:  Size  Location     Type
  2003 ;;                  1    wreg      void 
  2004 ;; Registers used:
  2005 ;;		wreg, fsr1l, fsr1h, fsr2l, fsr2h, status,2, status,0, tblptrl, tblptrh, tblptru, cstack
  2006 ;; Tracked objects:
  2007 ;;		On entry : 0/0
  2008 ;;		On exit  : 0/0
  2009 ;;		Unchanged: 0/0
  2010 ;; Data sizes:     COMRAM   BANK0   BANK1   BANK2   BANK3   BANK4   BANK5
  2011 ;;      Params:         4       0       0       0       0       0       0
  2012 ;;      Locals:        17       0       0       0       0       0       0
  2013 ;;      Temps:          1       0       0       0       0       0       0
  2014 ;;      Totals:        22       0       0       0       0       0       0
  2015 ;;Total ram usage:       22 bytes
  2016 ;; Hardware stack levels used: 1
  2017 ;; Hardware stack levels required when called: 2
  2018 ;; This function calls:
  2019 ;;		_fputc
  2020 ;;		_strlen
  2021 ;; This function is called by:
  2022 ;;		_vfpfcnvrt
  2023 ;; This function uses a non-reentrant model
  2024 ;;
  2025                           
  2026                           	psect	text5
  2027   0025AA                     __ptext5:
  2028                           	callstack 0
  2029   0025AA                     _stoa:
  2030                           	callstack 25
  2031   0025AA                     
  2032                           ;C:\Program Files\Microchip\xc8\v2.41\pic\sources\c99\common\doprnt.c: 862: static void 
      +                          stoa(FILE *fp, char *s);C:\Program Files\Microchip\xc8\v2.41\pic\sources\c99\common\dopr
      +                          nt.c: 863: {;C:\Program Files\Microchip\xc8\v2.41\pic\sources\c99\common\doprnt.c: 864: 
      +                              char *cp, nuls[] = "(null)";
  2033   0025AA  EE20  F0EA         	lfsr	2,stoa@F1179
  2034   0025AE  EE10  F00F         	lfsr	1,stoa@nuls
  2035   0025B2  0E06               	movlw	6
  2036   0025B4                     u4081:
  2037   0025B4  CFDB FFE3          	movff	plusw2,plusw1
  2038   0025B8  06E8               	decf	wreg,f,c
  2039   0025BA  E2FC               	bc	u4081
  2040   0025BC                     
  2041                           ;C:\Program Files\Microchip\xc8\v2.41\pic\sources\c99\common\doprnt.c: 865:     int i, l
      +                          , p, w;;C:\Program Files\Microchip\xc8\v2.41\pic\sources\c99\common\doprnt.c: 868:     c
      +                          p = s;
  2042   0025BC  C00C  F01A         	movff	stoa@s,stoa@cp
  2043   0025C0  C00D  F01B         	movff	stoa@s+1,stoa@cp+1
  2044   0025C4                     
  2045                           ;C:\Program Files\Microchip\xc8\v2.41\pic\sources\c99\common\doprnt.c: 869:     if (!cp)
      +                           {
  2046   0025C4  501A               	movf	stoa@cp^0,w,c
  2047   0025C6  101B               	iorwf	(stoa@cp+1)^0,w,c
  2048   0025C8  A4D8               	btfss	status,2,c
  2049   0025CA  EFE9  F012         	goto	u4091
  2050   0025CE  EFEB  F012         	goto	u4090
  2051   0025D2                     u4091:
  2052   0025D2  EFEF  F012         	goto	l3719
  2053   0025D6                     u4090:
  2054   0025D6                     
  2055                           ;C:\Program Files\Microchip\xc8\v2.41\pic\sources\c99\common\doprnt.c: 870:         cp =
      +                           nuls;
  2056   0025D6  0E0F               	movlw	low stoa@nuls
  2057   0025D8  6E1A               	movwf	stoa@cp^0,c
  2058   0025DA  0E00               	movlw	high stoa@nuls
  2059   0025DC  6E1B               	movwf	(stoa@cp+1)^0,c
  2060   0025DE                     l3719:
  2061                           
  2062                           ;C:\Program Files\Microchip\xc8\v2.41\pic\sources\c99\common\doprnt.c: 874:     l = (int
      +                          )strlen(cp);
  2063   0025DE  C01A  F001         	movff	stoa@cp,strlen@s
  2064   0025E2  C01B  F002         	movff	stoa@cp+1,strlen@s+1
  2065   0025E6  EC5B  F019         	call	_strlen	;wreg free
  2066   0025EA  C001  F01C         	movff	?_strlen,stoa@l
  2067   0025EE  C002  F01D         	movff	?_strlen+1,stoa@l+1
  2068   0025F2                     
  2069                           ;C:\Program Files\Microchip\xc8\v2.41\pic\sources\c99\common\doprnt.c: 875:     p = prec
      +                          ;
  2070   0025F2  C05B  F01E         	movff	_prec,stoa@p
  2071   0025F6  C05C  F01F         	movff	_prec+1,stoa@p+1
  2072   0025FA                     
  2073                           ;C:\Program Files\Microchip\xc8\v2.41\pic\sources\c99\common\doprnt.c: 876:     l = (!(p
      +                           < 0) && (p < l)) ? p : l;
  2074   0025FA  BE1F               	btfsc	(stoa@p+1)^0,7,c
  2075   0025FC  EF02  F013         	goto	u4101
  2076   002600  EF04  F013         	goto	u4100
  2077   002604                     u4101:
  2078   002604  EF19  F013         	goto	l1020
  2079   002608                     u4100:
  2080   002608  501C               	movf	stoa@l^0,w,c
  2081   00260A  5C1E               	subwf	stoa@p^0,w,c
  2082   00260C  501F               	movf	(stoa@p+1)^0,w,c
  2083   00260E  0A80               	xorlw	128
  2084   002610  6E0E               	movwf	??_stoa^0,c
  2085   002612  501D               	movf	(stoa@l+1)^0,w,c
  2086   002614  0A80               	xorlw	128
  2087   002616  580E               	subwfb	??_stoa^0,w,c
  2088   002618  A0D8               	btfss	status,0,c
  2089   00261A  EF11  F013         	goto	u4111
  2090   00261E  EF13  F013         	goto	u4110
  2091   002622                     u4111:
  2092   002622  EF15  F013         	goto	l1018
  2093   002626                     u4110:
  2094   002626  EF19  F013         	goto	l1020
  2095   00262A                     l1018:
  2096   00262A  C01E  F01C         	movff	stoa@p,stoa@l
  2097   00262E  C01F  F01D         	movff	stoa@p+1,stoa@l+1
  2098   002632                     l1020:
  2099                           
  2100                           ;C:\Program Files\Microchip\xc8\v2.41\pic\sources\c99\common\doprnt.c: 877:     p = l;
  2101   002632  C01C  F01E         	movff	stoa@l,stoa@p
  2102   002636  C01D  F01F         	movff	stoa@l+1,stoa@p+1
  2103                           
  2104                           ;C:\Program Files\Microchip\xc8\v2.41\pic\sources\c99\common\doprnt.c: 878:     w = widt
      +                          h;
  2105   00263A  C059  F016         	movff	_width,stoa@w
  2106   00263E  C05A  F017         	movff	_width+1,stoa@w+1
  2107                           
  2108                           ;C:\Program Files\Microchip\xc8\v2.41\pic\sources\c99\common\doprnt.c: 884:         whil
      +                          e (l < w) {
  2109   002642  EF2F  F013         	goto	l3731
  2110   002646                     l3727:
  2111                           
  2112                           ;C:\Program Files\Microchip\xc8\v2.41\pic\sources\c99\common\doprnt.c: 885:             
      +                          fputc(' ', fp);
  2113   002646  0E00               	movlw	0
  2114   002648  6E02               	movwf	(fputc@c+1)^0,c
  2115   00264A  0E20               	movlw	32
  2116   00264C  6E01               	movwf	fputc@c^0,c
  2117   00264E  C00A  F003         	movff	stoa@fp,fputc@fp
  2118   002652  C00B  F004         	movff	stoa@fp+1,fputc@fp+1
  2119   002656  EC66  F016         	call	_fputc	;wreg free
  2120   00265A                     
  2121                           ;C:\Program Files\Microchip\xc8\v2.41\pic\sources\c99\common\doprnt.c: 886:             
      +                          ++l;
  2122   00265A  4A1C               	infsnz	stoa@l^0,f,c
  2123   00265C  2A1D               	incf	(stoa@l+1)^0,f,c
  2124   00265E                     l3731:
  2125                           
  2126                           ;C:\Program Files\Microchip\xc8\v2.41\pic\sources\c99\common\doprnt.c: 884:         whil
      +                          e (l < w) {
  2127   00265E  5016               	movf	stoa@w^0,w,c
  2128   002660  5C1C               	subwf	stoa@l^0,w,c
  2129   002662  501D               	movf	(stoa@l+1)^0,w,c
  2130   002664  0A80               	xorlw	128
  2131   002666  6E0E               	movwf	??_stoa^0,c
  2132   002668  5017               	movf	(stoa@w+1)^0,w,c
  2133   00266A  0A80               	xorlw	128
  2134   00266C  580E               	subwfb	??_stoa^0,w,c
  2135   00266E  A0D8               	btfss	status,0,c
  2136   002670  EF3C  F013         	goto	u4121
  2137   002674  EF3E  F013         	goto	u4120
  2138   002678                     u4121:
  2139   002678  EF23  F013         	goto	l3727
  2140   00267C                     u4120:
  2141   00267C                     
  2142                           ;C:\Program Files\Microchip\xc8\v2.41\pic\sources\c99\common\doprnt.c: 893:     i = 0;
  2143   00267C  0E00               	movlw	0
  2144   00267E  6E19               	movwf	(stoa@i+1)^0,c
  2145   002680  0E00               	movlw	0
  2146   002682  6E18               	movwf	stoa@i^0,c
  2147                           
  2148                           ;C:\Program Files\Microchip\xc8\v2.41\pic\sources\c99\common\doprnt.c: 894:     while (i
      +                           < p) {
  2149   002684  EF62  F013         	goto	l3741
  2150   002688                     l3735:
  2151                           
  2152                           ;C:\Program Files\Microchip\xc8\v2.41\pic\sources\c99\common\doprnt.c: 895:         fput
      +                          c(*cp, fp);
  2153   002688  C01A  FFF6         	movff	stoa@cp,tblptrl
  2154   00268C  C01B  FFF7         	movff	stoa@cp+1,tblptrh
  2155   002690  6AF8               	clrf	tblptru,c
  2156   002692  0E05               	movlw	(high __ramtop+-1)
  2157   002694  64F7               	cpfsgt	tblptrh,c
  2158   002696  D003               	bra	u4137
  2159   002698  0008               	tblrd		*
  2160   00269A  50F5               	movf	tablat,w,c
  2161   00269C  D005               	bra	u4130
  2162   00269E                     u4137:
  2163   00269E  CFF6 FFE1          	movff	tblptrl,fsr1l
  2164   0026A2  CFF7 FFE2          	movff	tblptrh,fsr1h
  2165   0026A6  50E7               	movf	indf1,w,c
  2166   0026A8                     u4130:
  2167   0026A8  6E0E               	movwf	??_stoa^0,c
  2168   0026AA  500E               	movf	??_stoa^0,w,c
  2169   0026AC  6E01               	movwf	fputc@c^0,c
  2170   0026AE  6A02               	clrf	(fputc@c+1)^0,c
  2171   0026B0  C00A  F003         	movff	stoa@fp,fputc@fp
  2172   0026B4  C00B  F004         	movff	stoa@fp+1,fputc@fp+1
  2173   0026B8  EC66  F016         	call	_fputc	;wreg free
  2174   0026BC                     
  2175                           ;C:\Program Files\Microchip\xc8\v2.41\pic\sources\c99\common\doprnt.c: 896:         ++cp
      +                          ;
  2176   0026BC  4A1A               	infsnz	stoa@cp^0,f,c
  2177   0026BE  2A1B               	incf	(stoa@cp+1)^0,f,c
  2178   0026C0                     
  2179                           ;C:\Program Files\Microchip\xc8\v2.41\pic\sources\c99\common\doprnt.c: 897:         ++i;
  2180   0026C0  4A18               	infsnz	stoa@i^0,f,c
  2181   0026C2  2A19               	incf	(stoa@i+1)^0,f,c
  2182   0026C4                     l3741:
  2183                           
  2184                           ;C:\Program Files\Microchip\xc8\v2.41\pic\sources\c99\common\doprnt.c: 894:     while (i
      +                           < p) {
  2185   0026C4  501E               	movf	stoa@p^0,w,c
  2186   0026C6  5C18               	subwf	stoa@i^0,w,c
  2187   0026C8  5019               	movf	(stoa@i+1)^0,w,c
  2188   0026CA  0A80               	xorlw	128
  2189   0026CC  6E0E               	movwf	??_stoa^0,c
  2190   0026CE  501F               	movf	(stoa@p+1)^0,w,c
  2191   0026D0  0A80               	xorlw	128
  2192   0026D2  580E               	subwfb	??_stoa^0,w,c
  2193   0026D4  A0D8               	btfss	status,0,c
  2194   0026D6  EF6F  F013         	goto	u4141
  2195   0026DA  EF71  F013         	goto	u4140
  2196   0026DE                     u4141:
  2197   0026DE  EF44  F013         	goto	l3735
  2198   0026E2                     u4140:
  2199   0026E2  0012               	return		;funcret
  2200   0026E4                     __end_of_stoa:
  2201                           	callstack 0
  2202                           
  2203 ;; *************** function _strlen *****************
  2204 ;; Defined at:
  2205 ;;		line 5 in file "C:\Program Files\Microchip\xc8\v2.41\pic\sources\c99\common\strlen.c"
  2206 ;; Parameters:    Size  Location     Type
  2207 ;;  s               2    0[COMRAM] PTR const unsigned char 
  2208 ;;		 -> stoa@nuls(7), ?_sprintf(2), STR_4(3), STR_3(11), 
  2209 ;;		 -> STR_2(23), 
  2210 ;; Auto vars:     Size  Location     Type
  2211 ;;  a               2    2[COMRAM] PTR const unsigned char 
  2212 ;;		 -> stoa@nuls(7), ?_sprintf(2), STR_4(3), STR_3(11), 
  2213 ;;		 -> STR_2(23), 
  2214 ;; Return value:  Size  Location     Type
  2215 ;;                  2    0[COMRAM] unsigned int 
  2216 ;; Registers used:
  2217 ;;		wreg, fsr1l, fsr1h, status,2, status,0, tblptrl, tblptrh, tblptru
  2218 ;; Tracked objects:
  2219 ;;		On entry : 0/0
  2220 ;;		On exit  : 0/0
  2221 ;;		Unchanged: 0/0
  2222 ;; Data sizes:     COMRAM   BANK0   BANK1   BANK2   BANK3   BANK4   BANK5
  2223 ;;      Params:         2       0       0       0       0       0       0
  2224 ;;      Locals:         2       0       0       0       0       0       0
  2225 ;;      Temps:          0       0       0       0       0       0       0
  2226 ;;      Totals:         4       0       0       0       0       0       0
  2227 ;;Total ram usage:        4 bytes
  2228 ;; Hardware stack levels used: 1
  2229 ;; This function calls:
  2230 ;;		Nothing
  2231 ;; This function is called by:
  2232 ;;		_stoa
  2233 ;; This function uses a non-reentrant model
  2234 ;;
  2235                           
  2236                           	psect	text6
  2237   0032B6                     __ptext6:
  2238                           	callstack 0
  2239   0032B6                     _strlen:
  2240                           	callstack 26
  2241   0032B6  C001  F003         	movff	strlen@s,strlen@a
  2242   0032BA  C002  F004         	movff	strlen@s+1,strlen@a+1
  2243   0032BE  EF63  F019         	goto	l3433
  2244   0032C2                     l3431:
  2245   0032C2  4A01               	infsnz	strlen@s^0,f,c
  2246   0032C4  2A02               	incf	(strlen@s+1)^0,f,c
  2247   0032C6                     l3433:
  2248   0032C6  C001  FFF6         	movff	strlen@s,tblptrl
  2249   0032CA  C002  FFF7         	movff	strlen@s+1,tblptrh
  2250   0032CE  6AF8               	clrf	tblptru,c
  2251   0032D0  0E05               	movlw	(high __ramtop+-1)
  2252   0032D2  64F7               	cpfsgt	tblptrh,c
  2253   0032D4  D003               	bra	u3647
  2254   0032D6  0008               	tblrd		*
  2255   0032D8  50F5               	movf	tablat,w,c
  2256   0032DA  D005               	bra	u3640
  2257   0032DC                     u3647:
  2258   0032DC  CFF6 FFE1          	movff	tblptrl,fsr1l
  2259   0032E0  CFF7 FFE2          	movff	tblptrh,fsr1h
  2260   0032E4  50E7               	movf	indf1,w,c
  2261   0032E6                     u3640:
  2262   0032E6  0900               	iorlw	0
  2263   0032E8  A4D8               	btfss	status,2,c
  2264   0032EA  EF79  F019         	goto	u3651
  2265   0032EE  EF7B  F019         	goto	u3650
  2266   0032F2                     u3651:
  2267   0032F2  EF61  F019         	goto	l3431
  2268   0032F6                     u3650:
  2269   0032F6  5003               	movf	strlen@a^0,w,c
  2270   0032F8  5C01               	subwf	strlen@s^0,w,c
  2271   0032FA  6E01               	movwf	?_strlen^0,c
  2272   0032FC  5004               	movf	(strlen@a+1)^0,w,c
  2273   0032FE  5802               	subwfb	(strlen@s+1)^0,w,c
  2274   003300  6E02               	movwf	(?_strlen+1)^0,c
  2275   003302  0012               	return		;funcret
  2276   003304                     __end_of_strlen:
  2277                           	callstack 0
  2278                           
  2279 ;; *************** function _efgtoa *****************
  2280 ;; Defined at:
  2281 ;;		line 531 in file "C:\Program Files\Microchip\xc8\v2.41\pic\sources\c99\common\doprnt.c"
  2282 ;; Parameters:    Size  Location     Type
  2283 ;;  fp              2   45[COMRAM] PTR struct _IO_FILE
  2284 ;;		 -> sprintf@f(12), 
  2285 ;;  f               4   47[COMRAM] PTR struct _IO_FILE
  2286 ;;  c               1   51[COMRAM] unsigned char 
  2287 ;; Auto vars:     Size  Location     Type
  2288 ;;  u               4   40[BANK0 ] struct flui
  2289 ;;  g               4   36[BANK0 ] struct flui
  2290 ;;  l               4   29[BANK0 ] struct flui
  2291 ;;  h               4   25[BANK0 ] struct flui
  2292 ;;  ou              4   19[BANK0 ] struct flui
  2293 ;;  n               2   34[BANK0 ] int 
  2294 ;;  i               2   23[BANK0 ] int 
  2295 ;;  w               2   17[BANK0 ] int 
  2296 ;;  e               2   15[BANK0 ] int 
  2297 ;;  m               2   13[BANK0 ] int 
  2298 ;;  d               2   11[BANK0 ] int 
  2299 ;;  t               2    4[BANK0 ] int 
  2300 ;;  p               2    2[BANK0 ] int 
  2301 ;;  ne              2    0[BANK0 ] int 
  2302 ;;  sign            1   33[BANK0 ] unsigned char 
  2303 ;;  nmode           1   10[BANK0 ] unsigned char 
  2304 ;;  mode            1    9[BANK0 ] unsigned char 
  2305 ;;  pp              1    8[BANK0 ] unsigned char 
  2306 ;;  esign           1    0        unsigned char 
  2307 ;; Return value:  Size  Location     Type
  2308 ;;                  1    wreg      void 
  2309 ;; Registers used:
  2310 ;;		wreg, fsr1l, fsr1h, fsr2l, fsr2h, status,2, status,0, tblptrl, tblptrh, tblptru, prodl, prodh, cstack
  2311 ;; Tracked objects:
  2312 ;;		On entry : 0/0
  2313 ;;		On exit  : 0/0
  2314 ;;		Unchanged: 0/0
  2315 ;; Data sizes:     COMRAM   BANK0   BANK1   BANK2   BANK3   BANK4   BANK5
  2316 ;;      Params:         7       0       0       0       0       0       0
  2317 ;;      Locals:         0      44       0       0       0       0       0
  2318 ;;      Temps:          2       0       0       0       0       0       0
  2319 ;;      Totals:         9      44       0       0       0       0       0
  2320 ;;Total ram usage:       53 bytes
  2321 ;; Hardware stack levels used: 1
  2322 ;; Hardware stack levels required when called: 4
  2323 ;; This function calls:
  2324 ;;		___fladd
  2325 ;;		___fldiv
  2326 ;;		___fleq
  2327 ;;		___flge
  2328 ;;		___flmul
  2329 ;;		___flneg
  2330 ;;		___flsub
  2331 ;;		___fltol
  2332 ;;		___fpclassifyf
  2333 ;;		_floorf
  2334 ;;		_labs
  2335 ;;		_memcpy
  2336 ;;		_pad
  2337 ;;		_strcpy
  2338 ;; This function is called by:
  2339 ;;		_vfpfcnvrt
  2340 ;; This function uses a non-reentrant model
  2341 ;;
  2342                           
  2343                           	psect	text7
  2344   00063E                     __ptext7:
  2345                           	callstack 0
  2346   00063E                     _efgtoa:
  2347                           	callstack 23
  2348   00063E                     
  2349                           ;C:\Program Files\Microchip\xc8\v2.41\pic\sources\c99\common\doprnt.c: 531: static void 
      +                          efgtoa(FILE *fp, long double f, char c);C:\Program Files\Microchip\xc8\v2.41\pic\sources
      +                          \c99\common\doprnt.c: 532: {;C:\Program Files\Microchip\xc8\v2.41\pic\sources\c99\common
      +                          \doprnt.c: 533:     char mode, nmode, pp, sign, esign;;C:\Program Files\Microchip\xc8\v2
      +                          .41\pic\sources\c99\common\doprnt.c: 534:     int d, e, i, m, n, ne, p, t, w;;C:\Program
      +                           Files\Microchip\xc8\v2.41\pic\sources\c99\common\doprnt.c: 535:     long double h, l;
  2350   00063E  0E00               	movlw	0
  2351   000640  0100               	movlb	0	; () banked
  2352   000642  6F81               	movwf	efgtoa@sign& (0+255),b
  2353   000644                     
  2354                           ; BSR set to: 0
  2355                           ;C:\Program Files\Microchip\xc8\v2.41\pic\sources\c99\common\doprnt.c: 540:     g.f = f;
  2356   000644  C030  F084         	movff	efgtoa@f,efgtoa@g
  2357   000648  C031  F085         	movff	efgtoa@f+1,efgtoa@g+1
  2358   00064C  C032  F086         	movff	efgtoa@f+2,efgtoa@g+2
  2359   000650  C033  F087         	movff	efgtoa@f+3,efgtoa@g+3
  2360   000654                     
  2361                           ; BSR set to: 0
  2362                           ;C:\Program Files\Microchip\xc8\v2.41\pic\sources\c99\common\doprnt.c: 541:     if (g.f 
      +                          < 0.0) {
  2363   000654  BF87               	btfsc	(efgtoa@g+3)& (0+255),7,b
  2364   000656  EF31  F003         	goto	u3760
  2365   00065A  EF2F  F003         	goto	u3761
  2366   00065E                     u3761:
  2367   00065E  EF45  F003         	goto	l3499
  2368   000662                     u3760:
  2369   000662                     
  2370                           ; BSR set to: 0
  2371                           ;C:\Program Files\Microchip\xc8\v2.41\pic\sources\c99\common\doprnt.c: 542:         sign
      +                           = 1;
  2372   000662  0E01               	movlw	1
  2373   000664  6F81               	movwf	efgtoa@sign& (0+255),b
  2374   000666                     
  2375                           ; BSR set to: 0
  2376                           ;C:\Program Files\Microchip\xc8\v2.41\pic\sources\c99\common\doprnt.c: 543:         g.f 
      +                          = -g.f;
  2377   000666  C084  F001         	movff	efgtoa@g,___flneg@f1
  2378   00066A  C085  F002         	movff	efgtoa@g+1,___flneg@f1+1
  2379   00066E  C086  F003         	movff	efgtoa@g+2,___flneg@f1+2
  2380   000672  C087  F004         	movff	efgtoa@g+3,___flneg@f1+3
  2381   000676  EC43  F01A         	call	___flneg	;wreg free
  2382   00067A  C001  F084         	movff	?___flneg,efgtoa@g
  2383   00067E  C002  F085         	movff	?___flneg+1,efgtoa@g+1
  2384   000682  C003  F086         	movff	?___flneg+2,efgtoa@g+2
  2385   000686  C004  F087         	movff	?___flneg+3,efgtoa@g+3
  2386   00068A                     l3499:
  2387                           
  2388                           ;C:\Program Files\Microchip\xc8\v2.41\pic\sources\c99\common\doprnt.c: 547:     n = 0;
  2389   00068A  0E00               	movlw	0
  2390   00068C  0100               	movlb	0	; () banked
  2391   00068E  6F83               	movwf	(efgtoa@n+1)& (0+255),b
  2392   000690  0E00               	movlw	0
  2393   000692  6F82               	movwf	efgtoa@n& (0+255),b
  2394   000694                     
  2395                           ; BSR set to: 0
  2396                           ;C:\Program Files\Microchip\xc8\v2.41\pic\sources\c99\common\doprnt.c: 548:     w = widt
      +                          h;
  2397   000694  C059  F071         	movff	_width,efgtoa@w
  2398   000698  C05A  F072         	movff	_width+1,efgtoa@w+1
  2399   00069C                     
  2400                           ; BSR set to: 0
  2401                           ;C:\Program Files\Microchip\xc8\v2.41\pic\sources\c99\common\doprnt.c: 549:     if (sign
  2402   00069C  5181               	movf	efgtoa@sign& (0+255),w,b
  2403   00069E  B4D8               	btfsc	status,2,c
  2404   0006A0  EF54  F003         	goto	u3771
  2405   0006A4  EF56  F003         	goto	u3770
  2406   0006A8                     u3771:
  2407   0006A8  EF6A  F003         	goto	l3513
  2408   0006AC                     u3770:
  2409   0006AC                     
  2410                           ; BSR set to: 0
  2411                           ;C:\Program Files\Microchip\xc8\v2.41\pic\sources\c99\common\doprnt.c: 553:    ) {;C:\Pr
      +                          ogram Files\Microchip\xc8\v2.41\pic\sources\c99\common\doprnt.c: 554:   sign = sign ? '-
      +                          ' : '+';
  2412   0006AC  5181               	movf	efgtoa@sign& (0+255),w,b
  2413   0006AE  A4D8               	btfss	status,2,c
  2414   0006B0  EF5C  F003         	goto	u3781
  2415   0006B4  EF5E  F003         	goto	u3780
  2416   0006B8                     u3781:
  2417   0006B8  EF64  F003         	goto	l3509
  2418   0006BC                     u3780:
  2419   0006BC                     
  2420                           ; BSR set to: 0
  2421   0006BC  0E00               	movlw	0
  2422   0006BE  6F67               	movwf	(_efgtoa$1128+1)& (0+255),b
  2423   0006C0  0E2B               	movlw	43
  2424   0006C2  6F66               	movwf	_efgtoa$1128& (0+255),b
  2425   0006C4  EF68  F003         	goto	l3511
  2426   0006C8                     l3509:
  2427                           
  2428                           ; BSR set to: 0
  2429   0006C8  0E00               	movlw	0
  2430   0006CA  6F67               	movwf	(_efgtoa$1128+1)& (0+255),b
  2431   0006CC  0E2D               	movlw	45
  2432   0006CE  6F66               	movwf	_efgtoa$1128& (0+255),b
  2433   0006D0                     l3511:
  2434                           
  2435                           ; BSR set to: 0
  2436   0006D0  C066  F081         	movff	_efgtoa$1128,efgtoa@sign
  2437   0006D4                     l3513:
  2438                           
  2439                           ; BSR set to: 0
  2440                           ;C:\Program Files\Microchip\xc8\v2.41\pic\sources\c99\common\doprnt.c: 563:     if (( __
      +                          fpclassifyf(g.f) == 1 )) {
  2441   0006D4  C084  F001         	movff	efgtoa@g,___fpclassifyf@x
  2442   0006D8  C085  F002         	movff	efgtoa@g+1,___fpclassifyf@x+1
  2443   0006DC  C086  F003         	movff	efgtoa@g+2,___fpclassifyf@x+2
  2444   0006E0  C087  F004         	movff	efgtoa@g+3,___fpclassifyf@x+3
  2445   0006E4  ECFD  F014         	call	___fpclassifyf	;wreg free
  2446   0006E8  0401               	decf	?___fpclassifyf^0,w,c
  2447   0006EA  1002               	iorwf	(?___fpclassifyf+1)^0,w,c
  2448   0006EC  A4D8               	btfss	status,2,c
  2449   0006EE  EF7B  F003         	goto	u3791
  2450   0006F2  EF7D  F003         	goto	u3790
  2451   0006F6                     u3791:
  2452   0006F6  EFB0  F003         	goto	l3531
  2453   0006FA                     u3790:
  2454   0006FA                     
  2455                           ;C:\Program Files\Microchip\xc8\v2.41\pic\sources\c99\common\doprnt.c: 564:   if (sign) 
      +                          {
  2456   0006FA  0100               	movlb	0	; () banked
  2457   0006FC  5181               	movf	efgtoa@sign& (0+255),w,b
  2458   0006FE  B4D8               	btfsc	status,2,c
  2459   000700  EF84  F003         	goto	u3801
  2460   000704  EF86  F003         	goto	u3800
  2461   000708                     u3801:
  2462   000708  EF8F  F003         	goto	l3523
  2463   00070C                     u3800:
  2464   00070C                     
  2465                           ; BSR set to: 0
  2466                           ;C:\Program Files\Microchip\xc8\v2.41\pic\sources\c99\common\doprnt.c: 565:    dbuf[0] =
      +                           sign;
  2467   00070C  C081  F100         	movff	efgtoa@sign,_dbuf
  2468   000710                     
  2469                           ; BSR set to: 0
  2470                           ;C:\Program Files\Microchip\xc8\v2.41\pic\sources\c99\common\doprnt.c: 566:    w--;
  2471   000710  0771               	decf	efgtoa@w& (0+255),f,b
  2472   000712  A0D8               	btfss	status,0,c
  2473   000714  0772               	decf	(efgtoa@w+1)& (0+255),f,b
  2474   000716                     
  2475                           ; BSR set to: 0
  2476                           ;C:\Program Files\Microchip\xc8\v2.41\pic\sources\c99\common\doprnt.c: 567:    n = 1;
  2477   000716  0E00               	movlw	0
  2478   000718  6F83               	movwf	(efgtoa@n+1)& (0+255),b
  2479   00071A  0E01               	movlw	1
  2480   00071C  6F82               	movwf	efgtoa@n& (0+255),b
  2481   00071E                     l3523:
  2482                           
  2483                           ; BSR set to: 0
  2484                           ;C:\Program Files\Microchip\xc8\v2.41\pic\sources\c99\common\doprnt.c: 575:   {;C:\Progr
      +                          am Files\Microchip\xc8\v2.41\pic\sources\c99\common\doprnt.c: 576:             strcpy(&d
      +                          buf[n], "inf");
  2485   00071E  0E00               	movlw	low _dbuf
  2486   000720  2582               	addwf	efgtoa@n& (0+255),w,b
  2487   000722  6E01               	movwf	strcpy@dest^0,c
  2488   000724  0E01               	movlw	high _dbuf
  2489   000726  2183               	addwfc	(efgtoa@n+1)& (0+255),w,b
  2490   000728  6E02               	movwf	(strcpy@dest+1)^0,c
  2491   00072A  0E2E               	movlw	low STR_5
  2492   00072C  6E03               	movwf	strcpy@src^0,c
  2493   00072E  0E06               	movlw	high STR_5
  2494   000730  6E04               	movwf	(strcpy@src+1)^0,c
  2495   000732  ECC7  F019         	call	_strcpy	;wreg free
  2496   000736                     l3525:
  2497                           
  2498                           ;C:\Program Files\Microchip\xc8\v2.41\pic\sources\c99\common\doprnt.c: 577:         };C:
      +                          \Program Files\Microchip\xc8\v2.41\pic\sources\c99\common\doprnt.c: 578:         w -= ((
      +                          sizeof("inf")/sizeof("inf"[0]))-1);
  2499   000736  0100               	movlb	0	; () banked
  2500   000738  0EFD               	movlw	253
  2501   00073A  2771               	addwf	efgtoa@w& (0+255),f,b
  2502   00073C  0EFF               	movlw	255
  2503   00073E  2372               	addwfc	(efgtoa@w+1)& (0+255),f,b
  2504   000740                     
  2505                           ; BSR set to: 0
  2506                           ;C:\Program Files\Microchip\xc8\v2.41\pic\sources\c99\common\doprnt.c: 579:         retu
      +                          rn (void) pad(fp, &dbuf[0], w);
  2507   000740  C02E  F011         	movff	efgtoa@fp,pad@fp
  2508   000744  C02F  F012         	movff	efgtoa@fp+1,pad@fp+1
  2509   000748  0E00               	movlw	low _dbuf
  2510   00074A  6E13               	movwf	pad@buf^0,c
  2511   00074C  0E01               	movlw	high _dbuf
  2512   00074E  6E14               	movwf	(pad@buf+1)^0,c
  2513   000750  C071  F015         	movff	efgtoa@w,pad@p
  2514   000754  C072  F016         	movff	efgtoa@w+1,pad@p+1
  2515   000758  ECDA  F017         	call	_pad	;wreg free
  2516   00075C  EF1B  F008         	goto	l970
  2517   000760                     l3531:
  2518                           
  2519                           ;C:\Program Files\Microchip\xc8\v2.41\pic\sources\c99\common\doprnt.c: 581:     if (( __
      +                          fpclassifyf(g.f) == 0 )) {
  2520   000760  C084  F001         	movff	efgtoa@g,___fpclassifyf@x
  2521   000764  C085  F002         	movff	efgtoa@g+1,___fpclassifyf@x+1
  2522   000768  C086  F003         	movff	efgtoa@g+2,___fpclassifyf@x+2
  2523   00076C  C087  F004         	movff	efgtoa@g+3,___fpclassifyf@x+3
  2524   000770  ECFD  F014         	call	___fpclassifyf	;wreg free
  2525   000774  5001               	movf	?___fpclassifyf^0,w,c
  2526   000776  1002               	iorwf	(?___fpclassifyf+1)^0,w,c
  2527   000778  A4D8               	btfss	status,2,c
  2528   00077A  EFC1  F003         	goto	u3811
  2529   00077E  EFC3  F003         	goto	u3810
  2530   000782                     u3811:
  2531   000782  EFE3  F003         	goto	l3549
  2532   000786                     u3810:
  2533   000786                     
  2534                           ;C:\Program Files\Microchip\xc8\v2.41\pic\sources\c99\common\doprnt.c: 582:   if (sign) 
      +                          {
  2535   000786  0100               	movlb	0	; () banked
  2536   000788  5181               	movf	efgtoa@sign& (0+255),w,b
  2537   00078A  B4D8               	btfsc	status,2,c
  2538   00078C  EFCA  F003         	goto	u3821
  2539   000790  EFCC  F003         	goto	u3820
  2540   000794                     u3821:
  2541   000794  EFD5  F003         	goto	l3541
  2542   000798                     u3820:
  2543   000798                     
  2544                           ; BSR set to: 0
  2545                           ;C:\Program Files\Microchip\xc8\v2.41\pic\sources\c99\common\doprnt.c: 583:    dbuf[0] =
      +                           sign;
  2546   000798  C081  F100         	movff	efgtoa@sign,_dbuf
  2547   00079C                     
  2548                           ; BSR set to: 0
  2549                           ;C:\Program Files\Microchip\xc8\v2.41\pic\sources\c99\common\doprnt.c: 584:    w--;
  2550   00079C  0771               	decf	efgtoa@w& (0+255),f,b
  2551   00079E  A0D8               	btfss	status,0,c
  2552   0007A0  0772               	decf	(efgtoa@w+1)& (0+255),f,b
  2553   0007A2                     
  2554                           ; BSR set to: 0
  2555                           ;C:\Program Files\Microchip\xc8\v2.41\pic\sources\c99\common\doprnt.c: 585:    n = 1;
  2556   0007A2  0E00               	movlw	0
  2557   0007A4  6F83               	movwf	(efgtoa@n+1)& (0+255),b
  2558   0007A6  0E01               	movlw	1
  2559   0007A8  6F82               	movwf	efgtoa@n& (0+255),b
  2560   0007AA                     l3541:
  2561                           
  2562                           ; BSR set to: 0
  2563                           ;C:\Program Files\Microchip\xc8\v2.41\pic\sources\c99\common\doprnt.c: 593:   {;C:\Progr
      +                          am Files\Microchip\xc8\v2.41\pic\sources\c99\common\doprnt.c: 594:             strcpy(&d
      +                          buf[n], "nan");
  2564   0007AA  0E00               	movlw	low _dbuf
  2565   0007AC  2582               	addwf	efgtoa@n& (0+255),w,b
  2566   0007AE  6E01               	movwf	strcpy@dest^0,c
  2567   0007B0  0E01               	movlw	high _dbuf
  2568   0007B2  2183               	addwfc	(efgtoa@n+1)& (0+255),w,b
  2569   0007B4  6E02               	movwf	(strcpy@dest+1)^0,c
  2570   0007B6  0E32               	movlw	low STR_8
  2571   0007B8  6E03               	movwf	strcpy@src^0,c
  2572   0007BA  0E06               	movlw	high STR_8
  2573   0007BC  6E04               	movwf	(strcpy@src+1)^0,c
  2574   0007BE  ECC7  F019         	call	_strcpy	;wreg free
  2575   0007C2  EF9B  F003         	goto	l3525
  2576   0007C6                     l3549:
  2577                           
  2578                           ;C:\Program Files\Microchip\xc8\v2.41\pic\sources\c99\common\doprnt.c: 601:     u.f = 1.
      +                          0;
  2579   0007C6  0E00               	movlw	0
  2580   0007C8  0100               	movlb	0	; () banked
  2581   0007CA  6F88               	movwf	efgtoa@u& (0+255),b
  2582   0007CC  0E00               	movlw	0
  2583   0007CE  6F89               	movwf	(efgtoa@u+1)& (0+255),b
  2584   0007D0  0E80               	movlw	128
  2585   0007D2  6F8A               	movwf	(efgtoa@u+2)& (0+255),b
  2586   0007D4  0E3F               	movlw	63
  2587   0007D6  6F8B               	movwf	(efgtoa@u+3)& (0+255),b
  2588                           
  2589                           ;C:\Program Files\Microchip\xc8\v2.41\pic\sources\c99\common\doprnt.c: 602:     e = 0;
  2590   0007D8  0E00               	movlw	0
  2591   0007DA  6F70               	movwf	(efgtoa@e+1)& (0+255),b
  2592   0007DC  0E00               	movlw	0
  2593   0007DE  6F6F               	movwf	efgtoa@e& (0+255),b
  2594   0007E0                     
  2595                           ; BSR set to: 0
  2596                           ;C:\Program Files\Microchip\xc8\v2.41\pic\sources\c99\common\doprnt.c: 603:  if (!(g.f =
      +                          = 0.0)) {
  2597   0007E0  C084  F001         	movff	efgtoa@g,___fleq@ff1
  2598   0007E4  C085  F002         	movff	efgtoa@g+1,___fleq@ff1+1
  2599   0007E8  C086  F003         	movff	efgtoa@g+2,___fleq@ff1+2
  2600   0007EC  C087  F004         	movff	efgtoa@g+3,___fleq@ff1+3
  2601   0007F0  0E00               	movlw	0
  2602   0007F2  6E05               	movwf	___fleq@ff2^0,c
  2603   0007F4  0E00               	movlw	0
  2604   0007F6  6E06               	movwf	(___fleq@ff2+1)^0,c
  2605   0007F8  0E00               	movlw	0
  2606   0007FA  6E07               	movwf	(___fleq@ff2+2)^0,c
  2607   0007FC  0E00               	movlw	0
  2608   0007FE  6E08               	movwf	(___fleq@ff2+3)^0,c
  2609   000800  EC85  F017         	call	___fleq	;wreg free
  2610   000804  B0D8               	btfsc	status,0,c
  2611   000806  EF07  F004         	goto	u3831
  2612   00080A  EF09  F004         	goto	u3830
  2613   00080E                     u3831:
  2614   00080E  EFE8  F004         	goto	l973
  2615   000812                     u3830:
  2616   000812  EF16  F004         	goto	l3557
  2617   000816                     l975:
  2618                           
  2619                           ;C:\Program Files\Microchip\xc8\v2.41\pic\sources\c99\common\doprnt.c: 605:    u = ou;
  2620   000816  C073  F088         	movff	efgtoa@ou,efgtoa@u
  2621   00081A  C074  F089         	movff	efgtoa@ou+1,efgtoa@u+1
  2622   00081E  C075  F08A         	movff	efgtoa@ou+2,efgtoa@u+2
  2623   000822  C076  F08B         	movff	efgtoa@ou+3,efgtoa@u+3
  2624   000826                     
  2625                           ;C:\Program Files\Microchip\xc8\v2.41\pic\sources\c99\common\doprnt.c: 606:    ++e;
  2626   000826  0100               	movlb	0	; () banked
  2627   000828  4B6F               	infsnz	efgtoa@e& (0+255),f,b
  2628   00082A  2B70               	incf	(efgtoa@e+1)& (0+255),f,b
  2629   00082C                     l3557:
  2630                           
  2631                           ;C:\Program Files\Microchip\xc8\v2.41\pic\sources\c99\common\doprnt.c: 604:   while ((la
      +                          bs((g).u-((ou.f = u.f*10.0,ou)).u) <= 1) || g.f > ou.f) {
  2632   00082C  C088  F001         	movff	efgtoa@u,___flmul@b
  2633   000830  C089  F002         	movff	efgtoa@u+1,___flmul@b+1
  2634   000834  C08A  F003         	movff	efgtoa@u+2,___flmul@b+2
  2635   000838  C08B  F004         	movff	efgtoa@u+3,___flmul@b+3
  2636   00083C  0E00               	movlw	0
  2637   00083E  6E05               	movwf	___flmul@a^0,c
  2638   000840  0E00               	movlw	0
  2639   000842  6E06               	movwf	(___flmul@a+1)^0,c
  2640   000844  0E20               	movlw	32
  2641   000846  6E07               	movwf	(___flmul@a+2)^0,c
  2642   000848  0E41               	movlw	65
  2643   00084A  6E08               	movwf	(___flmul@a+3)^0,c
  2644   00084C  EC7C  F00A         	call	___flmul	;wreg free
  2645   000850  C001  F073         	movff	?___flmul,efgtoa@ou
  2646   000854  C002  F074         	movff	?___flmul+1,efgtoa@ou+1
  2647   000858  C003  F075         	movff	?___flmul+2,efgtoa@ou+2
  2648   00085C  C004  F076         	movff	?___flmul+3,efgtoa@ou+3
  2649   000860  0100               	movlb	0	; () banked
  2650   000862  5173               	movf	efgtoa@ou& (0+255),w,b
  2651   000864  5D84               	subwf	efgtoa@g& (0+255),w,b
  2652   000866  6E01               	movwf	labs@a^0,c
  2653   000868  5174               	movf	(efgtoa@ou+1)& (0+255),w,b
  2654   00086A  5985               	subwfb	(efgtoa@g+1)& (0+255),w,b
  2655   00086C  6E02               	movwf	(labs@a+1)^0,c
  2656   00086E  5175               	movf	(efgtoa@ou+2)& (0+255),w,b
  2657   000870  5986               	subwfb	(efgtoa@g+2)& (0+255),w,b
  2658   000872  6E03               	movwf	(labs@a+2)^0,c
  2659   000874  5176               	movf	(efgtoa@ou+3)& (0+255),w,b
  2660   000876  5987               	subwfb	(efgtoa@g+3)& (0+255),w,b
  2661   000878  6E04               	movwf	(labs@a+3)^0,c
  2662   00087A  EC89  F018         	call	_labs	;wreg free
  2663   00087E  BE04               	btfsc	(?_labs+3)^0,7,c
  2664   000880  EF4D  F004         	goto	u3841
  2665   000884  5004               	movf	(?_labs+3)^0,w,c
  2666   000886  1003               	iorwf	(?_labs+2)^0,w,c
  2667   000888  1002               	iorwf	(?_labs+1)^0,w,c
  2668   00088A  E109               	bnz	u3840
  2669   00088C  0E02               	movlw	2
  2670   00088E  5C01               	subwf	?_labs^0,w,c
  2671   000890  A0D8               	btfss	status,0,c
  2672   000892  EF4D  F004         	goto	u3841
  2673   000896  EF4F  F004         	goto	u3840
  2674   00089A                     u3841:
  2675   00089A  EF0B  F004         	goto	l975
  2676   00089E                     u3840:
  2677   00089E  C073  F01A         	movff	efgtoa@ou,___flge@ff1
  2678   0008A2  C074  F01B         	movff	efgtoa@ou+1,___flge@ff1+1
  2679   0008A6  C075  F01C         	movff	efgtoa@ou+2,___flge@ff1+2
  2680   0008AA  C076  F01D         	movff	efgtoa@ou+3,___flge@ff1+3
  2681   0008AE  C084  F01E         	movff	efgtoa@g,___flge@ff2
  2682   0008B2  C085  F01F         	movff	efgtoa@g+1,___flge@ff2+1
  2683   0008B6  C086  F020         	movff	efgtoa@g+2,___flge@ff2+2
  2684   0008BA  C087  F021         	movff	efgtoa@g+3,___flge@ff2+3
  2685   0008BE  EC7B  F014         	call	___flge	;wreg free
  2686   0008C2  A0D8               	btfss	status,0,c
  2687   0008C4  EF66  F004         	goto	u3851
  2688   0008C8  EF68  F004         	goto	u3850
  2689   0008CC                     u3851:
  2690   0008CC  EF0B  F004         	goto	l975
  2691   0008D0                     u3850:
  2692   0008D0                     
  2693                           ;C:\Program Files\Microchip\xc8\v2.41\pic\sources\c99\common\doprnt.c: 608:   if ((labs(
      +                          (g).u-(u).u) <= 1)) {
  2694   0008D0  0100               	movlb	0	; () banked
  2695   0008D2  5188               	movf	efgtoa@u& (0+255),w,b
  2696   0008D4  5D84               	subwf	efgtoa@g& (0+255),w,b
  2697   0008D6  6E01               	movwf	labs@a^0,c
  2698   0008D8  5189               	movf	(efgtoa@u+1)& (0+255),w,b
  2699   0008DA  5985               	subwfb	(efgtoa@g+1)& (0+255),w,b
  2700   0008DC  6E02               	movwf	(labs@a+1)^0,c
  2701   0008DE  518A               	movf	(efgtoa@u+2)& (0+255),w,b
  2702   0008E0  5986               	subwfb	(efgtoa@g+2)& (0+255),w,b
  2703   0008E2  6E03               	movwf	(labs@a+2)^0,c
  2704   0008E4  518B               	movf	(efgtoa@u+3)& (0+255),w,b
  2705   0008E6  5987               	subwfb	(efgtoa@g+3)& (0+255),w,b
  2706   0008E8  6E04               	movwf	(labs@a+3)^0,c
  2707   0008EA  EC89  F018         	call	_labs	;wreg free
  2708   0008EE  BE04               	btfsc	(?_labs+3)^0,7,c
  2709   0008F0  EF87  F004         	goto	u3860
  2710   0008F4  5004               	movf	(?_labs+3)^0,w,c
  2711   0008F6  1003               	iorwf	(?_labs+2)^0,w,c
  2712   0008F8  1002               	iorwf	(?_labs+1)^0,w,c
  2713   0008FA  E107               	bnz	u3861
  2714   0008FC  0E02               	movlw	2
  2715   0008FE  5C01               	subwf	?_labs^0,w,c
  2716   000900  B0D8               	btfsc	status,0,c
  2717   000902  EF85  F004         	goto	u3861
  2718   000906  EF87  F004         	goto	u3860
  2719   00090A                     u3861:
  2720   00090A  EFCF  F004         	goto	l3575
  2721   00090E                     u3860:
  2722   00090E                     l3565:
  2723                           
  2724                           ;C:\Program Files\Microchip\xc8\v2.41\pic\sources\c99\common\doprnt.c: 609:    g = u;
  2725   00090E  C088  F084         	movff	efgtoa@u,efgtoa@g
  2726   000912  C089  F085         	movff	efgtoa@u+1,efgtoa@g+1
  2727   000916  C08A  F086         	movff	efgtoa@u+2,efgtoa@g+2
  2728   00091A  C08B  F087         	movff	efgtoa@u+3,efgtoa@g+3
  2729                           
  2730                           ;C:\Program Files\Microchip\xc8\v2.41\pic\sources\c99\common\doprnt.c: 610:   }
  2731   00091E  EFE8  F004         	goto	l973
  2732   000922                     l3567:
  2733                           
  2734                           ;C:\Program Files\Microchip\xc8\v2.41\pic\sources\c99\common\doprnt.c: 613:     u.f = u.
      +                          f/10.0;
  2735   000922  C088  F001         	movff	efgtoa@u,___fldiv@b
  2736   000926  C089  F002         	movff	efgtoa@u+1,___fldiv@b+1
  2737   00092A  C08A  F003         	movff	efgtoa@u+2,___fldiv@b+2
  2738   00092E  C08B  F004         	movff	efgtoa@u+3,___fldiv@b+3
  2739   000932  0E00               	movlw	0
  2740   000934  6E05               	movwf	___fldiv@a^0,c
  2741   000936  0E00               	movlw	0
  2742   000938  6E06               	movwf	(___fldiv@a+1)^0,c
  2743   00093A  0E20               	movlw	32
  2744   00093C  6E07               	movwf	(___fldiv@a+2)^0,c
  2745   00093E  0E41               	movlw	65
  2746   000940  6E08               	movwf	(___fldiv@a+3)^0,c
  2747   000942  EC91  F00C         	call	___fldiv	;wreg free
  2748   000946  C001  F088         	movff	?___fldiv,efgtoa@u
  2749   00094A  C002  F089         	movff	?___fldiv+1,efgtoa@u+1
  2750   00094E  C003  F08A         	movff	?___fldiv+2,efgtoa@u+2
  2751   000952  C004  F08B         	movff	?___fldiv+3,efgtoa@u+3
  2752   000956                     
  2753                           ;C:\Program Files\Microchip\xc8\v2.41\pic\sources\c99\common\doprnt.c: 614:     --e;
  2754   000956  0100               	movlb	0	; () banked
  2755   000958  076F               	decf	efgtoa@e& (0+255),f,b
  2756   00095A  A0D8               	btfss	status,0,c
  2757   00095C  0770               	decf	(efgtoa@e+1)& (0+255),f,b
  2758   00095E                     
  2759                           ; BSR set to: 0
  2760                           ;C:\Program Files\Microchip\xc8\v2.41\pic\sources\c99\common\doprnt.c: 615:     if ((lab
      +                          s((g).u-(u).u) <= 1)) {
  2761   00095E  5188               	movf	efgtoa@u& (0+255),w,b
  2762   000960  5D84               	subwf	efgtoa@g& (0+255),w,b
  2763   000962  6E01               	movwf	labs@a^0,c
  2764   000964  5189               	movf	(efgtoa@u+1)& (0+255),w,b
  2765   000966  5985               	subwfb	(efgtoa@g+1)& (0+255),w,b
  2766   000968  6E02               	movwf	(labs@a+1)^0,c
  2767   00096A  518A               	movf	(efgtoa@u+2)& (0+255),w,b
  2768   00096C  5986               	subwfb	(efgtoa@g+2)& (0+255),w,b
  2769   00096E  6E03               	movwf	(labs@a+2)^0,c
  2770   000970  518B               	movf	(efgtoa@u+3)& (0+255),w,b
  2771   000972  5987               	subwfb	(efgtoa@g+3)& (0+255),w,b
  2772   000974  6E04               	movwf	(labs@a+3)^0,c
  2773   000976  EC89  F018         	call	_labs	;wreg free
  2774   00097A  BE04               	btfsc	(?_labs+3)^0,7,c
  2775   00097C  EFCD  F004         	goto	u3870
  2776   000980  5004               	movf	(?_labs+3)^0,w,c
  2777   000982  1003               	iorwf	(?_labs+2)^0,w,c
  2778   000984  1002               	iorwf	(?_labs+1)^0,w,c
  2779   000986  E107               	bnz	u3871
  2780   000988  0E02               	movlw	2
  2781   00098A  5C01               	subwf	?_labs^0,w,c
  2782   00098C  B0D8               	btfsc	status,0,c
  2783   00098E  EFCB  F004         	goto	u3871
  2784   000992  EFCD  F004         	goto	u3870
  2785   000996                     u3871:
  2786   000996  EFCF  F004         	goto	l3575
  2787   00099A                     u3870:
  2788   00099A  EF87  F004         	goto	l3565
  2789   00099E                     l3575:
  2790                           
  2791                           ;C:\Program Files\Microchip\xc8\v2.41\pic\sources\c99\common\doprnt.c: 612:    while (g.
      +                          f < u.f) {
  2792   00099E  C084  F01A         	movff	efgtoa@g,___flge@ff1
  2793   0009A2  C085  F01B         	movff	efgtoa@g+1,___flge@ff1+1
  2794   0009A6  C086  F01C         	movff	efgtoa@g+2,___flge@ff1+2
  2795   0009AA  C087  F01D         	movff	efgtoa@g+3,___flge@ff1+3
  2796   0009AE  C088  F01E         	movff	efgtoa@u,___flge@ff2
  2797   0009B2  C089  F01F         	movff	efgtoa@u+1,___flge@ff2+1
  2798   0009B6  C08A  F020         	movff	efgtoa@u+2,___flge@ff2+2
  2799   0009BA  C08B  F021         	movff	efgtoa@u+3,___flge@ff2+3
  2800   0009BE  EC7B  F014         	call	___flge	;wreg free
  2801   0009C2  A0D8               	btfss	status,0,c
  2802   0009C4  EFE6  F004         	goto	u3881
  2803   0009C8  EFE8  F004         	goto	u3880
  2804   0009CC                     u3881:
  2805   0009CC  EF91  F004         	goto	l3567
  2806   0009D0                     u3880:
  2807   0009D0                     l973:
  2808                           
  2809                           ;C:\Program Files\Microchip\xc8\v2.41\pic\sources\c99\common\doprnt.c: 627:  mode = c;
  2810   0009D0  C034  F069         	movff	efgtoa@c,efgtoa@mode
  2811                           
  2812                           ;C:\Program Files\Microchip\xc8\v2.41\pic\sources\c99\common\doprnt.c: 629:     nmode = 
      +                          mode;
  2813   0009D4  C069  F06A         	movff	efgtoa@mode,efgtoa@nmode
  2814   0009D8                     
  2815                           ;C:\Program Files\Microchip\xc8\v2.41\pic\sources\c99\common\doprnt.c: 639:  {;C:\Progra
      +                          m Files\Microchip\xc8\v2.41\pic\sources\c99\common\doprnt.c: 640:         p = (prec < 0)
      +                           ? 6 : prec;
  2816   0009D8  BE5C               	btfsc	(_prec+1)^0,7,c
  2817   0009DA  EFF1  F004         	goto	u3891
  2818   0009DE  EFF3  F004         	goto	u3890
  2819   0009E2                     u3891:
  2820   0009E2  EFF9  F004         	goto	l3581
  2821   0009E6                     u3890:
  2822   0009E6  C05B  F062         	movff	_prec,efgtoa@p
  2823   0009EA  C05C  F063         	movff	_prec+1,efgtoa@p+1
  2824   0009EE  EFFE  F004         	goto	l3583
  2825   0009F2                     l3581:
  2826   0009F2  0E00               	movlw	0
  2827   0009F4  0100               	movlb	0	; () banked
  2828   0009F6  6F63               	movwf	(efgtoa@p+1)& (0+255),b
  2829   0009F8  0E06               	movlw	6
  2830   0009FA  6F62               	movwf	efgtoa@p& (0+255),b
  2831   0009FC                     l3583:
  2832                           
  2833                           ;C:\Program Files\Microchip\xc8\v2.41\pic\sources\c99\common\doprnt.c: 641:     };C:\Pro
      +                          gram Files\Microchip\xc8\v2.41\pic\sources\c99\common\doprnt.c: 655:     m = p;
  2834   0009FC  C062  F06D         	movff	efgtoa@p,efgtoa@m
  2835   000A00  C063  F06E         	movff	efgtoa@p+1,efgtoa@m+1
  2836   000A04                     
  2837                           ;C:\Program Files\Microchip\xc8\v2.41\pic\sources\c99\common\doprnt.c: 659:  {;C:\Progra
      +                          m Files\Microchip\xc8\v2.41\pic\sources\c99\common\doprnt.c: 660:         ++m;
  2838   000A04  0100               	movlb	0	; () banked
  2839   000A06  4B6D               	infsnz	efgtoa@m& (0+255),f,b
  2840   000A08  2B6E               	incf	(efgtoa@m+1)& (0+255),f,b
  2841   000A0A                     
  2842                           ; BSR set to: 0
  2843                           ;C:\Program Files\Microchip\xc8\v2.41\pic\sources\c99\common\doprnt.c: 661:     };C:\Pro
      +                          gram Files\Microchip\xc8\v2.41\pic\sources\c99\common\doprnt.c: 665:     if (nmode == 'f
      +                          ') {
  2844   000A0A  0E66               	movlw	102
  2845   000A0C  196A               	xorwf	efgtoa@nmode& (0+255),w,b
  2846   000A0E  A4D8               	btfss	status,2,c
  2847   000A10  EF0C  F005         	goto	u3901
  2848   000A14  EF0E  F005         	goto	u3900
  2849   000A18                     u3901:
  2850   000A18  EF2E  F005         	goto	l3597
  2851   000A1C                     u3900:
  2852   000A1C                     
  2853                           ; BSR set to: 0
  2854                           ;C:\Program Files\Microchip\xc8\v2.41\pic\sources\c99\common\doprnt.c: 666:         if (
      +                          e < 0) {
  2855   000A1C  BF70               	btfsc	(efgtoa@e+1)& (0+255),7,b
  2856   000A1E  EF15  F005         	goto	u3910
  2857   000A22  EF13  F005         	goto	u3911
  2858   000A26                     u3911:
  2859   000A26  EF21  F005         	goto	l3593
  2860   000A2A                     u3910:
  2861   000A2A                     
  2862                           ; BSR set to: 0
  2863                           ;C:\Program Files\Microchip\xc8\v2.41\pic\sources\c99\common\doprnt.c: 667:             
      +                          u.f = 1.0;
  2864   000A2A  0E00               	movlw	0
  2865   000A2C  6F88               	movwf	efgtoa@u& (0+255),b
  2866   000A2E  0E00               	movlw	0
  2867   000A30  6F89               	movwf	(efgtoa@u+1)& (0+255),b
  2868   000A32  0E80               	movlw	128
  2869   000A34  6F8A               	movwf	(efgtoa@u+2)& (0+255),b
  2870   000A36  0E3F               	movlw	63
  2871   000A38  6F8B               	movwf	(efgtoa@u+3)& (0+255),b
  2872                           
  2873                           ;C:\Program Files\Microchip\xc8\v2.41\pic\sources\c99\common\doprnt.c: 668:             
      +                          e = 0;
  2874   000A3A  0E00               	movlw	0
  2875   000A3C  6F70               	movwf	(efgtoa@e+1)& (0+255),b
  2876   000A3E  0E00               	movlw	0
  2877   000A40  6F6F               	movwf	efgtoa@e& (0+255),b
  2878   000A42                     l3593:
  2879                           
  2880                           ; BSR set to: 0
  2881                           ;C:\Program Files\Microchip\xc8\v2.41\pic\sources\c99\common\doprnt.c: 670:         if (
      +                          !(mode == 'g')) {
  2882   000A42  0E67               	movlw	103
  2883   000A44  1969               	xorwf	efgtoa@mode& (0+255),w,b
  2884   000A46  B4D8               	btfsc	status,2,c
  2885   000A48  EF28  F005         	goto	u3921
  2886   000A4C  EF2A  F005         	goto	u3920
  2887   000A50                     u3921:
  2888   000A50  EF2E  F005         	goto	l3597
  2889   000A54                     u3920:
  2890   000A54                     
  2891                           ; BSR set to: 0
  2892                           ;C:\Program Files\Microchip\xc8\v2.41\pic\sources\c99\common\doprnt.c: 671:             
      +                          m += e;
  2893   000A54  516F               	movf	efgtoa@e& (0+255),w,b
  2894   000A56  276D               	addwf	efgtoa@m& (0+255),f,b
  2895   000A58  5170               	movf	(efgtoa@e+1)& (0+255),w,b
  2896   000A5A  236E               	addwfc	(efgtoa@m+1)& (0+255),f,b
  2897   000A5C                     l3597:
  2898                           
  2899                           ; BSR set to: 0
  2900                           ;C:\Program Files\Microchip\xc8\v2.41\pic\sources\c99\common\doprnt.c: 677:     i = 0;
  2901   000A5C  0E00               	movlw	0
  2902   000A5E  6F78               	movwf	(efgtoa@i+1)& (0+255),b
  2903   000A60  0E00               	movlw	0
  2904   000A62  6F77               	movwf	efgtoa@i& (0+255),b
  2905   000A64                     
  2906                           ; BSR set to: 0
  2907                           ;C:\Program Files\Microchip\xc8\v2.41\pic\sources\c99\common\doprnt.c: 678:     h = g.f;
  2908   000A64  C084  F079         	movff	efgtoa@g,efgtoa@h
  2909   000A68  C085  F07A         	movff	efgtoa@g+1,efgtoa@h+1
  2910   000A6C  C086  F07B         	movff	efgtoa@g+2,efgtoa@h+2
  2911   000A70  C087  F07C         	movff	efgtoa@g+3,efgtoa@h+3
  2912   000A74                     
  2913                           ; BSR set to: 0
  2914                           ;C:\Program Files\Microchip\xc8\v2.41\pic\sources\c99\common\doprnt.c: 679:     ou = u;
  2915   000A74  C088  F073         	movff	efgtoa@u,efgtoa@ou
  2916   000A78  C089  F074         	movff	efgtoa@u+1,efgtoa@ou+1
  2917   000A7C  C08A  F075         	movff	efgtoa@u+2,efgtoa@ou+2
  2918   000A80  C08B  F076         	movff	efgtoa@u+3,efgtoa@ou+3
  2919                           
  2920                           ;C:\Program Files\Microchip\xc8\v2.41\pic\sources\c99\common\doprnt.c: 680:     while (i
      +                           < m) {
  2921   000A84  EFBF  F005         	goto	l3611
  2922   000A88                     l3603:
  2923                           
  2924                           ; BSR set to: 0
  2925                           ;C:\Program Files\Microchip\xc8\v2.41\pic\sources\c99\common\doprnt.c: 681:         l = 
      +                          floorf(h/u.f);
  2926   000A88  C079  F001         	movff	efgtoa@h,___fldiv@b
  2927   000A8C  C07A  F002         	movff	efgtoa@h+1,___fldiv@b+1
  2928   000A90  C07B  F003         	movff	efgtoa@h+2,___fldiv@b+2
  2929   000A94  C07C  F004         	movff	efgtoa@h+3,___fldiv@b+3
  2930   000A98  C088  F005         	movff	efgtoa@u,___fldiv@a
  2931   000A9C  C089  F006         	movff	efgtoa@u+1,___fldiv@a+1
  2932   000AA0  C08A  F007         	movff	efgtoa@u+2,___fldiv@a+2
  2933   000AA4  C08B  F008         	movff	efgtoa@u+3,___fldiv@a+3
  2934   000AA8  EC91  F00C         	call	___fldiv	;wreg free
  2935   000AAC  C001  F01A         	movff	?___fldiv,floorf@x
  2936   000AB0  C002  F01B         	movff	?___fldiv+1,floorf@x+1
  2937   000AB4  C003  F01C         	movff	?___fldiv+2,floorf@x+2
  2938   000AB8  C004  F01D         	movff	?___fldiv+3,floorf@x+3
  2939   000ABC  EC28  F010         	call	_floorf	;wreg free
  2940   000AC0  C01A  F07D         	movff	?_floorf,efgtoa@l
  2941   000AC4  C01B  F07E         	movff	?_floorf+1,efgtoa@l+1
  2942   000AC8  C01C  F07F         	movff	?_floorf+2,efgtoa@l+2
  2943   000ACC  C01D  F080         	movff	?_floorf+3,efgtoa@l+3
  2944                           
  2945                           ;C:\Program Files\Microchip\xc8\v2.41\pic\sources\c99\common\doprnt.c: 682:         d = 
      +                          (int)l;
  2946   000AD0  C07D  F001         	movff	efgtoa@l,___fltol@f1
  2947   000AD4  C07E  F002         	movff	efgtoa@l+1,___fltol@f1+1
  2948   000AD8  C07F  F003         	movff	efgtoa@l+2,___fltol@f1+2
  2949   000ADC  C080  F004         	movff	efgtoa@l+3,___fltol@f1+3
  2950   000AE0  ECF8  F013         	call	___fltol	;wreg free
  2951   000AE4  C001  F06B         	movff	?___fltol,efgtoa@d
  2952   000AE8  C002  F06C         	movff	?___fltol+1,efgtoa@d+1
  2953   000AEC                     
  2954                           ;C:\Program Files\Microchip\xc8\v2.41\pic\sources\c99\common\doprnt.c: 683:         h -=
      +                           l*u.f;
  2955   000AEC  C079  F01A         	movff	efgtoa@h,___flsub@b
  2956   000AF0  C07A  F01B         	movff	efgtoa@h+1,___flsub@b+1
  2957   000AF4  C07B  F01C         	movff	efgtoa@h+2,___flsub@b+2
  2958   000AF8  C07C  F01D         	movff	efgtoa@h+3,___flsub@b+3
  2959   000AFC  C07D  F005         	movff	efgtoa@l,___flmul@a
  2960   000B00  C07E  F006         	movff	efgtoa@l+1,___flmul@a+1
  2961   000B04  C07F  F007         	movff	efgtoa@l+2,___flmul@a+2
  2962   000B08  C080  F008         	movff	efgtoa@l+3,___flmul@a+3
  2963   000B0C  C088  F001         	movff	efgtoa@u,___flmul@b
  2964   000B10  C089  F002         	movff	efgtoa@u+1,___flmul@b+1
  2965   000B14  C08A  F003         	movff	efgtoa@u+2,___flmul@b+2
  2966   000B18  C08B  F004         	movff	efgtoa@u+3,___flmul@b+3
  2967   000B1C  EC7C  F00A         	call	___flmul	;wreg free
  2968   000B20  C001  F01E         	movff	?___flmul,___flsub@a
  2969   000B24  C002  F01F         	movff	?___flmul+1,___flsub@a+1
  2970   000B28  C003  F020         	movff	?___flmul+2,___flsub@a+2
  2971   000B2C  C004  F021         	movff	?___flmul+3,___flsub@a+3
  2972   000B30  EC82  F019         	call	___flsub	;wreg free
  2973   000B34  C01A  F079         	movff	?___flsub,efgtoa@h
  2974   000B38  C01B  F07A         	movff	?___flsub+1,efgtoa@h+1
  2975   000B3C  C01C  F07B         	movff	?___flsub+2,efgtoa@h+2
  2976   000B40  C01D  F07C         	movff	?___flsub+3,efgtoa@h+3
  2977   000B44                     
  2978                           ;C:\Program Files\Microchip\xc8\v2.41\pic\sources\c99\common\doprnt.c: 684:         u.f 
      +                          = u.f/10.0;
  2979   000B44  C088  F001         	movff	efgtoa@u,___fldiv@b
  2980   000B48  C089  F002         	movff	efgtoa@u+1,___fldiv@b+1
  2981   000B4C  C08A  F003         	movff	efgtoa@u+2,___fldiv@b+2
  2982   000B50  C08B  F004         	movff	efgtoa@u+3,___fldiv@b+3
  2983   000B54  0E00               	movlw	0
  2984   000B56  6E05               	movwf	___fldiv@a^0,c
  2985   000B58  0E00               	movlw	0
  2986   000B5A  6E06               	movwf	(___fldiv@a+1)^0,c
  2987   000B5C  0E20               	movlw	32
  2988   000B5E  6E07               	movwf	(___fldiv@a+2)^0,c
  2989   000B60  0E41               	movlw	65
  2990   000B62  6E08               	movwf	(___fldiv@a+3)^0,c
  2991   000B64  EC91  F00C         	call	___fldiv	;wreg free
  2992   000B68  C001  F088         	movff	?___fldiv,efgtoa@u
  2993   000B6C  C002  F089         	movff	?___fldiv+1,efgtoa@u+1
  2994   000B70  C003  F08A         	movff	?___fldiv+2,efgtoa@u+2
  2995   000B74  C004  F08B         	movff	?___fldiv+3,efgtoa@u+3
  2996   000B78                     
  2997                           ;C:\Program Files\Microchip\xc8\v2.41\pic\sources\c99\common\doprnt.c: 685:         ++i;
  2998   000B78  0100               	movlb	0	; () banked
  2999   000B7A  4B77               	infsnz	efgtoa@i& (0+255),f,b
  3000   000B7C  2B78               	incf	(efgtoa@i+1)& (0+255),f,b
  3001   000B7E                     l3611:
  3002                           
  3003                           ; BSR set to: 0
  3004                           ;C:\Program Files\Microchip\xc8\v2.41\pic\sources\c99\common\doprnt.c: 680:     while (i
      +                           < m) {
  3005   000B7E  516D               	movf	efgtoa@m& (0+255),w,b
  3006   000B80  5D77               	subwf	efgtoa@i& (0+255),w,b
  3007   000B82  5178               	movf	(efgtoa@i+1)& (0+255),w,b
  3008   000B84  0A80               	xorlw	128
  3009   000B86  6E35               	movwf	??_efgtoa^0,c
  3010   000B88  516E               	movf	(efgtoa@m+1)& (0+255),w,b
  3011   000B8A  0A80               	xorlw	128
  3012   000B8C  5835               	subwfb	??_efgtoa^0,w,c
  3013   000B8E  A0D8               	btfss	status,0,c
  3014   000B90  EFCC  F005         	goto	u3931
  3015   000B94  EFCE  F005         	goto	u3930
  3016   000B98                     u3931:
  3017   000B98  EF44  F005         	goto	l3603
  3018   000B9C                     u3930:
  3019   000B9C                     
  3020                           ; BSR set to: 0
  3021                           ;C:\Program Files\Microchip\xc8\v2.41\pic\sources\c99\common\doprnt.c: 689:     l = u.f*
      +                          5.0;
  3022   000B9C  C088  F001         	movff	efgtoa@u,___flmul@b
  3023   000BA0  C089  F002         	movff	efgtoa@u+1,___flmul@b+1
  3024   000BA4  C08A  F003         	movff	efgtoa@u+2,___flmul@b+2
  3025   000BA8  C08B  F004         	movff	efgtoa@u+3,___flmul@b+3
  3026   000BAC  0E00               	movlw	0
  3027   000BAE  6E05               	movwf	___flmul@a^0,c
  3028   000BB0  0E00               	movlw	0
  3029   000BB2  6E06               	movwf	(___flmul@a+1)^0,c
  3030   000BB4  0EA0               	movlw	160
  3031   000BB6  6E07               	movwf	(___flmul@a+2)^0,c
  3032   000BB8  0E40               	movlw	64
  3033   000BBA  6E08               	movwf	(___flmul@a+3)^0,c
  3034   000BBC  EC7C  F00A         	call	___flmul	;wreg free
  3035   000BC0  C001  F07D         	movff	?___flmul,efgtoa@l
  3036   000BC4  C002  F07E         	movff	?___flmul+1,efgtoa@l+1
  3037   000BC8  C003  F07F         	movff	?___flmul+2,efgtoa@l+2
  3038   000BCC  C004  F080         	movff	?___flmul+3,efgtoa@l+3
  3039   000BD0                     
  3040                           ;C:\Program Files\Microchip\xc8\v2.41\pic\sources\c99\common\doprnt.c: 690:     if (h < 
      +                          l) {
  3041   000BD0  C079  F01A         	movff	efgtoa@h,___flge@ff1
  3042   000BD4  C07A  F01B         	movff	efgtoa@h+1,___flge@ff1+1
  3043   000BD8  C07B  F01C         	movff	efgtoa@h+2,___flge@ff1+2
  3044   000BDC  C07C  F01D         	movff	efgtoa@h+3,___flge@ff1+3
  3045   000BE0  C07D  F01E         	movff	efgtoa@l,___flge@ff2
  3046   000BE4  C07E  F01F         	movff	efgtoa@l+1,___flge@ff2+1
  3047   000BE8  C07F  F020         	movff	efgtoa@l+2,___flge@ff2+2
  3048   000BEC  C080  F021         	movff	efgtoa@l+3,___flge@ff2+3
  3049   000BF0  EC7B  F014         	call	___flge	;wreg free
  3050   000BF4  B0D8               	btfsc	status,0,c
  3051   000BF6  EFFF  F005         	goto	u3941
  3052   000BFA  EF01  F006         	goto	u3940
  3053   000BFE                     u3941:
  3054   000BFE  EF0C  F006         	goto	l3619
  3055   000C02                     u3940:
  3056   000C02                     
  3057                           ;C:\Program Files\Microchip\xc8\v2.41\pic\sources\c99\common\doprnt.c: 691:         l = 
      +                          0.0;
  3058   000C02  0E00               	movlw	0
  3059   000C04  0100               	movlb	0	; () banked
  3060   000C06  6F7D               	movwf	efgtoa@l& (0+255),b
  3061   000C08  0E00               	movlw	0
  3062   000C0A  6F7E               	movwf	(efgtoa@l+1)& (0+255),b
  3063   000C0C  0E00               	movlw	0
  3064   000C0E  6F7F               	movwf	(efgtoa@l+2)& (0+255),b
  3065   000C10  0E00               	movlw	0
  3066   000C12  6F80               	movwf	(efgtoa@l+3)& (0+255),b
  3067                           
  3068                           ;C:\Program Files\Microchip\xc8\v2.41\pic\sources\c99\common\doprnt.c: 692:     } else {
  3069   000C14  EF35  F006         	goto	l3625
  3070   000C18                     l3619:
  3071                           
  3072                           ;C:\Program Files\Microchip\xc8\v2.41\pic\sources\c99\common\doprnt.c: 694:         if (
      +                          (h == l) && !(d % 2)) {
  3073   000C18  C079  F001         	movff	efgtoa@h,___fleq@ff1
  3074   000C1C  C07A  F002         	movff	efgtoa@h+1,___fleq@ff1+1
  3075   000C20  C07B  F003         	movff	efgtoa@h+2,___fleq@ff1+2
  3076   000C24  C07C  F004         	movff	efgtoa@h+3,___fleq@ff1+3
  3077   000C28  C07D  F005         	movff	efgtoa@l,___fleq@ff2
  3078   000C2C  C07E  F006         	movff	efgtoa@l+1,___fleq@ff2+1
  3079   000C30  C07F  F007         	movff	efgtoa@l+2,___fleq@ff2+2
  3080   000C34  C080  F008         	movff	efgtoa@l+3,___fleq@ff2+3
  3081   000C38  EC85  F017         	call	___fleq	;wreg free
  3082   000C3C  A0D8               	btfss	status,0,c
  3083   000C3E  EF23  F006         	goto	u3951
  3084   000C42  EF25  F006         	goto	u3950
  3085   000C46                     u3951:
  3086   000C46  EF35  F006         	goto	l3625
  3087   000C4A                     u3950:
  3088   000C4A  0100               	movlb	0	; () banked
  3089   000C4C  B16B               	btfsc	efgtoa@d& (0+255),0,b
  3090   000C4E  EF2B  F006         	goto	u3961
  3091   000C52  EF2D  F006         	goto	u3960
  3092   000C56                     u3961:
  3093   000C56  EF35  F006         	goto	l3625
  3094   000C5A                     u3960:
  3095   000C5A                     
  3096                           ; BSR set to: 0
  3097                           ;C:\Program Files\Microchip\xc8\v2.41\pic\sources\c99\common\doprnt.c: 695:             
      +                          l = 0.0;
  3098   000C5A  0E00               	movlw	0
  3099   000C5C  6F7D               	movwf	efgtoa@l& (0+255),b
  3100   000C5E  0E00               	movlw	0
  3101   000C60  6F7E               	movwf	(efgtoa@l+1)& (0+255),b
  3102   000C62  0E00               	movlw	0
  3103   000C64  6F7F               	movwf	(efgtoa@l+2)& (0+255),b
  3104   000C66  0E00               	movlw	0
  3105   000C68  6F80               	movwf	(efgtoa@l+3)& (0+255),b
  3106   000C6A                     l3625:
  3107                           
  3108                           ;C:\Program Files\Microchip\xc8\v2.41\pic\sources\c99\common\doprnt.c: 700:     h = g.f 
      +                          + l;
  3109   000C6A  C084  F001         	movff	efgtoa@g,___fladd@b
  3110   000C6E  C085  F002         	movff	efgtoa@g+1,___fladd@b+1
  3111   000C72  C086  F003         	movff	efgtoa@g+2,___fladd@b+2
  3112   000C76  C087  F004         	movff	efgtoa@g+3,___fladd@b+3
  3113   000C7A  C07D  F005         	movff	efgtoa@l,___fladd@a
  3114   000C7E  C07E  F006         	movff	efgtoa@l+1,___fladd@a+1
  3115   000C82  C07F  F007         	movff	efgtoa@l+2,___fladd@a+2
  3116   000C86  C080  F008         	movff	efgtoa@l+3,___fladd@a+3
  3117   000C8A  EC1C  F008         	call	___fladd	;wreg free
  3118   000C8E  C001  F079         	movff	?___fladd,efgtoa@h
  3119   000C92  C002  F07A         	movff	?___fladd+1,efgtoa@h+1
  3120   000C96  C003  F07B         	movff	?___fladd+2,efgtoa@h+2
  3121   000C9A  C004  F07C         	movff	?___fladd+3,efgtoa@h+3
  3122   000C9E                     
  3123                           ;C:\Program Files\Microchip\xc8\v2.41\pic\sources\c99\common\doprnt.c: 702:  if (h >= (o
      +                          u.f*10.0)) {
  3124   000C9E  C079  F01A         	movff	efgtoa@h,___flge@ff1
  3125   000CA2  C07A  F01B         	movff	efgtoa@h+1,___flge@ff1+1
  3126   000CA6  C07B  F01C         	movff	efgtoa@h+2,___flge@ff1+2
  3127   000CAA  C07C  F01D         	movff	efgtoa@h+3,___flge@ff1+3
  3128   000CAE  0E00               	movlw	0
  3129   000CB0  6E05               	movwf	___flmul@a^0,c
  3130   000CB2  0E00               	movlw	0
  3131   000CB4  6E06               	movwf	(___flmul@a+1)^0,c
  3132   000CB6  0E20               	movlw	32
  3133   000CB8  6E07               	movwf	(___flmul@a+2)^0,c
  3134   000CBA  0E41               	movlw	65
  3135   000CBC  6E08               	movwf	(___flmul@a+3)^0,c
  3136   000CBE  C073  F001         	movff	efgtoa@ou,___flmul@b
  3137   000CC2  C074  F002         	movff	efgtoa@ou+1,___flmul@b+1
  3138   000CC6  C075  F003         	movff	efgtoa@ou+2,___flmul@b+2
  3139   000CCA  C076  F004         	movff	efgtoa@ou+3,___flmul@b+3
  3140   000CCE  EC7C  F00A         	call	___flmul	;wreg free
  3141   000CD2  C001  F01E         	movff	?___flmul,___flge@ff2
  3142   000CD6  C002  F01F         	movff	?___flmul+1,___flge@ff2+1
  3143   000CDA  C003  F020         	movff	?___flmul+2,___flge@ff2+2
  3144   000CDE  C004  F021         	movff	?___flmul+3,___flge@ff2+3
  3145   000CE2  EC7B  F014         	call	___flge	;wreg free
  3146   000CE6  A0D8               	btfss	status,0,c
  3147   000CE8  EF78  F006         	goto	u3971
  3148   000CEC  EF7A  F006         	goto	u3970
  3149   000CF0                     u3971:
  3150   000CF0  EFA3  F006         	goto	l3637
  3151   000CF4                     u3970:
  3152   000CF4                     
  3153                           ;C:\Program Files\Microchip\xc8\v2.41\pic\sources\c99\common\doprnt.c: 703:   e++;
  3154   000CF4  0100               	movlb	0	; () banked
  3155   000CF6  4B6F               	infsnz	efgtoa@e& (0+255),f,b
  3156   000CF8  2B70               	incf	(efgtoa@e+1)& (0+255),f,b
  3157   000CFA                     
  3158                           ; BSR set to: 0
  3159                           ;C:\Program Files\Microchip\xc8\v2.41\pic\sources\c99\common\doprnt.c: 704:   ou.f *= 10
      +                          .0;
  3160   000CFA  C073  F001         	movff	efgtoa@ou,___flmul@b
  3161   000CFE  C074  F002         	movff	efgtoa@ou+1,___flmul@b+1
  3162   000D02  C075  F003         	movff	efgtoa@ou+2,___flmul@b+2
  3163   000D06  C076  F004         	movff	efgtoa@ou+3,___flmul@b+3
  3164   000D0A  0E00               	movlw	0
  3165   000D0C  6E05               	movwf	___flmul@a^0,c
  3166   000D0E  0E00               	movlw	0
  3167   000D10  6E06               	movwf	(___flmul@a+1)^0,c
  3168   000D12  0E20               	movlw	32
  3169   000D14  6E07               	movwf	(___flmul@a+2)^0,c
  3170   000D16  0E41               	movlw	65
  3171   000D18  6E08               	movwf	(___flmul@a+3)^0,c
  3172   000D1A  EC7C  F00A         	call	___flmul	;wreg free
  3173   000D1E  C001  F073         	movff	?___flmul,efgtoa@ou
  3174   000D22  C002  F074         	movff	?___flmul+1,efgtoa@ou+1
  3175   000D26  C003  F075         	movff	?___flmul+2,efgtoa@ou+2
  3176   000D2A  C004  F076         	movff	?___flmul+3,efgtoa@ou+3
  3177   000D2E                     
  3178                           ;C:\Program Files\Microchip\xc8\v2.41\pic\sources\c99\common\doprnt.c: 706:   if (nmode 
      +                          == 'f') {
  3179   000D2E  0E66               	movlw	102
  3180   000D30  0100               	movlb	0	; () banked
  3181   000D32  196A               	xorwf	efgtoa@nmode& (0+255),w,b
  3182   000D34  A4D8               	btfss	status,2,c
  3183   000D36  EF9F  F006         	goto	u3981
  3184   000D3A  EFA1  F006         	goto	u3980
  3185   000D3E                     u3981:
  3186   000D3E  EFA3  F006         	goto	l3637
  3187   000D42                     u3980:
  3188   000D42                     
  3189                           ; BSR set to: 0
  3190                           ;C:\Program Files\Microchip\xc8\v2.41\pic\sources\c99\common\doprnt.c: 708:    m++;
  3191   000D42  4B6D               	infsnz	efgtoa@m& (0+255),f,b
  3192   000D44  2B6E               	incf	(efgtoa@m+1)& (0+255),f,b
  3193   000D46                     l3637:
  3194                           
  3195                           ;C:\Program Files\Microchip\xc8\v2.41\pic\sources\c99\common\doprnt.c: 714:     u = ou;
  3196   000D46  C073  F088         	movff	efgtoa@ou,efgtoa@u
  3197   000D4A  C074  F089         	movff	efgtoa@ou+1,efgtoa@u+1
  3198   000D4E  C075  F08A         	movff	efgtoa@ou+2,efgtoa@u+2
  3199   000D52  C076  F08B         	movff	efgtoa@ou+3,efgtoa@u+3
  3200   000D56                     
  3201                           ;C:\Program Files\Microchip\xc8\v2.41\pic\sources\c99\common\doprnt.c: 718:  ne = e;
  3202   000D56  C06F  F060         	movff	efgtoa@e,efgtoa@ne
  3203   000D5A  C070  F061         	movff	efgtoa@e+1,efgtoa@ne+1
  3204   000D5E                     
  3205                           ;C:\Program Files\Microchip\xc8\v2.41\pic\sources\c99\common\doprnt.c: 720:     pp = 0;
  3206   000D5E  0E00               	movlw	0
  3207   000D60  0100               	movlb	0	; () banked
  3208   000D62  6F68               	movwf	efgtoa@pp& (0+255),b
  3209   000D64                     
  3210                           ; BSR set to: 0
  3211                           ;C:\Program Files\Microchip\xc8\v2.41\pic\sources\c99\common\doprnt.c: 721:     t = 0;
  3212   000D64  0E00               	movlw	0
  3213   000D66  6F65               	movwf	(efgtoa@t+1)& (0+255),b
  3214   000D68  0E00               	movlw	0
  3215   000D6A  6F64               	movwf	efgtoa@t& (0+255),b
  3216   000D6C                     
  3217                           ; BSR set to: 0
  3218                           ;C:\Program Files\Microchip\xc8\v2.41\pic\sources\c99\common\doprnt.c: 722:     i = 0;
  3219   000D6C  0E00               	movlw	0
  3220   000D6E  6F78               	movwf	(efgtoa@i+1)& (0+255),b
  3221   000D70  0E00               	movlw	0
  3222   000D72  6F77               	movwf	efgtoa@i& (0+255),b
  3223                           
  3224                           ;C:\Program Files\Microchip\xc8\v2.41\pic\sources\c99\common\doprnt.c: 723:     while ((
      +                          i < m) && (n < (80 - 5))) {
  3225   000D74  EFA1  F007         	goto	l3687
  3226   000D78                     l3647:
  3227                           
  3228                           ; BSR set to: 0
  3229                           ;C:\Program Files\Microchip\xc8\v2.41\pic\sources\c99\common\doprnt.c: 724:         l = 
      +                          floorf(h/u.f);
  3230   000D78  C079  F001         	movff	efgtoa@h,___fldiv@b
  3231   000D7C  C07A  F002         	movff	efgtoa@h+1,___fldiv@b+1
  3232   000D80  C07B  F003         	movff	efgtoa@h+2,___fldiv@b+2
  3233   000D84  C07C  F004         	movff	efgtoa@h+3,___fldiv@b+3
  3234   000D88  C088  F005         	movff	efgtoa@u,___fldiv@a
  3235   000D8C  C089  F006         	movff	efgtoa@u+1,___fldiv@a+1
  3236   000D90  C08A  F007         	movff	efgtoa@u+2,___fldiv@a+2
  3237   000D94  C08B  F008         	movff	efgtoa@u+3,___fldiv@a+3
  3238   000D98  EC91  F00C         	call	___fldiv	;wreg free
  3239   000D9C  C001  F01A         	movff	?___fldiv,floorf@x
  3240   000DA0  C002  F01B         	movff	?___fldiv+1,floorf@x+1
  3241   000DA4  C003  F01C         	movff	?___fldiv+2,floorf@x+2
  3242   000DA8  C004  F01D         	movff	?___fldiv+3,floorf@x+3
  3243   000DAC  EC28  F010         	call	_floorf	;wreg free
  3244   000DB0  C01A  F07D         	movff	?_floorf,efgtoa@l
  3245   000DB4  C01B  F07E         	movff	?_floorf+1,efgtoa@l+1
  3246   000DB8  C01C  F07F         	movff	?_floorf+2,efgtoa@l+2
  3247   000DBC  C01D  F080         	movff	?_floorf+3,efgtoa@l+3
  3248                           
  3249                           ;C:\Program Files\Microchip\xc8\v2.41\pic\sources\c99\common\doprnt.c: 725:         d = 
      +                          (int)l > 9 ? 9 : (int)l;
  3250   000DC0  C07D  F001         	movff	efgtoa@l,___fltol@f1
  3251   000DC4  C07E  F002         	movff	efgtoa@l+1,___fltol@f1+1
  3252   000DC8  C07F  F003         	movff	efgtoa@l+2,___fltol@f1+2
  3253   000DCC  C080  F004         	movff	efgtoa@l+3,___fltol@f1+3
  3254   000DD0  ECF8  F013         	call	___fltol	;wreg free
  3255   000DD4  BE02               	btfsc	(?___fltol+1)^0,7,c
  3256   000DD6  EFF8  F006         	goto	u3990
  3257   000DDA  5002               	movf	(?___fltol+1)^0,w,c
  3258   000DDC  E107               	bnz	u3991
  3259   000DDE  0E0A               	movlw	10
  3260   000DE0  5C01               	subwf	?___fltol^0,w,c
  3261   000DE2  B0D8               	btfsc	status,0,c
  3262   000DE4  EFF6  F006         	goto	u3991
  3263   000DE8  EFF8  F006         	goto	u3990
  3264   000DEC                     u3991:
  3265   000DEC  EF08  F007         	goto	l3651
  3266   000DF0                     u3990:
  3267   000DF0  C07D  F001         	movff	efgtoa@l,___fltol@f1
  3268   000DF4  C07E  F002         	movff	efgtoa@l+1,___fltol@f1+1
  3269   000DF8  C07F  F003         	movff	efgtoa@l+2,___fltol@f1+2
  3270   000DFC  C080  F004         	movff	efgtoa@l+3,___fltol@f1+3
  3271   000E00  ECF8  F013         	call	___fltol	;wreg free
  3272   000E04  C001  F06B         	movff	?___fltol,efgtoa@d
  3273   000E08  C002  F06C         	movff	?___fltol+1,efgtoa@d+1
  3274   000E0C  EF0D  F007         	goto	l1003
  3275   000E10                     l3651:
  3276   000E10  0E00               	movlw	0
  3277   000E12  0100               	movlb	0	; () banked
  3278   000E14  6F6C               	movwf	(efgtoa@d+1)& (0+255),b
  3279   000E16  0E09               	movlw	9
  3280   000E18  6F6B               	movwf	efgtoa@d& (0+255),b
  3281   000E1A                     l1003:
  3282                           
  3283                           ;C:\Program Files\Microchip\xc8\v2.41\pic\sources\c99\common\doprnt.c: 736:   {;C:\Progr
      +                          am Files\Microchip\xc8\v2.41\pic\sources\c99\common\doprnt.c: 737:             if (!pp &
      +                          & (ne < 0)) {
  3284   000E1A  0100               	movlb	0	; () banked
  3285   000E1C  5168               	movf	efgtoa@pp& (0+255),w,b
  3286   000E1E  A4D8               	btfss	status,2,c
  3287   000E20  EF14  F007         	goto	u4001
  3288   000E24  EF16  F007         	goto	u4000
  3289   000E28                     u4001:
  3290   000E28  EF3E  F007         	goto	l3671
  3291   000E2C                     u4000:
  3292   000E2C                     
  3293                           ; BSR set to: 0
  3294   000E2C  BF61               	btfsc	(efgtoa@ne+1)& (0+255),7,b
  3295   000E2E  EF1D  F007         	goto	u4010
  3296   000E32  EF1B  F007         	goto	u4011
  3297   000E36                     u4011:
  3298   000E36  EF3E  F007         	goto	l3671
  3299   000E3A                     u4010:
  3300   000E3A                     
  3301                           ; BSR set to: 0
  3302                           ;C:\Program Files\Microchip\xc8\v2.41\pic\sources\c99\common\doprnt.c: 738:             
      +                              dbuf[n++] = '.';
  3303   000E3A  0E00               	movlw	low _dbuf
  3304   000E3C  2582               	addwf	efgtoa@n& (0+255),w,b
  3305   000E3E  6ED9               	movwf	fsr2l,c
  3306   000E40  0E01               	movlw	high _dbuf
  3307   000E42  2183               	addwfc	(efgtoa@n+1)& (0+255),w,b
  3308   000E44  6EDA               	movwf	fsr2h,c
  3309   000E46  0E2E               	movlw	46
  3310   000E48  6EDF               	movwf	indf2,c
  3311   000E4A                     
  3312                           ; BSR set to: 0
  3313   000E4A  4B82               	infsnz	efgtoa@n& (0+255),f,b
  3314   000E4C  2B83               	incf	(efgtoa@n+1)& (0+255),f,b
  3315   000E4E                     
  3316                           ; BSR set to: 0
  3317                           ;C:\Program Files\Microchip\xc8\v2.41\pic\sources\c99\common\doprnt.c: 739:             
      +                              --w;
  3318   000E4E  0771               	decf	efgtoa@w& (0+255),f,b
  3319   000E50  A0D8               	btfss	status,0,c
  3320   000E52  0772               	decf	(efgtoa@w+1)& (0+255),f,b
  3321   000E54                     
  3322                           ; BSR set to: 0
  3323                           ;C:\Program Files\Microchip\xc8\v2.41\pic\sources\c99\common\doprnt.c: 740:             
      +                              pp = 1;
  3324   000E54  0E01               	movlw	1
  3325   000E56  6F68               	movwf	efgtoa@pp& (0+255),b
  3326   000E58  EF3E  F007         	goto	l3671
  3327   000E5C                     l3663:
  3328                           
  3329                           ; BSR set to: 0
  3330                           ;C:\Program Files\Microchip\xc8\v2.41\pic\sources\c99\common\doprnt.c: 743:             
      +                              dbuf[n++] = '0';
  3331   000E5C  0E00               	movlw	low _dbuf
  3332   000E5E  2582               	addwf	efgtoa@n& (0+255),w,b
  3333   000E60  6ED9               	movwf	fsr2l,c
  3334   000E62  0E01               	movlw	high _dbuf
  3335   000E64  2183               	addwfc	(efgtoa@n+1)& (0+255),w,b
  3336   000E66  6EDA               	movwf	fsr2h,c
  3337   000E68  0E30               	movlw	48
  3338   000E6A  6EDF               	movwf	indf2,c
  3339   000E6C                     
  3340                           ; BSR set to: 0
  3341   000E6C  4B82               	infsnz	efgtoa@n& (0+255),f,b
  3342   000E6E  2B83               	incf	(efgtoa@n+1)& (0+255),f,b
  3343   000E70                     
  3344                           ; BSR set to: 0
  3345                           ;C:\Program Files\Microchip\xc8\v2.41\pic\sources\c99\common\doprnt.c: 744:             
      +                              --w;
  3346   000E70  0771               	decf	efgtoa@w& (0+255),f,b
  3347   000E72  A0D8               	btfss	status,0,c
  3348   000E74  0772               	decf	(efgtoa@w+1)& (0+255),f,b
  3349   000E76                     
  3350                           ; BSR set to: 0
  3351                           ;C:\Program Files\Microchip\xc8\v2.41\pic\sources\c99\common\doprnt.c: 745:             
      +                              --t;
  3352   000E76  0764               	decf	efgtoa@t& (0+255),f,b
  3353   000E78  A0D8               	btfss	status,0,c
  3354   000E7A  0765               	decf	(efgtoa@t+1)& (0+255),f,b
  3355   000E7C                     l3671:
  3356                           
  3357                           ; BSR set to: 0
  3358                           ;C:\Program Files\Microchip\xc8\v2.41\pic\sources\c99\common\doprnt.c: 742:             
      +                          while (t) {
  3359   000E7C  5164               	movf	efgtoa@t& (0+255),w,b
  3360   000E7E  1165               	iorwf	(efgtoa@t+1)& (0+255),w,b
  3361   000E80  A4D8               	btfss	status,2,c
  3362   000E82  EF45  F007         	goto	u4021
  3363   000E86  EF47  F007         	goto	u4020
  3364   000E8A                     u4021:
  3365   000E8A  EF2E  F007         	goto	l3663
  3366   000E8E                     u4020:
  3367   000E8E                     
  3368                           ; BSR set to: 0
  3369                           ;C:\Program Files\Microchip\xc8\v2.41\pic\sources\c99\common\doprnt.c: 747:             
      +                          dbuf[n++] = (char)((int)'0' + d);
  3370   000E8E  0E00               	movlw	low _dbuf
  3371   000E90  2582               	addwf	efgtoa@n& (0+255),w,b
  3372   000E92  6ED9               	movwf	fsr2l,c
  3373   000E94  0E01               	movlw	high _dbuf
  3374   000E96  2183               	addwfc	(efgtoa@n+1)& (0+255),w,b
  3375   000E98  6EDA               	movwf	fsr2h,c
  3376   000E9A  516B               	movf	efgtoa@d& (0+255),w,b
  3377   000E9C  0F30               	addlw	48
  3378   000E9E  6EDF               	movwf	indf2,c
  3379   000EA0                     
  3380                           ; BSR set to: 0
  3381   000EA0  4B82               	infsnz	efgtoa@n& (0+255),f,b
  3382   000EA2  2B83               	incf	(efgtoa@n+1)& (0+255),f,b
  3383   000EA4                     
  3384                           ; BSR set to: 0
  3385                           ;C:\Program Files\Microchip\xc8\v2.41\pic\sources\c99\common\doprnt.c: 748:             
      +                          --w;
  3386   000EA4  0771               	decf	efgtoa@w& (0+255),f,b
  3387   000EA6  A0D8               	btfss	status,0,c
  3388   000EA8  0772               	decf	(efgtoa@w+1)& (0+255),f,b
  3389   000EAA                     
  3390                           ; BSR set to: 0
  3391                           ;C:\Program Files\Microchip\xc8\v2.41\pic\sources\c99\common\doprnt.c: 749:         };C:
      +                          \Program Files\Microchip\xc8\v2.41\pic\sources\c99\common\doprnt.c: 750:         h -= l*
      +                          u.f;
  3392   000EAA  C079  F01A         	movff	efgtoa@h,___flsub@b
  3393   000EAE  C07A  F01B         	movff	efgtoa@h+1,___flsub@b+1
  3394   000EB2  C07B  F01C         	movff	efgtoa@h+2,___flsub@b+2
  3395   000EB6  C07C  F01D         	movff	efgtoa@h+3,___flsub@b+3
  3396   000EBA  C07D  F005         	movff	efgtoa@l,___flmul@a
  3397   000EBE  C07E  F006         	movff	efgtoa@l+1,___flmul@a+1
  3398   000EC2  C07F  F007         	movff	efgtoa@l+2,___flmul@a+2
  3399   000EC6  C080  F008         	movff	efgtoa@l+3,___flmul@a+3
  3400   000ECA  C088  F001         	movff	efgtoa@u,___flmul@b
  3401   000ECE  C089  F002         	movff	efgtoa@u+1,___flmul@b+1
  3402   000ED2  C08A  F003         	movff	efgtoa@u+2,___flmul@b+2
  3403   000ED6  C08B  F004         	movff	efgtoa@u+3,___flmul@b+3
  3404   000EDA  EC7C  F00A         	call	___flmul	;wreg free
  3405   000EDE  C001  F01E         	movff	?___flmul,___flsub@a
  3406   000EE2  C002  F01F         	movff	?___flmul+1,___flsub@a+1
  3407   000EE6  C003  F020         	movff	?___flmul+2,___flsub@a+2
  3408   000EEA  C004  F021         	movff	?___flmul+3,___flsub@a+3
  3409   000EEE  EC82  F019         	call	___flsub	;wreg free
  3410   000EF2  C01A  F079         	movff	?___flsub,efgtoa@h
  3411   000EF6  C01B  F07A         	movff	?___flsub+1,efgtoa@h+1
  3412   000EFA  C01C  F07B         	movff	?___flsub+2,efgtoa@h+2
  3413   000EFE  C01D  F07C         	movff	?___flsub+3,efgtoa@h+3
  3414   000F02                     
  3415                           ;C:\Program Files\Microchip\xc8\v2.41\pic\sources\c99\common\doprnt.c: 751:         u.f 
      +                          = u.f/10.0;
  3416   000F02  C088  F001         	movff	efgtoa@u,___fldiv@b
  3417   000F06  C089  F002         	movff	efgtoa@u+1,___fldiv@b+1
  3418   000F0A  C08A  F003         	movff	efgtoa@u+2,___fldiv@b+2
  3419   000F0E  C08B  F004         	movff	efgtoa@u+3,___fldiv@b+3
  3420   000F12  0E00               	movlw	0
  3421   000F14  6E05               	movwf	___fldiv@a^0,c
  3422   000F16  0E00               	movlw	0
  3423   000F18  6E06               	movwf	(___fldiv@a+1)^0,c
  3424   000F1A  0E20               	movlw	32
  3425   000F1C  6E07               	movwf	(___fldiv@a+2)^0,c
  3426   000F1E  0E41               	movlw	65
  3427   000F20  6E08               	movwf	(___fldiv@a+3)^0,c
  3428   000F22  EC91  F00C         	call	___fldiv	;wreg free
  3429   000F26  C001  F088         	movff	?___fldiv,efgtoa@u
  3430   000F2A  C002  F089         	movff	?___fldiv+1,efgtoa@u+1
  3431   000F2E  C003  F08A         	movff	?___fldiv+2,efgtoa@u+2
  3432   000F32  C004  F08B         	movff	?___fldiv+3,efgtoa@u+3
  3433   000F36                     
  3434                           ;C:\Program Files\Microchip\xc8\v2.41\pic\sources\c99\common\doprnt.c: 752:         --ne
      +                          ;
  3435   000F36  0100               	movlb	0	; () banked
  3436   000F38  0760               	decf	efgtoa@ne& (0+255),f,b
  3437   000F3A  A0D8               	btfss	status,0,c
  3438   000F3C  0761               	decf	(efgtoa@ne+1)& (0+255),f,b
  3439   000F3E                     
  3440                           ; BSR set to: 0
  3441                           ;C:\Program Files\Microchip\xc8\v2.41\pic\sources\c99\common\doprnt.c: 753:         ++i;
  3442   000F3E  4B77               	infsnz	efgtoa@i& (0+255),f,b
  3443   000F40  2B78               	incf	(efgtoa@i+1)& (0+255),f,b
  3444   000F42                     l3687:
  3445                           
  3446                           ; BSR set to: 0
  3447                           ;C:\Program Files\Microchip\xc8\v2.41\pic\sources\c99\common\doprnt.c: 723:     while ((
      +                          i < m) && (n < (80 - 5))) {
  3448   000F42  516D               	movf	efgtoa@m& (0+255),w,b
  3449   000F44  5D77               	subwf	efgtoa@i& (0+255),w,b
  3450   000F46  5178               	movf	(efgtoa@i+1)& (0+255),w,b
  3451   000F48  0A80               	xorlw	128
  3452   000F4A  6E35               	movwf	??_efgtoa^0,c
  3453   000F4C  516E               	movf	(efgtoa@m+1)& (0+255),w,b
  3454   000F4E  0A80               	xorlw	128
  3455   000F50  5835               	subwfb	??_efgtoa^0,w,c
  3456   000F52  B0D8               	btfsc	status,0,c
  3457   000F54  EFAE  F007         	goto	u4031
  3458   000F58  EFB0  F007         	goto	u4030
  3459   000F5C                     u4031:
  3460   000F5C  EFBE  F007         	goto	l3691
  3461   000F60                     u4030:
  3462   000F60                     
  3463                           ; BSR set to: 0
  3464   000F60  BF83               	btfsc	(efgtoa@n+1)& (0+255),7,b
  3465   000F62  EFBC  F007         	goto	u4041
  3466   000F66  5183               	movf	(efgtoa@n+1)& (0+255),w,b
  3467   000F68  E109               	bnz	u4040
  3468   000F6A  0E4B               	movlw	75
  3469   000F6C  5D82               	subwf	efgtoa@n& (0+255),w,b
  3470   000F6E  A0D8               	btfss	status,0,c
  3471   000F70  EFBC  F007         	goto	u4041
  3472   000F74  EFBE  F007         	goto	u4040
  3473   000F78                     u4041:
  3474   000F78  EFBC  F006         	goto	l3647
  3475   000F7C                     u4040:
  3476   000F7C                     l3691:
  3477                           
  3478                           ; BSR set to: 0
  3479                           ;C:\Program Files\Microchip\xc8\v2.41\pic\sources\c99\common\doprnt.c: 760:  i = sizeof(
      +                          dbuf) - 1;
  3480   000F7C  0E00               	movlw	0
  3481   000F7E  6F78               	movwf	(efgtoa@i+1)& (0+255),b
  3482   000F80  0E4F               	movlw	79
  3483   000F82  6F77               	movwf	efgtoa@i& (0+255),b
  3484   000F84                     
  3485                           ; BSR set to: 0
  3486                           ;C:\Program Files\Microchip\xc8\v2.41\pic\sources\c99\common\doprnt.c: 761:     dbuf[i] 
      +                          = '\0';
  3487   000F84  0E00               	movlw	low _dbuf
  3488   000F86  2577               	addwf	efgtoa@i& (0+255),w,b
  3489   000F88  6ED9               	movwf	fsr2l,c
  3490   000F8A  0E01               	movlw	high _dbuf
  3491   000F8C  2178               	addwfc	(efgtoa@i+1)& (0+255),w,b
  3492   000F8E  6EDA               	movwf	fsr2h,c
  3493   000F90  6ADF               	clrf	indf2,c
  3494   000F92                     
  3495                           ; BSR set to: 0
  3496                           ;C:\Program Files\Microchip\xc8\v2.41\pic\sources\c99\common\doprnt.c: 792:  memcpy(&dbu
      +                          f[i-n], &dbuf[0], (size_t)n);
  3497   000F92  0E00               	movlw	low _dbuf
  3498   000F94  6E35               	movwf	??_efgtoa^0,c
  3499   000F96  0E01               	movlw	high _dbuf
  3500   000F98  6E36               	movwf	(??_efgtoa+1)^0,c
  3501   000F9A  5182               	movf	efgtoa@n& (0+255),w,b
  3502   000F9C  5E35               	subwf	??_efgtoa^0,f,c
  3503   000F9E  5183               	movf	(efgtoa@n+1)& (0+255),w,b
  3504   000FA0  5A36               	subwfb	(??_efgtoa+1)^0,f,c
  3505   000FA2  5177               	movf	efgtoa@i& (0+255),w,b
  3506   000FA4  2435               	addwf	??_efgtoa^0,w,c
  3507   000FA6  6E01               	movwf	memcpy@d1^0,c
  3508   000FA8  5178               	movf	(efgtoa@i+1)& (0+255),w,b
  3509   000FAA  2036               	addwfc	(??_efgtoa+1)^0,w,c
  3510   000FAC  6E02               	movwf	(memcpy@d1+1)^0,c
  3511   000FAE  0E00               	movlw	low _dbuf
  3512   000FB0  6E03               	movwf	memcpy@s1^0,c
  3513   000FB2  0E01               	movlw	high _dbuf
  3514   000FB4  6E04               	movwf	(memcpy@s1+1)^0,c
  3515   000FB6  C082  F005         	movff	efgtoa@n,memcpy@n
  3516   000FBA  C083  F006         	movff	efgtoa@n+1,memcpy@n+1
  3517   000FBE  EC0C  F019         	call	_memcpy	;wreg free
  3518   000FC2                     
  3519                           ;C:\Program Files\Microchip\xc8\v2.41\pic\sources\c99\common\doprnt.c: 793:  n = i-n;
  3520   000FC2  0100               	movlb	0	; () banked
  3521   000FC4  5182               	movf	efgtoa@n& (0+255),w,b
  3522   000FC6  5D77               	subwf	efgtoa@i& (0+255),w,b
  3523   000FC8  6F82               	movwf	efgtoa@n& (0+255),b
  3524   000FCA  5183               	movf	(efgtoa@n+1)& (0+255),w,b
  3525   000FCC  5978               	subwfb	(efgtoa@i+1)& (0+255),w,b
  3526   000FCE  6F83               	movwf	(efgtoa@n+1)& (0+255),b
  3527   000FD0                     
  3528                           ; BSR set to: 0
  3529                           ;C:\Program Files\Microchip\xc8\v2.41\pic\sources\c99\common\doprnt.c: 794:  i = sign ==
      +                           0 ? 0 : 1;
  3530   000FD0  5181               	movf	efgtoa@sign& (0+255),w,b
  3531   000FD2  A4D8               	btfss	status,2,c
  3532   000FD4  EFEE  F007         	goto	u4051
  3533   000FD8  EFF1  F007         	goto	u4050
  3534   000FDC                     u4051:
  3535   000FDC  0E01               	movlw	1
  3536   000FDE  EFF2  F007         	goto	u4060
  3537   000FE2                     u4050:
  3538   000FE2  0E00               	movlw	0
  3539   000FE4                     u4060:
  3540   000FE4  6F77               	movwf	efgtoa@i& (0+255),b
  3541   000FE6  6B78               	clrf	(efgtoa@i+1)& (0+255),b
  3542   000FE8                     
  3543                           ; BSR set to: 0
  3544                           ;C:\Program Files\Microchip\xc8\v2.41\pic\sources\c99\common\doprnt.c: 805:  if (sign) {
  3545   000FE8  5181               	movf	efgtoa@sign& (0+255),w,b
  3546   000FEA  B4D8               	btfsc	status,2,c
  3547   000FEC  EFFA  F007         	goto	u4071
  3548   000FF0  EFFC  F007         	goto	u4070
  3549   000FF4                     u4071:
  3550   000FF4  EF07  F008         	goto	l3705
  3551   000FF8                     u4070:
  3552   000FF8                     
  3553                           ; BSR set to: 0
  3554                           ;C:\Program Files\Microchip\xc8\v2.41\pic\sources\c99\common\doprnt.c: 806:   dbuf[--n] 
      +                          = sign;
  3555   000FF8  0782               	decf	efgtoa@n& (0+255),f,b
  3556   000FFA  A0D8               	btfss	status,0,c
  3557   000FFC  0783               	decf	(efgtoa@n+1)& (0+255),f,b
  3558   000FFE  0E00               	movlw	low _dbuf
  3559   001000  2582               	addwf	efgtoa@n& (0+255),w,b
  3560   001002  6ED9               	movwf	fsr2l,c
  3561   001004  0E01               	movlw	high _dbuf
  3562   001006  2183               	addwfc	(efgtoa@n+1)& (0+255),w,b
  3563   001008  6EDA               	movwf	fsr2h,c
  3564   00100A  C081  FFDF         	movff	efgtoa@sign,indf2
  3565   00100E                     l3705:
  3566                           
  3567                           ; BSR set to: 0
  3568                           ;C:\Program Files\Microchip\xc8\v2.41\pic\sources\c99\common\doprnt.c: 808:  w -= i;
  3569   00100E  5177               	movf	efgtoa@i& (0+255),w,b
  3570   001010  5F71               	subwf	efgtoa@w& (0+255),f,b
  3571   001012  5178               	movf	(efgtoa@i+1)& (0+255),w,b
  3572   001014  5B72               	subwfb	(efgtoa@w+1)& (0+255),f,b
  3573   001016                     
  3574                           ; BSR set to: 0
  3575                           ;C:\Program Files\Microchip\xc8\v2.41\pic\sources\c99\common\doprnt.c: 811:     return (
      +                          void) pad(fp, &dbuf[n], w);
  3576   001016  C02E  F011         	movff	efgtoa@fp,pad@fp
  3577   00101A  C02F  F012         	movff	efgtoa@fp+1,pad@fp+1
  3578   00101E  0E00               	movlw	low _dbuf
  3579   001020  2582               	addwf	efgtoa@n& (0+255),w,b
  3580   001022  6E13               	movwf	pad@buf^0,c
  3581   001024  0E01               	movlw	high _dbuf
  3582   001026  2183               	addwfc	(efgtoa@n+1)& (0+255),w,b
  3583   001028  6E14               	movwf	(pad@buf+1)^0,c
  3584   00102A  C071  F015         	movff	efgtoa@w,pad@p
  3585   00102E  C072  F016         	movff	efgtoa@w+1,pad@p+1
  3586   001032  ECDA  F017         	call	_pad	;wreg free
  3587   001036                     l970:
  3588   001036  0012               	return		;funcret
  3589   001038                     __end_of_efgtoa:
  3590                           	callstack 0
  3591                           
  3592 ;; *************** function _strcpy *****************
  3593 ;; Defined at:
  3594 ;;		line 3 in file "C:\Program Files\Microchip\xc8\v2.41\pic\sources\c99\common\strcpy.c"
  3595 ;; Parameters:    Size  Location     Type
  3596 ;;  dest            2    0[COMRAM] PTR unsigned char 
  3597 ;;		 -> dbuf(80), 
  3598 ;;  src             2    2[COMRAM] PTR const unsigned char 
  3599 ;;		 -> STR_8(4), STR_5(4), 
  3600 ;; Auto vars:     Size  Location     Type
  3601 ;;  d               2    6[COMRAM] PTR unsigned char 
  3602 ;;		 -> dbuf(80), 
  3603 ;;  s               2    4[COMRAM] PTR const unsigned char 
  3604 ;;		 -> STR_8(4), STR_5(4), 
  3605 ;; Return value:  Size  Location     Type
  3606 ;;                  2    0[COMRAM] PTR unsigned char 
  3607 ;; Registers used:
  3608 ;;		wreg, fsr2l, fsr2h, status,2, status,0, tblptrl, tblptrh, tblptru
  3609 ;; Tracked objects:
  3610 ;;		On entry : 0/0
  3611 ;;		On exit  : 0/0
  3612 ;;		Unchanged: 0/0
  3613 ;; Data sizes:     COMRAM   BANK0   BANK1   BANK2   BANK3   BANK4   BANK5
  3614 ;;      Params:         4       0       0       0       0       0       0
  3615 ;;      Locals:         4       0       0       0       0       0       0
  3616 ;;      Temps:          0       0       0       0       0       0       0
  3617 ;;      Totals:         8       0       0       0       0       0       0
  3618 ;;Total ram usage:        8 bytes
  3619 ;; Hardware stack levels used: 1
  3620 ;; This function calls:
  3621 ;;		Nothing
  3622 ;; This function is called by:
  3623 ;;		_efgtoa
  3624 ;; This function uses a non-reentrant model
  3625 ;;
  3626                           
  3627                           	psect	text8
  3628   00338E                     __ptext8:
  3629                           	callstack 0
  3630   00338E                     _strcpy:
  3631                           	callstack 26
  3632   00338E  C003  F005         	movff	strcpy@src,strcpy@s
  3633   003392  C004  F006         	movff	strcpy@src+1,strcpy@s+1
  3634   003396  C001  F007         	movff	strcpy@dest,strcpy@d
  3635   00339A  C002  F008         	movff	strcpy@dest+1,strcpy@d+1
  3636   00339E                     l3383:
  3637   00339E  C005  FFF6         	movff	strcpy@s,tblptrl
  3638   0033A2  C006  FFF7         	movff	strcpy@s+1,tblptrh
  3639   0033A6  4A05               	infsnz	strcpy@s^0,f,c
  3640   0033A8  2A06               	incf	(strcpy@s+1)^0,f,c
  3641   0033AA                     	if	0	;tblptru may be non-zero
  3642   0033AA                     	endif
  3643   0033AA                     	if	0	;tblptru may be non-zero
  3644   0033AA                     	endif
  3645   0033AA  C007  FFD9         	movff	strcpy@d,fsr2l
  3646   0033AE  C008  FFDA         	movff	strcpy@d+1,fsr2h
  3647   0033B2  4A07               	infsnz	strcpy@d^0,f,c
  3648   0033B4  2A08               	incf	(strcpy@d+1)^0,f,c
  3649   0033B6  0008               	tblrd		*
  3650   0033B8  CFF5 FFDF          	movff	tablat,indf2
  3651   0033BC  50DF               	movf	indf2,w,c
  3652   0033BE  A4D8               	btfss	status,2,c
  3653   0033C0  EFE4  F019         	goto	u3511
  3654   0033C4  EFE6  F019         	goto	u3510
  3655   0033C8                     u3511:
  3656   0033C8  EFCF  F019         	goto	l3383
  3657   0033CC                     u3510:
  3658   0033CC  0012               	return		;funcret
  3659   0033CE                     __end_of_strcpy:
  3660                           	callstack 0
  3661                           
  3662 ;; *************** function _memcpy *****************
  3663 ;; Defined at:
  3664 ;;		line 4 in file "C:\Program Files\Microchip\xc8\v2.41\pic\sources\c99\common\memcpy.c"
  3665 ;; Parameters:    Size  Location     Type
  3666 ;;  d1              2    0[COMRAM] PTR void 
  3667 ;;		 -> dbuf(80), 
  3668 ;;  s1              2    2[COMRAM] PTR const void 
  3669 ;;		 -> dbuf(80), 
  3670 ;;  n               2    4[COMRAM] unsigned int 
  3671 ;; Auto vars:     Size  Location     Type
  3672 ;;  s               2    8[COMRAM] PTR const unsigned char 
  3673 ;;		 -> dbuf(80), 
  3674 ;;  d               2    6[COMRAM] PTR unsigned char 
  3675 ;;		 -> dbuf(80), 
  3676 ;;  tmp             1   10[COMRAM] unsigned char 
  3677 ;; Return value:  Size  Location     Type
  3678 ;;                  2    0[COMRAM] PTR void 
  3679 ;; Registers used:
  3680 ;;		wreg, fsr2l, fsr2h, status,2, status,0
  3681 ;; Tracked objects:
  3682 ;;		On entry : 0/0
  3683 ;;		On exit  : 0/0
  3684 ;;		Unchanged: 0/0
  3685 ;; Data sizes:     COMRAM   BANK0   BANK1   BANK2   BANK3   BANK4   BANK5
  3686 ;;      Params:         6       0       0       0       0       0       0
  3687 ;;      Locals:         5       0       0       0       0       0       0
  3688 ;;      Temps:          0       0       0       0       0       0       0
  3689 ;;      Totals:        11       0       0       0       0       0       0
  3690 ;;Total ram usage:       11 bytes
  3691 ;; Hardware stack levels used: 1
  3692 ;; This function calls:
  3693 ;;		Nothing
  3694 ;; This function is called by:
  3695 ;;		_efgtoa
  3696 ;; This function uses a non-reentrant model
  3697 ;;
  3698                           
  3699                           	psect	text9
  3700   003218                     __ptext9:
  3701                           	callstack 0
  3702   003218                     _memcpy:
  3703                           	callstack 26
  3704   003218  C003  F009         	movff	memcpy@s1,memcpy@s
  3705   00321C  C004  F00A         	movff	memcpy@s1+1,memcpy@s+1
  3706   003220  C001  F007         	movff	memcpy@d1,memcpy@d
  3707   003224  C002  F008         	movff	memcpy@d1+1,memcpy@d+1
  3708   003228  EF26  F019         	goto	l3427
  3709   00322C                     l3419:
  3710   00322C  C009  FFD9         	movff	memcpy@s,fsr2l
  3711   003230  C00A  FFDA         	movff	memcpy@s+1,fsr2h
  3712   003234  50DF               	movf	indf2,w,c
  3713   003236  6E0B               	movwf	memcpy@tmp^0,c
  3714   003238  4A09               	infsnz	memcpy@s^0,f,c
  3715   00323A  2A0A               	incf	(memcpy@s+1)^0,f,c
  3716   00323C  C007  FFD9         	movff	memcpy@d,fsr2l
  3717   003240  C008  FFDA         	movff	memcpy@d+1,fsr2h
  3718   003244  C00B  FFDF         	movff	memcpy@tmp,indf2
  3719   003248  4A07               	infsnz	memcpy@d^0,f,c
  3720   00324A  2A08               	incf	(memcpy@d+1)^0,f,c
  3721   00324C                     l3427:
  3722   00324C  0605               	decf	memcpy@n^0,f,c
  3723   00324E  A0D8               	btfss	status,0,c
  3724   003250  0606               	decf	(memcpy@n+1)^0,f,c
  3725   003252  2805               	incf	memcpy@n^0,w,c
  3726   003254  E106               	bnz	u3631
  3727   003256  2806               	incf	(memcpy@n+1)^0,w,c
  3728   003258  A4D8               	btfss	status,2,c
  3729   00325A  EF31  F019         	goto	u3631
  3730   00325E  EF33  F019         	goto	u3630
  3731   003262                     u3631:
  3732   003262  EF16  F019         	goto	l3419
  3733   003266                     u3630:
  3734   003266  0012               	return		;funcret
  3735   003268                     __end_of_memcpy:
  3736                           	callstack 0
  3737                           
  3738 ;; *************** function _labs *****************
  3739 ;; Defined at:
  3740 ;;		line 1 in file "C:\Program Files\Microchip\xc8\v2.41\pic\sources\c99\common\labs.c"
  3741 ;; Parameters:    Size  Location     Type
  3742 ;;  a               4    0[COMRAM] long 
  3743 ;; Auto vars:     Size  Location     Type
  3744 ;;		None
  3745 ;; Return value:  Size  Location     Type
  3746 ;;                  4    0[COMRAM] long 
  3747 ;; Registers used:
  3748 ;;		wreg, status,2, status,0
  3749 ;; Tracked objects:
  3750 ;;		On entry : 0/0
  3751 ;;		On exit  : 0/0
  3752 ;;		Unchanged: 0/0
  3753 ;; Data sizes:     COMRAM   BANK0   BANK1   BANK2   BANK3   BANK4   BANK5
  3754 ;;      Params:         4       0       0       0       0       0       0
  3755 ;;      Locals:         0       0       0       0       0       0       0
  3756 ;;      Temps:          4       0       0       0       0       0       0
  3757 ;;      Totals:         8       0       0       0       0       0       0
  3758 ;;Total ram usage:        8 bytes
  3759 ;; Hardware stack levels used: 1
  3760 ;; This function calls:
  3761 ;;		Nothing
  3762 ;; This function is called by:
  3763 ;;		_efgtoa
  3764 ;; This function uses a non-reentrant model
  3765 ;;
  3766                           
  3767                           	psect	text10
  3768   003112                     __ptext10:
  3769                           	callstack 0
  3770   003112                     _labs:
  3771                           	callstack 26
  3772   003112  BE04               	btfsc	(labs@a+3)^0,7,c
  3773   003114  EF98  F018         	goto	u3520
  3774   003118  5004               	movf	(labs@a+3)^0,w,c
  3775   00311A  1003               	iorwf	(labs@a+2)^0,w,c
  3776   00311C  1002               	iorwf	(labs@a+1)^0,w,c
  3777   00311E  E106               	bnz	u3521
  3778   003120  0401               	decf	labs@a^0,w,c
  3779   003122  B0D8               	btfsc	status,0,c
  3780   003124  EF96  F018         	goto	u3521
  3781   003128  EF98  F018         	goto	u3520
  3782   00312C                     u3521:
  3783   00312C  EFB3  F018         	goto	l1100
  3784   003130                     u3520:
  3785   003130  C001  F005         	movff	labs@a,??_labs
  3786   003134  C002  F006         	movff	labs@a+1,??_labs+1
  3787   003138  C003  F007         	movff	labs@a+2,??_labs+2
  3788   00313C  C004  F008         	movff	labs@a+3,??_labs+3
  3789   003140  1E05               	comf	??_labs^0,f,c
  3790   003142  1E06               	comf	(??_labs+1)^0,f,c
  3791   003144  1E07               	comf	(??_labs+2)^0,f,c
  3792   003146  1E08               	comf	(??_labs+3)^0,f,c
  3793   003148  2A05               	incf	??_labs^0,f,c
  3794   00314A  0E00               	movlw	0
  3795   00314C  2206               	addwfc	(??_labs+1)^0,f,c
  3796   00314E  2207               	addwfc	(??_labs+2)^0,f,c
  3797   003150  2208               	addwfc	(??_labs+3)^0,f,c
  3798   003152  C005  F001         	movff	??_labs,?_labs
  3799   003156  C006  F002         	movff	??_labs+1,?_labs+1
  3800   00315A  C007  F003         	movff	??_labs+2,?_labs+2
  3801   00315E  C008  F004         	movff	??_labs+3,?_labs+3
  3802   003162  EFBB  F018         	goto	l1103
  3803   003166                     l1100:
  3804   003166  C001  F001         	movff	labs@a,?_labs
  3805   00316A  C002  F002         	movff	labs@a+1,?_labs+1
  3806   00316E  C003  F003         	movff	labs@a+2,?_labs+2
  3807   003172  C004  F004         	movff	labs@a+3,?_labs+3
  3808   003176                     l1103:
  3809   003176  0012               	return		;funcret
  3810   003178                     __end_of_labs:
  3811                           	callstack 0
  3812                           
  3813 ;; *************** function _floorf *****************
  3814 ;; Defined at:
  3815 ;;		line 3 in file "C:\Program Files\Microchip\xc8\v2.41\pic\sources\c99\common\floorf.c"
  3816 ;; Parameters:    Size  Location     Type
  3817 ;;  x               4   25[COMRAM] float 
  3818 ;; Auto vars:     Size  Location     Type
  3819 ;;  u               4   41[COMRAM] struct .
  3820 ;;  m               4   35[COMRAM] unsigned long 
  3821 ;;  e               2   39[COMRAM] int 
  3822 ;; Return value:  Size  Location     Type
  3823 ;;                  4   25[COMRAM] float 
  3824 ;; Registers used:
  3825 ;;		wreg, status,2, status,0
  3826 ;; Tracked objects:
  3827 ;;		On entry : 0/0
  3828 ;;		On exit  : 0/0
  3829 ;;		Unchanged: 0/0
  3830 ;; Data sizes:     COMRAM   BANK0   BANK1   BANK2   BANK3   BANK4   BANK5
  3831 ;;      Params:         4       0       0       0       0       0       0
  3832 ;;      Locals:        10       0       0       0       0       0       0
  3833 ;;      Temps:          6       0       0       0       0       0       0
  3834 ;;      Totals:        20       0       0       0       0       0       0
  3835 ;;Total ram usage:       20 bytes
  3836 ;; Hardware stack levels used: 1
  3837 ;; This function calls:
  3838 ;;		Nothing
  3839 ;; This function is called by:
  3840 ;;		_efgtoa
  3841 ;; This function uses a non-reentrant model
  3842 ;;
  3843                           
  3844                           	psect	text11
  3845   002050                     __ptext11:
  3846                           	callstack 0
  3847   002050                     _floorf:
  3848                           	callstack 26
  3849   002050  C0A2  F02A         	movff	floorf@F526,floorf@u
  3850   002054  C0A3  F02B         	movff	floorf@F526+1,floorf@u+1
  3851   002058  C0A4  F02C         	movff	floorf@F526+2,floorf@u+2
  3852   00205C  C0A5  F02D         	movff	floorf@F526+3,floorf@u+3
  3853   002060  C01A  F02A         	movff	floorf@x,floorf@u
  3854   002064  C01B  F02B         	movff	floorf@x+1,floorf@u+1
  3855   002068  C01C  F02C         	movff	floorf@x+2,floorf@u+2
  3856   00206C  C01D  F02D         	movff	floorf@x+3,floorf@u+3
  3857   002070  0E81               	movlw	129
  3858   002072  6E1E               	movwf	??_floorf^0,c
  3859   002074  0EFF               	movlw	255
  3860   002076  6E1F               	movwf	(??_floorf+1)^0,c
  3861   002078  C02A  F020         	movff	floorf@u,??_floorf+2
  3862   00207C  C02B  F021         	movff	floorf@u+1,??_floorf+3
  3863   002080  C02C  F022         	movff	floorf@u+2,??_floorf+4
  3864   002084  C02D  F023         	movff	floorf@u+3,??_floorf+5
  3865   002088  0E18               	movlw	24
  3866   00208A  EF4C  F010         	goto	u3530
  3867   00208E                     u3535:
  3868   00208E  90D8               	bcf	status,0,c
  3869   002090  3223               	rrcf	(??_floorf+5)^0,f,c
  3870   002092  3222               	rrcf	(??_floorf+4)^0,f,c
  3871   002094  3221               	rrcf	(??_floorf+3)^0,f,c
  3872   002096  3220               	rrcf	(??_floorf+2)^0,f,c
  3873   002098                     u3530:
  3874   002098  2EE8               	decfsz	wreg,f,c
  3875   00209A  EF47  F010         	goto	u3535
  3876   00209E  5020               	movf	(??_floorf+2)^0,w,c
  3877   0020A0  241E               	addwf	??_floorf^0,w,c
  3878   0020A2  6E28               	movwf	floorf@e^0,c
  3879   0020A4  0E00               	movlw	0
  3880   0020A6  201F               	addwfc	(??_floorf+1)^0,w,c
  3881   0020A8  6E29               	movwf	(floorf@e+1)^0,c
  3882   0020AA  BE29               	btfsc	(floorf@e+1)^0,7,c
  3883   0020AC  EF61  F010         	goto	u3541
  3884   0020B0  5029               	movf	(floorf@e+1)^0,w,c
  3885   0020B2  E109               	bnz	u3540
  3886   0020B4  0E17               	movlw	23
  3887   0020B6  5C28               	subwf	floorf@e^0,w,c
  3888   0020B8  A0D8               	btfss	status,0,c
  3889   0020BA  EF61  F010         	goto	u3541
  3890   0020BE  EF63  F010         	goto	u3540
  3891   0020C2                     u3541:
  3892   0020C2  EF6D  F010         	goto	l3395
  3893   0020C6                     u3540:
  3894   0020C6                     l3393:
  3895   0020C6  C01A  F01A         	movff	floorf@x,?_floorf
  3896   0020CA  C01B  F01B         	movff	floorf@x+1,?_floorf+1
  3897   0020CE  C01C  F01C         	movff	floorf@x+2,?_floorf+2
  3898   0020D2  C01D  F01D         	movff	floorf@x+3,?_floorf+3
  3899   0020D6  EF30  F011         	goto	l1089
  3900   0020DA                     l3395:
  3901   0020DA  BE29               	btfsc	(floorf@e+1)^0,7,c
  3902   0020DC  EF72  F010         	goto	u3551
  3903   0020E0  EF74  F010         	goto	u3550
  3904   0020E4                     u3551:
  3905   0020E4  EFE4  F010         	goto	l3405
  3906   0020E8                     u3550:
  3907   0020E8  C028  F01E         	movff	floorf@e,??_floorf
  3908   0020EC  0EFF               	movlw	255
  3909   0020EE  6E1F               	movwf	(??_floorf+1)^0,c
  3910   0020F0  0EFF               	movlw	255
  3911   0020F2  6E20               	movwf	(??_floorf+2)^0,c
  3912   0020F4  0E7F               	movlw	127
  3913   0020F6  6E21               	movwf	(??_floorf+3)^0,c
  3914   0020F8  0E00               	movlw	0
  3915   0020FA  6E22               	movwf	(??_floorf+4)^0,c
  3916   0020FC                     u3565:
  3917   0020FC  661E               	tstfsz	??_floorf^0,c
  3918   0020FE  EF83  F010         	goto	u3566
  3919   002102  EF8B  F010         	goto	u3567
  3920   002106                     u3566:
  3921   002106  3422               	rlcf	(??_floorf+4)^0,w,c
  3922   002108  3222               	rrcf	(??_floorf+4)^0,f,c
  3923   00210A  3221               	rrcf	(??_floorf+3)^0,f,c
  3924   00210C  3220               	rrcf	(??_floorf+2)^0,f,c
  3925   00210E  321F               	rrcf	(??_floorf+1)^0,f,c
  3926   002110  2E1E               	decfsz	??_floorf^0,f,c
  3927   002112  EF7E  F010         	goto	u3565
  3928   002116                     u3567:
  3929   002116  C01F  F024         	movff	??_floorf+1,floorf@m
  3930   00211A  C020  F025         	movff	??_floorf+2,floorf@m+1
  3931   00211E  C021  F026         	movff	??_floorf+3,floorf@m+2
  3932   002122  C022  F027         	movff	??_floorf+4,floorf@m+3
  3933   002126  5024               	movf	floorf@m^0,w,c
  3934   002128  142A               	andwf	floorf@u^0,w,c
  3935   00212A  6E1E               	movwf	??_floorf^0,c
  3936   00212C  5025               	movf	(floorf@m+1)^0,w,c
  3937   00212E  142B               	andwf	(floorf@u+1)^0,w,c
  3938   002130  6E1F               	movwf	(??_floorf+1)^0,c
  3939   002132  5026               	movf	(floorf@m+2)^0,w,c
  3940   002134  142C               	andwf	(floorf@u+2)^0,w,c
  3941   002136  6E20               	movwf	(??_floorf+2)^0,c
  3942   002138  5027               	movf	(floorf@m+3)^0,w,c
  3943   00213A  142D               	andwf	(floorf@u+3)^0,w,c
  3944   00213C  6E21               	movwf	(??_floorf+3)^0,c
  3945   00213E  501E               	movf	??_floorf^0,w,c
  3946   002140  101F               	iorwf	(??_floorf+1)^0,w,c
  3947   002142  1020               	iorwf	(??_floorf+2)^0,w,c
  3948   002144  1021               	iorwf	(??_floorf+3)^0,w,c
  3949   002146  A4D8               	btfss	status,2,c
  3950   002148  EFA8  F010         	goto	u3571
  3951   00214C  EFAA  F010         	goto	u3570
  3952   002150                     u3571:
  3953   002150  EFAC  F010         	goto	l3401
  3954   002154                     u3570:
  3955   002154  EF63  F010         	goto	l3393
  3956   002158                     l3401:
  3957   002158  C02A  F01E         	movff	floorf@u,??_floorf
  3958   00215C  C02B  F01F         	movff	floorf@u+1,??_floorf+1
  3959   002160  C02C  F020         	movff	floorf@u+2,??_floorf+2
  3960   002164  C02D  F021         	movff	floorf@u+3,??_floorf+3
  3961   002168  0E20               	movlw	32
  3962   00216A  EFBC  F010         	goto	u3580
  3963   00216E                     u3585:
  3964   00216E  90D8               	bcf	status,0,c
  3965   002170  3221               	rrcf	(??_floorf+3)^0,f,c
  3966   002172  3220               	rrcf	(??_floorf+2)^0,f,c
  3967   002174  321F               	rrcf	(??_floorf+1)^0,f,c
  3968   002176  321E               	rrcf	??_floorf^0,f,c
  3969   002178                     u3580:
  3970   002178  2EE8               	decfsz	wreg,f,c
  3971   00217A  EFB7  F010         	goto	u3585
  3972   00217E  501E               	movf	??_floorf^0,w,c
  3973   002180  101F               	iorwf	(??_floorf+1)^0,w,c
  3974   002182  1020               	iorwf	(??_floorf+2)^0,w,c
  3975   002184  1021               	iorwf	(??_floorf+3)^0,w,c
  3976   002186  B4D8               	btfsc	status,2,c
  3977   002188  EFC8  F010         	goto	u3591
  3978   00218C  EFCA  F010         	goto	u3590
  3979   002190                     u3591:
  3980   002190  EFD2  F010         	goto	l1092
  3981   002194                     u3590:
  3982   002194  5024               	movf	floorf@m^0,w,c
  3983   002196  262A               	addwf	floorf@u^0,f,c
  3984   002198  5025               	movf	(floorf@m+1)^0,w,c
  3985   00219A  222B               	addwfc	(floorf@u+1)^0,f,c
  3986   00219C  5026               	movf	(floorf@m+2)^0,w,c
  3987   00219E  222C               	addwfc	(floorf@u+2)^0,f,c
  3988   0021A0  5027               	movf	(floorf@m+3)^0,w,c
  3989   0021A2  222D               	addwfc	(floorf@u+3)^0,f,c
  3990   0021A4                     l1092:
  3991   0021A4  1C24               	comf	floorf@m^0,w,c
  3992   0021A6  6E1E               	movwf	??_floorf^0,c
  3993   0021A8  1C25               	comf	(floorf@m+1)^0,w,c
  3994   0021AA  6E1F               	movwf	(??_floorf+1)^0,c
  3995   0021AC  1C26               	comf	(floorf@m+2)^0,w,c
  3996   0021AE  6E20               	movwf	(??_floorf+2)^0,c
  3997   0021B0  1C27               	comf	(floorf@m+3)^0,w,c
  3998   0021B2  6E21               	movwf	(??_floorf+3)^0,c
  3999   0021B4  501E               	movf	??_floorf^0,w,c
  4000   0021B6  162A               	andwf	floorf@u^0,f,c
  4001   0021B8  501F               	movf	(??_floorf+1)^0,w,c
  4002   0021BA  162B               	andwf	(floorf@u+1)^0,f,c
  4003   0021BC  5020               	movf	(??_floorf+2)^0,w,c
  4004   0021BE  162C               	andwf	(floorf@u+2)^0,f,c
  4005   0021C0  5021               	movf	(??_floorf+3)^0,w,c
  4006   0021C2  162D               	andwf	(floorf@u+3)^0,f,c
  4007   0021C4  EF28  F011         	goto	l3413
  4008   0021C8                     l3405:
  4009   0021C8  C02A  F01E         	movff	floorf@u,??_floorf
  4010   0021CC  C02B  F01F         	movff	floorf@u+1,??_floorf+1
  4011   0021D0  C02C  F020         	movff	floorf@u+2,??_floorf+2
  4012   0021D4  C02D  F021         	movff	floorf@u+3,??_floorf+3
  4013   0021D8  0E20               	movlw	32
  4014   0021DA  EFF4  F010         	goto	u3600
  4015   0021DE                     u3605:
  4016   0021DE  90D8               	bcf	status,0,c
  4017   0021E0  3221               	rrcf	(??_floorf+3)^0,f,c
  4018   0021E2  3220               	rrcf	(??_floorf+2)^0,f,c
  4019   0021E4  321F               	rrcf	(??_floorf+1)^0,f,c
  4020   0021E6  321E               	rrcf	??_floorf^0,f,c
  4021   0021E8                     u3600:
  4022   0021E8  2EE8               	decfsz	wreg,f,c
  4023   0021EA  EFEF  F010         	goto	u3605
  4024   0021EE  501E               	movf	??_floorf^0,w,c
  4025   0021F0  101F               	iorwf	(??_floorf+1)^0,w,c
  4026   0021F2  1020               	iorwf	(??_floorf+2)^0,w,c
  4027   0021F4  1021               	iorwf	(??_floorf+3)^0,w,c
  4028   0021F6  A4D8               	btfss	status,2,c
  4029   0021F8  EF00  F011         	goto	u3611
  4030   0021FC  EF02  F011         	goto	u3610
  4031   002200                     u3611:
  4032   002200  EF0C  F011         	goto	l3409
  4033   002204                     u3610:
  4034   002204  0E00               	movlw	0
  4035   002206  6E2A               	movwf	floorf@u^0,c
  4036   002208  0E00               	movlw	0
  4037   00220A  6E2B               	movwf	(floorf@u+1)^0,c
  4038   00220C  0E00               	movlw	0
  4039   00220E  6E2C               	movwf	(floorf@u+2)^0,c
  4040   002210  0E00               	movlw	0
  4041   002212  6E2D               	movwf	(floorf@u+3)^0,c
  4042   002214  EF28  F011         	goto	l3413
  4043   002218                     l3409:
  4044   002218  90D8               	bcf	status,0,c
  4045   00221A  342A               	rlcf	floorf@u^0,w,c
  4046   00221C  6E1E               	movwf	??_floorf^0,c
  4047   00221E  342B               	rlcf	(floorf@u+1)^0,w,c
  4048   002220  6E1F               	movwf	(??_floorf+1)^0,c
  4049   002222  342C               	rlcf	(floorf@u+2)^0,w,c
  4050   002224  6E20               	movwf	(??_floorf+2)^0,c
  4051   002226  342D               	rlcf	(floorf@u+3)^0,w,c
  4052   002228  6E21               	movwf	(??_floorf+3)^0,c
  4053   00222A  501E               	movf	??_floorf^0,w,c
  4054   00222C  101F               	iorwf	(??_floorf+1)^0,w,c
  4055   00222E  1020               	iorwf	(??_floorf+2)^0,w,c
  4056   002230  1021               	iorwf	(??_floorf+3)^0,w,c
  4057   002232  B4D8               	btfsc	status,2,c
  4058   002234  EF1E  F011         	goto	u3621
  4059   002238  EF20  F011         	goto	u3620
  4060   00223C                     u3621:
  4061   00223C  EF28  F011         	goto	l3413
  4062   002240                     u3620:
  4063   002240  0E00               	movlw	0
  4064   002242  6E2A               	movwf	floorf@u^0,c
  4065   002244  0E00               	movlw	0
  4066   002246  6E2B               	movwf	(floorf@u+1)^0,c
  4067   002248  0E80               	movlw	128
  4068   00224A  6E2C               	movwf	(floorf@u+2)^0,c
  4069   00224C  0EBF               	movlw	191
  4070   00224E  6E2D               	movwf	(floorf@u+3)^0,c
  4071   002250                     l3413:
  4072   002250  C02A  F01A         	movff	floorf@u,?_floorf
  4073   002254  C02B  F01B         	movff	floorf@u+1,?_floorf+1
  4074   002258  C02C  F01C         	movff	floorf@u+2,?_floorf+2
  4075   00225C  C02D  F01D         	movff	floorf@u+3,?_floorf+3
  4076   002260                     l1089:
  4077   002260  0012               	return		;funcret
  4078   002262                     __end_of_floorf:
  4079                           	callstack 0
  4080                           
  4081 ;; *************** function ___fpclassifyf *****************
  4082 ;; Defined at:
  4083 ;;		line 4 in file "C:\Program Files\Microchip\xc8\v2.41\pic\sources\c99\common\__fpclassifyf.c"
  4084 ;; Parameters:    Size  Location     Type
  4085 ;;  x               4    0[COMRAM] float 
  4086 ;; Auto vars:     Size  Location     Type
  4087 ;;  u               4   10[COMRAM] struct .
  4088 ;;  e               2    8[COMRAM] int 
  4089 ;; Return value:  Size  Location     Type
  4090 ;;                  2    0[COMRAM] int 
  4091 ;; Registers used:
  4092 ;;		wreg, status,2, status,0
  4093 ;; Tracked objects:
  4094 ;;		On entry : 0/0
  4095 ;;		On exit  : 0/0
  4096 ;;		Unchanged: 0/0
  4097 ;; Data sizes:     COMRAM   BANK0   BANK1   BANK2   BANK3   BANK4   BANK5
  4098 ;;      Params:         4       0       0       0       0       0       0
  4099 ;;      Locals:         6       0       0       0       0       0       0
  4100 ;;      Temps:          4       0       0       0       0       0       0
  4101 ;;      Totals:        14       0       0       0       0       0       0
  4102 ;;Total ram usage:       14 bytes
  4103 ;; Hardware stack levels used: 1
  4104 ;; This function calls:
  4105 ;;		Nothing
  4106 ;; This function is called by:
  4107 ;;		_efgtoa
  4108 ;; This function uses a non-reentrant model
  4109 ;;
  4110                           
  4111                           	psect	text12
  4112   0029FA                     __ptext12:
  4113                           	callstack 0
  4114   0029FA                     ___fpclassifyf:
  4115                           	callstack 26
  4116   0029FA  C0A6  F00B         	movff	___fpclassifyf@F465,___fpclassifyf@u
  4117   0029FE  C0A7  F00C         	movff	___fpclassifyf@F465+1,___fpclassifyf@u+1
  4118   002A02  C0A8  F00D         	movff	___fpclassifyf@F465+2,___fpclassifyf@u+2
  4119   002A06  C0A9  F00E         	movff	___fpclassifyf@F465+3,___fpclassifyf@u+3
  4120   002A0A  C001  F00B         	movff	___fpclassifyf@x,___fpclassifyf@u
  4121   002A0E  C002  F00C         	movff	___fpclassifyf@x+1,___fpclassifyf@u+1
  4122   002A12  C003  F00D         	movff	___fpclassifyf@x+2,___fpclassifyf@u+2
  4123   002A16  C004  F00E         	movff	___fpclassifyf@x+3,___fpclassifyf@u+3
  4124   002A1A  C00B  F005         	movff	___fpclassifyf@u,??___fpclassifyf
  4125   002A1E  C00C  F006         	movff	___fpclassifyf@u+1,??___fpclassifyf+1
  4126   002A22  C00D  F007         	movff	___fpclassifyf@u+2,??___fpclassifyf+2
  4127   002A26  C00E  F008         	movff	___fpclassifyf@u+3,??___fpclassifyf+3
  4128   002A2A  0E18               	movlw	24
  4129   002A2C  EF1D  F015         	goto	u3440
  4130   002A30                     u3445:
  4131   002A30  90D8               	bcf	status,0,c
  4132   002A32  3208               	rrcf	(??___fpclassifyf+3)^0,f,c
  4133   002A34  3207               	rrcf	(??___fpclassifyf+2)^0,f,c
  4134   002A36  3206               	rrcf	(??___fpclassifyf+1)^0,f,c
  4135   002A38  3205               	rrcf	??___fpclassifyf^0,f,c
  4136   002A3A                     u3440:
  4137   002A3A  2EE8               	decfsz	wreg,f,c
  4138   002A3C  EF18  F015         	goto	u3445
  4139   002A40  5005               	movf	??___fpclassifyf^0,w,c
  4140   002A42  6E09               	movwf	___fpclassifyf@e^0,c
  4141   002A44  6A0A               	clrf	(___fpclassifyf@e+1)^0,c
  4142   002A46  5009               	movf	___fpclassifyf@e^0,w,c
  4143   002A48  100A               	iorwf	(___fpclassifyf@e+1)^0,w,c
  4144   002A4A  A4D8               	btfss	status,2,c
  4145   002A4C  EF2A  F015         	goto	u3451
  4146   002A50  EF2C  F015         	goto	u3450
  4147   002A54                     u3451:
  4148   002A54  EF4C  F015         	goto	l3371
  4149   002A58                     u3450:
  4150   002A58  90D8               	bcf	status,0,c
  4151   002A5A  340B               	rlcf	___fpclassifyf@u^0,w,c
  4152   002A5C  6E05               	movwf	??___fpclassifyf^0,c
  4153   002A5E  340C               	rlcf	(___fpclassifyf@u+1)^0,w,c
  4154   002A60  6E06               	movwf	(??___fpclassifyf+1)^0,c
  4155   002A62  340D               	rlcf	(___fpclassifyf@u+2)^0,w,c
  4156   002A64  6E07               	movwf	(??___fpclassifyf+2)^0,c
  4157   002A66  340E               	rlcf	(___fpclassifyf@u+3)^0,w,c
  4158   002A68  6E08               	movwf	(??___fpclassifyf+3)^0,c
  4159   002A6A  5005               	movf	??___fpclassifyf^0,w,c
  4160   002A6C  1006               	iorwf	(??___fpclassifyf+1)^0,w,c
  4161   002A6E  1007               	iorwf	(??___fpclassifyf+2)^0,w,c
  4162   002A70  1008               	iorwf	(??___fpclassifyf+3)^0,w,c
  4163   002A72  A4D8               	btfss	status,2,c
  4164   002A74  EF3E  F015         	goto	u3461
  4165   002A78  EF40  F015         	goto	u3460
  4166   002A7C                     u3461:
  4167   002A7C  EF46  F015         	goto	l3367
  4168   002A80                     u3460:
  4169   002A80  0E00               	movlw	0
  4170   002A82  6E02               	movwf	(?___fpclassifyf+1)^0,c
  4171   002A84  0E02               	movlw	2
  4172   002A86  6E01               	movwf	?___fpclassifyf^0,c
  4173   002A88  EF7B  F015         	goto	l1075
  4174   002A8C                     l3367:
  4175   002A8C  0E00               	movlw	0
  4176   002A8E  6E02               	movwf	(?___fpclassifyf+1)^0,c
  4177   002A90  0E03               	movlw	3
  4178   002A92  6E01               	movwf	?___fpclassifyf^0,c
  4179   002A94  EF7B  F015         	goto	l1075
  4180   002A98                     l3371:
  4181   002A98  2809               	incf	___fpclassifyf@e^0,w,c
  4182   002A9A  100A               	iorwf	(___fpclassifyf@e+1)^0,w,c
  4183   002A9C  A4D8               	btfss	status,2,c
  4184   002A9E  EF53  F015         	goto	u3471
  4185   002AA2  EF55  F015         	goto	u3470
  4186   002AA6                     u3471:
  4187   002AA6  EF77  F015         	goto	l3377
  4188   002AAA                     u3470:
  4189   002AAA  C00B  F005         	movff	___fpclassifyf@u,??___fpclassifyf
  4190   002AAE  C00C  F006         	movff	___fpclassifyf@u+1,??___fpclassifyf+1
  4191   002AB2  C00D  F007         	movff	___fpclassifyf@u+2,??___fpclassifyf+2
  4192   002AB6  C00E  F008         	movff	___fpclassifyf@u+3,??___fpclassifyf+3
  4193   002ABA  0E09               	movlw	9
  4194   002ABC                     u3485:
  4195   002ABC  90D8               	bcf	status,0,c
  4196   002ABE  3605               	rlcf	??___fpclassifyf^0,f,c
  4197   002AC0  3606               	rlcf	(??___fpclassifyf+1)^0,f,c
  4198   002AC2  3607               	rlcf	(??___fpclassifyf+2)^0,f,c
  4199   002AC4  3608               	rlcf	(??___fpclassifyf+3)^0,f,c
  4200   002AC6  2EE8               	decfsz	wreg,f,c
  4201   002AC8  EF5E  F015         	goto	u3485
  4202   002ACC  5005               	movf	??___fpclassifyf^0,w,c
  4203   002ACE  1006               	iorwf	(??___fpclassifyf+1)^0,w,c
  4204   002AD0  1007               	iorwf	(??___fpclassifyf+2)^0,w,c
  4205   002AD2  1008               	iorwf	(??___fpclassifyf+3)^0,w,c
  4206   002AD4  B4D8               	btfsc	status,2,c
  4207   002AD6  EF6F  F015         	goto	u3491
  4208   002ADA  EF72  F015         	goto	u3490
  4209   002ADE                     u3491:
  4210   002ADE  0E01               	movlw	1
  4211   002AE0  EF73  F015         	goto	u3500
  4212   002AE4                     u3490:
  4213   002AE4  0E00               	movlw	0
  4214   002AE6                     u3500:
  4215   002AE6  6E01               	movwf	?___fpclassifyf^0,c
  4216   002AE8  6A02               	clrf	(?___fpclassifyf+1)^0,c
  4217   002AEA  EF7B  F015         	goto	l1075
  4218   002AEE                     l3377:
  4219   002AEE  0E00               	movlw	0
  4220   002AF0  6E02               	movwf	(?___fpclassifyf+1)^0,c
  4221   002AF2  0E04               	movlw	4
  4222   002AF4  6E01               	movwf	?___fpclassifyf^0,c
  4223   002AF6                     l1075:
  4224   002AF6  0012               	return		;funcret
  4225   002AF8                     __end_of___fpclassifyf:
  4226                           	callstack 0
  4227                           
  4228 ;; *************** function ___fltol *****************
  4229 ;; Defined at:
  4230 ;;		line 43 in file "C:\Program Files\Microchip\xc8\v2.41\pic\sources\c99\common\fltol.c"
  4231 ;; Parameters:    Size  Location     Type
  4232 ;;  f1              4    0[COMRAM] int 
  4233 ;; Auto vars:     Size  Location     Type
  4234 ;;  exp1            1    9[COMRAM] unsigned char 
  4235 ;;  sign1           1    8[COMRAM] unsigned char 
  4236 ;; Return value:  Size  Location     Type
  4237 ;;                  4    0[COMRAM] long 
  4238 ;; Registers used:
  4239 ;;		wreg, status,2, status,0
  4240 ;; Tracked objects:
  4241 ;;		On entry : 0/0
  4242 ;;		On exit  : 0/0
  4243 ;;		Unchanged: 0/0
  4244 ;; Data sizes:     COMRAM   BANK0   BANK1   BANK2   BANK3   BANK4   BANK5
  4245 ;;      Params:         4       0       0       0       0       0       0
  4246 ;;      Locals:         2       0       0       0       0       0       0
  4247 ;;      Temps:          4       0       0       0       0       0       0
  4248 ;;      Totals:        10       0       0       0       0       0       0
  4249 ;;Total ram usage:       10 bytes
  4250 ;; Hardware stack levels used: 1
  4251 ;; This function calls:
  4252 ;;		Nothing
  4253 ;; This function is called by:
  4254 ;;		_efgtoa
  4255 ;; This function uses a non-reentrant model
  4256 ;;
  4257                           
  4258                           	psect	text13
  4259   0027F0                     __ptext13:
  4260                           	callstack 0
  4261   0027F0                     ___fltol:
  4262                           	callstack 26
  4263   0027F0  3403               	rlcf	(___fltol@f1+2)^0,w,c
  4264   0027F2  3404               	rlcf	(___fltol@f1+3)^0,w,c
  4265   0027F4  6E0A               	movwf	___fltol@exp1^0,c
  4266   0027F6  500A               	movf	___fltol@exp1^0,w,c
  4267   0027F8  A4D8               	btfss	status,2,c
  4268   0027FA  EF01  F014         	goto	u3341
  4269   0027FE  EF03  F014         	goto	u3340
  4270   002802                     u3341:
  4271   002802  EF0D  F014         	goto	l3303
  4272   002806                     u3340:
  4273   002806                     l3299:
  4274   002806  0E00               	movlw	0
  4275   002808  6E01               	movwf	?___fltol^0,c
  4276   00280A  0E00               	movlw	0
  4277   00280C  6E02               	movwf	(?___fltol+1)^0,c
  4278   00280E  0E00               	movlw	0
  4279   002810  6E03               	movwf	(?___fltol+2)^0,c
  4280   002812  0E00               	movlw	0
  4281   002814  6E04               	movwf	(?___fltol+3)^0,c
  4282   002816  EF7A  F014         	goto	l519
  4283   00281A                     l3303:
  4284   00281A  C001  F005         	movff	___fltol@f1,??___fltol
  4285   00281E  C002  F006         	movff	___fltol@f1+1,??___fltol+1
  4286   002822  C003  F007         	movff	___fltol@f1+2,??___fltol+2
  4287   002826  C004  F008         	movff	___fltol@f1+3,??___fltol+3
  4288   00282A  0E20               	movlw	32
  4289   00282C  EF1D  F014         	goto	u3350
  4290   002830                     u3355:
  4291   002830  90D8               	bcf	status,0,c
  4292   002832  3208               	rrcf	(??___fltol+3)^0,f,c
  4293   002834  3207               	rrcf	(??___fltol+2)^0,f,c
  4294   002836  3206               	rrcf	(??___fltol+1)^0,f,c
  4295   002838  3205               	rrcf	??___fltol^0,f,c
  4296   00283A                     u3350:
  4297   00283A  2EE8               	decfsz	wreg,f,c
  4298   00283C  EF18  F014         	goto	u3355
  4299   002840  5005               	movf	??___fltol^0,w,c
  4300   002842  6E09               	movwf	___fltol@sign1^0,c
  4301   002844  8E03               	bsf	(___fltol@f1+2)^0,7,c
  4302   002846  0EFF               	movlw	255
  4303   002848  1601               	andwf	___fltol@f1^0,f,c
  4304   00284A  0EFF               	movlw	255
  4305   00284C  1602               	andwf	(___fltol@f1+1)^0,f,c
  4306   00284E  0EFF               	movlw	255
  4307   002850  1603               	andwf	(___fltol@f1+2)^0,f,c
  4308   002852  0E00               	movlw	0
  4309   002854  1604               	andwf	(___fltol@f1+3)^0,f,c
  4310   002856  0E96               	movlw	150
  4311   002858  5E0A               	subwf	___fltol@exp1^0,f,c
  4312   00285A  BE0A               	btfsc	___fltol@exp1^0,7,c
  4313   00285C  EF34  F014         	goto	u3360
  4314   002860  EF32  F014         	goto	u3361
  4315   002864                     u3361:
  4316   002864  EF4A  F014         	goto	l3323
  4317   002868                     u3360:
  4318   002868  500A               	movf	___fltol@exp1^0,w,c
  4319   00286A  0A80               	xorlw	128
  4320   00286C  0F97               	addlw	151
  4321   00286E  B0D8               	btfsc	status,0,c
  4322   002870  EF3C  F014         	goto	u3371
  4323   002874  EF3E  F014         	goto	u3370
  4324   002878                     u3371:
  4325   002878  EF40  F014         	goto	l3319
  4326   00287C                     u3370:
  4327   00287C  EF03  F014         	goto	l3299
  4328   002880                     l3319:
  4329   002880  90D8               	bcf	status,0,c
  4330   002882  3204               	rrcf	(___fltol@f1+3)^0,f,c
  4331   002884  3203               	rrcf	(___fltol@f1+2)^0,f,c
  4332   002886  3202               	rrcf	(___fltol@f1+1)^0,f,c
  4333   002888  3201               	rrcf	___fltol@f1^0,f,c
  4334   00288A  3E0A               	incfsz	___fltol@exp1^0,f,c
  4335   00288C  EF40  F014         	goto	l3319
  4336   002890  EF62  F014         	goto	l3333
  4337   002894                     l3323:
  4338   002894  0E1F               	movlw	31
  4339   002896  640A               	cpfsgt	___fltol@exp1^0,c
  4340   002898  EF50  F014         	goto	u3381
  4341   00289C  EF52  F014         	goto	u3380
  4342   0028A0                     u3381:
  4343   0028A0  EF5A  F014         	goto	l3331
  4344   0028A4                     u3380:
  4345   0028A4  EF03  F014         	goto	l3299
  4346   0028A8                     l3329:
  4347   0028A8  90D8               	bcf	status,0,c
  4348   0028AA  3601               	rlcf	___fltol@f1^0,f,c
  4349   0028AC  3602               	rlcf	(___fltol@f1+1)^0,f,c
  4350   0028AE  3603               	rlcf	(___fltol@f1+2)^0,f,c
  4351   0028B0  3604               	rlcf	(___fltol@f1+3)^0,f,c
  4352   0028B2  060A               	decf	___fltol@exp1^0,f,c
  4353   0028B4                     l3331:
  4354   0028B4  500A               	movf	___fltol@exp1^0,w,c
  4355   0028B6  A4D8               	btfss	status,2,c
  4356   0028B8  EF60  F014         	goto	u3391
  4357   0028BC  EF62  F014         	goto	u3390
  4358   0028C0                     u3391:
  4359   0028C0  EF54  F014         	goto	l3329
  4360   0028C4                     u3390:
  4361   0028C4                     l3333:
  4362   0028C4  5009               	movf	___fltol@sign1^0,w,c
  4363   0028C6  B4D8               	btfsc	status,2,c
  4364   0028C8  EF68  F014         	goto	u3401
  4365   0028CC  EF6A  F014         	goto	u3400
  4366   0028D0                     u3401:
  4367   0028D0  EF72  F014         	goto	l3337
  4368   0028D4                     u3400:
  4369   0028D4  1E04               	comf	(___fltol@f1+3)^0,f,c
  4370   0028D6  1E03               	comf	(___fltol@f1+2)^0,f,c
  4371   0028D8  1E02               	comf	(___fltol@f1+1)^0,f,c
  4372   0028DA  6C01               	negf	___fltol@f1^0,c
  4373   0028DC  0E00               	movlw	0
  4374   0028DE  2202               	addwfc	(___fltol@f1+1)^0,f,c
  4375   0028E0  2203               	addwfc	(___fltol@f1+2)^0,f,c
  4376   0028E2  2204               	addwfc	(___fltol@f1+3)^0,f,c
  4377   0028E4                     l3337:
  4378   0028E4  C001  F001         	movff	___fltol@f1,?___fltol
  4379   0028E8  C002  F002         	movff	___fltol@f1+1,?___fltol+1
  4380   0028EC  C003  F003         	movff	___fltol@f1+2,?___fltol+2
  4381   0028F0  C004  F004         	movff	___fltol@f1+3,?___fltol+3
  4382   0028F4                     l519:
  4383   0028F4  0012               	return		;funcret
  4384   0028F6                     __end_of___fltol:
  4385                           	callstack 0
  4386                           
  4387 ;; *************** function ___flsub *****************
  4388 ;; Defined at:
  4389 ;;		line 245 in file "C:\Program Files\Microchip\xc8\v2.41\pic\sources\c99\common\sprcadd.c"
  4390 ;; Parameters:    Size  Location     Type
  4391 ;;  b               4   25[COMRAM] long 
  4392 ;;  a               4   29[COMRAM] long 
  4393 ;; Auto vars:     Size  Location     Type
  4394 ;;		None
  4395 ;; Return value:  Size  Location     Type
  4396 ;;                  4   25[COMRAM] long 
  4397 ;; Registers used:
  4398 ;;		wreg, status,2, status,0, cstack
  4399 ;; Tracked objects:
  4400 ;;		On entry : 0/0
  4401 ;;		On exit  : 0/0
  4402 ;;		Unchanged: 0/0
  4403 ;; Data sizes:     COMRAM   BANK0   BANK1   BANK2   BANK3   BANK4   BANK5
  4404 ;;      Params:         8       0       0       0       0       0       0
  4405 ;;      Locals:         0       0       0       0       0       0       0
  4406 ;;      Temps:          0       0       0       0       0       0       0
  4407 ;;      Totals:         8       0       0       0       0       0       0
  4408 ;;Total ram usage:        8 bytes
  4409 ;; Hardware stack levels used: 1
  4410 ;; Hardware stack levels required when called: 1
  4411 ;; This function calls:
  4412 ;;		___fladd
  4413 ;; This function is called by:
  4414 ;;		_efgtoa
  4415 ;; This function uses a non-reentrant model
  4416 ;;
  4417                           
  4418                           	psect	text14
  4419   003304                     __ptext14:
  4420                           	callstack 0
  4421   003304                     ___flsub:
  4422                           	callstack 25
  4423   003304  0E00               	movlw	0
  4424   003306  1A1E               	xorwf	___flsub@a^0,f,c
  4425   003308  0E00               	movlw	0
  4426   00330A  1A1F               	xorwf	(___flsub@a+1)^0,f,c
  4427   00330C  0E00               	movlw	0
  4428   00330E  1A20               	xorwf	(___flsub@a+2)^0,f,c
  4429   003310  0E80               	movlw	128
  4430   003312  1A21               	xorwf	(___flsub@a+3)^0,f,c
  4431   003314  C01A  F001         	movff	___flsub@b,___fladd@b
  4432   003318  C01B  F002         	movff	___flsub@b+1,___fladd@b+1
  4433   00331C  C01C  F003         	movff	___flsub@b+2,___fladd@b+2
  4434   003320  C01D  F004         	movff	___flsub@b+3,___fladd@b+3
  4435   003324  C01E  F005         	movff	___flsub@a,___fladd@a
  4436   003328  C01F  F006         	movff	___flsub@a+1,___fladd@a+1
  4437   00332C  C020  F007         	movff	___flsub@a+2,___fladd@a+2
  4438   003330  C021  F008         	movff	___flsub@a+3,___fladd@a+3
  4439   003334  EC1C  F008         	call	___fladd	;wreg free
  4440   003338  C001  F01A         	movff	?___fladd,?___flsub
  4441   00333C  C002  F01B         	movff	?___fladd+1,?___flsub+1
  4442   003340  C003  F01C         	movff	?___fladd+2,?___flsub+2
  4443   003344  C004  F01D         	movff	?___fladd+3,?___flsub+3
  4444   003348  0012               	return		;funcret
  4445   00334A                     __end_of___flsub:
  4446                           	callstack 0
  4447                           
  4448 ;; *************** function ___fladd *****************
  4449 ;; Defined at:
  4450 ;;		line 10 in file "C:\Program Files\Microchip\xc8\v2.41\pic\sources\c99\common\sprcadd.c"
  4451 ;; Parameters:    Size  Location     Type
  4452 ;;  b               4    0[COMRAM] long 
  4453 ;;  a               4    4[COMRAM] long 
  4454 ;; Auto vars:     Size  Location     Type
  4455 ;;  grs             1   15[COMRAM] unsigned char 
  4456 ;;  bexp            1   14[COMRAM] unsigned char 
  4457 ;;  aexp            1   13[COMRAM] unsigned char 
  4458 ;;  signs           1   12[COMRAM] unsigned char 
  4459 ;; Return value:  Size  Location     Type
  4460 ;;                  4    0[COMRAM] unsigned char 
  4461 ;; Registers used:
  4462 ;;		wreg, status,2, status,0
  4463 ;; Tracked objects:
  4464 ;;		On entry : 0/0
  4465 ;;		On exit  : 0/0
  4466 ;;		Unchanged: 0/0
  4467 ;; Data sizes:     COMRAM   BANK0   BANK1   BANK2   BANK3   BANK4   BANK5
  4468 ;;      Params:         8       0       0       0       0       0       0
  4469 ;;      Locals:         4       0       0       0       0       0       0
  4470 ;;      Temps:          4       0       0       0       0       0       0
  4471 ;;      Totals:        16       0       0       0       0       0       0
  4472 ;;Total ram usage:       16 bytes
  4473 ;; Hardware stack levels used: 1
  4474 ;; This function calls:
  4475 ;;		Nothing
  4476 ;; This function is called by:
  4477 ;;		___flsub
  4478 ;;		_efgtoa
  4479 ;; This function uses a non-reentrant model
  4480 ;;
  4481                           
  4482                           	psect	text15
  4483   001038                     __ptext15:
  4484                           	callstack 0
  4485   001038                     ___fladd:
  4486                           	callstack 25
  4487   001038  5004               	movf	(___fladd@b+3)^0,w,c
  4488   00103A  0B80               	andlw	128
  4489   00103C  6E0D               	movwf	___fladd@signs^0,c
  4490   00103E  5004               	movf	(___fladd@b+3)^0,w,c
  4491   001040  2404               	addwf	(___fladd@b+3)^0,w,c
  4492   001042  6E0F               	movwf	___fladd@bexp^0,c
  4493   001044  AE03               	btfss	(___fladd@b+2)^0,7,c
  4494   001046  EF27  F008         	goto	u2311
  4495   00104A  EF29  F008         	goto	u2310
  4496   00104E                     u2311:
  4497   00104E  EF2A  F008         	goto	l2693
  4498   001052                     u2310:
  4499   001052  800F               	bsf	___fladd@bexp^0,0,c
  4500   001054                     l2693:
  4501   001054  500F               	movf	___fladd@bexp^0,w,c
  4502   001056  B4D8               	btfsc	status,2,c
  4503   001058  EF30  F008         	goto	u2321
  4504   00105C  EF32  F008         	goto	u2320
  4505   001060                     u2321:
  4506   001060  EF47  F008         	goto	l2703
  4507   001064                     u2320:
  4508   001064  280F               	incf	___fladd@bexp^0,w,c
  4509   001066  A4D8               	btfss	status,2,c
  4510   001068  EF38  F008         	goto	u2331
  4511   00106C  EF3A  F008         	goto	u2330
  4512   001070                     u2331:
  4513   001070  EF42  F008         	goto	l2699
  4514   001074                     u2330:
  4515   001074  0E00               	movlw	0
  4516   001076  6E01               	movwf	___fladd@b^0,c
  4517   001078  0E00               	movlw	0
  4518   00107A  6E02               	movwf	(___fladd@b+1)^0,c
  4519   00107C  0E00               	movlw	0
  4520   00107E  6E03               	movwf	(___fladd@b+2)^0,c
  4521   001080  0E00               	movlw	0
  4522   001082  6E04               	movwf	(___fladd@b+3)^0,c
  4523   001084                     l2699:
  4524   001084  8E03               	bsf	(___fladd@b+2)^0,7,c
  4525   001086  0E00               	movlw	0
  4526   001088  6E04               	movwf	(___fladd@b+3)^0,c
  4527   00108A  EF4F  F008         	goto	l2705
  4528   00108E                     l2703:
  4529   00108E  0E00               	movlw	0
  4530   001090  6E01               	movwf	___fladd@b^0,c
  4531   001092  0E00               	movlw	0
  4532   001094  6E02               	movwf	(___fladd@b+1)^0,c
  4533   001096  0E00               	movlw	0
  4534   001098  6E03               	movwf	(___fladd@b+2)^0,c
  4535   00109A  0E00               	movlw	0
  4536   00109C  6E04               	movwf	(___fladd@b+3)^0,c
  4537   00109E                     l2705:
  4538   00109E  5008               	movf	(___fladd@a+3)^0,w,c
  4539   0010A0  0B80               	andlw	128
  4540   0010A2  6E0E               	movwf	___fladd@aexp^0,c
  4541   0010A4  500D               	movf	___fladd@signs^0,w,c
  4542   0010A6  180E               	xorwf	___fladd@aexp^0,w,c
  4543   0010A8  B4D8               	btfsc	status,2,c
  4544   0010AA  EF59  F008         	goto	u2341
  4545   0010AE  EF5B  F008         	goto	u2340
  4546   0010B2                     u2341:
  4547   0010B2  EF5C  F008         	goto	l2711
  4548   0010B6                     u2340:
  4549   0010B6  8C0D               	bsf	___fladd@signs^0,6,c
  4550   0010B8                     l2711:
  4551   0010B8  5008               	movf	(___fladd@a+3)^0,w,c
  4552   0010BA  2408               	addwf	(___fladd@a+3)^0,w,c
  4553   0010BC  6E0E               	movwf	___fladd@aexp^0,c
  4554   0010BE  AE07               	btfss	(___fladd@a+2)^0,7,c
  4555   0010C0  EF64  F008         	goto	u2351
  4556   0010C4  EF66  F008         	goto	u2350
  4557   0010C8                     u2351:
  4558   0010C8  EF67  F008         	goto	l2717
  4559   0010CC                     u2350:
  4560   0010CC  800E               	bsf	___fladd@aexp^0,0,c
  4561   0010CE                     l2717:
  4562   0010CE  500E               	movf	___fladd@aexp^0,w,c
  4563   0010D0  B4D8               	btfsc	status,2,c
  4564   0010D2  EF6D  F008         	goto	u2361
  4565   0010D6  EF6F  F008         	goto	u2360
  4566   0010DA                     u2361:
  4567   0010DA  EF84  F008         	goto	l2727
  4568   0010DE                     u2360:
  4569   0010DE  280E               	incf	___fladd@aexp^0,w,c
  4570   0010E0  A4D8               	btfss	status,2,c
  4571   0010E2  EF75  F008         	goto	u2371
  4572   0010E6  EF77  F008         	goto	u2370
  4573   0010EA                     u2371:
  4574   0010EA  EF7F  F008         	goto	l2723
  4575   0010EE                     u2370:
  4576   0010EE  0E00               	movlw	0
  4577   0010F0  6E05               	movwf	___fladd@a^0,c
  4578   0010F2  0E00               	movlw	0
  4579   0010F4  6E06               	movwf	(___fladd@a+1)^0,c
  4580   0010F6  0E00               	movlw	0
  4581   0010F8  6E07               	movwf	(___fladd@a+2)^0,c
  4582   0010FA  0E00               	movlw	0
  4583   0010FC  6E08               	movwf	(___fladd@a+3)^0,c
  4584   0010FE                     l2723:
  4585   0010FE  8E07               	bsf	(___fladd@a+2)^0,7,c
  4586   001100  0E00               	movlw	0
  4587   001102  6E08               	movwf	(___fladd@a+3)^0,c
  4588   001104  EF8C  F008         	goto	l2729
  4589   001108                     l2727:
  4590   001108  0E00               	movlw	0
  4591   00110A  6E05               	movwf	___fladd@a^0,c
  4592   00110C  0E00               	movlw	0
  4593   00110E  6E06               	movwf	(___fladd@a+1)^0,c
  4594   001110  0E00               	movlw	0
  4595   001112  6E07               	movwf	(___fladd@a+2)^0,c
  4596   001114  0E00               	movlw	0
  4597   001116  6E08               	movwf	(___fladd@a+3)^0,c
  4598   001118                     l2729:
  4599   001118  500F               	movf	___fladd@bexp^0,w,c
  4600   00111A  5C0E               	subwf	___fladd@aexp^0,w,c
  4601   00111C  B0D8               	btfsc	status,0,c
  4602   00111E  EF93  F008         	goto	u2381
  4603   001122  EF95  F008         	goto	u2380
  4604   001126                     u2381:
  4605   001126  EFBC  F008         	goto	l2765
  4606   00112A                     u2380:
  4607   00112A  AC0D               	btfss	___fladd@signs^0,6,c
  4608   00112C  EF9A  F008         	goto	u2391
  4609   001130  EF9C  F008         	goto	u2390
  4610   001134                     u2391:
  4611   001134  EF9E  F008         	goto	l2735
  4612   001138                     u2390:
  4613   001138  0E80               	movlw	128
  4614   00113A  1A0D               	xorwf	___fladd@signs^0,f,c
  4615   00113C                     l2735:
  4616   00113C  C00F  F010         	movff	___fladd@bexp,___fladd@grs
  4617   001140  C00E  F00F         	movff	___fladd@aexp,___fladd@bexp
  4618   001144  C010  F00E         	movff	___fladd@grs,___fladd@aexp
  4619   001148  C001  F010         	movff	___fladd@b,___fladd@grs
  4620   00114C  C005  F001         	movff	___fladd@a,___fladd@b
  4621   001150  C010  F005         	movff	___fladd@grs,___fladd@a
  4622   001154  C002  F010         	movff	___fladd@b+1,___fladd@grs
  4623   001158  C006  F002         	movff	___fladd@a+1,___fladd@b+1
  4624   00115C  C010  F006         	movff	___fladd@grs,___fladd@a+1
  4625   001160  C003  F010         	movff	___fladd@b+2,___fladd@grs
  4626   001164  C007  F003         	movff	___fladd@a+2,___fladd@b+2
  4627   001168  C010  F007         	movff	___fladd@grs,___fladd@a+2
  4628   00116C  C004  F010         	movff	___fladd@b+3,___fladd@grs
  4629   001170  C008  F004         	movff	___fladd@a+3,___fladd@b+3
  4630   001174  C010  F008         	movff	___fladd@grs,___fladd@a+3
  4631   001178                     l2765:
  4632   001178  0E00               	movlw	0
  4633   00117A  6E10               	movwf	___fladd@grs^0,c
  4634   00117C  500F               	movf	___fladd@bexp^0,w,c
  4635   00117E  C00E  F009         	movff	___fladd@aexp,??___fladd
  4636   001182  6A0A               	clrf	(??___fladd+1)^0,c
  4637   001184  5E09               	subwf	??___fladd^0,f,c
  4638   001186  0E00               	movlw	0
  4639   001188  5A0A               	subwfb	(??___fladd+1)^0,f,c
  4640   00118A  BE0A               	btfsc	(??___fladd+1)^0,7,c
  4641   00118C  EFD1  F008         	goto	u2401
  4642   001190  500A               	movf	(??___fladd+1)^0,w,c
  4643   001192  E109               	bnz	u2400
  4644   001194  0E1A               	movlw	26
  4645   001196  5C09               	subwf	??___fladd^0,w,c
  4646   001198  A0D8               	btfss	status,0,c
  4647   00119A  EFD1  F008         	goto	u2401
  4648   00119E  EFD3  F008         	goto	u2400
  4649   0011A2                     u2401:
  4650   0011A2  EF0A  F009         	goto	l751
  4651   0011A6                     u2400:
  4652   0011A6  5001               	movf	___fladd@b^0,w,c
  4653   0011A8  1002               	iorwf	(___fladd@b+1)^0,w,c
  4654   0011AA  1003               	iorwf	(___fladd@b+2)^0,w,c
  4655   0011AC  1004               	iorwf	(___fladd@b+3)^0,w,c
  4656   0011AE  A4D8               	btfss	status,2,c
  4657   0011B0  EFDC  F008         	goto	u2411
  4658   0011B4  EFDF  F008         	goto	u2410
  4659   0011B8                     u2411:
  4660   0011B8  0E01               	movlw	1
  4661   0011BA  EFE0  F008         	goto	u2420
  4662   0011BE                     u2410:
  4663   0011BE  0E00               	movlw	0
  4664   0011C0                     u2420:
  4665   0011C0  6E10               	movwf	___fladd@grs^0,c
  4666   0011C2  0E00               	movlw	0
  4667   0011C4  6E01               	movwf	___fladd@b^0,c
  4668   0011C6  0E00               	movlw	0
  4669   0011C8  6E02               	movwf	(___fladd@b+1)^0,c
  4670   0011CA  0E00               	movlw	0
  4671   0011CC  6E03               	movwf	(___fladd@b+2)^0,c
  4672   0011CE  0E00               	movlw	0
  4673   0011D0  6E04               	movwf	(___fladd@b+3)^0,c
  4674   0011D2  C00E  F00F         	movff	___fladd@aexp,___fladd@bexp
  4675   0011D6  EF13  F009         	goto	l750
  4676   0011DA                     l752:
  4677   0011DA  A010               	btfss	___fladd@grs^0,0,c
  4678   0011DC  EFF2  F008         	goto	u2431
  4679   0011E0  EFF4  F008         	goto	u2430
  4680   0011E4                     u2431:
  4681   0011E4  EFFA  F008         	goto	l2777
  4682   0011E8                     u2430:
  4683   0011E8  90D8               	bcf	status,0,c
  4684   0011EA  3010               	rrcf	___fladd@grs^0,w,c
  4685   0011EC  0901               	iorlw	1
  4686   0011EE  6E10               	movwf	___fladd@grs^0,c
  4687   0011F0  EFFC  F008         	goto	l2779
  4688   0011F4                     l2777:
  4689   0011F4  90D8               	bcf	status,0,c
  4690   0011F6  3210               	rrcf	___fladd@grs^0,f,c
  4691   0011F8                     l2779:
  4692   0011F8  A001               	btfss	___fladd@b^0,0,c
  4693   0011FA  EF01  F009         	goto	u2441
  4694   0011FE  EF03  F009         	goto	u2440
  4695   001202                     u2441:
  4696   001202  EF04  F009         	goto	l2783
  4697   001206                     u2440:
  4698   001206  8E10               	bsf	___fladd@grs^0,7,c
  4699   001208                     l2783:
  4700   001208  3404               	rlcf	(___fladd@b+3)^0,w,c
  4701   00120A  3204               	rrcf	(___fladd@b+3)^0,f,c
  4702   00120C  3203               	rrcf	(___fladd@b+2)^0,f,c
  4703   00120E  3202               	rrcf	(___fladd@b+1)^0,f,c
  4704   001210  3201               	rrcf	___fladd@b^0,f,c
  4705   001212  2A0F               	incf	___fladd@bexp^0,f,c
  4706   001214                     l751:
  4707   001214  500E               	movf	___fladd@aexp^0,w,c
  4708   001216  5C0F               	subwf	___fladd@bexp^0,w,c
  4709   001218  A0D8               	btfss	status,0,c
  4710   00121A  EF11  F009         	goto	u2451
  4711   00121E  EF13  F009         	goto	u2450
  4712   001222                     u2451:
  4713   001222  EFED  F008         	goto	l752
  4714   001226                     u2450:
  4715   001226                     l750:
  4716   001226  BC0D               	btfsc	___fladd@signs^0,6,c
  4717   001228  EF18  F009         	goto	u2461
  4718   00122C  EF1A  F009         	goto	u2460
  4719   001230                     u2461:
  4720   001230  EF5A  F009         	goto	l2811
  4721   001234                     u2460:
  4722   001234  500F               	movf	___fladd@bexp^0,w,c
  4723   001236  A4D8               	btfss	status,2,c
  4724   001238  EF20  F009         	goto	u2471
  4725   00123C  EF22  F009         	goto	u2470
  4726   001240                     u2471:
  4727   001240  EF2C  F009         	goto	l2793
  4728   001244                     u2470:
  4729   001244  0E00               	movlw	0
  4730   001246  6E01               	movwf	?___fladd^0,c
  4731   001248  0E00               	movlw	0
  4732   00124A  6E02               	movwf	(?___fladd+1)^0,c
  4733   00124C  0E00               	movlw	0
  4734   00124E  6E03               	movwf	(?___fladd+2)^0,c
  4735   001250  0E00               	movlw	0
  4736   001252  6E04               	movwf	(?___fladd+3)^0,c
  4737   001254  EF7B  F00A         	goto	l759
  4738   001258                     l2793:
  4739   001258  5005               	movf	___fladd@a^0,w,c
  4740   00125A  2601               	addwf	___fladd@b^0,f,c
  4741   00125C  5006               	movf	(___fladd@a+1)^0,w,c
  4742   00125E  2202               	addwfc	(___fladd@b+1)^0,f,c
  4743   001260  5007               	movf	(___fladd@a+2)^0,w,c
  4744   001262  2203               	addwfc	(___fladd@b+2)^0,f,c
  4745   001264  5008               	movf	(___fladd@a+3)^0,w,c
  4746   001266  2204               	addwfc	(___fladd@b+3)^0,f,c
  4747   001268  A004               	btfss	(___fladd@b+3)^0,0,c
  4748   00126A  EF39  F009         	goto	u2481
  4749   00126E  EF3B  F009         	goto	u2480
  4750   001272                     u2481:
  4751   001272  EFE7  F009         	goto	l2847
  4752   001276                     u2480:
  4753   001276  A010               	btfss	___fladd@grs^0,0,c
  4754   001278  EF40  F009         	goto	u2491
  4755   00127C  EF42  F009         	goto	u2490
  4756   001280                     u2491:
  4757   001280  EF48  F009         	goto	l2801
  4758   001284                     u2490:
  4759   001284  90D8               	bcf	status,0,c
  4760   001286  3010               	rrcf	___fladd@grs^0,w,c
  4761   001288  0901               	iorlw	1
  4762   00128A  6E10               	movwf	___fladd@grs^0,c
  4763   00128C  EF4A  F009         	goto	l2803
  4764   001290                     l2801:
  4765   001290  90D8               	bcf	status,0,c
  4766   001292  3210               	rrcf	___fladd@grs^0,f,c
  4767   001294                     l2803:
  4768   001294  A001               	btfss	___fladd@b^0,0,c
  4769   001296  EF4F  F009         	goto	u2501
  4770   00129A  EF51  F009         	goto	u2500
  4771   00129E                     u2501:
  4772   00129E  EF52  F009         	goto	l2807
  4773   0012A2                     u2500:
  4774   0012A2  8E10               	bsf	___fladd@grs^0,7,c
  4775   0012A4                     l2807:
  4776   0012A4  3404               	rlcf	(___fladd@b+3)^0,w,c
  4777   0012A6  3204               	rrcf	(___fladd@b+3)^0,f,c
  4778   0012A8  3203               	rrcf	(___fladd@b+2)^0,f,c
  4779   0012AA  3202               	rrcf	(___fladd@b+1)^0,f,c
  4780   0012AC  3201               	rrcf	___fladd@b^0,f,c
  4781   0012AE  2A0F               	incf	___fladd@bexp^0,f,c
  4782   0012B0  EFE7  F009         	goto	l2847
  4783   0012B4                     l2811:
  4784   0012B4  5005               	movf	___fladd@a^0,w,c
  4785   0012B6  5C01               	subwf	___fladd@b^0,w,c
  4786   0012B8  5006               	movf	(___fladd@a+1)^0,w,c
  4787   0012BA  5802               	subwfb	(___fladd@b+1)^0,w,c
  4788   0012BC  5007               	movf	(___fladd@a+2)^0,w,c
  4789   0012BE  5803               	subwfb	(___fladd@b+2)^0,w,c
  4790   0012C0  5004               	movf	(___fladd@b+3)^0,w,c
  4791   0012C2  0A80               	xorlw	128
  4792   0012C4  6E09               	movwf	??___fladd^0,c
  4793   0012C6  5008               	movf	(___fladd@a+3)^0,w,c
  4794   0012C8  0A80               	xorlw	128
  4795   0012CA  5809               	subwfb	??___fladd^0,w,c
  4796   0012CC  B0D8               	btfsc	status,0,c
  4797   0012CE  EF6B  F009         	goto	u2511
  4798   0012D2  EF6D  F009         	goto	u2510
  4799   0012D6                     u2511:
  4800   0012D6  EF98  F009         	goto	l2821
  4801   0012DA                     u2510:
  4802   0012DA  5001               	movf	___fladd@b^0,w,c
  4803   0012DC  5C05               	subwf	___fladd@a^0,w,c
  4804   0012DE  6E09               	movwf	??___fladd^0,c
  4805   0012E0  5002               	movf	(___fladd@b+1)^0,w,c
  4806   0012E2  5806               	subwfb	(___fladd@a+1)^0,w,c
  4807   0012E4  6E0A               	movwf	(??___fladd+1)^0,c
  4808   0012E6  5003               	movf	(___fladd@b+2)^0,w,c
  4809   0012E8  5807               	subwfb	(___fladd@a+2)^0,w,c
  4810   0012EA  6E0B               	movwf	(??___fladd+2)^0,c
  4811   0012EC  5004               	movf	(___fladd@b+3)^0,w,c
  4812   0012EE  5808               	subwfb	(___fladd@a+3)^0,w,c
  4813   0012F0  6E0C               	movwf	(??___fladd+3)^0,c
  4814   0012F2  0EFF               	movlw	255
  4815   0012F4  2409               	addwf	??___fladd^0,w,c
  4816   0012F6  6E01               	movwf	___fladd@b^0,c
  4817   0012F8  0EFF               	movlw	255
  4818   0012FA  200A               	addwfc	(??___fladd+1)^0,w,c
  4819   0012FC  6E02               	movwf	(___fladd@b+1)^0,c
  4820   0012FE  0EFF               	movlw	255
  4821   001300  200B               	addwfc	(??___fladd+2)^0,w,c
  4822   001302  6E03               	movwf	(___fladd@b+2)^0,c
  4823   001304  0EFF               	movlw	255
  4824   001306  200C               	addwfc	(??___fladd+3)^0,w,c
  4825   001308  6E04               	movwf	(___fladd@b+3)^0,c
  4826   00130A  0E80               	movlw	128
  4827   00130C  1A0D               	xorwf	___fladd@signs^0,f,c
  4828   00130E  6C10               	negf	___fladd@grs^0,c
  4829   001310  5010               	movf	___fladd@grs^0,w,c
  4830   001312  A4D8               	btfss	status,2,c
  4831   001314  EF8E  F009         	goto	u2521
  4832   001318  EF90  F009         	goto	u2520
  4833   00131C                     u2521:
  4834   00131C  EFA0  F009         	goto	l767
  4835   001320                     u2520:
  4836   001320  0E01               	movlw	1
  4837   001322  2601               	addwf	___fladd@b^0,f,c
  4838   001324  0E00               	movlw	0
  4839   001326  2202               	addwfc	(___fladd@b+1)^0,f,c
  4840   001328  2203               	addwfc	(___fladd@b+2)^0,f,c
  4841   00132A  2204               	addwfc	(___fladd@b+3)^0,f,c
  4842   00132C  EFA0  F009         	goto	l767
  4843   001330                     l2821:
  4844   001330  5005               	movf	___fladd@a^0,w,c
  4845   001332  5E01               	subwf	___fladd@b^0,f,c
  4846   001334  5006               	movf	(___fladd@a+1)^0,w,c
  4847   001336  5A02               	subwfb	(___fladd@b+1)^0,f,c
  4848   001338  5007               	movf	(___fladd@a+2)^0,w,c
  4849   00133A  5A03               	subwfb	(___fladd@b+2)^0,f,c
  4850   00133C  5008               	movf	(___fladd@a+3)^0,w,c
  4851   00133E  5A04               	subwfb	(___fladd@b+3)^0,f,c
  4852   001340                     l767:
  4853   001340  5001               	movf	___fladd@b^0,w,c
  4854   001342  1002               	iorwf	(___fladd@b+1)^0,w,c
  4855   001344  1003               	iorwf	(___fladd@b+2)^0,w,c
  4856   001346  1004               	iorwf	(___fladd@b+3)^0,w,c
  4857   001348  A4D8               	btfss	status,2,c
  4858   00134A  EFA9  F009         	goto	u2531
  4859   00134E  EFAB  F009         	goto	u2530
  4860   001352                     u2531:
  4861   001352  EFE0  F009         	goto	l2845
  4862   001356                     u2530:
  4863   001356  5010               	movf	___fladd@grs^0,w,c
  4864   001358  A4D8               	btfss	status,2,c
  4865   00135A  EFB1  F009         	goto	u2541
  4866   00135E  EFB3  F009         	goto	u2540
  4867   001362                     u2541:
  4868   001362  EFE0  F009         	goto	l2845
  4869   001366                     u2540:
  4870   001366  0E00               	movlw	0
  4871   001368  6E01               	movwf	?___fladd^0,c
  4872   00136A  0E00               	movlw	0
  4873   00136C  6E02               	movwf	(?___fladd+1)^0,c
  4874   00136E  0E00               	movlw	0
  4875   001370  6E03               	movwf	(?___fladd+2)^0,c
  4876   001372  0E00               	movlw	0
  4877   001374  6E04               	movwf	(?___fladd+3)^0,c
  4878   001376  EF7B  F00A         	goto	l759
  4879   00137A                     l2829:
  4880   00137A  90D8               	bcf	status,0,c
  4881   00137C  3601               	rlcf	___fladd@b^0,f,c
  4882   00137E  3602               	rlcf	(___fladd@b+1)^0,f,c
  4883   001380  3603               	rlcf	(___fladd@b+2)^0,f,c
  4884   001382  3604               	rlcf	(___fladd@b+3)^0,f,c
  4885   001384  AE10               	btfss	___fladd@grs^0,7,c
  4886   001386  EFC7  F009         	goto	u2551
  4887   00138A  EFC9  F009         	goto	u2550
  4888   00138E                     u2551:
  4889   00138E  EFCA  F009         	goto	l2835
  4890   001392                     u2550:
  4891   001392  8001               	bsf	___fladd@b^0,0,c
  4892   001394                     l2835:
  4893   001394  A010               	btfss	___fladd@grs^0,0,c
  4894   001396  EFCF  F009         	goto	u2561
  4895   00139A  EFD1  F009         	goto	u2560
  4896   00139E                     u2561:
  4897   00139E  EFD5  F009         	goto	l2839
  4898   0013A2                     u2560:
  4899   0013A2  80D8               	bsf	status,0,c
  4900   0013A4  3610               	rlcf	___fladd@grs^0,f,c
  4901   0013A6  EFD7  F009         	goto	l2841
  4902   0013AA                     l2839:
  4903   0013AA  90D8               	bcf	status,0,c
  4904   0013AC  3610               	rlcf	___fladd@grs^0,f,c
  4905   0013AE                     l2841:
  4906   0013AE  500F               	movf	___fladd@bexp^0,w,c
  4907   0013B0  B4D8               	btfsc	status,2,c
  4908   0013B2  EFDD  F009         	goto	u2571
  4909   0013B6  EFDF  F009         	goto	u2570
  4910   0013BA                     u2571:
  4911   0013BA  EFE0  F009         	goto	l2845
  4912   0013BE                     u2570:
  4913   0013BE  060F               	decf	___fladd@bexp^0,f,c
  4914   0013C0                     l2845:
  4915   0013C0  AE03               	btfss	(___fladd@b+2)^0,7,c
  4916   0013C2  EFE5  F009         	goto	u2581
  4917   0013C6  EFE7  F009         	goto	u2580
  4918   0013CA                     u2581:
  4919   0013CA  EFBD  F009         	goto	l2829
  4920   0013CE                     u2580:
  4921   0013CE                     l2847:
  4922   0013CE  0E00               	movlw	0
  4923   0013D0  6E0E               	movwf	___fladd@aexp^0,c
  4924   0013D2  AE10               	btfss	___fladd@grs^0,7,c
  4925   0013D4  EFEE  F009         	goto	u2591
  4926   0013D8  EFF0  F009         	goto	u2590
  4927   0013DC                     u2591:
  4928   0013DC  EF08  F00A         	goto	l776
  4929   0013E0                     u2590:
  4930   0013E0  C010  F009         	movff	___fladd@grs,??___fladd
  4931   0013E4  0E7F               	movlw	127
  4932   0013E6  1609               	andwf	??___fladd^0,f,c
  4933   0013E8  B4D8               	btfsc	status,2,c
  4934   0013EA  EFF9  F009         	goto	u2601
  4935   0013EE  EFFB  F009         	goto	u2600
  4936   0013F2                     u2601:
  4937   0013F2  EFFF  F009         	goto	l777
  4938   0013F6                     u2600:
  4939   0013F6                     l2853:
  4940   0013F6  0E01               	movlw	1
  4941   0013F8  6E0E               	movwf	___fladd@aexp^0,c
  4942   0013FA  EF08  F00A         	goto	l776
  4943   0013FE                     l777:
  4944   0013FE  A001               	btfss	___fladd@b^0,0,c
  4945   001400  EF04  F00A         	goto	u2611
  4946   001404  EF06  F00A         	goto	u2610
  4947   001408                     u2611:
  4948   001408  EF08  F00A         	goto	l776
  4949   00140C                     u2610:
  4950   00140C  EFFB  F009         	goto	l2853
  4951   001410                     l776:
  4952   001410  500E               	movf	___fladd@aexp^0,w,c
  4953   001412  B4D8               	btfsc	status,2,c
  4954   001414  EF0E  F00A         	goto	u2621
  4955   001418  EF10  F00A         	goto	u2620
  4956   00141C                     u2621:
  4957   00141C  EF3B  F00A         	goto	l2865
  4958   001420                     u2620:
  4959   001420  0E01               	movlw	1
  4960   001422  2601               	addwf	___fladd@b^0,f,c
  4961   001424  0E00               	movlw	0
  4962   001426  2202               	addwfc	(___fladd@b+1)^0,f,c
  4963   001428  2203               	addwfc	(___fladd@b+2)^0,f,c
  4964   00142A  2204               	addwfc	(___fladd@b+3)^0,f,c
  4965   00142C  A004               	btfss	(___fladd@b+3)^0,0,c
  4966   00142E  EF1B  F00A         	goto	u2631
  4967   001432  EF1D  F00A         	goto	u2630
  4968   001436                     u2631:
  4969   001436  EF3B  F00A         	goto	l2865
  4970   00143A                     u2630:
  4971   00143A  C001  F009         	movff	___fladd@b,??___fladd
  4972   00143E  C002  F00A         	movff	___fladd@b+1,??___fladd+1
  4973   001442  C003  F00B         	movff	___fladd@b+2,??___fladd+2
  4974   001446  C004  F00C         	movff	___fladd@b+3,??___fladd+3
  4975   00144A  340C               	rlcf	(??___fladd+3)^0,w,c
  4976   00144C  320C               	rrcf	(??___fladd+3)^0,f,c
  4977   00144E  320B               	rrcf	(??___fladd+2)^0,f,c
  4978   001450  320A               	rrcf	(??___fladd+1)^0,f,c
  4979   001452  3209               	rrcf	??___fladd^0,f,c
  4980   001454  C009  F001         	movff	??___fladd,___fladd@b
  4981   001458  C00A  F002         	movff	??___fladd+1,___fladd@b+1
  4982   00145C  C00B  F003         	movff	??___fladd+2,___fladd@b+2
  4983   001460  C00C  F004         	movff	??___fladd+3,___fladd@b+3
  4984   001464  280F               	incf	___fladd@bexp^0,w,c
  4985   001466  B4D8               	btfsc	status,2,c
  4986   001468  EF38  F00A         	goto	u2641
  4987   00146C  EF3A  F00A         	goto	u2640
  4988   001470                     u2641:
  4989   001470  EF3B  F00A         	goto	l2865
  4990   001474                     u2640:
  4991   001474  2A0F               	incf	___fladd@bexp^0,f,c
  4992   001476                     l2865:
  4993   001476  280F               	incf	___fladd@bexp^0,w,c
  4994   001478  B4D8               	btfsc	status,2,c
  4995   00147A  EF41  F00A         	goto	u2651
  4996   00147E  EF43  F00A         	goto	u2650
  4997   001482                     u2651:
  4998   001482  EF4B  F00A         	goto	l2869
  4999   001486                     u2650:
  5000   001486  500F               	movf	___fladd@bexp^0,w,c
  5001   001488  A4D8               	btfss	status,2,c
  5002   00148A  EF49  F00A         	goto	u2661
  5003   00148E  EF4B  F00A         	goto	u2660
  5004   001492                     u2661:
  5005   001492  EF5D  F00A         	goto	l2873
  5006   001496                     u2660:
  5007   001496                     l2869:
  5008   001496  0E00               	movlw	0
  5009   001498  6E01               	movwf	___fladd@b^0,c
  5010   00149A  0E00               	movlw	0
  5011   00149C  6E02               	movwf	(___fladd@b+1)^0,c
  5012   00149E  0E00               	movlw	0
  5013   0014A0  6E03               	movwf	(___fladd@b+2)^0,c
  5014   0014A2  0E00               	movlw	0
  5015   0014A4  6E04               	movwf	(___fladd@b+3)^0,c
  5016   0014A6  500F               	movf	___fladd@bexp^0,w,c
  5017   0014A8  A4D8               	btfss	status,2,c
  5018   0014AA  EF59  F00A         	goto	u2671
  5019   0014AE  EF5B  F00A         	goto	u2670
  5020   0014B2                     u2671:
  5021   0014B2  EF5D  F00A         	goto	l2873
  5022   0014B6                     u2670:
  5023   0014B6  0E00               	movlw	0
  5024   0014B8  6E0D               	movwf	___fladd@signs^0,c
  5025   0014BA                     l2873:
  5026   0014BA  A00F               	btfss	___fladd@bexp^0,0,c
  5027   0014BC  EF62  F00A         	goto	u2681
  5028   0014C0  EF64  F00A         	goto	u2680
  5029   0014C4                     u2681:
  5030   0014C4  EF67  F00A         	goto	l2877
  5031   0014C8                     u2680:
  5032   0014C8  8E03               	bsf	(___fladd@b+2)^0,7,c
  5033   0014CA  EF68  F00A         	goto	l2879
  5034   0014CE                     l2877:
  5035   0014CE  9E03               	bcf	(___fladd@b+2)^0,7,c
  5036   0014D0                     l2879:
  5037   0014D0  90D8               	bcf	status,0,c
  5038   0014D2  300F               	rrcf	___fladd@bexp^0,w,c
  5039   0014D4  6E04               	movwf	(___fladd@b+3)^0,c
  5040   0014D6  AE0D               	btfss	___fladd@signs^0,7,c
  5041   0014D8  EF70  F00A         	goto	u2691
  5042   0014DC  EF72  F00A         	goto	u2690
  5043   0014E0                     u2691:
  5044   0014E0  EF73  F00A         	goto	l2885
  5045   0014E4                     u2690:
  5046   0014E4  8E04               	bsf	(___fladd@b+3)^0,7,c
  5047   0014E6                     l2885:
  5048   0014E6  C001  F001         	movff	___fladd@b,?___fladd
  5049   0014EA  C002  F002         	movff	___fladd@b+1,?___fladd+1
  5050   0014EE  C003  F003         	movff	___fladd@b+2,?___fladd+2
  5051   0014F2  C004  F004         	movff	___fladd@b+3,?___fladd+3
  5052   0014F6                     l759:
  5053   0014F6  0012               	return		;funcret
  5054   0014F8                     __end_of___fladd:
  5055                           	callstack 0
  5056                           
  5057 ;; *************** function ___flneg *****************
  5058 ;; Defined at:
  5059 ;;		line 15 in file "C:\Program Files\Microchip\xc8\v2.41\pic\sources\c99\common\flneg.c"
  5060 ;; Parameters:    Size  Location     Type
  5061 ;;  f1              4    0[COMRAM] unsigned char 
  5062 ;; Auto vars:     Size  Location     Type
  5063 ;;		None
  5064 ;; Return value:  Size  Location     Type
  5065 ;;                  4    0[COMRAM] unsigned char 
  5066 ;; Registers used:
  5067 ;;		wreg, status,2, status,0
  5068 ;; Tracked objects:
  5069 ;;		On entry : 0/0
  5070 ;;		On exit  : 0/0
  5071 ;;		Unchanged: 0/0
  5072 ;; Data sizes:     COMRAM   BANK0   BANK1   BANK2   BANK3   BANK4   BANK5
  5073 ;;      Params:         4       0       0       0       0       0       0
  5074 ;;      Locals:         0       0       0       0       0       0       0
  5075 ;;      Temps:          0       0       0       0       0       0       0
  5076 ;;      Totals:         4       0       0       0       0       0       0
  5077 ;;Total ram usage:        4 bytes
  5078 ;; Hardware stack levels used: 1
  5079 ;; This function calls:
  5080 ;;		Nothing
  5081 ;; This function is called by:
  5082 ;;		_efgtoa
  5083 ;; This function uses a non-reentrant model
  5084 ;;
  5085                           
  5086                           	psect	text16
  5087   003486                     __ptext16:
  5088                           	callstack 0
  5089   003486                     ___flneg:
  5090                           	callstack 26
  5091   003486  5001               	movf	___flneg@f1^0,w,c
  5092   003488  1002               	iorwf	(___flneg@f1+1)^0,w,c
  5093   00348A  1003               	iorwf	(___flneg@f1+2)^0,w,c
  5094   00348C  1004               	iorwf	(___flneg@f1+3)^0,w,c
  5095   00348E  B4D8               	btfsc	status,2,c
  5096   003490  EF4C  F01A         	goto	u3331
  5097   003494  EF4E  F01A         	goto	u3330
  5098   003498                     u3331:
  5099   003498  EF56  F01A         	goto	l3293
  5100   00349C                     u3330:
  5101   00349C  0E00               	movlw	0
  5102   00349E  1A01               	xorwf	___flneg@f1^0,f,c
  5103   0034A0  0E00               	movlw	0
  5104   0034A2  1A02               	xorwf	(___flneg@f1+1)^0,f,c
  5105   0034A4  0E00               	movlw	0
  5106   0034A6  1A03               	xorwf	(___flneg@f1+2)^0,f,c
  5107   0034A8  0E80               	movlw	128
  5108   0034AA  1A04               	xorwf	(___flneg@f1+3)^0,f,c
  5109   0034AC                     l3293:
  5110   0034AC  C001  F001         	movff	___flneg@f1,?___flneg
  5111   0034B0  C002  F002         	movff	___flneg@f1+1,?___flneg+1
  5112   0034B4  C003  F003         	movff	___flneg@f1+2,?___flneg+2
  5113   0034B8  C004  F004         	movff	___flneg@f1+3,?___flneg+3
  5114   0034BC  0012               	return		;funcret
  5115   0034BE                     __end_of___flneg:
  5116                           	callstack 0
  5117                           
  5118 ;; *************** function ___flmul *****************
  5119 ;; Defined at:
  5120 ;;		line 8 in file "C:\Program Files\Microchip\xc8\v2.41\pic\sources\c99\common\sprcmul.c"
  5121 ;; Parameters:    Size  Location     Type
  5122 ;;  b               4    0[COMRAM] unsigned char 
  5123 ;;  a               4    4[COMRAM] unsigned char 
  5124 ;; Auto vars:     Size  Location     Type
  5125 ;;  prod            4   19[COMRAM] struct .
  5126 ;;  grs             4   13[COMRAM] unsigned long 
  5127 ;;  temp            2   23[COMRAM] struct .
  5128 ;;  bexp            1   18[COMRAM] unsigned char 
  5129 ;;  aexp            1   17[COMRAM] unsigned char 
  5130 ;;  sign            1   12[COMRAM] unsigned char 
  5131 ;; Return value:  Size  Location     Type
  5132 ;;                  4    0[COMRAM] unsigned char 
  5133 ;; Registers used:
  5134 ;;		wreg, status,2, status,0, prodl, prodh
  5135 ;; Tracked objects:
  5136 ;;		On entry : 0/0
  5137 ;;		On exit  : 0/0
  5138 ;;		Unchanged: 0/0
  5139 ;; Data sizes:     COMRAM   BANK0   BANK1   BANK2   BANK3   BANK4   BANK5
  5140 ;;      Params:         8       0       0       0       0       0       0
  5141 ;;      Locals:        13       0       0       0       0       0       0
  5142 ;;      Temps:          4       0       0       0       0       0       0
  5143 ;;      Totals:        25       0       0       0       0       0       0
  5144 ;;Total ram usage:       25 bytes
  5145 ;; Hardware stack levels used: 1
  5146 ;; This function calls:
  5147 ;;		Nothing
  5148 ;; This function is called by:
  5149 ;;		_efgtoa
  5150 ;; This function uses a non-reentrant model
  5151 ;;
  5152                           
  5153                           	psect	text17
  5154   0014F8                     __ptext17:
  5155                           	callstack 0
  5156   0014F8                     ___flmul:
  5157                           	callstack 26
  5158   0014F8  5004               	movf	(___flmul@b+3)^0,w,c
  5159   0014FA  0B80               	andlw	128
  5160   0014FC  6E0D               	movwf	___flmul@sign^0,c
  5161   0014FE  5004               	movf	(___flmul@b+3)^0,w,c
  5162   001500  2404               	addwf	(___flmul@b+3)^0,w,c
  5163   001502  6E13               	movwf	___flmul@bexp^0,c
  5164   001504  AE03               	btfss	(___flmul@b+2)^0,7,c
  5165   001506  EF87  F00A         	goto	u2941
  5166   00150A  EF89  F00A         	goto	u2940
  5167   00150E                     u2941:
  5168   00150E  EF8A  F00A         	goto	l3041
  5169   001512                     u2940:
  5170   001512  8013               	bsf	___flmul@bexp^0,0,c
  5171   001514                     l3041:
  5172   001514  5013               	movf	___flmul@bexp^0,w,c
  5173   001516  B4D8               	btfsc	status,2,c
  5174   001518  EF90  F00A         	goto	u2951
  5175   00151C  EF92  F00A         	goto	u2950
  5176   001520                     u2951:
  5177   001520  EFA5  F00A         	goto	l3049
  5178   001524                     u2950:
  5179   001524  2813               	incf	___flmul@bexp^0,w,c
  5180   001526  A4D8               	btfss	status,2,c
  5181   001528  EF98  F00A         	goto	u2961
  5182   00152C  EF9A  F00A         	goto	u2960
  5183   001530                     u2961:
  5184   001530  EFA2  F00A         	goto	l3047
  5185   001534                     u2960:
  5186   001534  0E00               	movlw	0
  5187   001536  6E01               	movwf	___flmul@b^0,c
  5188   001538  0E00               	movlw	0
  5189   00153A  6E02               	movwf	(___flmul@b+1)^0,c
  5190   00153C  0E00               	movlw	0
  5191   00153E  6E03               	movwf	(___flmul@b+2)^0,c
  5192   001540  0E00               	movlw	0
  5193   001542  6E04               	movwf	(___flmul@b+3)^0,c
  5194   001544                     l3047:
  5195   001544  8E03               	bsf	(___flmul@b+2)^0,7,c
  5196   001546  EFAD  F00A         	goto	l3051
  5197   00154A                     l3049:
  5198   00154A  0E00               	movlw	0
  5199   00154C  6E01               	movwf	___flmul@b^0,c
  5200   00154E  0E00               	movlw	0
  5201   001550  6E02               	movwf	(___flmul@b+1)^0,c
  5202   001552  0E00               	movlw	0
  5203   001554  6E03               	movwf	(___flmul@b+2)^0,c
  5204   001556  0E00               	movlw	0
  5205   001558  6E04               	movwf	(___flmul@b+3)^0,c
  5206   00155A                     l3051:
  5207   00155A  5008               	movf	(___flmul@a+3)^0,w,c
  5208   00155C  0B80               	andlw	128
  5209   00155E  1A0D               	xorwf	___flmul@sign^0,f,c
  5210   001560  5008               	movf	(___flmul@a+3)^0,w,c
  5211   001562  2408               	addwf	(___flmul@a+3)^0,w,c
  5212   001564  6E12               	movwf	___flmul@aexp^0,c
  5213   001566  AE07               	btfss	(___flmul@a+2)^0,7,c
  5214   001568  EFB8  F00A         	goto	u2971
  5215   00156C  EFBA  F00A         	goto	u2970
  5216   001570                     u2971:
  5217   001570  EFBB  F00A         	goto	l3059
  5218   001574                     u2970:
  5219   001574  8012               	bsf	___flmul@aexp^0,0,c
  5220   001576                     l3059:
  5221   001576  5012               	movf	___flmul@aexp^0,w,c
  5222   001578  B4D8               	btfsc	status,2,c
  5223   00157A  EFC1  F00A         	goto	u2981
  5224   00157E  EFC3  F00A         	goto	u2980
  5225   001582                     u2981:
  5226   001582  EFD6  F00A         	goto	l3067
  5227   001586                     u2980:
  5228   001586  2812               	incf	___flmul@aexp^0,w,c
  5229   001588  A4D8               	btfss	status,2,c
  5230   00158A  EFC9  F00A         	goto	u2991
  5231   00158E  EFCB  F00A         	goto	u2990
  5232   001592                     u2991:
  5233   001592  EFD3  F00A         	goto	l3065
  5234   001596                     u2990:
  5235   001596  0E00               	movlw	0
  5236   001598  6E05               	movwf	___flmul@a^0,c
  5237   00159A  0E00               	movlw	0
  5238   00159C  6E06               	movwf	(___flmul@a+1)^0,c
  5239   00159E  0E00               	movlw	0
  5240   0015A0  6E07               	movwf	(___flmul@a+2)^0,c
  5241   0015A2  0E00               	movlw	0
  5242   0015A4  6E08               	movwf	(___flmul@a+3)^0,c
  5243   0015A6                     l3065:
  5244   0015A6  8E07               	bsf	(___flmul@a+2)^0,7,c
  5245   0015A8  EFDE  F00A         	goto	l836
  5246   0015AC                     l3067:
  5247   0015AC  0E00               	movlw	0
  5248   0015AE  6E05               	movwf	___flmul@a^0,c
  5249   0015B0  0E00               	movlw	0
  5250   0015B2  6E06               	movwf	(___flmul@a+1)^0,c
  5251   0015B4  0E00               	movlw	0
  5252   0015B6  6E07               	movwf	(___flmul@a+2)^0,c
  5253   0015B8  0E00               	movlw	0
  5254   0015BA  6E08               	movwf	(___flmul@a+3)^0,c
  5255   0015BC                     l836:
  5256   0015BC  5012               	movf	___flmul@aexp^0,w,c
  5257   0015BE  B4D8               	btfsc	status,2,c
  5258   0015C0  EFE4  F00A         	goto	u3001
  5259   0015C4  EFE6  F00A         	goto	u3000
  5260   0015C8                     u3001:
  5261   0015C8  EFEE  F00A         	goto	l3071
  5262   0015CC                     u3000:
  5263   0015CC  5013               	movf	___flmul@bexp^0,w,c
  5264   0015CE  A4D8               	btfss	status,2,c
  5265   0015D0  EFEC  F00A         	goto	u3011
  5266   0015D4  EFEE  F00A         	goto	u3010
  5267   0015D8                     u3011:
  5268   0015D8  EFF8  F00A         	goto	l3075
  5269   0015DC                     u3010:
  5270   0015DC                     l3071:
  5271   0015DC  0E00               	movlw	0
  5272   0015DE  6E01               	movwf	?___flmul^0,c
  5273   0015E0  0E00               	movlw	0
  5274   0015E2  6E02               	movwf	(?___flmul+1)^0,c
  5275   0015E4  0E00               	movlw	0
  5276   0015E6  6E03               	movwf	(?___flmul+2)^0,c
  5277   0015E8  0E00               	movlw	0
  5278   0015EA  6E04               	movwf	(?___flmul+3)^0,c
  5279   0015EC  EF90  F00C         	goto	l840
  5280   0015F0                     l3075:
  5281   0015F0  5007               	movf	(___flmul@a+2)^0,w,c
  5282   0015F2  0201               	mulwf	___flmul@b^0,c
  5283   0015F4  CFF3 F018          	movff	prodl,___flmul@temp
  5284   0015F8  CFF4 F019          	movff	prodh,___flmul@temp+1
  5285   0015FC  5018               	movf	___flmul@temp^0,w,c
  5286   0015FE  6E0E               	movwf	___flmul@grs^0,c
  5287   001600  6A0F               	clrf	(___flmul@grs+1)^0,c
  5288   001602  6A10               	clrf	(___flmul@grs+2)^0,c
  5289   001604  6A11               	clrf	(___flmul@grs+3)^0,c
  5290   001606  5019               	movf	(___flmul@temp+1)^0,w,c
  5291   001608  6E14               	movwf	___flmul@prod^0,c
  5292   00160A  6A15               	clrf	(___flmul@prod+1)^0,c
  5293   00160C  6A16               	clrf	(___flmul@prod+2)^0,c
  5294   00160E  6A17               	clrf	(___flmul@prod+3)^0,c
  5295   001610  5006               	movf	(___flmul@a+1)^0,w,c
  5296   001612  0202               	mulwf	(___flmul@b+1)^0,c
  5297   001614  CFF3 F018          	movff	prodl,___flmul@temp
  5298   001618  CFF4 F019          	movff	prodh,___flmul@temp+1
  5299   00161C  5018               	movf	___flmul@temp^0,w,c
  5300   00161E  260E               	addwf	___flmul@grs^0,f,c
  5301   001620  0E00               	movlw	0
  5302   001622  220F               	addwfc	(___flmul@grs+1)^0,f,c
  5303   001624  2210               	addwfc	(___flmul@grs+2)^0,f,c
  5304   001626  2211               	addwfc	(___flmul@grs+3)^0,f,c
  5305   001628  5019               	movf	(___flmul@temp+1)^0,w,c
  5306   00162A  2614               	addwf	___flmul@prod^0,f,c
  5307   00162C  0E00               	movlw	0
  5308   00162E  2215               	addwfc	(___flmul@prod+1)^0,f,c
  5309   001630  2216               	addwfc	(___flmul@prod+2)^0,f,c
  5310   001632  2217               	addwfc	(___flmul@prod+3)^0,f,c
  5311   001634  5005               	movf	___flmul@a^0,w,c
  5312   001636  0203               	mulwf	(___flmul@b+2)^0,c
  5313   001638  CFF3 F018          	movff	prodl,___flmul@temp
  5314   00163C  CFF4 F019          	movff	prodh,___flmul@temp+1
  5315   001640  5018               	movf	___flmul@temp^0,w,c
  5316   001642  260E               	addwf	___flmul@grs^0,f,c
  5317   001644  0E00               	movlw	0
  5318   001646  220F               	addwfc	(___flmul@grs+1)^0,f,c
  5319   001648  2210               	addwfc	(___flmul@grs+2)^0,f,c
  5320   00164A  2211               	addwfc	(___flmul@grs+3)^0,f,c
  5321   00164C  5019               	movf	(___flmul@temp+1)^0,w,c
  5322   00164E  2614               	addwf	___flmul@prod^0,f,c
  5323   001650  0E00               	movlw	0
  5324   001652  2215               	addwfc	(___flmul@prod+1)^0,f,c
  5325   001654  2216               	addwfc	(___flmul@prod+2)^0,f,c
  5326   001656  2217               	addwfc	(___flmul@prod+3)^0,f,c
  5327   001658  C010  F011         	movff	___flmul@grs+2,___flmul@grs+3
  5328   00165C  C00F  F010         	movff	___flmul@grs+1,___flmul@grs+2
  5329   001660  C00E  F00F         	movff	___flmul@grs,___flmul@grs+1
  5330   001664  6A0E               	clrf	___flmul@grs^0,c
  5331   001666  5005               	movf	___flmul@a^0,w,c
  5332   001668  0202               	mulwf	(___flmul@b+1)^0,c
  5333   00166A  CFF3 F018          	movff	prodl,___flmul@temp
  5334   00166E  CFF4 F019          	movff	prodh,___flmul@temp+1
  5335   001672  5018               	movf	___flmul@temp^0,w,c
  5336   001674  260E               	addwf	___flmul@grs^0,f,c
  5337   001676  5019               	movf	(___flmul@temp+1)^0,w,c
  5338   001678  220F               	addwfc	(___flmul@grs+1)^0,f,c
  5339   00167A  0E00               	movlw	0
  5340   00167C  2210               	addwfc	(___flmul@grs+2)^0,f,c
  5341   00167E  0E00               	movlw	0
  5342   001680  2211               	addwfc	(___flmul@grs+3)^0,f,c
  5343   001682  5006               	movf	(___flmul@a+1)^0,w,c
  5344   001684  0201               	mulwf	___flmul@b^0,c
  5345   001686  CFF3 F018          	movff	prodl,___flmul@temp
  5346   00168A  CFF4 F019          	movff	prodh,___flmul@temp+1
  5347   00168E  5018               	movf	___flmul@temp^0,w,c
  5348   001690  260E               	addwf	___flmul@grs^0,f,c
  5349   001692  5019               	movf	(___flmul@temp+1)^0,w,c
  5350   001694  220F               	addwfc	(___flmul@grs+1)^0,f,c
  5351   001696  0E00               	movlw	0
  5352   001698  2210               	addwfc	(___flmul@grs+2)^0,f,c
  5353   00169A  0E00               	movlw	0
  5354   00169C  2211               	addwfc	(___flmul@grs+3)^0,f,c
  5355   00169E  C010  F011         	movff	___flmul@grs+2,___flmul@grs+3
  5356   0016A2  C00F  F010         	movff	___flmul@grs+1,___flmul@grs+2
  5357   0016A6  C00E  F00F         	movff	___flmul@grs,___flmul@grs+1
  5358   0016AA  6A0E               	clrf	___flmul@grs^0,c
  5359   0016AC  5005               	movf	___flmul@a^0,w,c
  5360   0016AE  0201               	mulwf	___flmul@b^0,c
  5361   0016B0  CFF3 F018          	movff	prodl,___flmul@temp
  5362   0016B4  CFF4 F019          	movff	prodh,___flmul@temp+1
  5363   0016B8  5018               	movf	___flmul@temp^0,w,c
  5364   0016BA  260E               	addwf	___flmul@grs^0,f,c
  5365   0016BC  5019               	movf	(___flmul@temp+1)^0,w,c
  5366   0016BE  220F               	addwfc	(___flmul@grs+1)^0,f,c
  5367   0016C0  0E00               	movlw	0
  5368   0016C2  2210               	addwfc	(___flmul@grs+2)^0,f,c
  5369   0016C4  0E00               	movlw	0
  5370   0016C6  2211               	addwfc	(___flmul@grs+3)^0,f,c
  5371   0016C8  5007               	movf	(___flmul@a+2)^0,w,c
  5372   0016CA  0202               	mulwf	(___flmul@b+1)^0,c
  5373   0016CC  CFF3 F018          	movff	prodl,___flmul@temp
  5374   0016D0  CFF4 F019          	movff	prodh,___flmul@temp+1
  5375   0016D4  5018               	movf	___flmul@temp^0,w,c
  5376   0016D6  2614               	addwf	___flmul@prod^0,f,c
  5377   0016D8  5019               	movf	(___flmul@temp+1)^0,w,c
  5378   0016DA  2215               	addwfc	(___flmul@prod+1)^0,f,c
  5379   0016DC  0E00               	movlw	0
  5380   0016DE  2216               	addwfc	(___flmul@prod+2)^0,f,c
  5381   0016E0  0E00               	movlw	0
  5382   0016E2  2217               	addwfc	(___flmul@prod+3)^0,f,c
  5383   0016E4  5006               	movf	(___flmul@a+1)^0,w,c
  5384   0016E6  0203               	mulwf	(___flmul@b+2)^0,c
  5385   0016E8  CFF3 F018          	movff	prodl,___flmul@temp
  5386   0016EC  CFF4 F019          	movff	prodh,___flmul@temp+1
  5387   0016F0  5018               	movf	___flmul@temp^0,w,c
  5388   0016F2  2614               	addwf	___flmul@prod^0,f,c
  5389   0016F4  5019               	movf	(___flmul@temp+1)^0,w,c
  5390   0016F6  2215               	addwfc	(___flmul@prod+1)^0,f,c
  5391   0016F8  0E00               	movlw	0
  5392   0016FA  2216               	addwfc	(___flmul@prod+2)^0,f,c
  5393   0016FC  0E00               	movlw	0
  5394   0016FE  2217               	addwfc	(___flmul@prod+3)^0,f,c
  5395   001700  5007               	movf	(___flmul@a+2)^0,w,c
  5396   001702  0203               	mulwf	(___flmul@b+2)^0,c
  5397   001704  CFF3 F018          	movff	prodl,___flmul@temp
  5398   001708  CFF4 F019          	movff	prodh,___flmul@temp+1
  5399   00170C  5018               	movf	___flmul@temp^0,w,c
  5400   00170E  6E09               	movwf	??___flmul^0,c
  5401   001710  5019               	movf	(___flmul@temp+1)^0,w,c
  5402   001712  6E0A               	movwf	(??___flmul+1)^0,c
  5403   001714  6A0B               	clrf	(??___flmul+2)^0,c
  5404   001716  6A0C               	clrf	(??___flmul+3)^0,c
  5405   001718  C00B  F00C         	movff	??___flmul+2,??___flmul+3
  5406   00171C  C00A  F00B         	movff	??___flmul+1,??___flmul+2
  5407   001720  C009  F00A         	movff	??___flmul,??___flmul+1
  5408   001724  6A09               	clrf	??___flmul^0,c
  5409   001726  5009               	movf	??___flmul^0,w,c
  5410   001728  2614               	addwf	___flmul@prod^0,f,c
  5411   00172A  500A               	movf	(??___flmul+1)^0,w,c
  5412   00172C  2215               	addwfc	(___flmul@prod+1)^0,f,c
  5413   00172E  500B               	movf	(??___flmul+2)^0,w,c
  5414   001730  2216               	addwfc	(___flmul@prod+2)^0,f,c
  5415   001732  500C               	movf	(??___flmul+3)^0,w,c
  5416   001734  2217               	addwfc	(___flmul@prod+3)^0,f,c
  5417   001736  C00E  F009         	movff	___flmul@grs,??___flmul
  5418   00173A  C00F  F00A         	movff	___flmul@grs+1,??___flmul+1
  5419   00173E  C010  F00B         	movff	___flmul@grs+2,??___flmul+2
  5420   001742  C011  F00C         	movff	___flmul@grs+3,??___flmul+3
  5421   001746  0E19               	movlw	25
  5422   001748  EFAB  F00B         	goto	u3020
  5423   00174C                     u3025:
  5424   00174C  90D8               	bcf	status,0,c
  5425   00174E  320C               	rrcf	(??___flmul+3)^0,f,c
  5426   001750  320B               	rrcf	(??___flmul+2)^0,f,c
  5427   001752  320A               	rrcf	(??___flmul+1)^0,f,c
  5428   001754  3209               	rrcf	??___flmul^0,f,c
  5429   001756                     u3020:
  5430   001756  2EE8               	decfsz	wreg,f,c
  5431   001758  EFA6  F00B         	goto	u3025
  5432   00175C  5009               	movf	??___flmul^0,w,c
  5433   00175E  2614               	addwf	___flmul@prod^0,f,c
  5434   001760  500A               	movf	(??___flmul+1)^0,w,c
  5435   001762  2215               	addwfc	(___flmul@prod+1)^0,f,c
  5436   001764  500B               	movf	(??___flmul+2)^0,w,c
  5437   001766  2216               	addwfc	(___flmul@prod+2)^0,f,c
  5438   001768  500C               	movf	(??___flmul+3)^0,w,c
  5439   00176A  2217               	addwfc	(___flmul@prod+3)^0,f,c
  5440   00176C  C010  F011         	movff	___flmul@grs+2,___flmul@grs+3
  5441   001770  C00F  F010         	movff	___flmul@grs+1,___flmul@grs+2
  5442   001774  C00E  F00F         	movff	___flmul@grs,___flmul@grs+1
  5443   001778  6A0E               	clrf	___flmul@grs^0,c
  5444   00177A  5012               	movf	___flmul@aexp^0,w,c
  5445   00177C  C013  F009         	movff	___flmul@bexp,??___flmul
  5446   001780  6A0A               	clrf	(??___flmul+1)^0,c
  5447   001782  2609               	addwf	??___flmul^0,f,c
  5448   001784  0E00               	movlw	0
  5449   001786  220A               	addwfc	(??___flmul+1)^0,f,c
  5450   001788  0E82               	movlw	130
  5451   00178A  2409               	addwf	??___flmul^0,w,c
  5452   00178C  6E18               	movwf	___flmul@temp^0,c
  5453   00178E  0EFF               	movlw	255
  5454   001790  200A               	addwfc	(??___flmul+1)^0,w,c
  5455   001792  6E19               	movwf	(___flmul@temp+1)^0,c
  5456   001794  EFE1  F00B         	goto	l3123
  5457   001798                     l3117:
  5458   001798  90D8               	bcf	status,0,c
  5459   00179A  3614               	rlcf	___flmul@prod^0,f,c
  5460   00179C  3615               	rlcf	(___flmul@prod+1)^0,f,c
  5461   00179E  3616               	rlcf	(___flmul@prod+2)^0,f,c
  5462   0017A0  3617               	rlcf	(___flmul@prod+3)^0,f,c
  5463   0017A2  AE11               	btfss	(___flmul@grs+3)^0,7,c
  5464   0017A4  EFD6  F00B         	goto	u3031
  5465   0017A8  EFD8  F00B         	goto	u3030
  5466   0017AC                     u3031:
  5467   0017AC  EFD9  F00B         	goto	l843
  5468   0017B0                     u3030:
  5469   0017B0  8014               	bsf	___flmul@prod^0,0,c
  5470   0017B2                     l843:
  5471   0017B2  90D8               	bcf	status,0,c
  5472   0017B4  360E               	rlcf	___flmul@grs^0,f,c
  5473   0017B6  360F               	rlcf	(___flmul@grs+1)^0,f,c
  5474   0017B8  3610               	rlcf	(___flmul@grs+2)^0,f,c
  5475   0017BA  3611               	rlcf	(___flmul@grs+3)^0,f,c
  5476   0017BC  0618               	decf	___flmul@temp^0,f,c
  5477   0017BE  A0D8               	btfss	status,0,c
  5478   0017C0  0619               	decf	(___flmul@temp+1)^0,f,c
  5479   0017C2                     l3123:
  5480   0017C2  AE16               	btfss	(___flmul@prod+2)^0,7,c
  5481   0017C4  EFE6  F00B         	goto	u3041
  5482   0017C8  EFE8  F00B         	goto	u3040
  5483   0017CC                     u3041:
  5484   0017CC  EFCC  F00B         	goto	l3117
  5485   0017D0                     u3040:
  5486   0017D0  0E00               	movlw	0
  5487   0017D2  6E12               	movwf	___flmul@aexp^0,c
  5488   0017D4  AE11               	btfss	(___flmul@grs+3)^0,7,c
  5489   0017D6  EFEF  F00B         	goto	u3051
  5490   0017DA  EFF1  F00B         	goto	u3050
  5491   0017DE                     u3051:
  5492   0017DE  EF15  F00C         	goto	l845
  5493   0017E2                     u3050:
  5494   0017E2  0EFF               	movlw	255
  5495   0017E4  140E               	andwf	___flmul@grs^0,w,c
  5496   0017E6  6E09               	movwf	??___flmul^0,c
  5497   0017E8  0EFF               	movlw	255
  5498   0017EA  140F               	andwf	(___flmul@grs+1)^0,w,c
  5499   0017EC  6E0A               	movwf	(??___flmul+1)^0,c
  5500   0017EE  0EFF               	movlw	255
  5501   0017F0  1410               	andwf	(___flmul@grs+2)^0,w,c
  5502   0017F2  6E0B               	movwf	(??___flmul+2)^0,c
  5503   0017F4  0E7F               	movlw	127
  5504   0017F6  1411               	andwf	(___flmul@grs+3)^0,w,c
  5505   0017F8  6E0C               	movwf	(??___flmul+3)^0,c
  5506   0017FA  5009               	movf	??___flmul^0,w,c
  5507   0017FC  100A               	iorwf	(??___flmul+1)^0,w,c
  5508   0017FE  100B               	iorwf	(??___flmul+2)^0,w,c
  5509   001800  100C               	iorwf	(??___flmul+3)^0,w,c
  5510   001802  B4D8               	btfsc	status,2,c
  5511   001804  EF06  F00C         	goto	u3061
  5512   001808  EF08  F00C         	goto	u3060
  5513   00180C                     u3061:
  5514   00180C  EF0C  F00C         	goto	l846
  5515   001810                     u3060:
  5516   001810                     l3131:
  5517   001810  0E01               	movlw	1
  5518   001812  6E12               	movwf	___flmul@aexp^0,c
  5519   001814  EF15  F00C         	goto	l845
  5520   001818                     l846:
  5521   001818  A014               	btfss	___flmul@prod^0,0,c
  5522   00181A  EF11  F00C         	goto	u3071
  5523   00181E  EF13  F00C         	goto	u3070
  5524   001822                     u3071:
  5525   001822  EF15  F00C         	goto	l845
  5526   001826                     u3070:
  5527   001826  EF08  F00C         	goto	l3131
  5528   00182A                     l845:
  5529   00182A  5012               	movf	___flmul@aexp^0,w,c
  5530   00182C  B4D8               	btfsc	status,2,c
  5531   00182E  EF1B  F00C         	goto	u3081
  5532   001832  EF1D  F00C         	goto	u3080
  5533   001836                     u3081:
  5534   001836  EF41  F00C         	goto	l3143
  5535   00183A                     u3080:
  5536   00183A  0E01               	movlw	1
  5537   00183C  2614               	addwf	___flmul@prod^0,f,c
  5538   00183E  0E00               	movlw	0
  5539   001840  2215               	addwfc	(___flmul@prod+1)^0,f,c
  5540   001842  2216               	addwfc	(___flmul@prod+2)^0,f,c
  5541   001844  2217               	addwfc	(___flmul@prod+3)^0,f,c
  5542   001846  A017               	btfss	(___flmul@prod+3)^0,0,c
  5543   001848  EF28  F00C         	goto	u3091
  5544   00184C  EF2A  F00C         	goto	u3090
  5545   001850                     u3091:
  5546   001850  EF41  F00C         	goto	l3143
  5547   001854                     u3090:
  5548   001854  C014  F009         	movff	___flmul@prod,??___flmul
  5549   001858  C015  F00A         	movff	___flmul@prod+1,??___flmul+1
  5550   00185C  C016  F00B         	movff	___flmul@prod+2,??___flmul+2
  5551   001860  C017  F00C         	movff	___flmul@prod+3,??___flmul+3
  5552   001864  340C               	rlcf	(??___flmul+3)^0,w,c
  5553   001866  320C               	rrcf	(??___flmul+3)^0,f,c
  5554   001868  320B               	rrcf	(??___flmul+2)^0,f,c
  5555   00186A  320A               	rrcf	(??___flmul+1)^0,f,c
  5556   00186C  3209               	rrcf	??___flmul^0,f,c
  5557   00186E  C009  F014         	movff	??___flmul,___flmul@prod
  5558   001872  C00A  F015         	movff	??___flmul+1,___flmul@prod+1
  5559   001876  C00B  F016         	movff	??___flmul+2,___flmul@prod+2
  5560   00187A  C00C  F017         	movff	??___flmul+3,___flmul@prod+3
  5561   00187E  4A18               	infsnz	___flmul@temp^0,f,c
  5562   001880  2A19               	incf	(___flmul@temp+1)^0,f,c
  5563   001882                     l3143:
  5564   001882  BE19               	btfsc	(___flmul@temp+1)^0,7,c
  5565   001884  EF4C  F00C         	goto	u3101
  5566   001888  5019               	movf	(___flmul@temp+1)^0,w,c
  5567   00188A  E108               	bnz	u3100
  5568   00188C  2818               	incf	___flmul@temp^0,w,c
  5569   00188E  A0D8               	btfss	status,0,c
  5570   001890  EF4C  F00C         	goto	u3101
  5571   001894  EF4E  F00C         	goto	u3100
  5572   001898                     u3101:
  5573   001898  EF58  F00C         	goto	l3147
  5574   00189C                     u3100:
  5575   00189C  0E00               	movlw	0
  5576   00189E  6E14               	movwf	___flmul@prod^0,c
  5577   0018A0  0E00               	movlw	0
  5578   0018A2  6E15               	movwf	(___flmul@prod+1)^0,c
  5579   0018A4  0E80               	movlw	128
  5580   0018A6  6E16               	movwf	(___flmul@prod+2)^0,c
  5581   0018A8  0E7F               	movlw	127
  5582   0018AA  6E17               	movwf	(___flmul@prod+3)^0,c
  5583   0018AC  EF86  F00C         	goto	l3159
  5584   0018B0                     l3147:
  5585   0018B0  BE19               	btfsc	(___flmul@temp+1)^0,7,c
  5586   0018B2  EF65  F00C         	goto	u3110
  5587   0018B6  5019               	movf	(___flmul@temp+1)^0,w,c
  5588   0018B8  E106               	bnz	u3111
  5589   0018BA  0418               	decf	___flmul@temp^0,w,c
  5590   0018BC  B0D8               	btfsc	status,0,c
  5591   0018BE  EF63  F00C         	goto	u3111
  5592   0018C2  EF65  F00C         	goto	u3110
  5593   0018C6                     u3111:
  5594   0018C6  EF71  F00C         	goto	l853
  5595   0018CA                     u3110:
  5596   0018CA  0E00               	movlw	0
  5597   0018CC  6E14               	movwf	___flmul@prod^0,c
  5598   0018CE  0E00               	movlw	0
  5599   0018D0  6E15               	movwf	(___flmul@prod+1)^0,c
  5600   0018D2  0E00               	movlw	0
  5601   0018D4  6E16               	movwf	(___flmul@prod+2)^0,c
  5602   0018D6  0E00               	movlw	0
  5603   0018D8  6E17               	movwf	(___flmul@prod+3)^0,c
  5604   0018DA  0E00               	movlw	0
  5605   0018DC  6E0D               	movwf	___flmul@sign^0,c
  5606   0018DE  EF86  F00C         	goto	l3159
  5607   0018E2                     l853:
  5608   0018E2  C018  F013         	movff	___flmul@temp,___flmul@bexp
  5609   0018E6  0EFF               	movlw	255
  5610   0018E8  1614               	andwf	___flmul@prod^0,f,c
  5611   0018EA  0EFF               	movlw	255
  5612   0018EC  1615               	andwf	(___flmul@prod+1)^0,f,c
  5613   0018EE  0E7F               	movlw	127
  5614   0018F0  1616               	andwf	(___flmul@prod+2)^0,f,c
  5615   0018F2  0E00               	movlw	0
  5616   0018F4  1617               	andwf	(___flmul@prod+3)^0,f,c
  5617   0018F6  A013               	btfss	___flmul@bexp^0,0,c
  5618   0018F8  EF80  F00C         	goto	u3121
  5619   0018FC  EF82  F00C         	goto	u3120
  5620   001900                     u3121:
  5621   001900  EF83  F00C         	goto	l3157
  5622   001904                     u3120:
  5623   001904  8E16               	bsf	(___flmul@prod+2)^0,7,c
  5624   001906                     l3157:
  5625   001906  90D8               	bcf	status,0,c
  5626   001908  3013               	rrcf	___flmul@bexp^0,w,c
  5627   00190A  6E17               	movwf	(___flmul@prod+3)^0,c
  5628   00190C                     l3159:
  5629   00190C  500D               	movf	___flmul@sign^0,w,c
  5630   00190E  1217               	iorwf	(___flmul@prod+3)^0,f,c
  5631   001910  C014  F001         	movff	___flmul@prod,?___flmul
  5632   001914  C015  F002         	movff	___flmul@prod+1,?___flmul+1
  5633   001918  C016  F003         	movff	___flmul@prod+2,?___flmul+2
  5634   00191C  C017  F004         	movff	___flmul@prod+3,?___flmul+3
  5635   001920                     l840:
  5636   001920  0012               	return		;funcret
  5637   001922                     __end_of___flmul:
  5638                           	callstack 0
  5639                           
  5640 ;; *************** function ___flge *****************
  5641 ;; Defined at:
  5642 ;;		line 4 in file "C:\Program Files\Microchip\xc8\v2.41\pic\sources\c99\common\flge.c"
  5643 ;; Parameters:    Size  Location     Type
  5644 ;;  ff1             4   25[COMRAM] unsigned char 
  5645 ;;  ff2             4   29[COMRAM] unsigned char 
  5646 ;; Auto vars:     Size  Location     Type
  5647 ;;		None
  5648 ;; Return value:  Size  Location     Type
  5649 ;;		None               void
  5650 ;; Registers used:
  5651 ;;		wreg, status,2, status,0
  5652 ;; Tracked objects:
  5653 ;;		On entry : 0/0
  5654 ;;		On exit  : 0/0
  5655 ;;		Unchanged: 0/0
  5656 ;; Data sizes:     COMRAM   BANK0   BANK1   BANK2   BANK3   BANK4   BANK5
  5657 ;;      Params:         8       0       0       0       0       0       0
  5658 ;;      Locals:         0       0       0       0       0       0       0
  5659 ;;      Temps:          4       0       0       0       0       0       0
  5660 ;;      Totals:        12       0       0       0       0       0       0
  5661 ;;Total ram usage:       12 bytes
  5662 ;; Hardware stack levels used: 1
  5663 ;; This function calls:
  5664 ;;		Nothing
  5665 ;; This function is called by:
  5666 ;;		_efgtoa
  5667 ;; This function uses a non-reentrant model
  5668 ;;
  5669                           
  5670                           	psect	text18
  5671   0028F6                     __ptext18:
  5672                           	callstack 0
  5673   0028F6                     ___flge:
  5674                           	callstack 26
  5675   0028F6  0E00               	movlw	0
  5676   0028F8  141A               	andwf	___flge@ff1^0,w,c
  5677   0028FA  6E22               	movwf	??___flge^0,c
  5678   0028FC  0E00               	movlw	0
  5679   0028FE  141B               	andwf	(___flge@ff1+1)^0,w,c
  5680   002900  6E23               	movwf	(??___flge+1)^0,c
  5681   002902  0E80               	movlw	128
  5682   002904  141C               	andwf	(___flge@ff1+2)^0,w,c
  5683   002906  6E24               	movwf	(??___flge+2)^0,c
  5684   002908  0E7F               	movlw	127
  5685   00290A  141D               	andwf	(___flge@ff1+3)^0,w,c
  5686   00290C  6E25               	movwf	(??___flge+3)^0,c
  5687   00290E  5022               	movf	??___flge^0,w,c
  5688   002910  1023               	iorwf	(??___flge+1)^0,w,c
  5689   002912  1024               	iorwf	(??___flge+2)^0,w,c
  5690   002914  1025               	iorwf	(??___flge+3)^0,w,c
  5691   002916  A4D8               	btfss	status,2,c
  5692   002918  EF90  F014         	goto	u3281
  5693   00291C  EF92  F014         	goto	u3280
  5694   002920                     u3281:
  5695   002920  EF9A  F014         	goto	l3271
  5696   002924                     u3280:
  5697   002924  0E00               	movlw	0
  5698   002926  6E1A               	movwf	___flge@ff1^0,c
  5699   002928  0E00               	movlw	0
  5700   00292A  6E1B               	movwf	(___flge@ff1+1)^0,c
  5701   00292C  0E00               	movlw	0
  5702   00292E  6E1C               	movwf	(___flge@ff1+2)^0,c
  5703   002930  0E00               	movlw	0
  5704   002932  6E1D               	movwf	(___flge@ff1+3)^0,c
  5705   002934                     l3271:
  5706   002934  0E00               	movlw	0
  5707   002936  141E               	andwf	___flge@ff2^0,w,c
  5708   002938  6E22               	movwf	??___flge^0,c
  5709   00293A  0E00               	movlw	0
  5710   00293C  141F               	andwf	(___flge@ff2+1)^0,w,c
  5711   00293E  6E23               	movwf	(??___flge+1)^0,c
  5712   002940  0E80               	movlw	128
  5713   002942  1420               	andwf	(___flge@ff2+2)^0,w,c
  5714   002944  6E24               	movwf	(??___flge+2)^0,c
  5715   002946  0E7F               	movlw	127
  5716   002948  1421               	andwf	(___flge@ff2+3)^0,w,c
  5717   00294A  6E25               	movwf	(??___flge+3)^0,c
  5718   00294C  5022               	movf	??___flge^0,w,c
  5719   00294E  1023               	iorwf	(??___flge+1)^0,w,c
  5720   002950  1024               	iorwf	(??___flge+2)^0,w,c
  5721   002952  1025               	iorwf	(??___flge+3)^0,w,c
  5722   002954  A4D8               	btfss	status,2,c
  5723   002956  EFAF  F014         	goto	u3291
  5724   00295A  EFB1  F014         	goto	u3290
  5725   00295E                     u3291:
  5726   00295E  EFB9  F014         	goto	l3275
  5727   002962                     u3290:
  5728   002962  0E00               	movlw	0
  5729   002964  6E1E               	movwf	___flge@ff2^0,c
  5730   002966  0E00               	movlw	0
  5731   002968  6E1F               	movwf	(___flge@ff2+1)^0,c
  5732   00296A  0E00               	movlw	0
  5733   00296C  6E20               	movwf	(___flge@ff2+2)^0,c
  5734   00296E  0E00               	movlw	0
  5735   002970  6E21               	movwf	(___flge@ff2+3)^0,c
  5736   002972                     l3275:
  5737   002972  AE1D               	btfss	(___flge@ff1+3)^0,7,c
  5738   002974  EFBE  F014         	goto	u3301
  5739   002978  EFC0  F014         	goto	u3300
  5740   00297C                     u3301:
  5741   00297C  EFC9  F014         	goto	l3279
  5742   002980                     u3300:
  5743   002980  6C1A               	negf	___flge@ff1^0,c
  5744   002982  1E1B               	comf	(___flge@ff1+1)^0,f,c
  5745   002984  B0D8               	btfsc	status,0,c
  5746   002986  2A1B               	incf	(___flge@ff1+1)^0,f,c
  5747   002988  1E1C               	comf	(___flge@ff1+2)^0,f,c
  5748   00298A  B0D8               	btfsc	status,0,c
  5749   00298C  2A1C               	incf	(___flge@ff1+2)^0,f,c
  5750   00298E  0E80               	movlw	128
  5751   002990  561D               	subfwb	(___flge@ff1+3)^0,f,c
  5752   002992                     l3279:
  5753   002992  AE21               	btfss	(___flge@ff2+3)^0,7,c
  5754   002994  EFCE  F014         	goto	u3311
  5755   002998  EFD0  F014         	goto	u3310
  5756   00299C                     u3311:
  5757   00299C  EFD9  F014         	goto	l487
  5758   0029A0                     u3310:
  5759   0029A0  6C1E               	negf	___flge@ff2^0,c
  5760   0029A2  1E1F               	comf	(___flge@ff2+1)^0,f,c
  5761   0029A4  B0D8               	btfsc	status,0,c
  5762   0029A6  2A1F               	incf	(___flge@ff2+1)^0,f,c
  5763   0029A8  1E20               	comf	(___flge@ff2+2)^0,f,c
  5764   0029AA  B0D8               	btfsc	status,0,c
  5765   0029AC  2A20               	incf	(___flge@ff2+2)^0,f,c
  5766   0029AE  0E80               	movlw	128
  5767   0029B0  5621               	subfwb	(___flge@ff2+3)^0,f,c
  5768   0029B2                     l487:
  5769   0029B2  0E00               	movlw	0
  5770   0029B4  1A1A               	xorwf	___flge@ff1^0,f,c
  5771   0029B6  0E00               	movlw	0
  5772   0029B8  1A1B               	xorwf	(___flge@ff1+1)^0,f,c
  5773   0029BA  0E00               	movlw	0
  5774   0029BC  1A1C               	xorwf	(___flge@ff1+2)^0,f,c
  5775   0029BE  0E80               	movlw	128
  5776   0029C0  1A1D               	xorwf	(___flge@ff1+3)^0,f,c
  5777   0029C2  0E00               	movlw	0
  5778   0029C4  1A1E               	xorwf	___flge@ff2^0,f,c
  5779   0029C6  0E00               	movlw	0
  5780   0029C8  1A1F               	xorwf	(___flge@ff2+1)^0,f,c
  5781   0029CA  0E00               	movlw	0
  5782   0029CC  1A20               	xorwf	(___flge@ff2+2)^0,f,c
  5783   0029CE  0E80               	movlw	128
  5784   0029D0  1A21               	xorwf	(___flge@ff2+3)^0,f,c
  5785   0029D2  501E               	movf	___flge@ff2^0,w,c
  5786   0029D4  5C1A               	subwf	___flge@ff1^0,w,c
  5787   0029D6  501F               	movf	(___flge@ff2+1)^0,w,c
  5788   0029D8  581B               	subwfb	(___flge@ff1+1)^0,w,c
  5789   0029DA  5020               	movf	(___flge@ff2+2)^0,w,c
  5790   0029DC  581C               	subwfb	(___flge@ff1+2)^0,w,c
  5791   0029DE  5021               	movf	(___flge@ff2+3)^0,w,c
  5792   0029E0  581D               	subwfb	(___flge@ff1+3)^0,w,c
  5793   0029E2  B0D8               	btfsc	status,0,c
  5794   0029E4  EFF6  F014         	goto	u3321
  5795   0029E8  EFF8  F014         	goto	u3320
  5796   0029EC                     u3321:
  5797   0029EC  EFFB  F014         	goto	l3285
  5798   0029F0                     u3320:
  5799   0029F0  90D8               	bcf	status,0,c
  5800   0029F2  EFFC  F014         	goto	l492
  5801   0029F6                     l3285:
  5802   0029F6  80D8               	bsf	status,0,c
  5803   0029F8                     l492:
  5804   0029F8  0012               	return		;funcret
  5805   0029FA                     __end_of___flge:
  5806                           	callstack 0
  5807                           
  5808 ;; *************** function ___fleq *****************
  5809 ;; Defined at:
  5810 ;;		line 4 in file "C:\Program Files\Microchip\xc8\v2.41\pic\sources\c99\common\fleq.c"
  5811 ;; Parameters:    Size  Location     Type
  5812 ;;  ff1             4    0[COMRAM] unsigned char 
  5813 ;;  ff2             4    4[COMRAM] unsigned char 
  5814 ;; Auto vars:     Size  Location     Type
  5815 ;;		None
  5816 ;; Return value:  Size  Location     Type
  5817 ;;		None               void
  5818 ;; Registers used:
  5819 ;;		wreg, status,2, status,0
  5820 ;; Tracked objects:
  5821 ;;		On entry : 0/0
  5822 ;;		On exit  : 0/0
  5823 ;;		Unchanged: 0/0
  5824 ;; Data sizes:     COMRAM   BANK0   BANK1   BANK2   BANK3   BANK4   BANK5
  5825 ;;      Params:         8       0       0       0       0       0       0
  5826 ;;      Locals:         0       0       0       0       0       0       0
  5827 ;;      Temps:          4       0       0       0       0       0       0
  5828 ;;      Totals:        12       0       0       0       0       0       0
  5829 ;;Total ram usage:       12 bytes
  5830 ;; Hardware stack levels used: 1
  5831 ;; This function calls:
  5832 ;;		Nothing
  5833 ;; This function is called by:
  5834 ;;		_efgtoa
  5835 ;; This function uses a non-reentrant model
  5836 ;;
  5837                           
  5838                           	psect	text19
  5839   002F0A                     __ptext19:
  5840                           	callstack 0
  5841   002F0A                     ___fleq:
  5842                           	callstack 26
  5843   002F0A  0E00               	movlw	0
  5844   002F0C  1401               	andwf	___fleq@ff1^0,w,c
  5845   002F0E  6E09               	movwf	??___fleq^0,c
  5846   002F10  0E00               	movlw	0
  5847   002F12  1402               	andwf	(___fleq@ff1+1)^0,w,c
  5848   002F14  6E0A               	movwf	(??___fleq+1)^0,c
  5849   002F16  0E80               	movlw	128
  5850   002F18  1403               	andwf	(___fleq@ff1+2)^0,w,c
  5851   002F1A  6E0B               	movwf	(??___fleq+2)^0,c
  5852   002F1C  0E7F               	movlw	127
  5853   002F1E  1404               	andwf	(___fleq@ff1+3)^0,w,c
  5854   002F20  6E0C               	movwf	(??___fleq+3)^0,c
  5855   002F22  5009               	movf	??___fleq^0,w,c
  5856   002F24  100A               	iorwf	(??___fleq+1)^0,w,c
  5857   002F26  100B               	iorwf	(??___fleq+2)^0,w,c
  5858   002F28  100C               	iorwf	(??___fleq+3)^0,w,c
  5859   002F2A  A4D8               	btfss	status,2,c
  5860   002F2C  EF9A  F017         	goto	u3251
  5861   002F30  EF9C  F017         	goto	u3250
  5862   002F34                     u3251:
  5863   002F34  EFA4  F017         	goto	l3255
  5864   002F38                     u3250:
  5865   002F38  0E00               	movlw	0
  5866   002F3A  6E01               	movwf	___fleq@ff1^0,c
  5867   002F3C  0E00               	movlw	0
  5868   002F3E  6E02               	movwf	(___fleq@ff1+1)^0,c
  5869   002F40  0E00               	movlw	0
  5870   002F42  6E03               	movwf	(___fleq@ff1+2)^0,c
  5871   002F44  0E00               	movlw	0
  5872   002F46  6E04               	movwf	(___fleq@ff1+3)^0,c
  5873   002F48                     l3255:
  5874   002F48  0E00               	movlw	0
  5875   002F4A  1405               	andwf	___fleq@ff2^0,w,c
  5876   002F4C  6E09               	movwf	??___fleq^0,c
  5877   002F4E  0E00               	movlw	0
  5878   002F50  1406               	andwf	(___fleq@ff2+1)^0,w,c
  5879   002F52  6E0A               	movwf	(??___fleq+1)^0,c
  5880   002F54  0E80               	movlw	128
  5881   002F56  1407               	andwf	(___fleq@ff2+2)^0,w,c
  5882   002F58  6E0B               	movwf	(??___fleq+2)^0,c
  5883   002F5A  0E7F               	movlw	127
  5884   002F5C  1408               	andwf	(___fleq@ff2+3)^0,w,c
  5885   002F5E  6E0C               	movwf	(??___fleq+3)^0,c
  5886   002F60  5009               	movf	??___fleq^0,w,c
  5887   002F62  100A               	iorwf	(??___fleq+1)^0,w,c
  5888   002F64  100B               	iorwf	(??___fleq+2)^0,w,c
  5889   002F66  100C               	iorwf	(??___fleq+3)^0,w,c
  5890   002F68  A4D8               	btfss	status,2,c
  5891   002F6A  EFB9  F017         	goto	u3261
  5892   002F6E  EFBB  F017         	goto	u3260
  5893   002F72                     u3261:
  5894   002F72  EFC3  F017         	goto	l3259
  5895   002F76                     u3260:
  5896   002F76  0E00               	movlw	0
  5897   002F78  6E05               	movwf	___fleq@ff2^0,c
  5898   002F7A  0E00               	movlw	0
  5899   002F7C  6E06               	movwf	(___fleq@ff2+1)^0,c
  5900   002F7E  0E00               	movlw	0
  5901   002F80  6E07               	movwf	(___fleq@ff2+2)^0,c
  5902   002F82  0E00               	movlw	0
  5903   002F84  6E08               	movwf	(___fleq@ff2+3)^0,c
  5904   002F86                     l3259:
  5905   002F86  5005               	movf	___fleq@ff2^0,w,c
  5906   002F88  1801               	xorwf	___fleq@ff1^0,w,c
  5907   002F8A  E10F               	bnz	u3270
  5908   002F8C  5006               	movf	(___fleq@ff2+1)^0,w,c
  5909   002F8E  1802               	xorwf	(___fleq@ff1+1)^0,w,c
  5910   002F90  E10C               	bnz	u3270
  5911   002F92  5007               	movf	(___fleq@ff2+2)^0,w,c
  5912   002F94  1803               	xorwf	(___fleq@ff1+2)^0,w,c
  5913   002F96  E109               	bnz	u3270
  5914   002F98  5008               	movf	(___fleq@ff2+3)^0,w,c
  5915   002F9A  1804               	xorwf	(___fleq@ff1+3)^0,w,c
  5916   002F9C  B4D8               	btfsc	status,2,c
  5917   002F9E  EFD3  F017         	goto	u3271
  5918   002FA2  EFD5  F017         	goto	u3270
  5919   002FA6                     u3271:
  5920   002FA6  EFD8  F017         	goto	l3263
  5921   002FAA                     u3270:
  5922   002FAA  90D8               	bcf	status,0,c
  5923   002FAC  EFD9  F017         	goto	l481
  5924   002FB0                     l3263:
  5925   002FB0  80D8               	bsf	status,0,c
  5926   002FB2                     l481:
  5927   002FB2  0012               	return		;funcret
  5928   002FB4                     __end_of___fleq:
  5929                           	callstack 0
  5930                           
  5931 ;; *************** function ___fldiv *****************
  5932 ;; Defined at:
  5933 ;;		line 11 in file "C:\Program Files\Microchip\xc8\v2.41\pic\sources\c99\common\sprcdiv.c"
  5934 ;; Parameters:    Size  Location     Type
  5935 ;;  b               4    0[COMRAM] unsigned char 
  5936 ;;  a               4    4[COMRAM] unsigned char 
  5937 ;; Auto vars:     Size  Location     Type
  5938 ;;  grs             4   19[COMRAM] unsigned long 
  5939 ;;  rem             4   12[COMRAM] unsigned long 
  5940 ;;  new_exp         2   17[COMRAM] short 
  5941 ;;  aexp            1   24[COMRAM] unsigned char 
  5942 ;;  bexp            1   23[COMRAM] unsigned char 
  5943 ;;  sign            1   16[COMRAM] unsigned char 
  5944 ;; Return value:  Size  Location     Type
  5945 ;;                  4    0[COMRAM] unsigned char 
  5946 ;; Registers used:
  5947 ;;		wreg, status,2, status,0
  5948 ;; Tracked objects:
  5949 ;;		On entry : 0/0
  5950 ;;		On exit  : 0/0
  5951 ;;		Unchanged: 0/0
  5952 ;; Data sizes:     COMRAM   BANK0   BANK1   BANK2   BANK3   BANK4   BANK5
  5953 ;;      Params:         8       0       0       0       0       0       0
  5954 ;;      Locals:        13       0       0       0       0       0       0
  5955 ;;      Temps:          4       0       0       0       0       0       0
  5956 ;;      Totals:        25       0       0       0       0       0       0
  5957 ;;Total ram usage:       25 bytes
  5958 ;; Hardware stack levels used: 1
  5959 ;; This function calls:
  5960 ;;		Nothing
  5961 ;; This function is called by:
  5962 ;;		_efgtoa
  5963 ;; This function uses a non-reentrant model
  5964 ;;
  5965                           
  5966                           	psect	text20
  5967   001922                     __ptext20:
  5968                           	callstack 0
  5969   001922                     ___fldiv:
  5970                           	callstack 26
  5971   001922  5004               	movf	(___fldiv@b+3)^0,w,c
  5972   001924  0B80               	andlw	128
  5973   001926  6E11               	movwf	___fldiv@sign^0,c
  5974   001928  5004               	movf	(___fldiv@b+3)^0,w,c
  5975   00192A  2404               	addwf	(___fldiv@b+3)^0,w,c
  5976   00192C  6E18               	movwf	___fldiv@bexp^0,c
  5977   00192E  AE03               	btfss	(___fldiv@b+2)^0,7,c
  5978   001930  EF9C  F00C         	goto	u2711
  5979   001934  EF9E  F00C         	goto	u2710
  5980   001938                     u2711:
  5981   001938  EF9F  F00C         	goto	l2903
  5982   00193C                     u2710:
  5983   00193C  8018               	bsf	___fldiv@bexp^0,0,c
  5984   00193E                     l2903:
  5985   00193E  5018               	movf	___fldiv@bexp^0,w,c
  5986   001940  B4D8               	btfsc	status,2,c
  5987   001942  EFA5  F00C         	goto	u2721
  5988   001946  EFA7  F00C         	goto	u2720
  5989   00194A                     u2721:
  5990   00194A  EFBC  F00C         	goto	l2913
  5991   00194E                     u2720:
  5992   00194E  2818               	incf	___fldiv@bexp^0,w,c
  5993   001950  A4D8               	btfss	status,2,c
  5994   001952  EFAD  F00C         	goto	u2731
  5995   001956  EFAF  F00C         	goto	u2730
  5996   00195A                     u2731:
  5997   00195A  EFB7  F00C         	goto	l2909
  5998   00195E                     u2730:
  5999   00195E  0E00               	movlw	0
  6000   001960  6E01               	movwf	___fldiv@b^0,c
  6001   001962  0E00               	movlw	0
  6002   001964  6E02               	movwf	(___fldiv@b+1)^0,c
  6003   001966  0E00               	movlw	0
  6004   001968  6E03               	movwf	(___fldiv@b+2)^0,c
  6005   00196A  0E00               	movlw	0
  6006   00196C  6E04               	movwf	(___fldiv@b+3)^0,c
  6007   00196E                     l2909:
  6008   00196E  8E03               	bsf	(___fldiv@b+2)^0,7,c
  6009   001970  0E00               	movlw	0
  6010   001972  6E04               	movwf	(___fldiv@b+3)^0,c
  6011   001974  EFC4  F00C         	goto	l2915
  6012   001978                     l2913:
  6013   001978  0E00               	movlw	0
  6014   00197A  6E01               	movwf	___fldiv@b^0,c
  6015   00197C  0E00               	movlw	0
  6016   00197E  6E02               	movwf	(___fldiv@b+1)^0,c
  6017   001980  0E00               	movlw	0
  6018   001982  6E03               	movwf	(___fldiv@b+2)^0,c
  6019   001984  0E00               	movlw	0
  6020   001986  6E04               	movwf	(___fldiv@b+3)^0,c
  6021   001988                     l2915:
  6022   001988  5008               	movf	(___fldiv@a+3)^0,w,c
  6023   00198A  0B80               	andlw	128
  6024   00198C  1A11               	xorwf	___fldiv@sign^0,f,c
  6025   00198E  5008               	movf	(___fldiv@a+3)^0,w,c
  6026   001990  2408               	addwf	(___fldiv@a+3)^0,w,c
  6027   001992  6E19               	movwf	___fldiv@aexp^0,c
  6028   001994  AE07               	btfss	(___fldiv@a+2)^0,7,c
  6029   001996  EFCF  F00C         	goto	u2741
  6030   00199A  EFD1  F00C         	goto	u2740
  6031   00199E                     u2741:
  6032   00199E  EFD2  F00C         	goto	l2923
  6033   0019A2                     u2740:
  6034   0019A2  8019               	bsf	___fldiv@aexp^0,0,c
  6035   0019A4                     l2923:
  6036   0019A4  5019               	movf	___fldiv@aexp^0,w,c
  6037   0019A6  B4D8               	btfsc	status,2,c
  6038   0019A8  EFD8  F00C         	goto	u2751
  6039   0019AC  EFDA  F00C         	goto	u2750
  6040   0019B0                     u2751:
  6041   0019B0  EFEF  F00C         	goto	l2933
  6042   0019B4                     u2750:
  6043   0019B4  2819               	incf	___fldiv@aexp^0,w,c
  6044   0019B6  A4D8               	btfss	status,2,c
  6045   0019B8  EFE0  F00C         	goto	u2761
  6046   0019BC  EFE2  F00C         	goto	u2760
  6047   0019C0                     u2761:
  6048   0019C0  EFEA  F00C         	goto	l2929
  6049   0019C4                     u2760:
  6050   0019C4  0E00               	movlw	0
  6051   0019C6  6E05               	movwf	___fldiv@a^0,c
  6052   0019C8  0E00               	movlw	0
  6053   0019CA  6E06               	movwf	(___fldiv@a+1)^0,c
  6054   0019CC  0E00               	movlw	0
  6055   0019CE  6E07               	movwf	(___fldiv@a+2)^0,c
  6056   0019D0  0E00               	movlw	0
  6057   0019D2  6E08               	movwf	(___fldiv@a+3)^0,c
  6058   0019D4                     l2929:
  6059   0019D4  8E07               	bsf	(___fldiv@a+2)^0,7,c
  6060   0019D6  0E00               	movlw	0
  6061   0019D8  6E08               	movwf	(___fldiv@a+3)^0,c
  6062   0019DA  EFF7  F00C         	goto	l2935
  6063   0019DE                     l2933:
  6064   0019DE  0E00               	movlw	0
  6065   0019E0  6E05               	movwf	___fldiv@a^0,c
  6066   0019E2  0E00               	movlw	0
  6067   0019E4  6E06               	movwf	(___fldiv@a+1)^0,c
  6068   0019E6  0E00               	movlw	0
  6069   0019E8  6E07               	movwf	(___fldiv@a+2)^0,c
  6070   0019EA  0E00               	movlw	0
  6071   0019EC  6E08               	movwf	(___fldiv@a+3)^0,c
  6072   0019EE                     l2935:
  6073   0019EE  5005               	movf	___fldiv@a^0,w,c
  6074   0019F0  1006               	iorwf	(___fldiv@a+1)^0,w,c
  6075   0019F2  1007               	iorwf	(___fldiv@a+2)^0,w,c
  6076   0019F4  1008               	iorwf	(___fldiv@a+3)^0,w,c
  6077   0019F6  A4D8               	btfss	status,2,c
  6078   0019F8  EF00  F00D         	goto	u2771
  6079   0019FC  EF02  F00D         	goto	u2770
  6080   001A00                     u2771:
  6081   001A00  EF1A  F00D         	goto	l2947
  6082   001A04                     u2770:
  6083   001A04  0E00               	movlw	0
  6084   001A06  6E01               	movwf	___fldiv@b^0,c
  6085   001A08  0E00               	movlw	0
  6086   001A0A  6E02               	movwf	(___fldiv@b+1)^0,c
  6087   001A0C  0E00               	movlw	0
  6088   001A0E  6E03               	movwf	(___fldiv@b+2)^0,c
  6089   001A10  0E00               	movlw	0
  6090   001A12  6E04               	movwf	(___fldiv@b+3)^0,c
  6091   001A14  0E80               	movlw	128
  6092   001A16  1203               	iorwf	(___fldiv@b+2)^0,f,c
  6093   001A18  0E7F               	movlw	127
  6094   001A1A  1204               	iorwf	(___fldiv@b+3)^0,f,c
  6095   001A1C                     l2941:
  6096   001A1C  5011               	movf	___fldiv@sign^0,w,c
  6097   001A1E  1204               	iorwf	(___fldiv@b+3)^0,f,c
  6098   001A20  C001  F001         	movff	___fldiv@b,?___fldiv
  6099   001A24  C002  F002         	movff	___fldiv@b+1,?___fldiv+1
  6100   001A28  C003  F003         	movff	___fldiv@b+2,?___fldiv+2
  6101   001A2C  C004  F004         	movff	___fldiv@b+3,?___fldiv+3
  6102   001A30  EF5D  F00E         	goto	l804
  6103   001A34                     l2947:
  6104   001A34  5018               	movf	___fldiv@bexp^0,w,c
  6105   001A36  A4D8               	btfss	status,2,c
  6106   001A38  EF20  F00D         	goto	u2781
  6107   001A3C  EF22  F00D         	goto	u2780
  6108   001A40                     u2781:
  6109   001A40  EF2C  F00D         	goto	l2955
  6110   001A44                     u2780:
  6111   001A44  0E00               	movlw	0
  6112   001A46  6E01               	movwf	?___fldiv^0,c
  6113   001A48  0E00               	movlw	0
  6114   001A4A  6E02               	movwf	(?___fldiv+1)^0,c
  6115   001A4C  0E00               	movlw	0
  6116   001A4E  6E03               	movwf	(?___fldiv+2)^0,c
  6117   001A50  0E00               	movlw	0
  6118   001A52  6E04               	movwf	(?___fldiv+3)^0,c
  6119   001A54  EF5D  F00E         	goto	l804
  6120   001A58                     l2955:
  6121   001A58  5019               	movf	___fldiv@aexp^0,w,c
  6122   001A5A  C018  F009         	movff	___fldiv@bexp,??___fldiv
  6123   001A5E  6A0A               	clrf	(??___fldiv+1)^0,c
  6124   001A60  5E09               	subwf	??___fldiv^0,f,c
  6125   001A62  0E00               	movlw	0
  6126   001A64  5A0A               	subwfb	(??___fldiv+1)^0,f,c
  6127   001A66  0E7F               	movlw	127
  6128   001A68  2409               	addwf	??___fldiv^0,w,c
  6129   001A6A  6E12               	movwf	___fldiv@new_exp^0,c
  6130   001A6C  0E00               	movlw	0
  6131   001A6E  200A               	addwfc	(??___fldiv+1)^0,w,c
  6132   001A70  6E13               	movwf	(___fldiv@new_exp+1)^0,c
  6133   001A72  C001  F00D         	movff	___fldiv@b,___fldiv@rem
  6134   001A76  C002  F00E         	movff	___fldiv@b+1,___fldiv@rem+1
  6135   001A7A  C003  F00F         	movff	___fldiv@b+2,___fldiv@rem+2
  6136   001A7E  C004  F010         	movff	___fldiv@b+3,___fldiv@rem+3
  6137   001A82  0E00               	movlw	0
  6138   001A84  6E01               	movwf	___fldiv@b^0,c
  6139   001A86  0E00               	movlw	0
  6140   001A88  6E02               	movwf	(___fldiv@b+1)^0,c
  6141   001A8A  0E00               	movlw	0
  6142   001A8C  6E03               	movwf	(___fldiv@b+2)^0,c
  6143   001A8E  0E00               	movlw	0
  6144   001A90  6E04               	movwf	(___fldiv@b+3)^0,c
  6145   001A92  0E00               	movlw	0
  6146   001A94  6E14               	movwf	___fldiv@grs^0,c
  6147   001A96  0E00               	movlw	0
  6148   001A98  6E15               	movwf	(___fldiv@grs+1)^0,c
  6149   001A9A  0E00               	movlw	0
  6150   001A9C  6E16               	movwf	(___fldiv@grs+2)^0,c
  6151   001A9E  0E00               	movlw	0
  6152   001AA0  6E17               	movwf	(___fldiv@grs+3)^0,c
  6153   001AA2  0E00               	movlw	0
  6154   001AA4  6E19               	movwf	___fldiv@aexp^0,c
  6155   001AA6  EF8D  F00D         	goto	l806
  6156   001AAA                     l2965:
  6157   001AAA  5019               	movf	___fldiv@aexp^0,w,c
  6158   001AAC  B4D8               	btfsc	status,2,c
  6159   001AAE  EF5B  F00D         	goto	u2791
  6160   001AB2  EF5D  F00D         	goto	u2790
  6161   001AB6                     u2791:
  6162   001AB6  EF74  F00D         	goto	l2973
  6163   001ABA                     u2790:
  6164   001ABA  90D8               	bcf	status,0,c
  6165   001ABC  360D               	rlcf	___fldiv@rem^0,f,c
  6166   001ABE  360E               	rlcf	(___fldiv@rem+1)^0,f,c
  6167   001AC0  360F               	rlcf	(___fldiv@rem+2)^0,f,c
  6168   001AC2  3610               	rlcf	(___fldiv@rem+3)^0,f,c
  6169   001AC4  90D8               	bcf	status,0,c
  6170   001AC6  3601               	rlcf	___fldiv@b^0,f,c
  6171   001AC8  3602               	rlcf	(___fldiv@b+1)^0,f,c
  6172   001ACA  3603               	rlcf	(___fldiv@b+2)^0,f,c
  6173   001ACC  3604               	rlcf	(___fldiv@b+3)^0,f,c
  6174   001ACE  AE17               	btfss	(___fldiv@grs+3)^0,7,c
  6175   001AD0  EF6C  F00D         	goto	u2801
  6176   001AD4  EF6E  F00D         	goto	u2800
  6177   001AD8                     u2801:
  6178   001AD8  EF6F  F00D         	goto	l809
  6179   001ADC                     u2800:
  6180   001ADC  8001               	bsf	___fldiv@b^0,0,c
  6181   001ADE                     l809:
  6182   001ADE  90D8               	bcf	status,0,c
  6183   001AE0  3614               	rlcf	___fldiv@grs^0,f,c
  6184   001AE2  3615               	rlcf	(___fldiv@grs+1)^0,f,c
  6185   001AE4  3616               	rlcf	(___fldiv@grs+2)^0,f,c
  6186   001AE6  3617               	rlcf	(___fldiv@grs+3)^0,f,c
  6187   001AE8                     l2973:
  6188   001AE8  5005               	movf	___fldiv@a^0,w,c
  6189   001AEA  5C0D               	subwf	___fldiv@rem^0,w,c
  6190   001AEC  5006               	movf	(___fldiv@a+1)^0,w,c
  6191   001AEE  580E               	subwfb	(___fldiv@rem+1)^0,w,c
  6192   001AF0  5007               	movf	(___fldiv@a+2)^0,w,c
  6193   001AF2  580F               	subwfb	(___fldiv@rem+2)^0,w,c
  6194   001AF4  5008               	movf	(___fldiv@a+3)^0,w,c
  6195   001AF6  5810               	subwfb	(___fldiv@rem+3)^0,w,c
  6196   001AF8  A0D8               	btfss	status,0,c
  6197   001AFA  EF81  F00D         	goto	u2811
  6198   001AFE  EF83  F00D         	goto	u2810
  6199   001B02                     u2811:
  6200   001B02  EF8C  F00D         	goto	l2979
  6201   001B06                     u2810:
  6202   001B06  8C17               	bsf	(___fldiv@grs+3)^0,6,c
  6203   001B08  5005               	movf	___fldiv@a^0,w,c
  6204   001B0A  5E0D               	subwf	___fldiv@rem^0,f,c
  6205   001B0C  5006               	movf	(___fldiv@a+1)^0,w,c
  6206   001B0E  5A0E               	subwfb	(___fldiv@rem+1)^0,f,c
  6207   001B10  5007               	movf	(___fldiv@a+2)^0,w,c
  6208   001B12  5A0F               	subwfb	(___fldiv@rem+2)^0,f,c
  6209   001B14  5008               	movf	(___fldiv@a+3)^0,w,c
  6210   001B16  5A10               	subwfb	(___fldiv@rem+3)^0,f,c
  6211   001B18                     l2979:
  6212   001B18  2A19               	incf	___fldiv@aexp^0,f,c
  6213   001B1A                     l806:
  6214   001B1A  0E19               	movlw	25
  6215   001B1C  6419               	cpfsgt	___fldiv@aexp^0,c
  6216   001B1E  EF93  F00D         	goto	u2821
  6217   001B22  EF95  F00D         	goto	u2820
  6218   001B26                     u2821:
  6219   001B26  EF55  F00D         	goto	l2965
  6220   001B2A                     u2820:
  6221   001B2A  500D               	movf	___fldiv@rem^0,w,c
  6222   001B2C  100E               	iorwf	(___fldiv@rem+1)^0,w,c
  6223   001B2E  100F               	iorwf	(___fldiv@rem+2)^0,w,c
  6224   001B30  1010               	iorwf	(___fldiv@rem+3)^0,w,c
  6225   001B32  B4D8               	btfsc	status,2,c
  6226   001B34  EF9E  F00D         	goto	u2831
  6227   001B38  EFA0  F00D         	goto	u2830
  6228   001B3C                     u2831:
  6229   001B3C  EFB8  F00D         	goto	l2991
  6230   001B40                     u2830:
  6231   001B40  8014               	bsf	___fldiv@grs^0,0,c
  6232   001B42  EFB8  F00D         	goto	l2991
  6233   001B46                     l2985:
  6234   001B46  90D8               	bcf	status,0,c
  6235   001B48  3601               	rlcf	___fldiv@b^0,f,c
  6236   001B4A  3602               	rlcf	(___fldiv@b+1)^0,f,c
  6237   001B4C  3603               	rlcf	(___fldiv@b+2)^0,f,c
  6238   001B4E  3604               	rlcf	(___fldiv@b+3)^0,f,c
  6239   001B50  AE17               	btfss	(___fldiv@grs+3)^0,7,c
  6240   001B52  EFAD  F00D         	goto	u2841
  6241   001B56  EFAF  F00D         	goto	u2840
  6242   001B5A                     u2841:
  6243   001B5A  EFB0  F00D         	goto	l815
  6244   001B5E                     u2840:
  6245   001B5E  8001               	bsf	___fldiv@b^0,0,c
  6246   001B60                     l815:
  6247   001B60  90D8               	bcf	status,0,c
  6248   001B62  3614               	rlcf	___fldiv@grs^0,f,c
  6249   001B64  3615               	rlcf	(___fldiv@grs+1)^0,f,c
  6250   001B66  3616               	rlcf	(___fldiv@grs+2)^0,f,c
  6251   001B68  3617               	rlcf	(___fldiv@grs+3)^0,f,c
  6252   001B6A  0612               	decf	___fldiv@new_exp^0,f,c
  6253   001B6C  A0D8               	btfss	status,0,c
  6254   001B6E  0613               	decf	(___fldiv@new_exp+1)^0,f,c
  6255   001B70                     l2991:
  6256   001B70  AE03               	btfss	(___fldiv@b+2)^0,7,c
  6257   001B72  EFBD  F00D         	goto	u2851
  6258   001B76  EFBF  F00D         	goto	u2850
  6259   001B7A                     u2851:
  6260   001B7A  EFA3  F00D         	goto	l2985
  6261   001B7E                     u2850:
  6262   001B7E  0E00               	movlw	0
  6263   001B80  6E19               	movwf	___fldiv@aexp^0,c
  6264   001B82  AE17               	btfss	(___fldiv@grs+3)^0,7,c
  6265   001B84  EFC6  F00D         	goto	u2861
  6266   001B88  EFC8  F00D         	goto	u2860
  6267   001B8C                     u2861:
  6268   001B8C  EFEC  F00D         	goto	l817
  6269   001B90                     u2860:
  6270   001B90  0EFF               	movlw	255
  6271   001B92  1414               	andwf	___fldiv@grs^0,w,c
  6272   001B94  6E09               	movwf	??___fldiv^0,c
  6273   001B96  0EFF               	movlw	255
  6274   001B98  1415               	andwf	(___fldiv@grs+1)^0,w,c
  6275   001B9A  6E0A               	movwf	(??___fldiv+1)^0,c
  6276   001B9C  0EFF               	movlw	255
  6277   001B9E  1416               	andwf	(___fldiv@grs+2)^0,w,c
  6278   001BA0  6E0B               	movwf	(??___fldiv+2)^0,c
  6279   001BA2  0E7F               	movlw	127
  6280   001BA4  1417               	andwf	(___fldiv@grs+3)^0,w,c
  6281   001BA6  6E0C               	movwf	(??___fldiv+3)^0,c
  6282   001BA8  5009               	movf	??___fldiv^0,w,c
  6283   001BAA  100A               	iorwf	(??___fldiv+1)^0,w,c
  6284   001BAC  100B               	iorwf	(??___fldiv+2)^0,w,c
  6285   001BAE  100C               	iorwf	(??___fldiv+3)^0,w,c
  6286   001BB0  B4D8               	btfsc	status,2,c
  6287   001BB2  EFDD  F00D         	goto	u2871
  6288   001BB6  EFDF  F00D         	goto	u2870
  6289   001BBA                     u2871:
  6290   001BBA  EFE3  F00D         	goto	l818
  6291   001BBE                     u2870:
  6292   001BBE                     l2999:
  6293   001BBE  0E01               	movlw	1
  6294   001BC0  6E19               	movwf	___fldiv@aexp^0,c
  6295   001BC2  EFEC  F00D         	goto	l817
  6296   001BC6                     l818:
  6297   001BC6  A001               	btfss	___fldiv@b^0,0,c
  6298   001BC8  EFE8  F00D         	goto	u2881
  6299   001BCC  EFEA  F00D         	goto	u2880
  6300   001BD0                     u2881:
  6301   001BD0  EFEC  F00D         	goto	l817
  6302   001BD4                     u2880:
  6303   001BD4  EFDF  F00D         	goto	l2999
  6304   001BD8                     l817:
  6305   001BD8  5019               	movf	___fldiv@aexp^0,w,c
  6306   001BDA  B4D8               	btfsc	status,2,c
  6307   001BDC  EFF2  F00D         	goto	u2891
  6308   001BE0  EFF4  F00D         	goto	u2890
  6309   001BE4                     u2891:
  6310   001BE4  EF18  F00E         	goto	l3011
  6311   001BE8                     u2890:
  6312   001BE8  0E01               	movlw	1
  6313   001BEA  2601               	addwf	___fldiv@b^0,f,c
  6314   001BEC  0E00               	movlw	0
  6315   001BEE  2202               	addwfc	(___fldiv@b+1)^0,f,c
  6316   001BF0  2203               	addwfc	(___fldiv@b+2)^0,f,c
  6317   001BF2  2204               	addwfc	(___fldiv@b+3)^0,f,c
  6318   001BF4  A004               	btfss	(___fldiv@b+3)^0,0,c
  6319   001BF6  EFFF  F00D         	goto	u2901
  6320   001BFA  EF01  F00E         	goto	u2900
  6321   001BFE                     u2901:
  6322   001BFE  EF18  F00E         	goto	l3011
  6323   001C02                     u2900:
  6324   001C02  C001  F009         	movff	___fldiv@b,??___fldiv
  6325   001C06  C002  F00A         	movff	___fldiv@b+1,??___fldiv+1
  6326   001C0A  C003  F00B         	movff	___fldiv@b+2,??___fldiv+2
  6327   001C0E  C004  F00C         	movff	___fldiv@b+3,??___fldiv+3
  6328   001C12  340C               	rlcf	(??___fldiv+3)^0,w,c
  6329   001C14  320C               	rrcf	(??___fldiv+3)^0,f,c
  6330   001C16  320B               	rrcf	(??___fldiv+2)^0,f,c
  6331   001C18  320A               	rrcf	(??___fldiv+1)^0,f,c
  6332   001C1A  3209               	rrcf	??___fldiv^0,f,c
  6333   001C1C  C009  F001         	movff	??___fldiv,___fldiv@b
  6334   001C20  C00A  F002         	movff	??___fldiv+1,___fldiv@b+1
  6335   001C24  C00B  F003         	movff	??___fldiv+2,___fldiv@b+2
  6336   001C28  C00C  F004         	movff	??___fldiv+3,___fldiv@b+3
  6337   001C2C  4A12               	infsnz	___fldiv@new_exp^0,f,c
  6338   001C2E  2A13               	incf	(___fldiv@new_exp+1)^0,f,c
  6339   001C30                     l3011:
  6340   001C30  BE13               	btfsc	(___fldiv@new_exp+1)^0,7,c
  6341   001C32  EF23  F00E         	goto	u2911
  6342   001C36  5013               	movf	(___fldiv@new_exp+1)^0,w,c
  6343   001C38  E108               	bnz	u2910
  6344   001C3A  2812               	incf	___fldiv@new_exp^0,w,c
  6345   001C3C  A0D8               	btfss	status,0,c
  6346   001C3E  EF23  F00E         	goto	u2911
  6347   001C42  EF25  F00E         	goto	u2910
  6348   001C46                     u2911:
  6349   001C46  EF30  F00E         	goto	l3015
  6350   001C4A                     u2910:
  6351   001C4A  0E00               	movlw	0
  6352   001C4C  6E13               	movwf	(___fldiv@new_exp+1)^0,c
  6353   001C4E  6812               	setf	___fldiv@new_exp^0,c
  6354   001C50  0E00               	movlw	0
  6355   001C52  6E01               	movwf	___fldiv@b^0,c
  6356   001C54  0E00               	movlw	0
  6357   001C56  6E02               	movwf	(___fldiv@b+1)^0,c
  6358   001C58  0E00               	movlw	0
  6359   001C5A  6E03               	movwf	(___fldiv@b+2)^0,c
  6360   001C5C  0E00               	movlw	0
  6361   001C5E  6E04               	movwf	(___fldiv@b+3)^0,c
  6362   001C60                     l3015:
  6363   001C60  BE13               	btfsc	(___fldiv@new_exp+1)^0,7,c
  6364   001C62  EF3D  F00E         	goto	u2920
  6365   001C66  5013               	movf	(___fldiv@new_exp+1)^0,w,c
  6366   001C68  E106               	bnz	u2921
  6367   001C6A  0412               	decf	___fldiv@new_exp^0,w,c
  6368   001C6C  B0D8               	btfsc	status,0,c
  6369   001C6E  EF3B  F00E         	goto	u2921
  6370   001C72  EF3D  F00E         	goto	u2920
  6371   001C76                     u2921:
  6372   001C76  EF4B  F00E         	goto	l3019
  6373   001C7A                     u2920:
  6374   001C7A  0E00               	movlw	0
  6375   001C7C  6E13               	movwf	(___fldiv@new_exp+1)^0,c
  6376   001C7E  0E00               	movlw	0
  6377   001C80  6E12               	movwf	___fldiv@new_exp^0,c
  6378   001C82  0E00               	movlw	0
  6379   001C84  6E01               	movwf	___fldiv@b^0,c
  6380   001C86  0E00               	movlw	0
  6381   001C88  6E02               	movwf	(___fldiv@b+1)^0,c
  6382   001C8A  0E00               	movlw	0
  6383   001C8C  6E03               	movwf	(___fldiv@b+2)^0,c
  6384   001C8E  0E00               	movlw	0
  6385   001C90  6E04               	movwf	(___fldiv@b+3)^0,c
  6386   001C92  0E00               	movlw	0
  6387   001C94  6E11               	movwf	___fldiv@sign^0,c
  6388   001C96                     l3019:
  6389   001C96  C012  F018         	movff	___fldiv@new_exp,___fldiv@bexp
  6390   001C9A  A018               	btfss	___fldiv@bexp^0,0,c
  6391   001C9C  EF52  F00E         	goto	u2931
  6392   001CA0  EF54  F00E         	goto	u2930
  6393   001CA4                     u2931:
  6394   001CA4  EF57  F00E         	goto	l3025
  6395   001CA8                     u2930:
  6396   001CA8  8E03               	bsf	(___fldiv@b+2)^0,7,c
  6397   001CAA  EF58  F00E         	goto	l3027
  6398   001CAE                     l3025:
  6399   001CAE  9E03               	bcf	(___fldiv@b+2)^0,7,c
  6400   001CB0                     l3027:
  6401   001CB0  90D8               	bcf	status,0,c
  6402   001CB2  3018               	rrcf	___fldiv@bexp^0,w,c
  6403   001CB4  6E04               	movwf	(___fldiv@b+3)^0,c
  6404   001CB6  EF0E  F00D         	goto	l2941
  6405   001CBA                     l804:
  6406   001CBA  0012               	return		;funcret
  6407   001CBC                     __end_of___fldiv:
  6408                           	callstack 0
  6409                           
  6410 ;; *************** function _dtoa *****************
  6411 ;; Defined at:
  6412 ;;		line 470 in file "C:\Program Files\Microchip\xc8\v2.41\pic\sources\c99\common\doprnt.c"
  6413 ;; Parameters:    Size  Location     Type
  6414 ;;  fp              2   27[COMRAM] PTR struct _IO_FILE
  6415 ;;		 -> sprintf@f(12), 
  6416 ;;  d               2   29[COMRAM] int 
  6417 ;; Auto vars:     Size  Location     Type
  6418 ;;  i               2   37[COMRAM] int 
  6419 ;;  w               2   35[COMRAM] int 
  6420 ;;  p               2   33[COMRAM] int 
  6421 ;;  s               1   39[COMRAM] unsigned char 
  6422 ;; Return value:  Size  Location     Type
  6423 ;;                  1    wreg      void 
  6424 ;; Registers used:
  6425 ;;		wreg, fsr1l, fsr1h, fsr2l, fsr2h, status,2, status,0, cstack
  6426 ;; Tracked objects:
  6427 ;;		On entry : 0/0
  6428 ;;		On exit  : 0/0
  6429 ;;		Unchanged: 0/0
  6430 ;; Data sizes:     COMRAM   BANK0   BANK1   BANK2   BANK3   BANK4   BANK5
  6431 ;;      Params:         4       0       0       0       0       0       0
  6432 ;;      Locals:         9       0       0       0       0       0       0
  6433 ;;      Temps:          0       0       0       0       0       0       0
  6434 ;;      Totals:        13       0       0       0       0       0       0
  6435 ;;Total ram usage:       13 bytes
  6436 ;; Hardware stack levels used: 1
  6437 ;; Hardware stack levels required when called: 4
  6438 ;; This function calls:
  6439 ;;		___awdiv
  6440 ;;		___awmod
  6441 ;;		_abs
  6442 ;;		_pad
  6443 ;; This function is called by:
  6444 ;;		_vfpfcnvrt
  6445 ;; This function uses a non-reentrant model
  6446 ;;
  6447                           
  6448                           	psect	text21
  6449   002416                     __ptext21:
  6450                           	callstack 0
  6451   002416                     _dtoa:
  6452                           	callstack 23
  6453   002416                     
  6454                           ;C:\Program Files\Microchip\xc8\v2.41\pic\sources\c99\common\doprnt.c: 470: static void 
      +                          dtoa(FILE *fp, vfpf_sint_t d);C:\Program Files\Microchip\xc8\v2.41\pic\sources\c99\commo
      +                          n\doprnt.c: 471: {;C:\Program Files\Microchip\xc8\v2.41\pic\sources\c99\common\doprnt.c:
      +                           472:  char s;;C:\Program Files\Microchip\xc8\v2.41\pic\sources\c99\common\doprnt.c: 473
      +                          :     int i, p, w;;C:\Program Files\Microchip\xc8\v2.41\pic\sources\c99\common\doprnt.c:
      +                           476:     s = d < 0 ? 1 : 0;
  6455   002416  BE1F               	btfsc	(dtoa@d+1)^0,7,c
  6456   002418  EF10  F012         	goto	u3661
  6457   00241C  EF13  F012         	goto	u3660
  6458   002420                     u3661:
  6459   002420  0E01               	movlw	1
  6460   002422  EF14  F012         	goto	u3670
  6461   002426                     u3660:
  6462   002426  0E00               	movlw	0
  6463   002428                     u3670:
  6464   002428  6E28               	movwf	dtoa@s^0,c
  6465   00242A                     
  6466                           ;C:\Program Files\Microchip\xc8\v2.41\pic\sources\c99\common\doprnt.c: 477:     if (s) {
  6467   00242A  5028               	movf	dtoa@s^0,w,c
  6468   00242C  B4D8               	btfsc	status,2,c
  6469   00242E  EF1B  F012         	goto	u3681
  6470   002432  EF1D  F012         	goto	u3680
  6471   002436                     u3681:
  6472   002436  EF21  F012         	goto	l3445
  6473   00243A                     u3680:
  6474   00243A                     
  6475                           ;C:\Program Files\Microchip\xc8\v2.41\pic\sources\c99\common\doprnt.c: 478:         d = 
      +                          -d;
  6476   00243A  6C1E               	negf	dtoa@d^0,c
  6477   00243C  1E1F               	comf	(dtoa@d+1)^0,f,c
  6478   00243E  B0D8               	btfsc	status,0,c
  6479   002440  2A1F               	incf	(dtoa@d+1)^0,f,c
  6480   002442                     l3445:
  6481                           
  6482                           ;C:\Program Files\Microchip\xc8\v2.41\pic\sources\c99\common\doprnt.c: 487:     p = (0 <
      +                          = prec) ? prec : 1;
  6483   002442  BE5C               	btfsc	(_prec+1)^0,7,c
  6484   002444  EF28  F012         	goto	u3690
  6485   002448  EF26  F012         	goto	u3691
  6486   00244C                     u3691:
  6487   00244C  EF2E  F012         	goto	l945
  6488   002450                     u3690:
  6489   002450  0E00               	movlw	0
  6490   002452  6E23               	movwf	(dtoa@p+1)^0,c
  6491   002454  0E01               	movlw	1
  6492   002456  6E22               	movwf	dtoa@p^0,c
  6493   002458  EF32  F012         	goto	l947
  6494   00245C                     l945:
  6495   00245C  C05B  F022         	movff	_prec,dtoa@p
  6496   002460  C05C  F023         	movff	_prec+1,dtoa@p+1
  6497   002464                     l947:
  6498                           
  6499                           ;C:\Program Files\Microchip\xc8\v2.41\pic\sources\c99\common\doprnt.c: 488:     w = widt
      +                          h;
  6500   002464  C059  F024         	movff	_width,dtoa@w
  6501   002468  C05A  F025         	movff	_width+1,dtoa@w+1
  6502   00246C                     
  6503                           ;C:\Program Files\Microchip\xc8\v2.41\pic\sources\c99\common\doprnt.c: 489:     if (s
  6504   00246C  5028               	movf	dtoa@s^0,w,c
  6505   00246E  B4D8               	btfsc	status,2,c
  6506   002470  EF3C  F012         	goto	u3701
  6507   002474  EF3E  F012         	goto	u3700
  6508   002478                     u3701:
  6509   002478  EF55  F012         	goto	l948
  6510   00247C                     u3700:
  6511   00247C                     
  6512                           ;C:\Program Files\Microchip\xc8\v2.41\pic\sources\c99\common\doprnt.c: 493:     ) {;C:\P
      +                          rogram Files\Microchip\xc8\v2.41\pic\sources\c99\common\doprnt.c: 494:         --w;
  6513   00247C  0624               	decf	dtoa@w^0,f,c
  6514   00247E  A0D8               	btfss	status,0,c
  6515   002480  0625               	decf	(dtoa@w+1)^0,f,c
  6516   002482                     
  6517                           ;C:\Program Files\Microchip\xc8\v2.41\pic\sources\c99\common\doprnt.c: 495:   s = s ? '-
      +                          ' : '+';
  6518   002482  5028               	movf	dtoa@s^0,w,c
  6519   002484  A4D8               	btfss	status,2,c
  6520   002486  EF47  F012         	goto	u3711
  6521   00248A  EF49  F012         	goto	u3710
  6522   00248E                     u3711:
  6523   00248E  EF4F  F012         	goto	l3457
  6524   002492                     u3710:
  6525   002492  0E00               	movlw	0
  6526   002494  6E21               	movwf	(_dtoa$1097+1)^0,c
  6527   002496  0E2B               	movlw	43
  6528   002498  6E20               	movwf	_dtoa$1097^0,c
  6529   00249A  EF53  F012         	goto	l3459
  6530   00249E                     l3457:
  6531   00249E  0E00               	movlw	0
  6532   0024A0  6E21               	movwf	(_dtoa$1097+1)^0,c
  6533   0024A2  0E2D               	movlw	45
  6534   0024A4  6E20               	movwf	_dtoa$1097^0,c
  6535   0024A6                     l3459:
  6536   0024A6  C020  F028         	movff	_dtoa$1097,dtoa@s
  6537   0024AA                     l948:
  6538                           
  6539                           ;C:\Program Files\Microchip\xc8\v2.41\pic\sources\c99\common\doprnt.c: 505:     i = size
      +                          of(dbuf) - 1;
  6540   0024AA  0E00               	movlw	0
  6541   0024AC  6E27               	movwf	(dtoa@i+1)^0,c
  6542   0024AE  0E4F               	movlw	79
  6543   0024B0  6E26               	movwf	dtoa@i^0,c
  6544   0024B2                     
  6545                           ;C:\Program Files\Microchip\xc8\v2.41\pic\sources\c99\common\doprnt.c: 506:     dbuf[i] 
      +                          = '\0';
  6546   0024B2  0E00               	movlw	0
  6547   0024B4  0101               	movlb	1	; () banked
  6548   0024B6  6F4F               	movwf	(_dbuf+79)& (0+255),b
  6549                           
  6550                           ;C:\Program Files\Microchip\xc8\v2.41\pic\sources\c99\common\doprnt.c: 507:     while (!
      +                          (i < 1) && (d || (0 < p)
  6551   0024B8  EF8E  F012         	goto	l3473
  6552   0024BC                     l3463:
  6553                           
  6554                           ;C:\Program Files\Microchip\xc8\v2.41\pic\sources\c99\common\doprnt.c: 511:     )) {;C:\
      +                          Program Files\Microchip\xc8\v2.41\pic\sources\c99\common\doprnt.c: 512:         --i;
  6555   0024BC  0626               	decf	dtoa@i^0,f,c
  6556   0024BE  A0D8               	btfss	status,0,c
  6557   0024C0  0627               	decf	(dtoa@i+1)^0,f,c
  6558   0024C2                     
  6559                           ;C:\Program Files\Microchip\xc8\v2.41\pic\sources\c99\common\doprnt.c: 513:         dbuf
      +                          [i] = (char)((int)'0' + abs(d % 10));
  6560   0024C2  0E00               	movlw	low _dbuf
  6561   0024C4  2426               	addwf	dtoa@i^0,w,c
  6562   0024C6  6ED9               	movwf	fsr2l,c
  6563   0024C8  0E01               	movlw	high _dbuf
  6564   0024CA  2027               	addwfc	(dtoa@i+1)^0,w,c
  6565   0024CC  6EDA               	movwf	fsr2h,c
  6566   0024CE  C01E  F001         	movff	dtoa@d,___awmod@dividend
  6567   0024D2  C01F  F002         	movff	dtoa@d+1,___awmod@dividend+1
  6568   0024D6  0E00               	movlw	0
  6569   0024D8  6E04               	movwf	(___awmod@divisor+1)^0,c
  6570   0024DA  0E0A               	movlw	10
  6571   0024DC  6E03               	movwf	___awmod@divisor^0,c
  6572   0024DE  EC2D  F017         	call	___awmod	;wreg free
  6573   0024E2  C001  F007         	movff	?___awmod,abs@a
  6574   0024E6  C002  F008         	movff	?___awmod+1,abs@a+1
  6575   0024EA  ECE7  F019         	call	_abs	;wreg free
  6576   0024EE  5007               	movf	?_abs^0,w,c
  6577   0024F0  0F30               	addlw	48
  6578   0024F2  6EDF               	movwf	indf2,c
  6579   0024F4                     
  6580                           ;C:\Program Files\Microchip\xc8\v2.41\pic\sources\c99\common\doprnt.c: 514:         --p;
  6581   0024F4  0622               	decf	dtoa@p^0,f,c
  6582   0024F6  A0D8               	btfss	status,0,c
  6583   0024F8  0623               	decf	(dtoa@p+1)^0,f,c
  6584   0024FA                     
  6585                           ;C:\Program Files\Microchip\xc8\v2.41\pic\sources\c99\common\doprnt.c: 515:         --w;
  6586   0024FA  0624               	decf	dtoa@w^0,f,c
  6587   0024FC  A0D8               	btfss	status,0,c
  6588   0024FE  0625               	decf	(dtoa@w+1)^0,f,c
  6589   002500                     
  6590                           ;C:\Program Files\Microchip\xc8\v2.41\pic\sources\c99\common\doprnt.c: 516:         d = 
      +                          d / 10;
  6591   002500  C01E  F001         	movff	dtoa@d,___awdiv@dividend
  6592   002504  C01F  F002         	movff	dtoa@d+1,___awdiv@dividend+1
  6593   002508  0E00               	movlw	0
  6594   00250A  6E04               	movwf	(___awdiv@divisor+1)^0,c
  6595   00250C  0E0A               	movlw	10
  6596   00250E  6E03               	movwf	___awdiv@divisor^0,c
  6597   002510  ECCB  F016         	call	___awdiv	;wreg free
  6598   002514  C001  F01E         	movff	?___awdiv,dtoa@d
  6599   002518  C002  F01F         	movff	?___awdiv+1,dtoa@d+1
  6600   00251C                     l3473:
  6601                           
  6602                           ;C:\Program Files\Microchip\xc8\v2.41\pic\sources\c99\common\doprnt.c: 507:     while (!
      +                          (i < 1) && (d || (0 < p)
  6603   00251C  BE27               	btfsc	(dtoa@i+1)^0,7,c
  6604   00251E  EF99  F012         	goto	u3721
  6605   002522  5027               	movf	(dtoa@i+1)^0,w,c
  6606   002524  E108               	bnz	u3720
  6607   002526  0426               	decf	dtoa@i^0,w,c
  6608   002528  A0D8               	btfss	status,0,c
  6609   00252A  EF99  F012         	goto	u3721
  6610   00252E  EF9B  F012         	goto	u3720
  6611   002532                     u3721:
  6612   002532  EFB1  F012         	goto	l3479
  6613   002536                     u3720:
  6614   002536  501E               	movf	dtoa@d^0,w,c
  6615   002538  101F               	iorwf	(dtoa@d+1)^0,w,c
  6616   00253A  A4D8               	btfss	status,2,c
  6617   00253C  EFA2  F012         	goto	u3731
  6618   002540  EFA4  F012         	goto	u3730
  6619   002544                     u3731:
  6620   002544  EF5E  F012         	goto	l3463
  6621   002548                     u3730:
  6622   002548  BE23               	btfsc	(dtoa@p+1)^0,7,c
  6623   00254A  EFB1  F012         	goto	u3740
  6624   00254E  5023               	movf	(dtoa@p+1)^0,w,c
  6625   002550  E106               	bnz	u3741
  6626   002552  0422               	decf	dtoa@p^0,w,c
  6627   002554  B0D8               	btfsc	status,0,c
  6628   002556  EFAF  F012         	goto	u3741
  6629   00255A  EFB1  F012         	goto	u3740
  6630   00255E                     u3741:
  6631   00255E  EF5E  F012         	goto	l3463
  6632   002562                     u3740:
  6633   002562                     l3479:
  6634                           
  6635                           ;C:\Program Files\Microchip\xc8\v2.41\pic\sources\c99\common\doprnt.c: 520:     if (s !=
      +                           0) {
  6636   002562  5028               	movf	dtoa@s^0,w,c
  6637   002564  B4D8               	btfsc	status,2,c
  6638   002566  EFB7  F012         	goto	u3751
  6639   00256A  EFB9  F012         	goto	u3750
  6640   00256E                     u3751:
  6641   00256E  EFC4  F012         	goto	l3485
  6642   002572                     u3750:
  6643   002572                     
  6644                           ;C:\Program Files\Microchip\xc8\v2.41\pic\sources\c99\common\doprnt.c: 521:         --i;
  6645   002572  0626               	decf	dtoa@i^0,f,c
  6646   002574  A0D8               	btfss	status,0,c
  6647   002576  0627               	decf	(dtoa@i+1)^0,f,c
  6648   002578                     
  6649                           ;C:\Program Files\Microchip\xc8\v2.41\pic\sources\c99\common\doprnt.c: 522:         dbuf
      +                          [i] = s;
  6650   002578  0E00               	movlw	low _dbuf
  6651   00257A  2426               	addwf	dtoa@i^0,w,c
  6652   00257C  6ED9               	movwf	fsr2l,c
  6653   00257E  0E01               	movlw	high _dbuf
  6654   002580  2027               	addwfc	(dtoa@i+1)^0,w,c
  6655   002582  6EDA               	movwf	fsr2h,c
  6656   002584  C028  FFDF         	movff	dtoa@s,indf2
  6657   002588                     l3485:
  6658                           
  6659                           ;C:\Program Files\Microchip\xc8\v2.41\pic\sources\c99\common\doprnt.c: 526:     return (
      +                          void) pad(fp, &dbuf[i], w);
  6660   002588  C01C  F011         	movff	dtoa@fp,pad@fp
  6661   00258C  C01D  F012         	movff	dtoa@fp+1,pad@fp+1
  6662   002590  0E00               	movlw	low _dbuf
  6663   002592  2426               	addwf	dtoa@i^0,w,c
  6664   002594  6E13               	movwf	pad@buf^0,c
  6665   002596  0E01               	movlw	high _dbuf
  6666   002598  2027               	addwfc	(dtoa@i+1)^0,w,c
  6667   00259A  6E14               	movwf	(pad@buf+1)^0,c
  6668   00259C  C024  F015         	movff	dtoa@w,pad@p
  6669   0025A0  C025  F016         	movff	dtoa@w+1,pad@p+1
  6670   0025A4  ECDA  F017         	call	_pad	;wreg free
  6671   0025A8  0012               	return		;funcret
  6672   0025AA                     __end_of_dtoa:
  6673                           	callstack 0
  6674                           
  6675 ;; *************** function _pad *****************
  6676 ;; Defined at:
  6677 ;;		line 152 in file "C:\Program Files\Microchip\xc8\v2.41\pic\sources\c99\common\doprnt.c"
  6678 ;; Parameters:    Size  Location     Type
  6679 ;;  fp              2   16[COMRAM] PTR struct _IO_FILE
  6680 ;;		 -> sprintf@f(12), 
  6681 ;;  buf             2   18[COMRAM] PTR unsigned char 
  6682 ;;		 -> dbuf(80), 
  6683 ;;  p               2   20[COMRAM] int 
  6684 ;; Auto vars:     Size  Location     Type
  6685 ;;  w               2   25[COMRAM] int 
  6686 ;;  i               2   23[COMRAM] int 
  6687 ;; Return value:  Size  Location     Type
  6688 ;;                  1    wreg      void 
  6689 ;; Registers used:
  6690 ;;		wreg, fsr1l, fsr1h, fsr2l, fsr2h, status,2, status,0, cstack
  6691 ;; Tracked objects:
  6692 ;;		On entry : 0/0
  6693 ;;		On exit  : 0/0
  6694 ;;		Unchanged: 0/0
  6695 ;; Data sizes:     COMRAM   BANK0   BANK1   BANK2   BANK3   BANK4   BANK5
  6696 ;;      Params:         6       0       0       0       0       0       0
  6697 ;;      Locals:         4       0       0       0       0       0       0
  6698 ;;      Temps:          1       0       0       0       0       0       0
  6699 ;;      Totals:        11       0       0       0       0       0       0
  6700 ;;Total ram usage:       11 bytes
  6701 ;; Hardware stack levels used: 1
  6702 ;; Hardware stack levels required when called: 3
  6703 ;; This function calls:
  6704 ;;		_fputc
  6705 ;;		_fputs
  6706 ;; This function is called by:
  6707 ;;		_dtoa
  6708 ;;		_efgtoa
  6709 ;; This function uses a non-reentrant model
  6710 ;;
  6711                           
  6712                           	psect	text22
  6713   002FB4                     __ptext22:
  6714                           	callstack 0
  6715   002FB4                     _pad:
  6716                           	callstack 23
  6717   002FB4                     
  6718                           ;C:\Program Files\Microchip\xc8\v2.41\pic\sources\c99\common\doprnt.c: 152: static void 
      +                          pad(FILE *fp, char *buf, int p);C:\Program Files\Microchip\xc8\v2.41\pic\sources\c99\com
      +                          mon\doprnt.c: 153: {;C:\Program Files\Microchip\xc8\v2.41\pic\sources\c99\common\doprnt.
      +                          c: 154:     int i, w;;C:\Program Files\Microchip\xc8\v2.41\pic\sources\c99\common\doprnt
      +                          .c: 164:     w = (p < 0) ? 0 : p;
  6719   002FB4  BE16               	btfsc	(pad@p+1)^0,7,c
  6720   002FB6  EFDF  F017         	goto	u3411
  6721   002FBA  EFE1  F017         	goto	u3410
  6722   002FBE                     u3411:
  6723   002FBE  EFE7  F017         	goto	l3345
  6724   002FC2                     u3410:
  6725   002FC2  C015  F01A         	movff	pad@p,pad@w
  6726   002FC6  C016  F01B         	movff	pad@p+1,pad@w+1
  6727   002FCA  EFEB  F017         	goto	l936
  6728   002FCE                     l3345:
  6729   002FCE  0E00               	movlw	0
  6730   002FD0  6E1B               	movwf	(pad@w+1)^0,c
  6731   002FD2  0E00               	movlw	0
  6732   002FD4  6E1A               	movwf	pad@w^0,c
  6733   002FD6                     l936:
  6734                           
  6735                           ;C:\Program Files\Microchip\xc8\v2.41\pic\sources\c99\common\doprnt.c: 165:     i = 0;
  6736   002FD6  0E00               	movlw	0
  6737   002FD8  6E19               	movwf	(pad@i+1)^0,c
  6738   002FDA  0E00               	movlw	0
  6739   002FDC  6E18               	movwf	pad@i^0,c
  6740                           
  6741                           ;C:\Program Files\Microchip\xc8\v2.41\pic\sources\c99\common\doprnt.c: 166:     while (i
      +                           < w) {
  6742   002FDE  EFFD  F017         	goto	l3351
  6743   002FE2                     l3347:
  6744                           
  6745                           ;C:\Program Files\Microchip\xc8\v2.41\pic\sources\c99\common\doprnt.c: 167:         fput
      +                          c(' ', fp);
  6746   002FE2  0E00               	movlw	0
  6747   002FE4  6E02               	movwf	(fputc@c+1)^0,c
  6748   002FE6  0E20               	movlw	32
  6749   002FE8  6E01               	movwf	fputc@c^0,c
  6750   002FEA  C011  F003         	movff	pad@fp,fputc@fp
  6751   002FEE  C012  F004         	movff	pad@fp+1,fputc@fp+1
  6752   002FF2  EC66  F016         	call	_fputc	;wreg free
  6753   002FF6                     
  6754                           ;C:\Program Files\Microchip\xc8\v2.41\pic\sources\c99\common\doprnt.c: 168:         ++i;
  6755   002FF6  4A18               	infsnz	pad@i^0,f,c
  6756   002FF8  2A19               	incf	(pad@i+1)^0,f,c
  6757   002FFA                     l3351:
  6758                           
  6759                           ;C:\Program Files\Microchip\xc8\v2.41\pic\sources\c99\common\doprnt.c: 166:     while (i
      +                           < w) {
  6760   002FFA  501A               	movf	pad@w^0,w,c
  6761   002FFC  5C18               	subwf	pad@i^0,w,c
  6762   002FFE  5019               	movf	(pad@i+1)^0,w,c
  6763   003000  0A80               	xorlw	128
  6764   003002  6E17               	movwf	??_pad^0,c
  6765   003004  501B               	movf	(pad@w+1)^0,w,c
  6766   003006  0A80               	xorlw	128
  6767   003008  5817               	subwfb	??_pad^0,w,c
  6768   00300A  A0D8               	btfss	status,0,c
  6769   00300C  EF0A  F018         	goto	u3421
  6770   003010  EF0C  F018         	goto	u3420
  6771   003014                     u3421:
  6772   003014  EFF1  F017         	goto	l3347
  6773   003018                     u3420:
  6774   003018                     
  6775                           ;C:\Program Files\Microchip\xc8\v2.41\pic\sources\c99\common\doprnt.c: 175:         fput
      +                          s((const char *)buf, fp);
  6776   003018  C013  F00A         	movff	pad@buf,fputs@s
  6777   00301C  C014  F00B         	movff	pad@buf+1,fputs@s+1
  6778   003020  C011  F00C         	movff	pad@fp,fputs@fp
  6779   003024  C012  F00D         	movff	pad@fp+1,fputs@fp+1
  6780   003028  ECA5  F019         	call	_fputs	;wreg free
  6781   00302C  0012               	return		;funcret
  6782   00302E                     __end_of_pad:
  6783                           	callstack 0
  6784                           
  6785 ;; *************** function _fputs *****************
  6786 ;; Defined at:
  6787 ;;		line 8 in file "C:\Program Files\Microchip\xc8\v2.41\pic\sources\c99\common\nf_fputs.c"
  6788 ;; Parameters:    Size  Location     Type
  6789 ;;  s               2    9[COMRAM] PTR const unsigned char 
  6790 ;;		 -> dbuf(80), 
  6791 ;;  fp              2   11[COMRAM] PTR struct _IO_FILE
  6792 ;;		 -> sprintf@f(12), 
  6793 ;; Auto vars:     Size  Location     Type
  6794 ;;  i               2   14[COMRAM] int 
  6795 ;;  c               1   13[COMRAM] unsigned char 
  6796 ;; Return value:  Size  Location     Type
  6797 ;;                  2    9[COMRAM] int 
  6798 ;; Registers used:
  6799 ;;		wreg, fsr1l, fsr1h, fsr2l, fsr2h, status,2, status,0, cstack
  6800 ;; Tracked objects:
  6801 ;;		On entry : 0/0
  6802 ;;		On exit  : 0/0
  6803 ;;		Unchanged: 0/0
  6804 ;; Data sizes:     COMRAM   BANK0   BANK1   BANK2   BANK3   BANK4   BANK5
  6805 ;;      Params:         4       0       0       0       0       0       0
  6806 ;;      Locals:         3       0       0       0       0       0       0
  6807 ;;      Temps:          0       0       0       0       0       0       0
  6808 ;;      Totals:         7       0       0       0       0       0       0
  6809 ;;Total ram usage:        7 bytes
  6810 ;; Hardware stack levels used: 1
  6811 ;; Hardware stack levels required when called: 2
  6812 ;; This function calls:
  6813 ;;		_fputc
  6814 ;; This function is called by:
  6815 ;;		_pad
  6816 ;; This function uses a non-reentrant model
  6817 ;;
  6818                           
  6819                           	psect	text23
  6820   00334A                     __ptext23:
  6821                           	callstack 0
  6822   00334A                     _fputs:
  6823                           	callstack 23
  6824   00334A  0E00               	movlw	0
  6825   00334C  6E10               	movwf	(fputs@i+1)^0,c
  6826   00334E  0E00               	movlw	0
  6827   003350  6E0F               	movwf	fputs@i^0,c
  6828   003352  EFB6  F019         	goto	l2895
  6829   003356                     l2891:
  6830   003356  C00E  F001         	movff	fputs@c,fputc@c
  6831   00335A  6A02               	clrf	(fputc@c+1)^0,c
  6832   00335C  C00C  F003         	movff	fputs@fp,fputc@fp
  6833   003360  C00D  F004         	movff	fputs@fp+1,fputc@fp+1
  6834   003364  EC66  F016         	call	_fputc	;wreg free
  6835   003368  4A0F               	infsnz	fputs@i^0,f,c
  6836   00336A  2A10               	incf	(fputs@i+1)^0,f,c
  6837   00336C                     l2895:
  6838   00336C  500F               	movf	fputs@i^0,w,c
  6839   00336E  240A               	addwf	fputs@s^0,w,c
  6840   003370  6ED9               	movwf	fsr2l,c
  6841   003372  5010               	movf	(fputs@i+1)^0,w,c
  6842   003374  200B               	addwfc	(fputs@s+1)^0,w,c
  6843   003376  6EDA               	movwf	fsr2h,c
  6844   003378  50DF               	movf	indf2,w,c
  6845   00337A  6E0E               	movwf	fputs@c^0,c
  6846   00337C  500E               	movf	fputs@c^0,w,c
  6847   00337E  A4D8               	btfss	status,2,c
  6848   003380  EFC4  F019         	goto	u2701
  6849   003384  EFC6  F019         	goto	u2700
  6850   003388                     u2701:
  6851   003388  EFAB  F019         	goto	l2891
  6852   00338C                     u2700:
  6853   00338C  0012               	return		;funcret
  6854   00338E                     __end_of_fputs:
  6855                           	callstack 0
  6856                           
  6857 ;; *************** function _fputc *****************
  6858 ;; Defined at:
  6859 ;;		line 8 in file "C:\Program Files\Microchip\xc8\v2.41\pic\sources\c99\common\nf_fputc.c"
  6860 ;; Parameters:    Size  Location     Type
  6861 ;;  c               2    0[COMRAM] int 
  6862 ;;  fp              2    2[COMRAM] PTR struct _IO_FILE
  6863 ;;		 -> sprintf@f(12), 
  6864 ;; Auto vars:     Size  Location     Type
  6865 ;;		None
  6866 ;; Return value:  Size  Location     Type
  6867 ;;                  2    0[COMRAM] int 
  6868 ;; Registers used:
  6869 ;;		wreg, fsr1l, fsr1h, fsr2l, fsr2h, status,2, status,0, cstack
  6870 ;; Tracked objects:
  6871 ;;		On entry : 0/0
  6872 ;;		On exit  : 0/0
  6873 ;;		Unchanged: 0/0
  6874 ;; Data sizes:     COMRAM   BANK0   BANK1   BANK2   BANK3   BANK4   BANK5
  6875 ;;      Params:         4       0       0       0       0       0       0
  6876 ;;      Locals:         0       0       0       0       0       0       0
  6877 ;;      Temps:          5       0       0       0       0       0       0
  6878 ;;      Totals:         9       0       0       0       0       0       0
  6879 ;;Total ram usage:        9 bytes
  6880 ;; Hardware stack levels used: 1
  6881 ;; Hardware stack levels required when called: 1
  6882 ;; This function calls:
  6883 ;;		_putch
  6884 ;; This function is called by:
  6885 ;;		_pad
  6886 ;;		_stoa
  6887 ;;		_vfpfcnvrt
  6888 ;;		_fputs
  6889 ;; This function uses a non-reentrant model
  6890 ;;
  6891                           
  6892                           	psect	text24
  6893   002CCC                     __ptext24:
  6894                           	callstack 0
  6895   002CCC                     _fputc:
  6896                           	callstack 25
  6897   002CCC  5003               	movf	fputc@fp^0,w,c
  6898   002CCE  1004               	iorwf	(fputc@fp+1)^0,w,c
  6899   002CD0  B4D8               	btfsc	status,2,c
  6900   002CD2  EF6D  F016         	goto	u2271
  6901   002CD6  EF6F  F016         	goto	u2270
  6902   002CDA                     u2271:
  6903   002CDA  EF78  F016         	goto	l2677
  6904   002CDE                     u2270:
  6905   002CDE  5003               	movf	fputc@fp^0,w,c
  6906   002CE0  1004               	iorwf	(fputc@fp+1)^0,w,c
  6907   002CE2  A4D8               	btfss	status,2,c
  6908   002CE4  EF76  F016         	goto	u2281
  6909   002CE8  EF78  F016         	goto	u2280
  6910   002CEC                     u2281:
  6911   002CEC  EF7D  F016         	goto	l2679
  6912   002CF0                     u2280:
  6913   002CF0                     l2677:
  6914   002CF0  5001               	movf	fputc@c^0,w,c
  6915   002CF2  ECC6  F01A         	call	_putch
  6916   002CF6  EFCA  F016         	goto	l1121
  6917   002CFA                     l2679:
  6918   002CFA  EE20 F00A          	lfsr	2,10
  6919   002CFE  5003               	movf	fputc@fp^0,w,c
  6920   002D00  26D9               	addwf	fsr2l,f,c
  6921   002D02  5004               	movf	(fputc@fp+1)^0,w,c
  6922   002D04  22DA               	addwfc	fsr2h,f,c
  6923   002D06  50DE               	movf	postinc2,w,c
  6924   002D08  10DE               	iorwf	postinc2,w,c
  6925   002D0A  B4D8               	btfsc	status,2,c
  6926   002D0C  EF8A  F016         	goto	u2291
  6927   002D10  EF8C  F016         	goto	u2290
  6928   002D14                     u2291:
  6929   002D14  EFA7  F016         	goto	l2683
  6930   002D18                     u2290:
  6931   002D18  EE20 F00A          	lfsr	2,10
  6932   002D1C  5003               	movf	fputc@fp^0,w,c
  6933   002D1E  26D9               	addwf	fsr2l,f,c
  6934   002D20  5004               	movf	(fputc@fp+1)^0,w,c
  6935   002D22  22DA               	addwfc	fsr2h,f,c
  6936   002D24  EE10 F003          	lfsr	1,3
  6937   002D28  5003               	movf	fputc@fp^0,w,c
  6938   002D2A  26E1               	addwf	fsr1l,f,c
  6939   002D2C  5004               	movf	(fputc@fp+1)^0,w,c
  6940   002D2E  22E2               	addwfc	fsr1h,f,c
  6941   002D30  50DE               	movf	postinc2,w,c
  6942   002D32  5CE6               	subwf	postinc1,w,c
  6943   002D34  50E6               	movf	postinc1,w,c
  6944   002D36  0A80               	xorlw	128
  6945   002D38  6E09               	movwf	(??_fputc+4)^0,c
  6946   002D3A  50DE               	movf	postinc2,w,c
  6947   002D3C  0A80               	xorlw	128
  6948   002D3E  5809               	subwfb	(??_fputc+4)^0,w,c
  6949   002D40  B0D8               	btfsc	status,0,c
  6950   002D42  EFA5  F016         	goto	u2301
  6951   002D46  EFA7  F016         	goto	u2300
  6952   002D4A                     u2301:
  6953   002D4A  EFCA  F016         	goto	l1121
  6954   002D4E                     u2300:
  6955   002D4E                     l2683:
  6956   002D4E  EE20 F003          	lfsr	2,3
  6957   002D52  5003               	movf	fputc@fp^0,w,c
  6958   002D54  26D9               	addwf	fsr2l,f,c
  6959   002D56  5004               	movf	(fputc@fp+1)^0,w,c
  6960   002D58  22DA               	addwfc	fsr2h,f,c
  6961   002D5A  CFDE F005          	movff	postinc2,??_fputc
  6962   002D5E  CFDD F006          	movff	postdec2,??_fputc+1
  6963   002D62  C003  FFD9         	movff	fputc@fp,fsr2l
  6964   002D66  C004  FFDA         	movff	fputc@fp+1,fsr2h
  6965   002D6A  CFDE F007          	movff	postinc2,??_fputc+2
  6966   002D6E  CFDD F008          	movff	postdec2,??_fputc+3
  6967   002D72  5005               	movf	??_fputc^0,w,c
  6968   002D74  2407               	addwf	(??_fputc+2)^0,w,c
  6969   002D76  6ED9               	movwf	fsr2l,c
  6970   002D78  5006               	movf	(??_fputc+1)^0,w,c
  6971   002D7A  2008               	addwfc	(??_fputc+3)^0,w,c
  6972   002D7C  6EDA               	movwf	fsr2h,c
  6973   002D7E  C001  FFDF         	movff	fputc@c,indf2
  6974   002D82  EE20 F003          	lfsr	2,3
  6975   002D86  5003               	movf	fputc@fp^0,w,c
  6976   002D88  26D9               	addwf	fsr2l,f,c
  6977   002D8A  5004               	movf	(fputc@fp+1)^0,w,c
  6978   002D8C  22DA               	addwfc	fsr2h,f,c
  6979   002D8E  2ADE               	incf	postinc2,f,c
  6980   002D90  0E00               	movlw	0
  6981   002D92  22DD               	addwfc	postdec2,f,c
  6982   002D94                     l1121:
  6983   002D94  0012               	return		;funcret
  6984   002D96                     __end_of_fputc:
  6985                           	callstack 0
  6986                           
  6987 ;; *************** function _putch *****************
  6988 ;; Defined at:
  6989 ;;		line 7 in file "C:\Program Files\Microchip\xc8\v2.41\pic\sources\c99\common\putch.c"
  6990 ;; Parameters:    Size  Location     Type
  6991 ;;  c               1    wreg     unsigned char 
  6992 ;; Auto vars:     Size  Location     Type
  6993 ;;  c               1    0[COMRAM] unsigned char 
  6994 ;; Return value:  Size  Location     Type
  6995 ;;                  1    wreg      void 
  6996 ;; Registers used:
  6997 ;;		wreg
  6998 ;; Tracked objects:
  6999 ;;		On entry : 0/0
  7000 ;;		On exit  : 0/0
  7001 ;;		Unchanged: 0/0
  7002 ;; Data sizes:     COMRAM   BANK0   BANK1   BANK2   BANK3   BANK4   BANK5
  7003 ;;      Params:         0       0       0       0       0       0       0
  7004 ;;      Locals:         0       0       0       0       0       0       0
  7005 ;;      Temps:          0       0       0       0       0       0       0
  7006 ;;      Totals:         0       0       0       0       0       0       0
  7007 ;;Total ram usage:        0 bytes
  7008 ;; Hardware stack levels used: 1
  7009 ;; This function calls:
  7010 ;;		Nothing
  7011 ;; This function is called by:
  7012 ;;		_fputc
  7013 ;; This function uses a non-reentrant model
  7014 ;;
  7015                           
  7016                           	psect	text25
  7017   00358C                     __ptext25:
  7018                           	callstack 0
  7019   00358C                     _putch:
  7020                           	callstack 25
  7021   00358C  0012               	return		;funcret
  7022   00358E                     __end_of_putch:
  7023                           	callstack 0
  7024                           
  7025 ;; *************** function _abs *****************
  7026 ;; Defined at:
  7027 ;;		line 1 in file "C:\Program Files\Microchip\xc8\v2.41\pic\sources\c99\common\abs.c"
  7028 ;; Parameters:    Size  Location     Type
  7029 ;;  a               2    6[COMRAM] int 
  7030 ;; Auto vars:     Size  Location     Type
  7031 ;;		None
  7032 ;; Return value:  Size  Location     Type
  7033 ;;                  2    6[COMRAM] int 
  7034 ;; Registers used:
  7035 ;;		wreg, status,2, status,0
  7036 ;; Tracked objects:
  7037 ;;		On entry : 0/0
  7038 ;;		On exit  : 0/0
  7039 ;;		Unchanged: 0/0
  7040 ;; Data sizes:     COMRAM   BANK0   BANK1   BANK2   BANK3   BANK4   BANK5
  7041 ;;      Params:         2       0       0       0       0       0       0
  7042 ;;      Locals:         0       0       0       0       0       0       0
  7043 ;;      Temps:          2       0       0       0       0       0       0
  7044 ;;      Totals:         4       0       0       0       0       0       0
  7045 ;;Total ram usage:        4 bytes
  7046 ;; Hardware stack levels used: 1
  7047 ;; This function calls:
  7048 ;;		Nothing
  7049 ;; This function is called by:
  7050 ;;		_dtoa
  7051 ;; This function uses a non-reentrant model
  7052 ;;
  7053                           
  7054                           	psect	text26
  7055   0033CE                     __ptext26:
  7056                           	callstack 0
  7057   0033CE                     _abs:
  7058                           	callstack 26
  7059   0033CE  BE08               	btfsc	(abs@a+1)^0,7,c
  7060   0033D0  EFF4  F019         	goto	u3430
  7061   0033D4  5008               	movf	(abs@a+1)^0,w,c
  7062   0033D6  E106               	bnz	u3431
  7063   0033D8  0407               	decf	abs@a^0,w,c
  7064   0033DA  B0D8               	btfsc	status,0,c
  7065   0033DC  EFF2  F019         	goto	u3431
  7066   0033E0  EFF4  F019         	goto	u3430
  7067   0033E4                     u3431:
  7068   0033E4  EF02  F01A         	goto	l1080
  7069   0033E8                     u3430:
  7070   0033E8  C007  F009         	movff	abs@a,??_abs
  7071   0033EC  C008  F00A         	movff	abs@a+1,??_abs+1
  7072   0033F0  1E09               	comf	??_abs^0,f,c
  7073   0033F2  1E0A               	comf	(??_abs+1)^0,f,c
  7074   0033F4  4A09               	infsnz	??_abs^0,f,c
  7075   0033F6  2A0A               	incf	(??_abs+1)^0,f,c
  7076   0033F8  C009  F007         	movff	??_abs,?_abs
  7077   0033FC  C00A  F008         	movff	??_abs+1,?_abs+1
  7078   003400  EF06  F01A         	goto	l1083
  7079   003404                     l1080:
  7080   003404  C007  F007         	movff	abs@a,?_abs
  7081   003408  C008  F008         	movff	abs@a+1,?_abs+1
  7082   00340C                     l1083:
  7083   00340C  0012               	return		;funcret
  7084   00340E                     __end_of_abs:
  7085                           	callstack 0
  7086                           
  7087 ;; *************** function ___awmod *****************
  7088 ;; Defined at:
  7089 ;;		line 7 in file "C:\Program Files\Microchip\xc8\v2.41\pic\sources\c99\common\awmod.c"
  7090 ;; Parameters:    Size  Location     Type
  7091 ;;  dividend        2    0[COMRAM] int 
  7092 ;;  divisor         2    2[COMRAM] int 
  7093 ;; Auto vars:     Size  Location     Type
  7094 ;;  sign            1    5[COMRAM] unsigned char 
  7095 ;;  counter         1    4[COMRAM] unsigned char 
  7096 ;; Return value:  Size  Location     Type
  7097 ;;                  2    0[COMRAM] int 
  7098 ;; Registers used:
  7099 ;;		wreg, status,2, status,0
  7100 ;; Tracked objects:
  7101 ;;		On entry : 0/0
  7102 ;;		On exit  : 0/0
  7103 ;;		Unchanged: 0/0
  7104 ;; Data sizes:     COMRAM   BANK0   BANK1   BANK2   BANK3   BANK4   BANK5
  7105 ;;      Params:         4       0       0       0       0       0       0
  7106 ;;      Locals:         2       0       0       0       0       0       0
  7107 ;;      Temps:          0       0       0       0       0       0       0
  7108 ;;      Totals:         6       0       0       0       0       0       0
  7109 ;;Total ram usage:        6 bytes
  7110 ;; Hardware stack levels used: 1
  7111 ;; This function calls:
  7112 ;;		Nothing
  7113 ;; This function is called by:
  7114 ;;		_dtoa
  7115 ;; This function uses a non-reentrant model
  7116 ;;
  7117                           
  7118                           	psect	text27
  7119   002E5A                     __ptext27:
  7120                           	callstack 0
  7121   002E5A                     ___awmod:
  7122                           	callstack 26
  7123   002E5A  0E00               	movlw	0
  7124   002E5C  6E06               	movwf	___awmod@sign^0,c
  7125   002E5E  BE02               	btfsc	(___awmod@dividend+1)^0,7,c
  7126   002E60  EF36  F017         	goto	u3190
  7127   002E64  EF34  F017         	goto	u3191
  7128   002E68                     u3191:
  7129   002E68  EF3C  F017         	goto	l3223
  7130   002E6C                     u3190:
  7131   002E6C  6C01               	negf	___awmod@dividend^0,c
  7132   002E6E  1E02               	comf	(___awmod@dividend+1)^0,f,c
  7133   002E70  B0D8               	btfsc	status,0,c
  7134   002E72  2A02               	incf	(___awmod@dividend+1)^0,f,c
  7135   002E74  0E01               	movlw	1
  7136   002E76  6E06               	movwf	___awmod@sign^0,c
  7137   002E78                     l3223:
  7138   002E78  BE04               	btfsc	(___awmod@divisor+1)^0,7,c
  7139   002E7A  EF43  F017         	goto	u3200
  7140   002E7E  EF41  F017         	goto	u3201
  7141   002E82                     u3201:
  7142   002E82  EF47  F017         	goto	l3227
  7143   002E86                     u3200:
  7144   002E86  6C03               	negf	___awmod@divisor^0,c
  7145   002E88  1E04               	comf	(___awmod@divisor+1)^0,f,c
  7146   002E8A  B0D8               	btfsc	status,0,c
  7147   002E8C  2A04               	incf	(___awmod@divisor+1)^0,f,c
  7148   002E8E                     l3227:
  7149   002E8E  5003               	movf	___awmod@divisor^0,w,c
  7150   002E90  1004               	iorwf	(___awmod@divisor+1)^0,w,c
  7151   002E92  B4D8               	btfsc	status,2,c
  7152   002E94  EF4E  F017         	goto	u3211
  7153   002E98  EF50  F017         	goto	u3210
  7154   002E9C                     u3211:
  7155   002E9C  EF74  F017         	goto	l3243
  7156   002EA0                     u3210:
  7157   002EA0  0E01               	movlw	1
  7158   002EA2  6E05               	movwf	___awmod@counter^0,c
  7159   002EA4  EF58  F017         	goto	l3233
  7160   002EA8                     l3231:
  7161   002EA8  90D8               	bcf	status,0,c
  7162   002EAA  3603               	rlcf	___awmod@divisor^0,f,c
  7163   002EAC  3604               	rlcf	(___awmod@divisor+1)^0,f,c
  7164   002EAE  2A05               	incf	___awmod@counter^0,f,c
  7165   002EB0                     l3233:
  7166   002EB0  AE04               	btfss	(___awmod@divisor+1)^0,7,c
  7167   002EB2  EF5D  F017         	goto	u3221
  7168   002EB6  EF5F  F017         	goto	u3220
  7169   002EBA                     u3221:
  7170   002EBA  EF54  F017         	goto	l3231
  7171   002EBE                     u3220:
  7172   002EBE                     l3235:
  7173   002EBE  5003               	movf	___awmod@divisor^0,w,c
  7174   002EC0  5C01               	subwf	___awmod@dividend^0,w,c
  7175   002EC2  5004               	movf	(___awmod@divisor+1)^0,w,c
  7176   002EC4  5802               	subwfb	(___awmod@dividend+1)^0,w,c
  7177   002EC6  A0D8               	btfss	status,0,c
  7178   002EC8  EF68  F017         	goto	u3231
  7179   002ECC  EF6A  F017         	goto	u3230
  7180   002ED0                     u3231:
  7181   002ED0  EF6E  F017         	goto	l3239
  7182   002ED4                     u3230:
  7183   002ED4  5003               	movf	___awmod@divisor^0,w,c
  7184   002ED6  5E01               	subwf	___awmod@dividend^0,f,c
  7185   002ED8  5004               	movf	(___awmod@divisor+1)^0,w,c
  7186   002EDA  5A02               	subwfb	(___awmod@dividend+1)^0,f,c
  7187   002EDC                     l3239:
  7188   002EDC  90D8               	bcf	status,0,c
  7189   002EDE  3204               	rrcf	(___awmod@divisor+1)^0,f,c
  7190   002EE0  3203               	rrcf	___awmod@divisor^0,f,c
  7191   002EE2  2E05               	decfsz	___awmod@counter^0,f,c
  7192   002EE4  EF5F  F017         	goto	l3235
  7193   002EE8                     l3243:
  7194   002EE8  5006               	movf	___awmod@sign^0,w,c
  7195   002EEA  B4D8               	btfsc	status,2,c
  7196   002EEC  EF7A  F017         	goto	u3241
  7197   002EF0  EF7C  F017         	goto	u3240
  7198   002EF4                     u3241:
  7199   002EF4  EF80  F017         	goto	l3247
  7200   002EF8                     u3240:
  7201   002EF8  6C01               	negf	___awmod@dividend^0,c
  7202   002EFA  1E02               	comf	(___awmod@dividend+1)^0,f,c
  7203   002EFC  B0D8               	btfsc	status,0,c
  7204   002EFE  2A02               	incf	(___awmod@dividend+1)^0,f,c
  7205   002F00                     l3247:
  7206   002F00  C001  F001         	movff	___awmod@dividend,?___awmod
  7207   002F04  C002  F002         	movff	___awmod@dividend+1,?___awmod+1
  7208   002F08  0012               	return		;funcret
  7209   002F0A                     __end_of___awmod:
  7210                           	callstack 0
  7211                           
  7212 ;; *************** function ___awdiv *****************
  7213 ;; Defined at:
  7214 ;;		line 7 in file "C:\Program Files\Microchip\xc8\v2.41\pic\sources\c99\common\awdiv.c"
  7215 ;; Parameters:    Size  Location     Type
  7216 ;;  dividend        2    0[COMRAM] int 
  7217 ;;  divisor         2    2[COMRAM] int 
  7218 ;; Auto vars:     Size  Location     Type
  7219 ;;  quotient        2    6[COMRAM] int 
  7220 ;;  sign            1    5[COMRAM] unsigned char 
  7221 ;;  counter         1    4[COMRAM] unsigned char 
  7222 ;; Return value:  Size  Location     Type
  7223 ;;                  2    0[COMRAM] int 
  7224 ;; Registers used:
  7225 ;;		wreg, status,2, status,0
  7226 ;; Tracked objects:
  7227 ;;		On entry : 0/0
  7228 ;;		On exit  : 0/0
  7229 ;;		Unchanged: 0/0
  7230 ;; Data sizes:     COMRAM   BANK0   BANK1   BANK2   BANK3   BANK4   BANK5
  7231 ;;      Params:         4       0       0       0       0       0       0
  7232 ;;      Locals:         4       0       0       0       0       0       0
  7233 ;;      Temps:          0       0       0       0       0       0       0
  7234 ;;      Totals:         8       0       0       0       0       0       0
  7235 ;;Total ram usage:        8 bytes
  7236 ;; Hardware stack levels used: 1
  7237 ;; This function calls:
  7238 ;;		Nothing
  7239 ;; This function is called by:
  7240 ;;		_dtoa
  7241 ;; This function uses a non-reentrant model
  7242 ;;
  7243                           
  7244                           	psect	text28
  7245   002D96                     __ptext28:
  7246                           	callstack 0
  7247   002D96                     ___awdiv:
  7248                           	callstack 26
  7249   002D96  0E00               	movlw	0
  7250   002D98  6E06               	movwf	___awdiv@sign^0,c
  7251   002D9A  BE04               	btfsc	(___awdiv@divisor+1)^0,7,c
  7252   002D9C  EFD4  F016         	goto	u3130
  7253   002DA0  EFD2  F016         	goto	u3131
  7254   002DA4                     u3131:
  7255   002DA4  EFDA  F016         	goto	l3179
  7256   002DA8                     u3130:
  7257   002DA8  6C03               	negf	___awdiv@divisor^0,c
  7258   002DAA  1E04               	comf	(___awdiv@divisor+1)^0,f,c
  7259   002DAC  B0D8               	btfsc	status,0,c
  7260   002DAE  2A04               	incf	(___awdiv@divisor+1)^0,f,c
  7261   002DB0  0E01               	movlw	1
  7262   002DB2  6E06               	movwf	___awdiv@sign^0,c
  7263   002DB4                     l3179:
  7264   002DB4  BE02               	btfsc	(___awdiv@dividend+1)^0,7,c
  7265   002DB6  EFE1  F016         	goto	u3140
  7266   002DBA  EFDF  F016         	goto	u3141
  7267   002DBE                     u3141:
  7268   002DBE  EFE7  F016         	goto	l3185
  7269   002DC2                     u3140:
  7270   002DC2  6C01               	negf	___awdiv@dividend^0,c
  7271   002DC4  1E02               	comf	(___awdiv@dividend+1)^0,f,c
  7272   002DC6  B0D8               	btfsc	status,0,c
  7273   002DC8  2A02               	incf	(___awdiv@dividend+1)^0,f,c
  7274   002DCA  0E01               	movlw	1
  7275   002DCC  1A06               	xorwf	___awdiv@sign^0,f,c
  7276   002DCE                     l3185:
  7277   002DCE  0E00               	movlw	0
  7278   002DD0  6E08               	movwf	(___awdiv@quotient+1)^0,c
  7279   002DD2  0E00               	movlw	0
  7280   002DD4  6E07               	movwf	___awdiv@quotient^0,c
  7281   002DD6  5003               	movf	___awdiv@divisor^0,w,c
  7282   002DD8  1004               	iorwf	(___awdiv@divisor+1)^0,w,c
  7283   002DDA  B4D8               	btfsc	status,2,c
  7284   002DDC  EFF2  F016         	goto	u3151
  7285   002DE0  EFF4  F016         	goto	u3150
  7286   002DE4                     u3151:
  7287   002DE4  EF1C  F017         	goto	l3207
  7288   002DE8                     u3150:
  7289   002DE8  0E01               	movlw	1
  7290   002DEA  6E05               	movwf	___awdiv@counter^0,c
  7291   002DEC  EFFC  F016         	goto	l3193
  7292   002DF0                     l3191:
  7293   002DF0  90D8               	bcf	status,0,c
  7294   002DF2  3603               	rlcf	___awdiv@divisor^0,f,c
  7295   002DF4  3604               	rlcf	(___awdiv@divisor+1)^0,f,c
  7296   002DF6  2A05               	incf	___awdiv@counter^0,f,c
  7297   002DF8                     l3193:
  7298   002DF8  AE04               	btfss	(___awdiv@divisor+1)^0,7,c
  7299   002DFA  EF01  F017         	goto	u3161
  7300   002DFE  EF03  F017         	goto	u3160
  7301   002E02                     u3161:
  7302   002E02  EFF8  F016         	goto	l3191
  7303   002E06                     u3160:
  7304   002E06                     l3195:
  7305   002E06  90D8               	bcf	status,0,c
  7306   002E08  3607               	rlcf	___awdiv@quotient^0,f,c
  7307   002E0A  3608               	rlcf	(___awdiv@quotient+1)^0,f,c
  7308   002E0C  5003               	movf	___awdiv@divisor^0,w,c
  7309   002E0E  5C01               	subwf	___awdiv@dividend^0,w,c
  7310   002E10  5004               	movf	(___awdiv@divisor+1)^0,w,c
  7311   002E12  5802               	subwfb	(___awdiv@dividend+1)^0,w,c
  7312   002E14  A0D8               	btfss	status,0,c
  7313   002E16  EF0F  F017         	goto	u3171
  7314   002E1A  EF11  F017         	goto	u3170
  7315   002E1E                     u3171:
  7316   002E1E  EF16  F017         	goto	l3203
  7317   002E22                     u3170:
  7318   002E22  5003               	movf	___awdiv@divisor^0,w,c
  7319   002E24  5E01               	subwf	___awdiv@dividend^0,f,c
  7320   002E26  5004               	movf	(___awdiv@divisor+1)^0,w,c
  7321   002E28  5A02               	subwfb	(___awdiv@dividend+1)^0,f,c
  7322   002E2A  8007               	bsf	___awdiv@quotient^0,0,c
  7323   002E2C                     l3203:
  7324   002E2C  90D8               	bcf	status,0,c
  7325   002E2E  3204               	rrcf	(___awdiv@divisor+1)^0,f,c
  7326   002E30  3203               	rrcf	___awdiv@divisor^0,f,c
  7327   002E32  2E05               	decfsz	___awdiv@counter^0,f,c
  7328   002E34  EF03  F017         	goto	l3195
  7329   002E38                     l3207:
  7330   002E38  5006               	movf	___awdiv@sign^0,w,c
  7331   002E3A  B4D8               	btfsc	status,2,c
  7332   002E3C  EF22  F017         	goto	u3181
  7333   002E40  EF24  F017         	goto	u3180
  7334   002E44                     u3181:
  7335   002E44  EF28  F017         	goto	l3211
  7336   002E48                     u3180:
  7337   002E48  6C07               	negf	___awdiv@quotient^0,c
  7338   002E4A  1E08               	comf	(___awdiv@quotient+1)^0,f,c
  7339   002E4C  B0D8               	btfsc	status,0,c
  7340   002E4E  2A08               	incf	(___awdiv@quotient+1)^0,f,c
  7341   002E50                     l3211:
  7342   002E50  C007  F001         	movff	___awdiv@quotient,?___awdiv
  7343   002E54  C008  F002         	movff	___awdiv@quotient+1,?___awdiv+1
  7344   002E58  0012               	return		;funcret
  7345   002E5A                     __end_of___awdiv:
  7346                           	callstack 0
  7347                           
  7348 ;; *************** function _map *****************
  7349 ;; Defined at:
  7350 ;;		line 43 in file "main.c"
  7351 ;; Parameters:    Size  Location     Type
  7352 ;;  x               4   26[COMRAM] long 
  7353 ;;  in_min          4   30[COMRAM] long 
  7354 ;;  in_max          4   34[COMRAM] long 
  7355 ;;  out_min         4   38[COMRAM] long 
  7356 ;;  out_max         4   42[COMRAM] long 
  7357 ;; Auto vars:     Size  Location     Type
  7358 ;;		None
  7359 ;; Return value:  Size  Location     Type
  7360 ;;                  4   26[COMRAM] long 
  7361 ;; Registers used:
  7362 ;;		wreg, status,2, status,0, cstack
  7363 ;; Tracked objects:
  7364 ;;		On entry : 0/0
  7365 ;;		On exit  : 0/0
  7366 ;;		Unchanged: 0/0
  7367 ;; Data sizes:     COMRAM   BANK0   BANK1   BANK2   BANK3   BANK4   BANK5
  7368 ;;      Params:        20       0       0       0       0       0       0
  7369 ;;      Locals:         0       0       0       0       0       0       0
  7370 ;;      Temps:          0       0       0       0       0       0       0
  7371 ;;      Totals:        20       0       0       0       0       0       0
  7372 ;;Total ram usage:       20 bytes
  7373 ;; Hardware stack levels used: 1
  7374 ;; Hardware stack levels required when called: 1
  7375 ;; This function calls:
  7376 ;;		___aldiv
  7377 ;;		___lmul
  7378 ;; This function is called by:
  7379 ;;		_main
  7380 ;; This function uses a non-reentrant model
  7381 ;;
  7382                           
  7383                           	psect	text29
  7384   00302E                     __ptext29:
  7385                           	callstack 0
  7386   00302E                     _map:
  7387                           	callstack 29
  7388   00302E                     
  7389                           ;main.c: 43:  long map(long x, long in_min, long in_max, long out_min, long out_max);mai
      +                          n.c: 44: {;main.c: 45:   return (x - in_min) * (out_max - out_min) / (in_max - in_min) +
      +                           out_min;
  7390   00302E  501F               	movf	map@in_min^0,w,c
  7391   003030  5C1B               	subwf	map@x^0,w,c
  7392   003032  6E01               	movwf	___lmul@multiplier^0,c
  7393   003034  5020               	movf	(map@in_min+1)^0,w,c
  7394   003036  581C               	subwfb	(map@x+1)^0,w,c
  7395   003038  6E02               	movwf	(___lmul@multiplier+1)^0,c
  7396   00303A  5021               	movf	(map@in_min+2)^0,w,c
  7397   00303C  581D               	subwfb	(map@x+2)^0,w,c
  7398   00303E  6E03               	movwf	(___lmul@multiplier+2)^0,c
  7399   003040  5022               	movf	(map@in_min+3)^0,w,c
  7400   003042  581E               	subwfb	(map@x+3)^0,w,c
  7401   003044  6E04               	movwf	(___lmul@multiplier+3)^0,c
  7402   003046  5027               	movf	map@out_min^0,w,c
  7403   003048  5C2B               	subwf	map@out_max^0,w,c
  7404   00304A  6E05               	movwf	___lmul@multiplicand^0,c
  7405   00304C  5028               	movf	(map@out_min+1)^0,w,c
  7406   00304E  582C               	subwfb	(map@out_max+1)^0,w,c
  7407   003050  6E06               	movwf	(___lmul@multiplicand+1)^0,c
  7408   003052  5029               	movf	(map@out_min+2)^0,w,c
  7409   003054  582D               	subwfb	(map@out_max+2)^0,w,c
  7410   003056  6E07               	movwf	(___lmul@multiplicand+2)^0,c
  7411   003058  502A               	movf	(map@out_min+3)^0,w,c
  7412   00305A  582E               	subwfb	(map@out_max+3)^0,w,c
  7413   00305C  6E08               	movwf	(___lmul@multiplicand+3)^0,c
  7414   00305E  EC54  F018         	call	___lmul	;wreg free
  7415   003062  C001  F00D         	movff	?___lmul,___aldiv@dividend
  7416   003066  C002  F00E         	movff	?___lmul+1,___aldiv@dividend+1
  7417   00306A  C003  F00F         	movff	?___lmul+2,___aldiv@dividend+2
  7418   00306E  C004  F010         	movff	?___lmul+3,___aldiv@dividend+3
  7419   003072  501F               	movf	map@in_min^0,w,c
  7420   003074  5C23               	subwf	map@in_max^0,w,c
  7421   003076  6E11               	movwf	___aldiv@divisor^0,c
  7422   003078  5020               	movf	(map@in_min+1)^0,w,c
  7423   00307A  5824               	subwfb	(map@in_max+1)^0,w,c
  7424   00307C  6E12               	movwf	(___aldiv@divisor+1)^0,c
  7425   00307E  5021               	movf	(map@in_min+2)^0,w,c
  7426   003080  5825               	subwfb	(map@in_max+2)^0,w,c
  7427   003082  6E13               	movwf	(___aldiv@divisor+2)^0,c
  7428   003084  5022               	movf	(map@in_min+3)^0,w,c
  7429   003086  5826               	subwfb	(map@in_max+3)^0,w,c
  7430   003088  6E14               	movwf	(___aldiv@divisor+3)^0,c
  7431   00308A  EC72  F013         	call	___aldiv	;wreg free
  7432   00308E  5027               	movf	map@out_min^0,w,c
  7433   003090  240D               	addwf	?___aldiv^0,w,c
  7434   003092  6E1B               	movwf	?_map^0,c
  7435   003094  5028               	movf	(map@out_min+1)^0,w,c
  7436   003096  200E               	addwfc	(?___aldiv+1)^0,w,c
  7437   003098  6E1C               	movwf	(?_map+1)^0,c
  7438   00309A  5029               	movf	(map@out_min+2)^0,w,c
  7439   00309C  200F               	addwfc	(?___aldiv+2)^0,w,c
  7440   00309E  6E1D               	movwf	(?_map+2)^0,c
  7441   0030A0  502A               	movf	(map@out_min+3)^0,w,c
  7442   0030A2  2010               	addwfc	(?___aldiv+3)^0,w,c
  7443   0030A4  6E1E               	movwf	(?_map+3)^0,c
  7444   0030A6  0012               	return		;funcret
  7445   0030A8                     __end_of_map:
  7446                           	callstack 0
  7447                           
  7448 ;; *************** function ___lmul *****************
  7449 ;; Defined at:
  7450 ;;		line 15 in file "C:\Program Files\Microchip\xc8\v2.41\pic\sources\c99\common\Umul32.c"
  7451 ;; Parameters:    Size  Location     Type
  7452 ;;  multiplier      4    0[COMRAM] unsigned long 
  7453 ;;  multiplicand    4    4[COMRAM] unsigned long 
  7454 ;; Auto vars:     Size  Location     Type
  7455 ;;  product         4    8[COMRAM] unsigned long 
  7456 ;; Return value:  Size  Location     Type
  7457 ;;                  4    0[COMRAM] unsigned long 
  7458 ;; Registers used:
  7459 ;;		wreg, status,2, status,0
  7460 ;; Tracked objects:
  7461 ;;		On entry : 0/0
  7462 ;;		On exit  : 0/0
  7463 ;;		Unchanged: 0/0
  7464 ;; Data sizes:     COMRAM   BANK0   BANK1   BANK2   BANK3   BANK4   BANK5
  7465 ;;      Params:         8       0       0       0       0       0       0
  7466 ;;      Locals:         4       0       0       0       0       0       0
  7467 ;;      Temps:          0       0       0       0       0       0       0
  7468 ;;      Totals:        12       0       0       0       0       0       0
  7469 ;;Total ram usage:       12 bytes
  7470 ;; Hardware stack levels used: 1
  7471 ;; This function calls:
  7472 ;;		Nothing
  7473 ;; This function is called by:
  7474 ;;		_map
  7475 ;; This function uses a non-reentrant model
  7476 ;;
  7477                           
  7478                           	psect	text30
  7479   0030A8                     __ptext30:
  7480                           	callstack 0
  7481   0030A8                     ___lmul:
  7482                           	callstack 29
  7483   0030A8  0E00               	movlw	0
  7484   0030AA  6E09               	movwf	___lmul@product^0,c
  7485   0030AC  0E00               	movlw	0
  7486   0030AE  6E0A               	movwf	(___lmul@product+1)^0,c
  7487   0030B0  0E00               	movlw	0
  7488   0030B2  6E0B               	movwf	(___lmul@product+2)^0,c
  7489   0030B4  0E00               	movlw	0
  7490   0030B6  6E0C               	movwf	(___lmul@product+3)^0,c
  7491   0030B8                     l3893:
  7492   0030B8  A001               	btfss	___lmul@multiplier^0,0,c
  7493   0030BA  EF61  F018         	goto	u4281
  7494   0030BE  EF63  F018         	goto	u4280
  7495   0030C2                     u4281:
  7496   0030C2  EF6B  F018         	goto	l3897
  7497   0030C6                     u4280:
  7498   0030C6  5005               	movf	___lmul@multiplicand^0,w,c
  7499   0030C8  2609               	addwf	___lmul@product^0,f,c
  7500   0030CA  5006               	movf	(___lmul@multiplicand+1)^0,w,c
  7501   0030CC  220A               	addwfc	(___lmul@product+1)^0,f,c
  7502   0030CE  5007               	movf	(___lmul@multiplicand+2)^0,w,c
  7503   0030D0  220B               	addwfc	(___lmul@product+2)^0,f,c
  7504   0030D2  5008               	movf	(___lmul@multiplicand+3)^0,w,c
  7505   0030D4  220C               	addwfc	(___lmul@product+3)^0,f,c
  7506   0030D6                     l3897:
  7507   0030D6  90D8               	bcf	status,0,c
  7508   0030D8  3605               	rlcf	___lmul@multiplicand^0,f,c
  7509   0030DA  3606               	rlcf	(___lmul@multiplicand+1)^0,f,c
  7510   0030DC  3607               	rlcf	(___lmul@multiplicand+2)^0,f,c
  7511   0030DE  3608               	rlcf	(___lmul@multiplicand+3)^0,f,c
  7512   0030E0  90D8               	bcf	status,0,c
  7513   0030E2  3204               	rrcf	(___lmul@multiplier+3)^0,f,c
  7514   0030E4  3203               	rrcf	(___lmul@multiplier+2)^0,f,c
  7515   0030E6  3202               	rrcf	(___lmul@multiplier+1)^0,f,c
  7516   0030E8  3201               	rrcf	___lmul@multiplier^0,f,c
  7517   0030EA  5001               	movf	___lmul@multiplier^0,w,c
  7518   0030EC  1002               	iorwf	(___lmul@multiplier+1)^0,w,c
  7519   0030EE  1003               	iorwf	(___lmul@multiplier+2)^0,w,c
  7520   0030F0  1004               	iorwf	(___lmul@multiplier+3)^0,w,c
  7521   0030F2  A4D8               	btfss	status,2,c
  7522   0030F4  EF7E  F018         	goto	u4291
  7523   0030F8  EF80  F018         	goto	u4290
  7524   0030FC                     u4291:
  7525   0030FC  EF5C  F018         	goto	l3893
  7526   003100                     u4290:
  7527   003100  C009  F001         	movff	___lmul@product,?___lmul
  7528   003104  C00A  F002         	movff	___lmul@product+1,?___lmul+1
  7529   003108  C00B  F003         	movff	___lmul@product+2,?___lmul+2
  7530   00310C  C00C  F004         	movff	___lmul@product+3,?___lmul+3
  7531   003110  0012               	return		;funcret
  7532   003112                     __end_of___lmul:
  7533                           	callstack 0
  7534                           
  7535 ;; *************** function ___aldiv *****************
  7536 ;; Defined at:
  7537 ;;		line 7 in file "C:\Program Files\Microchip\xc8\v2.41\pic\sources\c99\common\aldiv.c"
  7538 ;; Parameters:    Size  Location     Type
  7539 ;;  dividend        4   12[COMRAM] long 
  7540 ;;  divisor         4   16[COMRAM] long 
  7541 ;; Auto vars:     Size  Location     Type
  7542 ;;  quotient        4   22[COMRAM] long 
  7543 ;;  sign            1   21[COMRAM] unsigned char 
  7544 ;;  counter         1   20[COMRAM] unsigned char 
  7545 ;; Return value:  Size  Location     Type
  7546 ;;                  4   12[COMRAM] long 
  7547 ;; Registers used:
  7548 ;;		wreg, status,2, status,0
  7549 ;; Tracked objects:
  7550 ;;		On entry : 0/0
  7551 ;;		On exit  : 0/0
  7552 ;;		Unchanged: 0/0
  7553 ;; Data sizes:     COMRAM   BANK0   BANK1   BANK2   BANK3   BANK4   BANK5
  7554 ;;      Params:         8       0       0       0       0       0       0
  7555 ;;      Locals:         6       0       0       0       0       0       0
  7556 ;;      Temps:          0       0       0       0       0       0       0
  7557 ;;      Totals:        14       0       0       0       0       0       0
  7558 ;;Total ram usage:       14 bytes
  7559 ;; Hardware stack levels used: 1
  7560 ;; This function calls:
  7561 ;;		Nothing
  7562 ;; This function is called by:
  7563 ;;		_map
  7564 ;; This function uses a non-reentrant model
  7565 ;;
  7566                           
  7567                           	psect	text31
  7568   0026E4                     __ptext31:
  7569                           	callstack 0
  7570   0026E4                     ___aldiv:
  7571                           	callstack 29
  7572   0026E4  0E00               	movlw	0
  7573   0026E6  6E16               	movwf	___aldiv@sign^0,c
  7574   0026E8  BE14               	btfsc	(___aldiv@divisor+3)^0,7,c
  7575   0026EA  EF7B  F013         	goto	u4300
  7576   0026EE  EF79  F013         	goto	u4301
  7577   0026F2                     u4301:
  7578   0026F2  EF85  F013         	goto	l3909
  7579   0026F6                     u4300:
  7580   0026F6  1E14               	comf	(___aldiv@divisor+3)^0,f,c
  7581   0026F8  1E13               	comf	(___aldiv@divisor+2)^0,f,c
  7582   0026FA  1E12               	comf	(___aldiv@divisor+1)^0,f,c
  7583   0026FC  6C11               	negf	___aldiv@divisor^0,c
  7584   0026FE  0E00               	movlw	0
  7585   002700  2212               	addwfc	(___aldiv@divisor+1)^0,f,c
  7586   002702  2213               	addwfc	(___aldiv@divisor+2)^0,f,c
  7587   002704  2214               	addwfc	(___aldiv@divisor+3)^0,f,c
  7588   002706  0E01               	movlw	1
  7589   002708  6E16               	movwf	___aldiv@sign^0,c
  7590   00270A                     l3909:
  7591   00270A  BE10               	btfsc	(___aldiv@dividend+3)^0,7,c
  7592   00270C  EF8C  F013         	goto	u4310
  7593   002710  EF8A  F013         	goto	u4311
  7594   002714                     u4311:
  7595   002714  EF96  F013         	goto	l3915
  7596   002718                     u4310:
  7597   002718  1E10               	comf	(___aldiv@dividend+3)^0,f,c
  7598   00271A  1E0F               	comf	(___aldiv@dividend+2)^0,f,c
  7599   00271C  1E0E               	comf	(___aldiv@dividend+1)^0,f,c
  7600   00271E  6C0D               	negf	___aldiv@dividend^0,c
  7601   002720  0E00               	movlw	0
  7602   002722  220E               	addwfc	(___aldiv@dividend+1)^0,f,c
  7603   002724  220F               	addwfc	(___aldiv@dividend+2)^0,f,c
  7604   002726  2210               	addwfc	(___aldiv@dividend+3)^0,f,c
  7605   002728  0E01               	movlw	1
  7606   00272A  1A16               	xorwf	___aldiv@sign^0,f,c
  7607   00272C                     l3915:
  7608   00272C  0E00               	movlw	0
  7609   00272E  6E17               	movwf	___aldiv@quotient^0,c
  7610   002730  0E00               	movlw	0
  7611   002732  6E18               	movwf	(___aldiv@quotient+1)^0,c
  7612   002734  0E00               	movlw	0
  7613   002736  6E19               	movwf	(___aldiv@quotient+2)^0,c
  7614   002738  0E00               	movlw	0
  7615   00273A  6E1A               	movwf	(___aldiv@quotient+3)^0,c
  7616   00273C  5011               	movf	___aldiv@divisor^0,w,c
  7617   00273E  1012               	iorwf	(___aldiv@divisor+1)^0,w,c
  7618   002740  1013               	iorwf	(___aldiv@divisor+2)^0,w,c
  7619   002742  1014               	iorwf	(___aldiv@divisor+3)^0,w,c
  7620   002744  B4D8               	btfsc	status,2,c
  7621   002746  EFA7  F013         	goto	u4321
  7622   00274A  EFA9  F013         	goto	u4320
  7623   00274E                     u4321:
  7624   00274E  EFDF  F013         	goto	l3937
  7625   002752                     u4320:
  7626   002752  0E01               	movlw	1
  7627   002754  6E15               	movwf	___aldiv@counter^0,c
  7628   002756  EFB3  F013         	goto	l3923
  7629   00275A                     l3921:
  7630   00275A  90D8               	bcf	status,0,c
  7631   00275C  3611               	rlcf	___aldiv@divisor^0,f,c
  7632   00275E  3612               	rlcf	(___aldiv@divisor+1)^0,f,c
  7633   002760  3613               	rlcf	(___aldiv@divisor+2)^0,f,c
  7634   002762  3614               	rlcf	(___aldiv@divisor+3)^0,f,c
  7635   002764  2A15               	incf	___aldiv@counter^0,f,c
  7636   002766                     l3923:
  7637   002766  AE14               	btfss	(___aldiv@divisor+3)^0,7,c
  7638   002768  EFB8  F013         	goto	u4331
  7639   00276C  EFBA  F013         	goto	u4330
  7640   002770                     u4331:
  7641   002770  EFAD  F013         	goto	l3921
  7642   002774                     u4330:
  7643   002774                     l3925:
  7644   002774  90D8               	bcf	status,0,c
  7645   002776  3617               	rlcf	___aldiv@quotient^0,f,c
  7646   002778  3618               	rlcf	(___aldiv@quotient+1)^0,f,c
  7647   00277A  3619               	rlcf	(___aldiv@quotient+2)^0,f,c
  7648   00277C  361A               	rlcf	(___aldiv@quotient+3)^0,f,c
  7649   00277E  5011               	movf	___aldiv@divisor^0,w,c
  7650   002780  5C0D               	subwf	___aldiv@dividend^0,w,c
  7651   002782  5012               	movf	(___aldiv@divisor+1)^0,w,c
  7652   002784  580E               	subwfb	(___aldiv@dividend+1)^0,w,c
  7653   002786  5013               	movf	(___aldiv@divisor+2)^0,w,c
  7654   002788  580F               	subwfb	(___aldiv@dividend+2)^0,w,c
  7655   00278A  5014               	movf	(___aldiv@divisor+3)^0,w,c
  7656   00278C  5810               	subwfb	(___aldiv@dividend+3)^0,w,c
  7657   00278E  A0D8               	btfss	status,0,c
  7658   002790  EFCC  F013         	goto	u4341
  7659   002794  EFCE  F013         	goto	u4340
  7660   002798                     u4341:
  7661   002798  EFD7  F013         	goto	l3933
  7662   00279C                     u4340:
  7663   00279C  5011               	movf	___aldiv@divisor^0,w,c
  7664   00279E  5E0D               	subwf	___aldiv@dividend^0,f,c
  7665   0027A0  5012               	movf	(___aldiv@divisor+1)^0,w,c
  7666   0027A2  5A0E               	subwfb	(___aldiv@dividend+1)^0,f,c
  7667   0027A4  5013               	movf	(___aldiv@divisor+2)^0,w,c
  7668   0027A6  5A0F               	subwfb	(___aldiv@dividend+2)^0,f,c
  7669   0027A8  5014               	movf	(___aldiv@divisor+3)^0,w,c
  7670   0027AA  5A10               	subwfb	(___aldiv@dividend+3)^0,f,c
  7671   0027AC  8017               	bsf	___aldiv@quotient^0,0,c
  7672   0027AE                     l3933:
  7673   0027AE  90D8               	bcf	status,0,c
  7674   0027B0  3214               	rrcf	(___aldiv@divisor+3)^0,f,c
  7675   0027B2  3213               	rrcf	(___aldiv@divisor+2)^0,f,c
  7676   0027B4  3212               	rrcf	(___aldiv@divisor+1)^0,f,c
  7677   0027B6  3211               	rrcf	___aldiv@divisor^0,f,c
  7678   0027B8  2E15               	decfsz	___aldiv@counter^0,f,c
  7679   0027BA  EFBA  F013         	goto	l3925
  7680   0027BE                     l3937:
  7681   0027BE  5016               	movf	___aldiv@sign^0,w,c
  7682   0027C0  B4D8               	btfsc	status,2,c
  7683   0027C2  EFE5  F013         	goto	u4351
  7684   0027C6  EFE7  F013         	goto	u4350
  7685   0027CA                     u4351:
  7686   0027CA  EFEF  F013         	goto	l3941
  7687   0027CE                     u4350:
  7688   0027CE  1E1A               	comf	(___aldiv@quotient+3)^0,f,c
  7689   0027D0  1E19               	comf	(___aldiv@quotient+2)^0,f,c
  7690   0027D2  1E18               	comf	(___aldiv@quotient+1)^0,f,c
  7691   0027D4  6C17               	negf	___aldiv@quotient^0,c
  7692   0027D6  0E00               	movlw	0
  7693   0027D8  2218               	addwfc	(___aldiv@quotient+1)^0,f,c
  7694   0027DA  2219               	addwfc	(___aldiv@quotient+2)^0,f,c
  7695   0027DC  221A               	addwfc	(___aldiv@quotient+3)^0,f,c
  7696   0027DE                     l3941:
  7697   0027DE  C017  F00D         	movff	___aldiv@quotient,?___aldiv
  7698   0027E2  C018  F00E         	movff	___aldiv@quotient+1,?___aldiv+1
  7699   0027E6  C019  F00F         	movff	___aldiv@quotient+2,?___aldiv+2
  7700   0027EA  C01A  F010         	movff	___aldiv@quotient+3,?___aldiv+3
  7701   0027EE  0012               	return		;funcret
  7702   0027F0                     __end_of___aldiv:
  7703                           	callstack 0
  7704                           
  7705 ;; *************** function ___xxtofl *****************
  7706 ;; Defined at:
  7707 ;;		line 10 in file "C:\Program Files\Microchip\xc8\v2.41\pic\sources\c99\common\xxtofl.c"
  7708 ;; Parameters:    Size  Location     Type
  7709 ;;  sign            1    wreg     unsigned char 
  7710 ;;  val             4   46[COMRAM] long 
  7711 ;; Auto vars:     Size  Location     Type
  7712 ;;  sign            1   54[COMRAM] unsigned char 
  7713 ;;  arg             4   56[COMRAM] unsigned long 
  7714 ;;  exp             1   55[COMRAM] unsigned char 
  7715 ;; Return value:  Size  Location     Type
  7716 ;;                  4   46[COMRAM] unsigned char 
  7717 ;; Registers used:
  7718 ;;		wreg, status,2, status,0
  7719 ;; Tracked objects:
  7720 ;;		On entry : 0/0
  7721 ;;		On exit  : 0/0
  7722 ;;		Unchanged: 0/0
  7723 ;; Data sizes:     COMRAM   BANK0   BANK1   BANK2   BANK3   BANK4   BANK5
  7724 ;;      Params:         4       0       0       0       0       0       0
  7725 ;;      Locals:         6       0       0       0       0       0       0
  7726 ;;      Temps:          4       0       0       0       0       0       0
  7727 ;;      Totals:        14       0       0       0       0       0       0
  7728 ;;Total ram usage:       14 bytes
  7729 ;; Hardware stack levels used: 1
  7730 ;; This function calls:
  7731 ;;		Nothing
  7732 ;; This function is called by:
  7733 ;;		_main
  7734 ;; This function uses a non-reentrant model
  7735 ;;
  7736                           
  7737                           	psect	text32
  7738   002262                     __ptext32:
  7739                           	callstack 0
  7740   002262                     ___xxtofl:
  7741                           	callstack 30
  7742                           
  7743                           ;incstack = 0
  7744                           ;___xxtofl@sign stored from wreg
  7745   002262  6E37               	movwf	___xxtofl@sign^0,c
  7746   002264  5037               	movf	___xxtofl@sign^0,w,c
  7747   002266  B4D8               	btfsc	status,2,c
  7748   002268  EF38  F011         	goto	u4391
  7749   00226C  EF3A  F011         	goto	u4390
  7750   002270                     u4391:
  7751   002270  EF5C  F011         	goto	l877
  7752   002274                     u4390:
  7753   002274  BE32               	btfsc	(___xxtofl@val+3)^0,7,c
  7754   002276  EF41  F011         	goto	u4400
  7755   00227A  EF3F  F011         	goto	u4401
  7756   00227E                     u4401:
  7757   00227E  EF5C  F011         	goto	l877
  7758   002282                     u4400:
  7759   002282  C02F  F033         	movff	___xxtofl@val,??___xxtofl
  7760   002286  C030  F034         	movff	___xxtofl@val+1,??___xxtofl+1
  7761   00228A  C031  F035         	movff	___xxtofl@val+2,??___xxtofl+2
  7762   00228E  C032  F036         	movff	___xxtofl@val+3,??___xxtofl+3
  7763   002292  1E33               	comf	??___xxtofl^0,f,c
  7764   002294  1E34               	comf	(??___xxtofl+1)^0,f,c
  7765   002296  1E35               	comf	(??___xxtofl+2)^0,f,c
  7766   002298  1E36               	comf	(??___xxtofl+3)^0,f,c
  7767   00229A  2A33               	incf	??___xxtofl^0,f,c
  7768   00229C  0E00               	movlw	0
  7769   00229E  2234               	addwfc	(??___xxtofl+1)^0,f,c
  7770   0022A0  2235               	addwfc	(??___xxtofl+2)^0,f,c
  7771   0022A2  2236               	addwfc	(??___xxtofl+3)^0,f,c
  7772   0022A4  C033  F039         	movff	??___xxtofl,___xxtofl@arg
  7773   0022A8  C034  F03A         	movff	??___xxtofl+1,___xxtofl@arg+1
  7774   0022AC  C035  F03B         	movff	??___xxtofl+2,___xxtofl@arg+2
  7775   0022B0  C036  F03C         	movff	??___xxtofl+3,___xxtofl@arg+3
  7776   0022B4  EF64  F011         	goto	l3999
  7777   0022B8                     l877:
  7778   0022B8  C02F  F039         	movff	___xxtofl@val,___xxtofl@arg
  7779   0022BC  C030  F03A         	movff	___xxtofl@val+1,___xxtofl@arg+1
  7780   0022C0  C031  F03B         	movff	___xxtofl@val+2,___xxtofl@arg+2
  7781   0022C4  C032  F03C         	movff	___xxtofl@val+3,___xxtofl@arg+3
  7782   0022C8                     l3999:
  7783   0022C8  502F               	movf	___xxtofl@val^0,w,c
  7784   0022CA  1030               	iorwf	(___xxtofl@val+1)^0,w,c
  7785   0022CC  1031               	iorwf	(___xxtofl@val+2)^0,w,c
  7786   0022CE  1032               	iorwf	(___xxtofl@val+3)^0,w,c
  7787   0022D0  A4D8               	btfss	status,2,c
  7788   0022D2  EF6D  F011         	goto	u4411
  7789   0022D6  EF6F  F011         	goto	u4410
  7790   0022DA                     u4411:
  7791   0022DA  EF79  F011         	goto	l4005
  7792   0022DE                     u4410:
  7793   0022DE  0E00               	movlw	0
  7794   0022E0  6E2F               	movwf	?___xxtofl^0,c
  7795   0022E2  0E00               	movlw	0
  7796   0022E4  6E30               	movwf	(?___xxtofl+1)^0,c
  7797   0022E6  0E00               	movlw	0
  7798   0022E8  6E31               	movwf	(?___xxtofl+2)^0,c
  7799   0022EA  0E00               	movlw	0
  7800   0022EC  6E32               	movwf	(?___xxtofl+3)^0,c
  7801   0022EE  EF0A  F012         	goto	l880
  7802   0022F2                     l4005:
  7803   0022F2  0E96               	movlw	150
  7804   0022F4  6E38               	movwf	___xxtofl@exp^0,c
  7805   0022F6  EF83  F011         	goto	l4009
  7806   0022FA                     l4007:
  7807   0022FA  2A38               	incf	___xxtofl@exp^0,f,c
  7808   0022FC  90D8               	bcf	status,0,c
  7809   0022FE  323C               	rrcf	(___xxtofl@arg+3)^0,f,c
  7810   002300  323B               	rrcf	(___xxtofl@arg+2)^0,f,c
  7811   002302  323A               	rrcf	(___xxtofl@arg+1)^0,f,c
  7812   002304  3239               	rrcf	___xxtofl@arg^0,f,c
  7813   002306                     l4009:
  7814   002306  0E00               	movlw	0
  7815   002308  1439               	andwf	___xxtofl@arg^0,w,c
  7816   00230A  6E33               	movwf	??___xxtofl^0,c
  7817   00230C  0E00               	movlw	0
  7818   00230E  143A               	andwf	(___xxtofl@arg+1)^0,w,c
  7819   002310  6E34               	movwf	(??___xxtofl+1)^0,c
  7820   002312  0E00               	movlw	0
  7821   002314  143B               	andwf	(___xxtofl@arg+2)^0,w,c
  7822   002316  6E35               	movwf	(??___xxtofl+2)^0,c
  7823   002318  0EFE               	movlw	254
  7824   00231A  143C               	andwf	(___xxtofl@arg+3)^0,w,c
  7825   00231C  6E36               	movwf	(??___xxtofl+3)^0,c
  7826   00231E  5033               	movf	??___xxtofl^0,w,c
  7827   002320  1034               	iorwf	(??___xxtofl+1)^0,w,c
  7828   002322  1035               	iorwf	(??___xxtofl+2)^0,w,c
  7829   002324  1036               	iorwf	(??___xxtofl+3)^0,w,c
  7830   002326  A4D8               	btfss	status,2,c
  7831   002328  EF98  F011         	goto	u4421
  7832   00232C  EF9A  F011         	goto	u4420
  7833   002330                     u4421:
  7834   002330  EF7D  F011         	goto	l4007
  7835   002334                     u4420:
  7836   002334  EFA8  F011         	goto	l884
  7837   002338                     l4011:
  7838   002338  2A38               	incf	___xxtofl@exp^0,f,c
  7839   00233A  0E01               	movlw	1
  7840   00233C  2639               	addwf	___xxtofl@arg^0,f,c
  7841   00233E  0E00               	movlw	0
  7842   002340  223A               	addwfc	(___xxtofl@arg+1)^0,f,c
  7843   002342  223B               	addwfc	(___xxtofl@arg+2)^0,f,c
  7844   002344  223C               	addwfc	(___xxtofl@arg+3)^0,f,c
  7845   002346  90D8               	bcf	status,0,c
  7846   002348  323C               	rrcf	(___xxtofl@arg+3)^0,f,c
  7847   00234A  323B               	rrcf	(___xxtofl@arg+2)^0,f,c
  7848   00234C  323A               	rrcf	(___xxtofl@arg+1)^0,f,c
  7849   00234E  3239               	rrcf	___xxtofl@arg^0,f,c
  7850   002350                     l884:
  7851   002350  0E00               	movlw	0
  7852   002352  1439               	andwf	___xxtofl@arg^0,w,c
  7853   002354  6E33               	movwf	??___xxtofl^0,c
  7854   002356  0E00               	movlw	0
  7855   002358  143A               	andwf	(___xxtofl@arg+1)^0,w,c
  7856   00235A  6E34               	movwf	(??___xxtofl+1)^0,c
  7857   00235C  0E00               	movlw	0
  7858   00235E  143B               	andwf	(___xxtofl@arg+2)^0,w,c
  7859   002360  6E35               	movwf	(??___xxtofl+2)^0,c
  7860   002362  0EFF               	movlw	255
  7861   002364  143C               	andwf	(___xxtofl@arg+3)^0,w,c
  7862   002366  6E36               	movwf	(??___xxtofl+3)^0,c
  7863   002368  5033               	movf	??___xxtofl^0,w,c
  7864   00236A  1034               	iorwf	(??___xxtofl+1)^0,w,c
  7865   00236C  1035               	iorwf	(??___xxtofl+2)^0,w,c
  7866   00236E  1036               	iorwf	(??___xxtofl+3)^0,w,c
  7867   002370  A4D8               	btfss	status,2,c
  7868   002372  EFBD  F011         	goto	u4431
  7869   002376  EFBF  F011         	goto	u4430
  7870   00237A                     u4431:
  7871   00237A  EF9C  F011         	goto	l4011
  7872   00237E                     u4430:
  7873   00237E  EFC7  F011         	goto	l4019
  7874   002382                     l4017:
  7875   002382  0638               	decf	___xxtofl@exp^0,f,c
  7876   002384  90D8               	bcf	status,0,c
  7877   002386  3639               	rlcf	___xxtofl@arg^0,f,c
  7878   002388  363A               	rlcf	(___xxtofl@arg+1)^0,f,c
  7879   00238A  363B               	rlcf	(___xxtofl@arg+2)^0,f,c
  7880   00238C  363C               	rlcf	(___xxtofl@arg+3)^0,f,c
  7881   00238E                     l4019:
  7882   00238E  BE3B               	btfsc	(___xxtofl@arg+2)^0,7,c
  7883   002390  EFCC  F011         	goto	u4441
  7884   002394  EFCE  F011         	goto	u4440
  7885   002398                     u4441:
  7886   002398  EFD6  F011         	goto	l891
  7887   00239C                     u4440:
  7888   00239C  0E02               	movlw	2
  7889   00239E  6038               	cpfslt	___xxtofl@exp^0,c
  7890   0023A0  EFD4  F011         	goto	u4451
  7891   0023A4  EFD6  F011         	goto	u4450
  7892   0023A8                     u4451:
  7893   0023A8  EFC1  F011         	goto	l4017
  7894   0023AC                     u4450:
  7895   0023AC                     l891:
  7896   0023AC  B038               	btfsc	___xxtofl@exp^0,0,c
  7897   0023AE  EFDB  F011         	goto	u4461
  7898   0023B2  EFDD  F011         	goto	u4460
  7899   0023B6                     u4461:
  7900   0023B6  EFDE  F011         	goto	l4025
  7901   0023BA                     u4460:
  7902   0023BA  9E3B               	bcf	(___xxtofl@arg+2)^0,7,c
  7903   0023BC                     l4025:
  7904   0023BC  90D8               	bcf	status,0,c
  7905   0023BE  3238               	rrcf	___xxtofl@exp^0,f,c
  7906   0023C0  C038  F033         	movff	___xxtofl@exp,??___xxtofl
  7907   0023C4  6A34               	clrf	(??___xxtofl+1)^0,c
  7908   0023C6  6A35               	clrf	(??___xxtofl+2)^0,c
  7909   0023C8  6A36               	clrf	(??___xxtofl+3)^0,c
  7910   0023CA  C033  F036         	movff	??___xxtofl,??___xxtofl+3
  7911   0023CE  6A35               	clrf	(??___xxtofl+2)^0,c
  7912   0023D0  6A34               	clrf	(??___xxtofl+1)^0,c
  7913   0023D2  6A33               	clrf	??___xxtofl^0,c
  7914   0023D4  5033               	movf	??___xxtofl^0,w,c
  7915   0023D6  1239               	iorwf	___xxtofl@arg^0,f,c
  7916   0023D8  5034               	movf	(??___xxtofl+1)^0,w,c
  7917   0023DA  123A               	iorwf	(___xxtofl@arg+1)^0,f,c
  7918   0023DC  5035               	movf	(??___xxtofl+2)^0,w,c
  7919   0023DE  123B               	iorwf	(___xxtofl@arg+2)^0,f,c
  7920   0023E0  5036               	movf	(??___xxtofl+3)^0,w,c
  7921   0023E2  123C               	iorwf	(___xxtofl@arg+3)^0,f,c
  7922   0023E4  5037               	movf	___xxtofl@sign^0,w,c
  7923   0023E6  B4D8               	btfsc	status,2,c
  7924   0023E8  EFF8  F011         	goto	u4471
  7925   0023EC  EFFA  F011         	goto	u4470
  7926   0023F0                     u4471:
  7927   0023F0  EF02  F012         	goto	l4035
  7928   0023F4                     u4470:
  7929   0023F4  BE32               	btfsc	(___xxtofl@val+3)^0,7,c
  7930   0023F6  EF01  F012         	goto	u4480
  7931   0023FA  EFFF  F011         	goto	u4481
  7932   0023FE                     u4481:
  7933   0023FE  EF02  F012         	goto	l4035
  7934   002402                     u4480:
  7935   002402  8E3C               	bsf	(___xxtofl@arg+3)^0,7,c
  7936   002404                     l4035:
  7937   002404  C039  F02F         	movff	___xxtofl@arg,?___xxtofl
  7938   002408  C03A  F030         	movff	___xxtofl@arg+1,?___xxtofl+1
  7939   00240C  C03B  F031         	movff	___xxtofl@arg+2,?___xxtofl+2
  7940   002410  C03C  F032         	movff	___xxtofl@arg+3,?___xxtofl+3
  7941   002414                     l880:
  7942   002414  0012               	return		;funcret
  7943   002416                     __end_of___xxtofl:
  7944                           	callstack 0
  7945                           
  7946 ;; *************** function _SendUsartString *****************
  7947 ;; Defined at:
  7948 ;;		line 37 in file "main.c"
  7949 ;; Parameters:    Size  Location     Type
  7950 ;;  str             2    1[COMRAM] PTR unsigned char 
  7951 ;;		 -> xvalueASCII(50), 
  7952 ;; Auto vars:     Size  Location     Type
  7953 ;;		None
  7954 ;; Return value:  Size  Location     Type
  7955 ;;                  1    wreg      void 
  7956 ;; Registers used:
  7957 ;;		wreg, fsr2l, fsr2h, status,2, status,0, cstack
  7958 ;; Tracked objects:
  7959 ;;		On entry : 0/0
  7960 ;;		On exit  : 0/0
  7961 ;;		Unchanged: 0/0
  7962 ;; Data sizes:     COMRAM   BANK0   BANK1   BANK2   BANK3   BANK4   BANK5
  7963 ;;      Params:         2       0       0       0       0       0       0
  7964 ;;      Locals:         0       0       0       0       0       0       0
  7965 ;;      Temps:          0       0       0       0       0       0       0
  7966 ;;      Totals:         2       0       0       0       0       0       0
  7967 ;;Total ram usage:        2 bytes
  7968 ;; Hardware stack levels used: 1
  7969 ;; Hardware stack levels required when called: 1
  7970 ;; This function calls:
  7971 ;;		_EUSART_Write
  7972 ;; This function is called by:
  7973 ;;		_main
  7974 ;; This function uses a non-reentrant model
  7975 ;;
  7976                           
  7977                           	psect	text33
  7978   0034BE                     __ptext33:
  7979                           	callstack 0
  7980   0034BE                     _SendUsartString:
  7981                           	callstack 29
  7982   0034BE                     
  7983                           ;main.c: 38:        while (*str)
  7984   0034BE  EF6A  F01A         	goto	l3991
  7985   0034C2                     l3987:
  7986                           
  7987                           ;main.c: 39:         EUSART_Write(*str++);
  7988   0034C2  C002  FFD9         	movff	SendUsartString@str,fsr2l
  7989   0034C6  C003  FFDA         	movff	SendUsartString@str+1,fsr2h
  7990   0034CA  50DF               	movf	indf2,w,c
  7991   0034CC  EC8F  F01A         	call	_EUSART_Write
  7992   0034D0  4A02               	infsnz	SendUsartString@str^0,f,c
  7993   0034D2  2A03               	incf	(SendUsartString@str+1)^0,f,c
  7994   0034D4                     l3991:
  7995                           
  7996                           ;main.c: 38:        while (*str)
  7997   0034D4  C002  FFD9         	movff	SendUsartString@str,fsr2l
  7998   0034D8  C003  FFDA         	movff	SendUsartString@str+1,fsr2h
  7999   0034DC  50DF               	movf	indf2,w,c
  8000   0034DE  A4D8               	btfss	status,2,c
  8001   0034E0  EF74  F01A         	goto	u4381
  8002   0034E4  EF76  F01A         	goto	u4380
  8003   0034E8                     u4381:
  8004   0034E8  EF61  F01A         	goto	l3987
  8005   0034EC                     u4380:
  8006   0034EC  0012               	return		;funcret
  8007   0034EE                     __end_of_SendUsartString:
  8008                           	callstack 0
  8009                           
  8010 ;; *************** function _EUSART_Write *****************
  8011 ;; Defined at:
  8012 ;;		line 132 in file "mcc_generated_files/eusart.c"
  8013 ;; Parameters:    Size  Location     Type
  8014 ;;  txData          1    wreg     unsigned char 
  8015 ;; Auto vars:     Size  Location     Type
  8016 ;;  txData          1    0[COMRAM] unsigned char 
  8017 ;; Return value:  Size  Location     Type
  8018 ;;                  1    wreg      void 
  8019 ;; Registers used:
  8020 ;;		wreg
  8021 ;; Tracked objects:
  8022 ;;		On entry : 0/0
  8023 ;;		On exit  : 0/0
  8024 ;;		Unchanged: 0/0
  8025 ;; Data sizes:     COMRAM   BANK0   BANK1   BANK2   BANK3   BANK4   BANK5
  8026 ;;      Params:         0       0       0       0       0       0       0
  8027 ;;      Locals:         1       0       0       0       0       0       0
  8028 ;;      Temps:          0       0       0       0       0       0       0
  8029 ;;      Totals:         1       0       0       0       0       0       0
  8030 ;;Total ram usage:        1 bytes
  8031 ;; Hardware stack levels used: 1
  8032 ;; This function calls:
  8033 ;;		Nothing
  8034 ;; This function is called by:
  8035 ;;		_SendUsartString
  8036 ;; This function uses a non-reentrant model
  8037 ;;
  8038                           
  8039                           	psect	text34
  8040   00351E                     __ptext34:
  8041                           	callstack 0
  8042   00351E                     _EUSART_Write:
  8043                           	callstack 29
  8044                           
  8045                           ;incstack = 0
  8046                           ;EUSART_Write@txData stored from wreg
  8047   00351E  6E01               	movwf	EUSART_Write@txData^0,c
  8048   003520                     l103:
  8049                           
  8050                           ;mcc_generated_files/eusart.c: 134:     while(0 == PIR1bits.TX1IF)
  8051   003520  A89E               	btfss	158,4,c	;volatile
  8052   003522  EF95  F01A         	goto	u4271
  8053   003526  EF97  F01A         	goto	u4270
  8054   00352A                     u4271:
  8055   00352A  EF90  F01A         	goto	l103
  8056   00352E                     u4270:
  8057   00352E                     
  8058                           ;mcc_generated_files/eusart.c: 138:     TXREG = txData;
  8059   00352E  C001  FFAD         	movff	EUSART_Write@txData,4013	;volatile
  8060   003532  0012               	return		;funcret
  8061   003534                     __end_of_EUSART_Write:
  8062                           	callstack 0
  8063                           
  8064 ;; *************** function _SYSTEM_Initialize *****************
  8065 ;; Defined at:
  8066 ;;		line 50 in file "mcc_generated_files/mcc.c"
  8067 ;; Parameters:    Size  Location     Type
  8068 ;;		None
  8069 ;; Auto vars:     Size  Location     Type
  8070 ;;		None
  8071 ;; Return value:  Size  Location     Type
  8072 ;;                  1    wreg      void 
  8073 ;; Registers used:
  8074 ;;		wreg, status,2, status,0, cstack
  8075 ;; Tracked objects:
  8076 ;;		On entry : 0/0
  8077 ;;		On exit  : 0/0
  8078 ;;		Unchanged: 0/0
  8079 ;; Data sizes:     COMRAM   BANK0   BANK1   BANK2   BANK3   BANK4   BANK5
  8080 ;;      Params:         0       0       0       0       0       0       0
  8081 ;;      Locals:         0       0       0       0       0       0       0
  8082 ;;      Temps:          0       0       0       0       0       0       0
  8083 ;;      Totals:         0       0       0       0       0       0       0
  8084 ;;Total ram usage:        0 bytes
  8085 ;; Hardware stack levels used: 1
  8086 ;; Hardware stack levels required when called: 2
  8087 ;; This function calls:
  8088 ;;		_ADC_Initialize
  8089 ;;		_EUSART_Initialize
  8090 ;;		_OSCILLATOR_Initialize
  8091 ;;		_PIN_MANAGER_Initialize
  8092 ;; This function is called by:
  8093 ;;		_main
  8094 ;; This function uses a non-reentrant model
  8095 ;;
  8096                           
  8097                           	psect	text35
  8098   00354A                     __ptext35:
  8099                           	callstack 0
  8100   00354A                     _SYSTEM_Initialize:
  8101                           	callstack 28
  8102   00354A                     
  8103                           ;mcc_generated_files/mcc.c: 53:     PIN_MANAGER_Initialize();
  8104   00354A  EC77  F01A         	call	_PIN_MANAGER_Initialize	;wreg free
  8105                           
  8106                           ;mcc_generated_files/mcc.c: 54:     OSCILLATOR_Initialize();
  8107   00354E  ECAE  F01A         	call	_OSCILLATOR_Initialize	;wreg free
  8108                           
  8109                           ;mcc_generated_files/mcc.c: 55:     ADC_Initialize();
  8110   003552  EC9A  F01A         	call	_ADC_Initialize	;wreg free
  8111   003556                     
  8112                           ;mcc_generated_files/mcc.c: 56:     EUSART_Initialize();
  8113   003556  EC07  F01A         	call	_EUSART_Initialize	;wreg free
  8114   00355A  0012               	return		;funcret
  8115   00355C                     __end_of_SYSTEM_Initialize:
  8116                           	callstack 0
  8117                           
  8118 ;; *************** function _PIN_MANAGER_Initialize *****************
  8119 ;; Defined at:
  8120 ;;		line 55 in file "mcc_generated_files/pin_manager.c"
  8121 ;; Parameters:    Size  Location     Type
  8122 ;;		None
  8123 ;; Auto vars:     Size  Location     Type
  8124 ;;		None
  8125 ;; Return value:  Size  Location     Type
  8126 ;;                  1    wreg      void 
  8127 ;; Registers used:
  8128 ;;		wreg, status,2
  8129 ;; Tracked objects:
  8130 ;;		On entry : 0/0
  8131 ;;		On exit  : 0/0
  8132 ;;		Unchanged: 0/0
  8133 ;; Data sizes:     COMRAM   BANK0   BANK1   BANK2   BANK3   BANK4   BANK5
  8134 ;;      Params:         0       0       0       0       0       0       0
  8135 ;;      Locals:         0       0       0       0       0       0       0
  8136 ;;      Temps:          0       0       0       0       0       0       0
  8137 ;;      Totals:         0       0       0       0       0       0       0
  8138 ;;Total ram usage:        0 bytes
  8139 ;; Hardware stack levels used: 1
  8140 ;; This function calls:
  8141 ;;		Nothing
  8142 ;; This function is called by:
  8143 ;;		_SYSTEM_Initialize
  8144 ;; This function uses a non-reentrant model
  8145 ;;
  8146                           
  8147                           	psect	text36
  8148   0034EE                     __ptext36:
  8149                           	callstack 0
  8150   0034EE                     _PIN_MANAGER_Initialize:
  8151                           	callstack 29
  8152   0034EE                     
  8153                           ;mcc_generated_files/pin_manager.c: 60:     LATE = 0x00;
  8154   0034EE  0E00               	movlw	0
  8155   0034F0  6E8D               	movwf	141,c	;volatile
  8156                           
  8157                           ;mcc_generated_files/pin_manager.c: 61:     LATD = 0x00;
  8158   0034F2  0E00               	movlw	0
  8159   0034F4  6E8C               	movwf	140,c	;volatile
  8160                           
  8161                           ;mcc_generated_files/pin_manager.c: 62:     LATA = 0x00;
  8162   0034F6  0E00               	movlw	0
  8163   0034F8  6E89               	movwf	137,c	;volatile
  8164                           
  8165                           ;mcc_generated_files/pin_manager.c: 63:     LATB = 0x00;
  8166   0034FA  0E00               	movlw	0
  8167   0034FC  6E8A               	movwf	138,c	;volatile
  8168                           
  8169                           ;mcc_generated_files/pin_manager.c: 64:     LATC = 0x00;
  8170   0034FE  0E00               	movlw	0
  8171   003500  6E8B               	movwf	139,c	;volatile
  8172                           
  8173                           ;mcc_generated_files/pin_manager.c: 69:     TRISE = 0x07;
  8174   003502  0E07               	movlw	7
  8175   003504  6E96               	movwf	150,c	;volatile
  8176   003506                     
  8177                           ;mcc_generated_files/pin_manager.c: 70:     TRISA = 0xFF;
  8178   003506  6892               	setf	146,c	;volatile
  8179   003508                     
  8180                           ;mcc_generated_files/pin_manager.c: 71:     TRISB = 0xFF;
  8181   003508  6893               	setf	147,c	;volatile
  8182                           
  8183                           ;mcc_generated_files/pin_manager.c: 72:     TRISC = 0xBF;
  8184   00350A  0EBF               	movlw	191
  8185   00350C  6E94               	movwf	148,c	;volatile
  8186   00350E                     
  8187                           ;mcc_generated_files/pin_manager.c: 73:     TRISD = 0xFF;
  8188   00350E  6895               	setf	149,c	;volatile
  8189   003510                     
  8190                           ;mcc_generated_files/pin_manager.c: 78:     ANSEL = 0xFF;
  8191   003510  687E               	setf	126,c	;volatile
  8192                           
  8193                           ;mcc_generated_files/pin_manager.c: 79:     ANSELH = 0x1F;
  8194   003512  0E1F               	movlw	31
  8195   003514  6E7F               	movwf	127,c	;volatile
  8196                           
  8197                           ;mcc_generated_files/pin_manager.c: 84:     WPUB = 0x00;
  8198   003516  0E00               	movlw	0
  8199   003518  6E7C               	movwf	124,c	;volatile
  8200   00351A                     
  8201                           ;mcc_generated_files/pin_manager.c: 85:     INTCON2bits.nRBPU = 1;
  8202   00351A  8EF1               	bsf	241,7,c	;volatile
  8203   00351C  0012               	return		;funcret
  8204   00351E                     __end_of_PIN_MANAGER_Initialize:
  8205                           	callstack 0
  8206                           
  8207 ;; *************** function _OSCILLATOR_Initialize *****************
  8208 ;; Defined at:
  8209 ;;		line 59 in file "mcc_generated_files/mcc.c"
  8210 ;; Parameters:    Size  Location     Type
  8211 ;;		None
  8212 ;; Auto vars:     Size  Location     Type
  8213 ;;		None
  8214 ;; Return value:  Size  Location     Type
  8215 ;;                  1    wreg      void 
  8216 ;; Registers used:
  8217 ;;		wreg, status,2
  8218 ;; Tracked objects:
  8219 ;;		On entry : 0/0
  8220 ;;		On exit  : 0/0
  8221 ;;		Unchanged: 0/0
  8222 ;; Data sizes:     COMRAM   BANK0   BANK1   BANK2   BANK3   BANK4   BANK5
  8223 ;;      Params:         0       0       0       0       0       0       0
  8224 ;;      Locals:         0       0       0       0       0       0       0
  8225 ;;      Temps:          0       0       0       0       0       0       0
  8226 ;;      Totals:         0       0       0       0       0       0       0
  8227 ;;Total ram usage:        0 bytes
  8228 ;; Hardware stack levels used: 1
  8229 ;; This function calls:
  8230 ;;		Nothing
  8231 ;; This function is called by:
  8232 ;;		_SYSTEM_Initialize
  8233 ;; This function uses a non-reentrant model
  8234 ;;
  8235                           
  8236                           	psect	text37
  8237   00355C                     __ptext37:
  8238                           	callstack 0
  8239   00355C                     _OSCILLATOR_Initialize:
  8240                           	callstack 29
  8241   00355C                     
  8242                           ;mcc_generated_files/mcc.c: 62:     OSCCON = 0x30;
  8243   00355C  0E30               	movlw	48
  8244   00355E  6ED3               	movwf	211,c	;volatile
  8245                           
  8246                           ;mcc_generated_files/mcc.c: 64:     OSCTUNE = 0x00;
  8247   003560  0E00               	movlw	0
  8248   003562  6E9B               	movwf	155,c	;volatile
  8249   003564  0012               	return		;funcret
  8250   003566                     __end_of_OSCILLATOR_Initialize:
  8251                           	callstack 0
  8252                           
  8253 ;; *************** function _EUSART_Initialize *****************
  8254 ;; Defined at:
  8255 ;;		line 66 in file "mcc_generated_files/eusart.c"
  8256 ;; Parameters:    Size  Location     Type
  8257 ;;		None
  8258 ;; Auto vars:     Size  Location     Type
  8259 ;;		None
  8260 ;; Return value:  Size  Location     Type
  8261 ;;                  1    wreg      void 
  8262 ;; Registers used:
  8263 ;;		wreg, status,2, status,0, cstack
  8264 ;; Tracked objects:
  8265 ;;		On entry : 0/0
  8266 ;;		On exit  : 0/0
  8267 ;;		Unchanged: 0/0
  8268 ;; Data sizes:     COMRAM   BANK0   BANK1   BANK2   BANK3   BANK4   BANK5
  8269 ;;      Params:         0       0       0       0       0       0       0
  8270 ;;      Locals:         0       0       0       0       0       0       0
  8271 ;;      Temps:          0       0       0       0       0       0       0
  8272 ;;      Totals:         0       0       0       0       0       0       0
  8273 ;;Total ram usage:        0 bytes
  8274 ;; Hardware stack levels used: 1
  8275 ;; Hardware stack levels required when called: 1
  8276 ;; This function calls:
  8277 ;;		_EUSART_SetErrorHandler
  8278 ;;		_EUSART_SetFramingErrorHandler
  8279 ;;		_EUSART_SetOverrunErrorHandler
  8280 ;; This function is called by:
  8281 ;;		_SYSTEM_Initialize
  8282 ;; This function uses a non-reentrant model
  8283 ;;
  8284                           
  8285                           	psect	text38
  8286   00340E                     __ptext38:
  8287                           	callstack 0
  8288   00340E                     _EUSART_Initialize:
  8289                           	callstack 28
  8290   00340E                     
  8291                           ;mcc_generated_files/eusart.c: 71:     BAUDCON = 0x08;
  8292   00340E  0E08               	movlw	8
  8293   003410  6EB8               	movwf	184,c	;volatile
  8294                           
  8295                           ;mcc_generated_files/eusart.c: 74:     RCSTA = 0x90;
  8296   003412  0E90               	movlw	144
  8297   003414  6EAB               	movwf	171,c	;volatile
  8298                           
  8299                           ;mcc_generated_files/eusart.c: 77:     TXSTA = 0x24;
  8300   003416  0E24               	movlw	36
  8301   003418  6EAC               	movwf	172,c	;volatile
  8302                           
  8303                           ;mcc_generated_files/eusart.c: 80:     SPBRG = 0x08;
  8304   00341A  0E08               	movlw	8
  8305   00341C  6EAF               	movwf	175,c	;volatile
  8306                           
  8307                           ;mcc_generated_files/eusart.c: 83:     SPBRGH = 0x02;
  8308   00341E  0E02               	movlw	2
  8309   003420  6EB0               	movwf	176,c	;volatile
  8310   003422                     
  8311                           ;mcc_generated_files/eusart.c: 86:     EUSART_SetFramingErrorHandler(EUSART_DefaultFrami
      +                          ngErrorHandler);
  8312   003422  0E00               	movlw	0
  8313   003424  6E01               	movwf	EUSART_SetFramingErrorHandler@interruptHandler^0,c
  8314   003426  0E00               	movlw	0
  8315   003428  6E02               	movwf	(EUSART_SetFramingErrorHandler@interruptHandler+1)^0,c
  8316   00342A  ECB8  F01A         	call	_EUSART_SetFramingErrorHandler	;wreg free
  8317   00342E                     
  8318                           ;mcc_generated_files/eusart.c: 87:     EUSART_SetOverrunErrorHandler(EUSART_DefaultOverr
      +                          unErrorHandler);
  8319   00342E  0E00               	movlw	0
  8320   003430  6E01               	movwf	EUSART_SetOverrunErrorHandler@interruptHandler^0,c
  8321   003432  0E00               	movlw	0
  8322   003434  6E02               	movwf	(EUSART_SetOverrunErrorHandler@interruptHandler+1)^0,c
  8323   003436  ECB3  F01A         	call	_EUSART_SetOverrunErrorHandler	;wreg free
  8324   00343A                     
  8325                           ;mcc_generated_files/eusart.c: 88:     EUSART_SetErrorHandler(EUSART_DefaultErrorHandler
      +                          );
  8326   00343A  0E00               	movlw	0
  8327   00343C  6E01               	movwf	EUSART_SetErrorHandler@interruptHandler^0,c
  8328   00343E  0E00               	movlw	0
  8329   003440  6E02               	movwf	(EUSART_SetErrorHandler@interruptHandler+1)^0,c
  8330   003442  ECBD  F01A         	call	_EUSART_SetErrorHandler	;wreg free
  8331   003446                     
  8332                           ;mcc_generated_files/eusart.c: 90:     eusartRxLastError.status = 0;
  8333   003446  0E00               	movlw	0
  8334   003448  6E5E               	movwf	_eusartRxLastError^0,c	;volatile
  8335   00344A  0012               	return		;funcret
  8336   00344C                     __end_of_EUSART_Initialize:
  8337                           	callstack 0
  8338                           
  8339 ;; *************** function _EUSART_SetOverrunErrorHandler *****************
  8340 ;; Defined at:
  8341 ;;		line 161 in file "mcc_generated_files/eusart.c"
  8342 ;; Parameters:    Size  Location     Type
  8343 ;;  interruptHan    2    0[COMRAM] PTR FTN()void 
  8344 ;;		 -> EUSART_DefaultOverrunErrorHandler(1), 
  8345 ;; Auto vars:     Size  Location     Type
  8346 ;;		None
  8347 ;; Return value:  Size  Location     Type
  8348 ;;                  1    wreg      void 
  8349 ;; Registers used:
  8350 ;;		wreg, status,2, status,0
  8351 ;; Tracked objects:
  8352 ;;		On entry : 0/0
  8353 ;;		On exit  : 0/0
  8354 ;;		Unchanged: 0/0
  8355 ;; Data sizes:     COMRAM   BANK0   BANK1   BANK2   BANK3   BANK4   BANK5
  8356 ;;      Params:         2       0       0       0       0       0       0
  8357 ;;      Locals:         0       0       0       0       0       0       0
  8358 ;;      Temps:          0       0       0       0       0       0       0
  8359 ;;      Totals:         2       0       0       0       0       0       0
  8360 ;;Total ram usage:        2 bytes
  8361 ;; Hardware stack levels used: 1
  8362 ;; This function calls:
  8363 ;;		Nothing
  8364 ;; This function is called by:
  8365 ;;		_EUSART_Initialize
  8366 ;; This function uses a non-reentrant model
  8367 ;;
  8368                           
  8369                           	psect	text39
  8370   003566                     __ptext39:
  8371                           	callstack 0
  8372   003566                     _EUSART_SetOverrunErrorHandler:
  8373                           	callstack 28
  8374   003566                     
  8375                           ;mcc_generated_files/eusart.c: 162:     EUSART_OverrunErrorHandler = interruptHandler;
  8376   003566  C001  F0E6         	movff	EUSART_SetOverrunErrorHandler@interruptHandler,_EUSART_OverrunErrorHandler
  8377   00356A  C002  F0E7         	movff	EUSART_SetOverrunErrorHandler@interruptHandler+1,_EUSART_OverrunErrorHandler+1
  8378   00356E  0012               	return		;funcret
  8379   003570                     __end_of_EUSART_SetOverrunErrorHandler:
  8380                           	callstack 0
  8381                           
  8382 ;; *************** function _EUSART_SetFramingErrorHandler *****************
  8383 ;; Defined at:
  8384 ;;		line 157 in file "mcc_generated_files/eusart.c"
  8385 ;; Parameters:    Size  Location     Type
  8386 ;;  interruptHan    2    0[COMRAM] PTR FTN()void 
  8387 ;;		 -> EUSART_DefaultFramingErrorHandler(1), 
  8388 ;; Auto vars:     Size  Location     Type
  8389 ;;		None
  8390 ;; Return value:  Size  Location     Type
  8391 ;;                  1    wreg      void 
  8392 ;; Registers used:
  8393 ;;		wreg, status,2, status,0
  8394 ;; Tracked objects:
  8395 ;;		On entry : 0/0
  8396 ;;		On exit  : 0/0
  8397 ;;		Unchanged: 0/0
  8398 ;; Data sizes:     COMRAM   BANK0   BANK1   BANK2   BANK3   BANK4   BANK5
  8399 ;;      Params:         2       0       0       0       0       0       0
  8400 ;;      Locals:         0       0       0       0       0       0       0
  8401 ;;      Temps:          0       0       0       0       0       0       0
  8402 ;;      Totals:         2       0       0       0       0       0       0
  8403 ;;Total ram usage:        2 bytes
  8404 ;; Hardware stack levels used: 1
  8405 ;; This function calls:
  8406 ;;		Nothing
  8407 ;; This function is called by:
  8408 ;;		_EUSART_Initialize
  8409 ;; This function uses a non-reentrant model
  8410 ;;
  8411                           
  8412                           	psect	text40
  8413   003570                     __ptext40:
  8414                           	callstack 0
  8415   003570                     _EUSART_SetFramingErrorHandler:
  8416                           	callstack 28
  8417   003570                     
  8418                           ;mcc_generated_files/eusart.c: 158:     EUSART_FramingErrorHandler = interruptHandler;
  8419   003570  C001  F0E8         	movff	EUSART_SetFramingErrorHandler@interruptHandler,_EUSART_FramingErrorHandler
  8420   003574  C002  F0E9         	movff	EUSART_SetFramingErrorHandler@interruptHandler+1,_EUSART_FramingErrorHandler+1
  8421   003578  0012               	return		;funcret
  8422   00357A                     __end_of_EUSART_SetFramingErrorHandler:
  8423                           	callstack 0
  8424                           
  8425 ;; *************** function _EUSART_SetErrorHandler *****************
  8426 ;; Defined at:
  8427 ;;		line 165 in file "mcc_generated_files/eusart.c"
  8428 ;; Parameters:    Size  Location     Type
  8429 ;;  interruptHan    2    0[COMRAM] PTR FTN()void 
  8430 ;;		 -> EUSART_DefaultErrorHandler(1), 
  8431 ;; Auto vars:     Size  Location     Type
  8432 ;;		None
  8433 ;; Return value:  Size  Location     Type
  8434 ;;                  1    wreg      void 
  8435 ;; Registers used:
  8436 ;;		wreg, status,2, status,0
  8437 ;; Tracked objects:
  8438 ;;		On entry : 0/0
  8439 ;;		On exit  : 0/0
  8440 ;;		Unchanged: 0/0
  8441 ;; Data sizes:     COMRAM   BANK0   BANK1   BANK2   BANK3   BANK4   BANK5
  8442 ;;      Params:         2       0       0       0       0       0       0
  8443 ;;      Locals:         0       0       0       0       0       0       0
  8444 ;;      Temps:          0       0       0       0       0       0       0
  8445 ;;      Totals:         2       0       0       0       0       0       0
  8446 ;;Total ram usage:        2 bytes
  8447 ;; Hardware stack levels used: 1
  8448 ;; This function calls:
  8449 ;;		Nothing
  8450 ;; This function is called by:
  8451 ;;		_EUSART_Initialize
  8452 ;; This function uses a non-reentrant model
  8453 ;;
  8454                           
  8455                           	psect	text41
  8456   00357A                     __ptext41:
  8457                           	callstack 0
  8458   00357A                     _EUSART_SetErrorHandler:
  8459                           	callstack 28
  8460   00357A                     
  8461                           ;mcc_generated_files/eusart.c: 166:     EUSART_ErrorHandler = interruptHandler;
  8462   00357A  C001  F0E4         	movff	EUSART_SetErrorHandler@interruptHandler,_EUSART_ErrorHandler
  8463   00357E  C002  F0E5         	movff	EUSART_SetErrorHandler@interruptHandler+1,_EUSART_ErrorHandler+1
  8464   003582  0012               	return		;funcret
  8465   003584                     __end_of_EUSART_SetErrorHandler:
  8466                           	callstack 0
  8467                           
  8468 ;; *************** function _ADC_Initialize *****************
  8469 ;; Defined at:
  8470 ;;		line 62 in file "mcc_generated_files/adc.c"
  8471 ;; Parameters:    Size  Location     Type
  8472 ;;		None
  8473 ;; Auto vars:     Size  Location     Type
  8474 ;;		None
  8475 ;; Return value:  Size  Location     Type
  8476 ;;                  1    wreg      void 
  8477 ;; Registers used:
  8478 ;;		wreg, status,2
  8479 ;; Tracked objects:
  8480 ;;		On entry : 0/0
  8481 ;;		On exit  : 0/0
  8482 ;;		Unchanged: 0/0
  8483 ;; Data sizes:     COMRAM   BANK0   BANK1   BANK2   BANK3   BANK4   BANK5
  8484 ;;      Params:         0       0       0       0       0       0       0
  8485 ;;      Locals:         0       0       0       0       0       0       0
  8486 ;;      Temps:          0       0       0       0       0       0       0
  8487 ;;      Totals:         0       0       0       0       0       0       0
  8488 ;;Total ram usage:        0 bytes
  8489 ;; Hardware stack levels used: 1
  8490 ;; This function calls:
  8491 ;;		Nothing
  8492 ;; This function is called by:
  8493 ;;		_SYSTEM_Initialize
  8494 ;; This function uses a non-reentrant model
  8495 ;;
  8496                           
  8497                           	psect	text42
  8498   003534                     __ptext42:
  8499                           	callstack 0
  8500   003534                     _ADC_Initialize:
  8501                           	callstack 29
  8502   003534                     
  8503                           ;mcc_generated_files/adc.c: 67:     ADCON1 = 0x00;
  8504   003534  0E00               	movlw	0
  8505   003536  6EC1               	movwf	193,c	;volatile
  8506                           
  8507                           ;mcc_generated_files/adc.c: 70:     ADCON2 = 0x82;
  8508   003538  0E82               	movlw	130
  8509   00353A  6EC0               	movwf	192,c	;volatile
  8510                           
  8511                           ;mcc_generated_files/adc.c: 73:     ADRESL = 0x00;
  8512   00353C  0E00               	movlw	0
  8513   00353E  6EC3               	movwf	195,c	;volatile
  8514                           
  8515                           ;mcc_generated_files/adc.c: 76:     ADRESH = 0x00;
  8516   003540  0E00               	movlw	0
  8517   003542  6EC4               	movwf	196,c	;volatile
  8518                           
  8519                           ;mcc_generated_files/adc.c: 79:     ADCON0 = 0x01;
  8520   003544  0E01               	movlw	1
  8521   003546  6EC2               	movwf	194,c	;volatile
  8522   003548  0012               	return		;funcret
  8523   00354A                     __end_of_ADC_Initialize:
  8524                           	callstack 0
  8525                           
  8526 ;; *************** function _ADC_GetConversion *****************
  8527 ;; Defined at:
  8528 ;;		line 110 in file "mcc_generated_files/adc.c"
  8529 ;; Parameters:    Size  Location     Type
  8530 ;;  channel         1    wreg     enum E2717
  8531 ;; Auto vars:     Size  Location     Type
  8532 ;;  channel         1    4[COMRAM] enum E2717
  8533 ;; Return value:  Size  Location     Type
  8534 ;;                  2    0[COMRAM] unsigned short 
  8535 ;; Registers used:
  8536 ;;		wreg, status,2, status,0
  8537 ;; Tracked objects:
  8538 ;;		On entry : 0/0
  8539 ;;		On exit  : 0/0
  8540 ;;		Unchanged: 0/0
  8541 ;; Data sizes:     COMRAM   BANK0   BANK1   BANK2   BANK3   BANK4   BANK5
  8542 ;;      Params:         2       0       0       0       0       0       0
  8543 ;;      Locals:         1       0       0       0       0       0       0
  8544 ;;      Temps:          2       0       0       0       0       0       0
  8545 ;;      Totals:         5       0       0       0       0       0       0
  8546 ;;Total ram usage:        5 bytes
  8547 ;; Hardware stack levels used: 1
  8548 ;; This function calls:
  8549 ;;		Nothing
  8550 ;; This function is called by:
  8551 ;;		_main
  8552 ;; This function uses a non-reentrant model
  8553 ;;
  8554                           
  8555                           	psect	text43
  8556   00344C                     __ptext43:
  8557                           	callstack 0
  8558   00344C                     _ADC_GetConversion:
  8559                           	callstack 30
  8560                           
  8561                           ;incstack = 0
  8562                           ;ADC_GetConversion@channel stored from wreg
  8563   00344C  6E05               	movwf	ADC_GetConversion@channel^0,c
  8564   00344E                     
  8565                           ;mcc_generated_files/adc.c: 110: adc_result_t ADC_GetConversion(adc_channel_t channel);m
      +                          cc_generated_files/adc.c: 111: {;mcc_generated_files/adc.c: 113:     ADCON0bits.CHS = ch
      +                          annel;
  8566   00344E  C005  F003         	movff	ADC_GetConversion@channel,??_ADC_GetConversion
  8567   003452  4603               	rlncf	??_ADC_GetConversion^0,f,c
  8568   003454  4603               	rlncf	??_ADC_GetConversion^0,f,c
  8569   003456  50C2               	movf	194,w,c	;volatile
  8570   003458  1803               	xorwf	??_ADC_GetConversion^0,w,c
  8571   00345A  0BC3               	andlw	-61
  8572   00345C  1803               	xorwf	??_ADC_GetConversion^0,w,c
  8573   00345E  6EC2               	movwf	194,c	;volatile
  8574   003460                     
  8575                           ;mcc_generated_files/adc.c: 116:     ADCON0bits.ADON = 1;
  8576   003460  80C2               	bsf	194,0,c	;volatile
  8577   003462                     
  8578                           ;mcc_generated_files/adc.c: 119:     ADCON0bits.GO_nDONE = 1;
  8579   003462  82C2               	bsf	194,1,c	;volatile
  8580   003464                     l158:
  8581                           
  8582                           ;mcc_generated_files/adc.c: 122:     while (ADCON0bits.GO_nDONE)
  8583   003464  B2C2               	btfsc	194,1,c	;volatile
  8584   003466  EF37  F01A         	goto	u4371
  8585   00346A  EF39  F01A         	goto	u4370
  8586   00346E                     u4371:
  8587   00346E  EF32  F01A         	goto	l158
  8588   003472                     u4370:
  8589   003472                     
  8590                           ;mcc_generated_files/adc.c: 127:     return ((adc_result_t)((ADRESH << 8) + ADRESL));
  8591   003472  50C4               	movf	196,w,c	;volatile
  8592   003474  6E04               	movwf	(??_ADC_GetConversion+1)^0,c
  8593   003476  6A03               	clrf	??_ADC_GetConversion^0,c
  8594   003478  50C3               	movf	195,w,c	;volatile
  8595   00347A  2403               	addwf	??_ADC_GetConversion^0,w,c
  8596   00347C  6E01               	movwf	?_ADC_GetConversion^0,c
  8597   00347E  0E00               	movlw	0
  8598   003480  2004               	addwfc	(??_ADC_GetConversion+1)^0,w,c
  8599   003482  6E02               	movwf	(?_ADC_GetConversion+1)^0,c
  8600   003484  0012               	return		;funcret
  8601   003486                     __end_of_ADC_GetConversion:
  8602                           	callstack 0
  8603                           
  8604                           	psect	rparam
  8605   000000                     
  8606                           	psect	config
  8607                           
  8608                           ; Padding undefined space
  8609   300000                     	org	3145728
  8610   300000  FF                 	db	255
  8611                           
  8612                           ;Config register CONFIG1H @ 0x300001
  8613                           ;	Oscillator Selection bits
  8614                           ;	FOSC = HS, HS oscillator
  8615                           ;	Fail-Safe Clock Monitor Enable bit
  8616                           ;	FCMEN = OFF, Fail-Safe Clock Monitor disabled
  8617                           ;	Internal/External Oscillator Switchover bit
  8618                           ;	IESO = OFF, Oscillator Switchover mode disabled
  8619   300001                     	org	3145729
  8620   300001  02                 	db	2
  8621                           
  8622                           ;Config register CONFIG2L @ 0x300002
  8623                           ;	Power-up Timer Enable bit
  8624                           ;	PWRTEN = OFF, PWRT disabled
  8625                           ;	Brown-out Reset Enable bits
  8626                           ;	BOREN = SBORDIS, Brown-out Reset enabled in hardware only (SBOREN is disabled)
  8627                           ;	Brown Out Reset Voltage bits
  8628                           ;	BORV = 18, VBOR set to 1.8 V nominal
  8629   300002                     	org	3145730
  8630   300002  1F                 	db	31
  8631                           
  8632                           ;Config register CONFIG2H @ 0x300003
  8633                           ;	Watchdog Timer Enable bit
  8634                           ;	WDTEN = OFF, WDT is controlled by SWDTEN bit of the WDTCON register
  8635                           ;	Watchdog Timer Postscale Select bits
  8636                           ;	WDTPS = 32768, 1:32768
  8637   300003                     	org	3145731
  8638   300003  1E                 	db	30
  8639                           
  8640                           ; Padding undefined space
  8641   300004                     	org	3145732
  8642   300004  FF                 	db	255
  8643                           
  8644                           ;Config register CONFIG3H @ 0x300005
  8645                           ;	CCP2 MUX bit
  8646                           ;	CCP2MX = PORTC, CCP2 input/output is multiplexed with RC1
  8647                           ;	PORTB A/D Enable bit
  8648                           ;	PBADEN = ON, PORTB<4:0> pins are configured as analog input channels on Reset
  8649                           ;	Low-Power Timer1 Oscillator Enable bit
  8650                           ;	LPT1OSC = OFF, Timer1 configured for higher power operation
  8651                           ;	HFINTOSC Fast Start-up
  8652                           ;	HFOFST = ON, HFINTOSC starts clocking the CPU without waiting for the oscillator to st
      +                          ablize.
  8653                           ;	MCLR Pin Enable bit
  8654                           ;	MCLRE = ON, MCLR pin enabled; RE3 input pin disabled
  8655   300005                     	org	3145733
  8656   300005  8B                 	db	139
  8657                           
  8658                           ;Config register CONFIG4L @ 0x300006
  8659                           ;	Stack Full/Underflow Reset Enable bit
  8660                           ;	STVREN = ON, Stack full/underflow will cause Reset
  8661                           ;	Single-Supply ICSP Enable bit
  8662                           ;	LVP = OFF, Single-Supply ICSP disabled
  8663                           ;	Extended Instruction Set Enable bit
  8664                           ;	XINST = OFF, Instruction set extension and Indexed Addressing mode disabled (Legacy mo
      +                          de)
  8665                           ;	Background Debugger Enable bit
  8666                           ;	DEBUG = OFF, Background debugger disabled, RB6 and RB7 configured as general purpose I
      +                          /O pins
  8667   300006                     	org	3145734
  8668   300006  81                 	db	129
  8669                           
  8670                           ; Padding undefined space
  8671   300007                     	org	3145735
  8672   300007  FF                 	db	255
  8673                           
  8674                           ;Config register CONFIG5L @ 0x300008
  8675                           ;	Code Protection Block 0
  8676                           ;	CP0 = OFF, Block 0 (000800-001FFFh) not code-protected
  8677                           ;	Code Protection Block 1
  8678                           ;	CP1 = OFF, Block 1 (002000-003FFFh) not code-protected
  8679                           ;	Code Protection Block 2
  8680                           ;	CP2 = OFF, Block 2 (004000-005FFFh) not code-protected
  8681                           ;	Code Protection Block 3
  8682                           ;	CP3 = OFF, Block 3 (006000-007FFFh) not code-protected
  8683   300008                     	org	3145736
  8684   300008  0F                 	db	15
  8685                           
  8686                           ;Config register CONFIG5H @ 0x300009
  8687                           ;	Boot Block Code Protection bit
  8688                           ;	CPB = OFF, Boot block (000000-0007FFh) not code-protected
  8689                           ;	Data EEPROM Code Protection bit
  8690                           ;	CPD = OFF, Data EEPROM not code-protected
  8691   300009                     	org	3145737
  8692   300009  C0                 	db	192
  8693                           
  8694                           ;Config register CONFIG6L @ 0x30000A
  8695                           ;	Write Protection Block 0
  8696                           ;	WRT0 = OFF, Block 0 (000800-001FFFh) not write-protected
  8697                           ;	Write Protection Block 1
  8698                           ;	WRT1 = OFF, Block 1 (002000-003FFFh) not write-protected
  8699                           ;	Write Protection Block 2
  8700                           ;	WRT2 = OFF, Block 2 (004000-005FFFh) not write-protected
  8701                           ;	Write Protection Block 3
  8702                           ;	WRT3 = OFF, Block 3 (006000-007FFFh) not write-protected
  8703   30000A                     	org	3145738
  8704   30000A  0F                 	db	15
  8705                           
  8706                           ;Config register CONFIG6H @ 0x30000B
  8707                           ;	Configuration Register Write Protection bit
  8708                           ;	WRTC = OFF, Configuration registers (300000-3000FFh) not write-protected
  8709                           ;	Boot Block Write Protection bit
  8710                           ;	WRTB = OFF, Boot Block (000000-0007FFh) not write-protected
  8711                           ;	Data EEPROM Write Protection bit
  8712                           ;	WRTD = OFF, Data EEPROM not write-protected
  8713   30000B                     	org	3145739
  8714   30000B  E0                 	db	224
  8715                           
  8716                           ;Config register CONFIG7L @ 0x30000C
  8717                           ;	Table Read Protection Block 0
  8718                           ;	EBTR0 = OFF, Block 0 (000800-001FFFh) not protected from table reads executed in other
      +                           blocks
  8719                           ;	Table Read Protection Block 1
  8720                           ;	EBTR1 = OFF, Block 1 (002000-003FFFh) not protected from table reads executed in other
      +                           blocks
  8721                           ;	Table Read Protection Block 2
  8722                           ;	EBTR2 = OFF, Block 2 (004000-005FFFh) not protected from table reads executed in other
      +                           blocks
  8723                           ;	Table Read Protection Block 3
  8724                           ;	EBTR3 = OFF, Block 3 (006000-007FFFh) not protected from table reads executed in other
      +                           blocks
  8725   30000C                     	org	3145740
  8726   30000C  0F                 	db	15
  8727                           
  8728                           ;Config register CONFIG7H @ 0x30000D
  8729                           ;	Boot Block Table Read Protection bit
  8730                           ;	EBTRB = OFF, Boot Block (000000-0007FFh) not protected from table reads executed in ot
      +                          her blocks
  8731   30000D                     	org	3145741
  8732   30000D  40                 	db	64
  8733                           tosu	equ	0xFFF
  8734                           tosh	equ	0xFFE
  8735                           tosl	equ	0xFFD
  8736                           stkptr	equ	0xFFC
  8737                           pclatu	equ	0xFFB
  8738                           pclath	equ	0xFFA
  8739                           pcl	equ	0xFF9
  8740                           tblptru	equ	0xFF8
  8741                           tblptrh	equ	0xFF7
  8742                           tblptrl	equ	0xFF6
  8743                           tablat	equ	0xFF5
  8744                           prodh	equ	0xFF4
  8745                           prodl	equ	0xFF3
  8746                           indf0	equ	0xFEF
  8747                           postinc0	equ	0xFEE
  8748                           postdec0	equ	0xFED
  8749                           preinc0	equ	0xFEC
  8750                           plusw0	equ	0xFEB
  8751                           fsr0h	equ	0xFEA
  8752                           fsr0l	equ	0xFE9
  8753                           wreg	equ	0xFE8
  8754                           indf1	equ	0xFE7
  8755                           postinc1	equ	0xFE6
  8756                           postdec1	equ	0xFE5
  8757                           preinc1	equ	0xFE4
  8758                           plusw1	equ	0xFE3
  8759                           fsr1h	equ	0xFE2
  8760                           fsr1l	equ	0xFE1
  8761                           bsr	equ	0xFE0
  8762                           indf2	equ	0xFDF
  8763                           postinc2	equ	0xFDE
  8764                           postdec2	equ	0xFDD
  8765                           preinc2	equ	0xFDC
  8766                           plusw2	equ	0xFDB
  8767                           fsr2h	equ	0xFDA
  8768                           fsr2l	equ	0xFD9
  8769                           status	equ	0xFD8

Data Sizes:
    Strings     60
    Constant    0
    Data        7
    BSS         146
    Persistent  12
    Stack       0

Auto Spaces:
    Space          Size  Autos    Used
    COMRAM           95     88      94
    BANK0           160     66     145
    BANK1           256      0      80
    BANK2           256      0       0
    BANK3           256      0       0
    BANK4           256      0       0
    BANK5           239      0       0

Pointer List with Targets:

    ADC_InterruptHandler	PTR FTN()void  size(2) Largest target is 1
		 -> NULL(), 

    strncmp@_r	PTR const unsigned char  size(2) Largest target is 4
		 -> STR_13(CODE[4]), 

    strncmp@r	PTR const unsigned char  size(2) Largest target is 4
		 -> STR_13(CODE[4]), 

    strncmp@_l	PTR const unsigned char  size(2) Largest target is 11
		 -> STR_1(CODE[11]), 

    strncmp@l	PTR const unsigned char  size(2) Largest target is 11
		 -> STR_1(CODE[11]), 

    strlen@s	PTR const unsigned char  size(2) Largest target is 7
		 -> stoa@nuls(COMRAM[7]), ?_sprintf(BANK0[2]), STR_4(CODE[3]), STR_3(CODE[11]), 
		 -> STR_2(CODE[23]), 

    strlen@a	PTR const unsigned char  size(2) Largest target is 7
		 -> stoa@nuls(COMRAM[7]), ?_sprintf(BANK0[2]), STR_4(CODE[3]), STR_3(CODE[11]), 
		 -> STR_2(CODE[23]), 

    strcpy@dest	PTR unsigned char  size(2) Largest target is 80
		 -> dbuf(BANK1[80]), 

    strcpy@d	PTR unsigned char  size(2) Largest target is 80
		 -> dbuf(BANK1[80]), 

    strcpy@src	PTR const unsigned char  size(2) Largest target is 4
		 -> STR_8(CODE[4]), STR_5(CODE[4]), 

    strcpy@s	PTR const unsigned char  size(2) Largest target is 4
		 -> STR_8(CODE[4]), STR_5(CODE[4]), 

    fputs@s	PTR const unsigned char  size(2) Largest target is 80
		 -> dbuf(BANK1[80]), 

    fputs@fp	PTR struct _IO_FILE size(2) Largest target is 12
		 -> sprintf@f(COMRAM[12]), 

    fputc@fp...source	PTR const unsigned char  size(2) Largest target is 0

    fputc@fp...buffer	PTR unsigned char  size(2) Largest target is 0

    fputc@fp	PTR struct _IO_FILE size(2) Largest target is 12
		 -> sprintf@f(COMRAM[12]), 

    memcpy@d1	PTR void  size(2) Largest target is 80
		 -> dbuf(BANK1[80]), 

    memcpy@d	PTR unsigned char  size(2) Largest target is 80
		 -> dbuf(BANK1[80]), 

    memcpy@s1	PTR const void  size(2) Largest target is 80
		 -> dbuf(BANK1[80]), 

    memcpy@s	PTR const unsigned char  size(2) Largest target is 80
		 -> dbuf(BANK1[80]), 

    vfprintf@ap	PTR PTR void  size(2) Largest target is 2
		 -> sprintf@ap(COMRAM[2]), 

    vfprintf@fp	PTR struct _IO_FILE size(2) Largest target is 12
		 -> sprintf@f(COMRAM[12]), 

    vfprintf@fmt	PTR const unsigned char  size(2) Largest target is 11
		 -> STR_1(CODE[11]), 

    vfprintf@cfmt	PTR unsigned char  size(2) Largest target is 11
		 -> STR_1(CODE[11]), 

    vfpfcnvrt@fp	PTR struct _IO_FILE size(2) Largest target is 12
		 -> sprintf@f(COMRAM[12]), 

    vfpfcnvrt@ap	PTR PTR void  size(2) Largest target is 2
		 -> sprintf@ap(COMRAM[2]), 

    vfpfcnvrt@cp	PTR unsigned char  size(2) Largest target is 11
		 -> STR_1(CODE[11]), 

    vfpfcnvrt@fmt	PTR PTR unsigned char  size(2) Largest target is 2
		 -> vfprintf@cfmt(COMRAM[2]), 

    S1063$vp	PTR void  size(2) Largest target is 0

    convarg.vp	PTR void  size(2) Largest target is 0

    stoa@fp	PTR struct _IO_FILE size(2) Largest target is 12
		 -> sprintf@f(COMRAM[12]), 

    stoa@s	PTR unsigned char  size(2) Largest target is 2
		 -> ?_sprintf(BANK0[2]), STR_4(CODE[3]), STR_3(CODE[11]), STR_2(CODE[23]), 

    stoa@cp	PTR unsigned char  size(2) Largest target is 7
		 -> stoa@nuls(COMRAM[7]), ?_sprintf(BANK0[2]), STR_4(CODE[3]), STR_3(CODE[11]), 
		 -> STR_2(CODE[23]), 

    sp__memcpy	PTR void  size(2) Largest target is 80
		 -> dbuf(BANK1[80]), 

    efgtoa@fp	PTR struct _IO_FILE size(2) Largest target is 12
		 -> sprintf@f(COMRAM[12]), 

    sp__strcpy	PTR unsigned char  size(2) Largest target is 80
		 -> dbuf(BANK1[80]), 

    dtoa@fp	PTR struct _IO_FILE size(2) Largest target is 12
		 -> sprintf@f(COMRAM[12]), 

    pad@buf	PTR unsigned char  size(2) Largest target is 80
		 -> dbuf(BANK1[80]), 

    pad@fp	PTR struct _IO_FILE size(2) Largest target is 12
		 -> sprintf@f(COMRAM[12]), 

    sprintf@fmt	PTR const unsigned char  size(2) Largest target is 11
		 -> STR_1(CODE[11]), 

    sprintf@s	PTR unsigned char  size(2) Largest target is 50
		 -> xvalueASCII(BANK0[50]), 

    sprintf@ap	PTR void [1] size(2) Largest target is 2
		 -> ?_sprintf(BANK0[2]), 

    S974$source	PTR const unsigned char  size(2) Largest target is 0

    f...source	PTR const unsigned char  size(2) Largest target is 0

    S974$buffer	PTR unsigned char  size(2) Largest target is 0

    f...buffer	PTR unsigned char  size(2) Largest target is 0

    SendUsartString@str	PTR unsigned char  size(2) Largest target is 50
		 -> xvalueASCII(BANK0[50]), 

    EUSART_SetErrorHandler@interruptHandler	PTR FTN()void  size(2) Largest target is 1
		 -> EUSART_DefaultErrorHandler(), 

    EUSART_ErrorHandler	PTR FTN()void  size(2) Largest target is 1
		 -> NULL(), EUSART_DefaultErrorHandler(), 

    EUSART_SetOverrunErrorHandler@interruptHandler	PTR FTN()void  size(2) Largest target is 1
		 -> EUSART_DefaultOverrunErrorHandler(), 

    EUSART_OverrunErrorHandler	PTR FTN()void  size(2) Largest target is 1
		 -> NULL(), EUSART_DefaultOverrunErrorHandler(), 

    EUSART_SetFramingErrorHandler@interruptHandler	PTR FTN()void  size(2) Largest target is 1
		 -> EUSART_DefaultFramingErrorHandler(), 

    EUSART_FramingErrorHandler	PTR FTN()void  size(2) Largest target is 1
		 -> NULL(), EUSART_DefaultFramingErrorHandler(), 


Critical Paths under _main in COMRAM

    _main->_sprintf
    _sprintf->_vfprintf
    _vfprintf->_vfpfcnvrt
    _vfpfcnvrt->_efgtoa
    _stoa->_fputc
    _efgtoa->_floorf
    _floorf->___fldiv
    ___flsub->___flmul
    ___flge->___flmul
    _dtoa->_pad
    _pad->_fputs
    _fputs->_fputc
    _abs->___awmod
    _map->___aldiv
    ___aldiv->___lmul
    ___xxtofl->_map
    _SendUsartString->_EUSART_Write
    _EUSART_Initialize->_EUSART_SetErrorHandler
    _EUSART_Initialize->_EUSART_SetFramingErrorHandler
    _EUSART_Initialize->_EUSART_SetOverrunErrorHandler

Critical Paths under _main in BANK0

    _main->_sprintf
    _sprintf->_vfprintf
    _vfpfcnvrt->_efgtoa

Critical Paths under _main in BANK1

    None.

Critical Paths under _main in BANK2

    None.

Critical Paths under _main in BANK3

    None.

Critical Paths under _main in BANK4

    None.

Critical Paths under _main in BANK5

    None.

Call Graph Tables:

 ---------------------------------------------------------------------------------
 (Depth) Function   	        Calls       Base Space   Used Autos Params    Refs
 ---------------------------------------------------------------------------------
 (0) _main                                                 1     1      0   31359
                                             87 COMRAM     1     1      0
                  _ADC_GetConversion
                  _SYSTEM_Initialize
                    _SendUsartString
                           ___xxtofl
                                _map
                            _sprintf
 ---------------------------------------------------------------------------------
 (1) _sprintf                                             32    16     16   29146
                                             73 COMRAM    14    14      0
                                             50 BANK0     16     0     16
                           _vfprintf
 ---------------------------------------------------------------------------------
 (2) _vfprintf                                             8     2      6   28789
                                             71 COMRAM     2     2      0
                                             44 BANK0      6     0      6
                          _vfpfcnvrt
 ---------------------------------------------------------------------------------
 (3) _vfpfcnvrt                                           21    15      6   28431
                                             54 COMRAM    17    11      6
                               _dtoa
                             _efgtoa
                              _fputc
                               _stoa
                            _strncmp
 ---------------------------------------------------------------------------------
 (4) _strncmp                                             11     5      6     453
                                              0 COMRAM    11     5      6
 ---------------------------------------------------------------------------------
 (4) _stoa                                                22    18      4    1670
                                              9 COMRAM    22    18      4
                              _fputc
                             _strlen
 ---------------------------------------------------------------------------------
 (5) _strlen                                               4     2      2     166
                                              0 COMRAM     4     2      2
 ---------------------------------------------------------------------------------
 (4) _efgtoa                                              54    47      7   19417
                                             45 COMRAM     9     2      7
                                              0 BANK0     44    44      0
                            ___fladd
                            ___fldiv
                             ___fleq
                             ___flge
                            ___flmul
                            ___flneg
                            ___flsub
                            ___fltol
                      ___fpclassifyf
                             _floorf
                               _labs
                             _memcpy
                                _pad
                             _strcpy
 ---------------------------------------------------------------------------------
 (5) _strcpy                                               8     4      4     400
                                              0 COMRAM     8     4      4
 ---------------------------------------------------------------------------------
 (5) _memcpy                                              11     5      6     371
                                              0 COMRAM    11     5      6
 ---------------------------------------------------------------------------------
 (5) _labs                                                 8     4      4     294
                                              0 COMRAM     8     4      4
 ---------------------------------------------------------------------------------
 (5) _floorf                                              20    16      4     490
                                             25 COMRAM    20    16      4
                            ___fldiv (ARG)
 ---------------------------------------------------------------------------------
 (5) ___fpclassifyf                                       14    10      4     287
                                              0 COMRAM    14    10      4
 ---------------------------------------------------------------------------------
 (5) ___fltol                                             10     6      4     457
                                              0 COMRAM    10     6      4
 ---------------------------------------------------------------------------------
 (5) ___flsub                                              8     0      8    2889
                                             25 COMRAM     8     0      8
                            ___fladd
                            ___flmul (ARG)
 ---------------------------------------------------------------------------------
 (6) ___fladd                                             16     8      8    2414
                                              0 COMRAM    16     8      8
 ---------------------------------------------------------------------------------
 (5) ___flneg                                              4     0      4     121
                                              0 COMRAM     4     0      4
 ---------------------------------------------------------------------------------
 (5) ___flmul                                             25    17      8    2504
                                              0 COMRAM    25    17      8
 ---------------------------------------------------------------------------------
 (5) ___flge                                              12     4      8     790
                                             25 COMRAM    12     4      8
                            ___flmul (ARG)
 ---------------------------------------------------------------------------------
 (5) ___fleq                                              12     4      8     646
                                              0 COMRAM    12     4      8
 ---------------------------------------------------------------------------------
 (5) ___fldiv                                             25    17      8    2007
                                              0 COMRAM    25    17      8
 ---------------------------------------------------------------------------------
 (4) _dtoa                                                13     9      4    4918
                                             27 COMRAM    13     9      4
                            ___awdiv
                            ___awmod
                                _abs
                                _pad
 ---------------------------------------------------------------------------------
 (5) _pad                                                 11     5      6    3291
                                             16 COMRAM    11     5      6
                              _fputc
                              _fputs
 ---------------------------------------------------------------------------------
 (6) _fputs                                                7     3      4    1235
                                              9 COMRAM     7     3      4
                              _fputc
 ---------------------------------------------------------------------------------
 (5) _fputc                                                9     5      4     986
                                              0 COMRAM     9     5      4
                              _putch
 ---------------------------------------------------------------------------------
 (6) _putch                                                1     1      0       0
 ---------------------------------------------------------------------------------
 (5) _abs                                                  4     2      2     142
                                              6 COMRAM     4     2      2
                            ___awmod (ARG)
 ---------------------------------------------------------------------------------
 (5) ___awmod                                              6     2      4     448
                                              0 COMRAM     6     2      4
 ---------------------------------------------------------------------------------
 (5) ___awdiv                                              8     4      4     452
                                              0 COMRAM     8     4      4
 ---------------------------------------------------------------------------------
 (1) _map                                                 20     0     20    1356
                                             26 COMRAM    20     0     20
                            ___aldiv
                             ___lmul
 ---------------------------------------------------------------------------------
 (2) ___lmul                                              12     4      8     370
                                              0 COMRAM    12     4      8
 ---------------------------------------------------------------------------------
 (2) ___aldiv                                             14     6      8     452
                                             12 COMRAM    14     6      8
                             ___lmul (ARG)
 ---------------------------------------------------------------------------------
 (1) ___xxtofl                                            14    10      4     398
                                             46 COMRAM    14    10      4
                                _map (ARG)
 ---------------------------------------------------------------------------------
 (1) _SendUsartString                                      2     0      2     143
                                              1 COMRAM     2     0      2
                       _EUSART_Write
 ---------------------------------------------------------------------------------
 (2) _EUSART_Write                                         1     1      0      22
                                              0 COMRAM     1     1      0
 ---------------------------------------------------------------------------------
 (1) _SYSTEM_Initialize                                    0     0      0     294
                     _ADC_Initialize
                  _EUSART_Initialize
              _OSCILLATOR_Initialize
             _PIN_MANAGER_Initialize
 ---------------------------------------------------------------------------------
 (2) _PIN_MANAGER_Initialize                               0     0      0       0
 ---------------------------------------------------------------------------------
 (2) _OSCILLATOR_Initialize                                0     0      0       0
 ---------------------------------------------------------------------------------
 (2) _EUSART_Initialize                                    0     0      0     294
             _EUSART_SetErrorHandler
      _EUSART_SetFramingErrorHandler
      _EUSART_SetOverrunErrorHandler
 ---------------------------------------------------------------------------------
 (3) _EUSART_SetOverrunErrorHandler                        2     0      2      98
                                              0 COMRAM     2     0      2
 ---------------------------------------------------------------------------------
 (3) _EUSART_SetFramingErrorHandler                        2     0      2      98
                                              0 COMRAM     2     0      2
 ---------------------------------------------------------------------------------
 (3) _EUSART_SetErrorHandler                               2     0      2      98
                                              0 COMRAM     2     0      2
 ---------------------------------------------------------------------------------
 (2) _ADC_Initialize                                       0     0      0       0
 ---------------------------------------------------------------------------------
 (1) _ADC_GetConversion                                    5     3      2      22
                                              0 COMRAM     5     3      2
 ---------------------------------------------------------------------------------
 Estimated maximum stack depth 6
 ---------------------------------------------------------------------------------

 Call Graph Graphs:

 _main (ROOT)
   _ADC_GetConversion
   _SYSTEM_Initialize
     _ADC_Initialize
     _EUSART_Initialize
       _EUSART_SetErrorHandler
       _EUSART_SetFramingErrorHandler
       _EUSART_SetOverrunErrorHandler
     _OSCILLATOR_Initialize
     _PIN_MANAGER_Initialize
   _SendUsartString
     _EUSART_Write
   ___xxtofl
     _map (ARG)
       ___aldiv
         ___lmul (ARG)
       ___lmul
   _map
   _sprintf
     _vfprintf
       _vfpfcnvrt
         _dtoa
           ___awdiv
           ___awmod
           _abs
             ___awmod (ARG)
           _pad
             _fputc
               _putch
             _fputs
               _fputc
         _efgtoa
           ___fladd
           ___fldiv
           ___fleq
           ___flge
             ___flmul (ARG)
           ___flmul
           ___flneg
           ___flsub
             ___fladd
             ___flmul (ARG)
           ___fltol
           ___fpclassifyf
           _floorf
             ___fldiv (ARG)
           _labs
           _memcpy
           _pad
           _strcpy
         _fputc
         _stoa
           _fputc
           _strlen
         _strncmp

 Address spaces:
Name               Size   Autos  Total    Cost      Usage
BIGRAM             5EE      0       0      31        0.0%
EEDATA             100      0       0       0        0.0%
BITBANK4           100      0       0      11        0.0%
BANK4              100      0       0      12        0.0%
BITBANK3           100      0       0       9        0.0%
BANK3              100      0       0      10        0.0%
BITBANK2           100      0       0       7        0.0%
BANK2              100      0       0       8        0.0%
BITBANK1           100      0       0       5        0.0%
BANK1              100      0      50       6       31.2%
BITBANK5            EF      0       0      13        0.0%
BANK5               EF      0       0      14        0.0%
BITBANK0            A0      0       0       3        0.0%
BANK0               A0     42      91       4       90.6%
BITCOMRAM           5F      0       0       0        0.0%
COMRAM              5F     58      5E       1       98.9%
BITBIGSFRllll       1C      0       0      29        0.0%
BITBIGSFR_1hhh       E      0       0      20        0.0%
BITBIGSFR_1llh       C      0       0      23        0.0%
BITBIGSFR_5h         9      0       0      15        0.0%
BITBIGSFRllh         9      0       0      27        0.0%
BITBIGSFR_1lhh       7      0       0      22        0.0%
BITBIGSFR_1hl        7      0       0      21        0.0%
BITBIGSFR_2          6      0       0      19        0.0%
BITBIGSFRhh          4      0       0      25        0.0%
BITBIGSFRhll         4      0       0      26        0.0%
BITBIGSFR_4          3      0       0      17        0.0%
BITBIGSFR_3          3      0       0      18        0.0%
BITBIGSFRlllh        1      0       0      28        0.0%
BITBIGSFR_5l         1      0       0      16        0.0%
BITBIGSFR_1lll       1      0       0      24        0.0%
BIGSFR_5             0      0       0     200        0.0%
BIGSFR_4             0      0       0     200        0.0%
BIGSFR_3             0      0       0     200        0.0%
BIGSFR_2             0      0       0     200        0.0%
BIGSFR_1             0      0       0     200        0.0%
BIGSFR               0      0       0     200        0.0%
BITSFR_5             0      0       0     200        0.0%
SFR_5                0      0       0     200        0.0%
BITSFR_4             0      0       0     200        0.0%
SFR_4                0      0       0     200        0.0%
BITSFR_3             0      0       0     200        0.0%
SFR_3                0      0       0     200        0.0%
BITSFR_2             0      0       0     200        0.0%
SFR_2                0      0       0     200        0.0%
BITSFR_1             0      0       0     200        0.0%
SFR_1                0      0       0     200        0.0%
BITSFR               0      0       0     200        0.0%
SFR                  0      0       0     200        0.0%
STACK                0      0       0       2        0.0%
NULL                 0      0       0       0        0.0%
ABS                  0      0     13F      30        0.0%
DATA                 0      0     13F      32        0.0%
CODE                 0      0       0       0        0.0%


Microchip Technology PIC18 Macro Assembler V2.41 build 20230208172133 
Symbol Table                                                                                   Sat Nov 25 21:42:08 2023

                                 ___fldiv@aexp 0019                                   ___fldiv@bexp 0018  
                                 ___fldiv@sign 0011                                             l33 351C  
                                           l79 344A                                   ___awdiv@sign 0006  
                                          l103 3520                                            l121 356E  
                                          l106 3532                                            l124 3582  
                                          l301 27EE                                            l118 3578  
                                          l143 3548                                            l207 2AFC  
                                          l216 34EC                                            l161 3484  
                                          l233 3100                                            l234 3110  
                                          l219 30A6                                            l158 3464  
                                          l182 3564                                            l179 355A  
                                          l453 2E58                                            l519 28F4  
                                          l481 2FB2                                            l466 2F08  
                                          l804 1CBA                                            l492 29F8  
                                          l900 31C6                                            l806 1B1A  
                                          l750 1226                                            l815 1B60  
                                          l487 29B2                                            l751 1214  
                                          l840 1920                                            l496 34BC  
                                          l752 11DA                                            l817 1BD8  
                                          l809 1ADE                                            l818 1BC6  
                                          l843 17B2                                            l940 302C  
                                          l836 15BC                                            l853 18E2  
                                          l845 182A                                            l846 1818  
                                          l767 1340                                            l759 14F6  
                                          l880 2414                                            l936 2FD6  
                                          l776 1410                                            l792 3348  
                                          l945 245C                                            l777 13FE  
                                          l970 1036                                            l891 23AC  
                                          l947 2464                                            l884 2350  
                                          l948 24AA                                            l877 22B8  
                                          l973 09D0                                            l959 25A8  
                                          l975 0816                                            _abs 33CE  
                                          _pad 2FB4                                            _map 302E  
               ?_EUSART_SetFramingErrorHandler 0001                                   ___awmod@sign 0006  
                                          wreg 0FE8                                   ___flmul@aexp 0012  
                                 ___flmul@bexp 0013                                   ___flmul@sign 000D  
                                 ___flmul@temp 0018                                   ___flmul@prod 0014  
                                 ___fltol@exp1 000A                                           l1003 0E1A  
                                         l1100 3166                                           l1020 2632  
                                         l1103 3176                                           l1121 2D94  
                                         l1018 262A                                           ?_abs 0007  
                                         l1132 358C                                           l1036 204E  
                                         l1109 3266                                           l1029 26E2  
                                         l1080 3404                                           l1144 3302  
                                         l1129 338C                                           l1065 3216  
                                         l1138 33CC                                           l1083 340C  
                                         l3003 1BE8                                           l3011 1C30  
                                         l1075 2AF6                                           l1092 21A4  
                                         l1148 2CCA                                           l3021 1C9A  
                                         l3013 1C4A                                           l3005 1BF4  
                                         l3101 16B8                                           l3023 1CA8  
                                         l3015 1C60                                           l3007 1C02  
                                         l3111 1736                                           l3103 16C8  
                                         l4001 22DE                                           l3201 2E2A  
                                         l3025 1CAE                                           l3017 1C7A  
                                         l3009 1C2C                                           l3121 17B0  
                                         l3113 176C                                           l3105 16E4  
                                         l3041 1514                                           l1089 2260  
                                         l4011 2338                                           l3211 2E50  
                                         l3203 2E2C                                           l3027 1CB0  
                                         l3019 1C96                                           l3131 1810  
                                         l3123 17C2                                           l3115 177A  
                                         l3107 16F0                                           l3051 155A  
                                         l3043 1524                                           l3035 14F8  
                                         l4021 239C                                           l4013 233A  
                                         l4005 22F2                                           l3205 2E32  
                                         l3221 2E74                                           l3141 187E  
                                         l3125 17D0                                           l3117 1798  
                                         l3109 170C                                           l3061 1586  
                                         l3053 1560                                           l3045 1534  
                                         l3037 1504                                           l4031 23F4  
                                         l4023 23BA                                           l4015 2346  
                                         l4007 22FA                                           l3207 2E38  
                                         l3231 2EA8                                           l3223 2E78  
                                         l3215 2E5A                                           l3151 18E6  
                                         l3135 183A                                           l3143 1882  
                                         l3127 17D4                                           l3119 17A2  
                                         l3071 15DC                                           l3063 1596  
                                         l3055 1566                                           l3047 1544  
                                         l3039 1512                                           l3311 285A  
                                         l3303 281A                                           l4111 2006  
                                         l4033 2402                                           l4025 23BC  
                                         l4017 2382                                           l4009 2306  
                                         l3209 2E48                                           l3241 2EE2  
                                         l3233 2EB0                                           l3225 2E86  
                                         l3217 2E5E                                           l3161 1910  
                                         l3153 18F6                                           l3145 189C  
                                         l3137 1846                                           l3129 17E2  
                                         l3081 161C                                           l3065 15A6  
                                         l3057 1574                                           l3049 154A  
                                         l3321 288A                                           l3313 2868  
                                         l3305 2844                                           l3401 2158  
                                         l4041 2B86                                           l4035 2404  
                                         l4027 23C0                                           l4019 238E  
                                         l3171 2D96                                           l3235 2EBE  
                                         l3243 2EE8                                           l3227 2E8E  
                                         l3219 2E6C                                           l3251 2F0A  
                                         l3155 1904                                           l3147 18B0  
                                         l3139 1854                                           l3091 1666  
                                         l3083 1628                                           l3075 15F0  
                                         l3067 15AC                                           l3059 1576  
                                         l3331 28B4                                           l3323 2894  
                                         l3307 2846                                           l3411 2240  
                                         l3403 2194                                           l4107 1ECA  
                                         l4043 2BCC                                           l4029 23E4  
                                         l3181 2DC2                                           l3173 2D9A  
                                         l3245 2EF8                                           l3237 2ED4  
                                         l3229 2EA0                                           l3341 2FB4  
                                         l3261 2FAA                                           l3253 2F38  
                                         l3157 1906                                           l3149 18CA  
                                         l3093 1672                                           l3085 1640  
                                         l3077 15FC                                           l3069 15CC  
                                         l2701 1086                                           l3165 3304  
                                         l3333 28C4                                           l3309 2856  
                                         l3413 2250                                           l3405 21C8  
                                         l3421 3238                                           l3501 0694  
                                         l4109 1F84                                           l4045 2BD8  
                                         l3191 2DF0                                           l3183 2DCA  
                                         l3175 2DA8                                           l3247 2F00  
                                         l3239 2EDC                                           l3351 2FFA  
                                         l3343 2FC2                                           l3263 2FB0  
                                         l3255 2F48                                           l3271 2934  
                                         l3159 190C                                           l3095 1682  
                                         l3087 164C                                           l3079 1606  
                                         l2711 10B8                                           l2703 108E  
                                         l3167 3314                                           l3335 28D4  
                                         l3319 2880                                           l3407 2204  
                                         l3423 323C                                           l3511 06D0  
                                         l3503 069C                                           l3431 32C2  
                                         l4039 2AF8                                           l3193 2DF8  
                                         l3185 2DCE                                           l3177 2DB0  
                                         l3353 3018                                           l3345 2FCE  
                                         l3441 242A                                           l3257 2F76  
                                         l3281 29A0                                           l3273 2962  
                                         l3097 168E                                           l3089 1658  
                                         l2801 1290                                           l2721 10EE  
                                         l2713 10BE                                           l2705 109E  
                                         l3337 28E4                                           l3329 28A8  
                                         l3361 2A1A                                           l3409 2218  
                                         l3425 3248                                           l3417 3218  
                                         l3601 0A74                                           l3521 0716  
                                         l3505 06AC                                           l3513 06D4  
                                         l3433 32C6                                           l3195 2E06  
                                         l3187 2DD6                                           l3179 2DB4  
                                         l3355 33CE                                           l3347 2FE2  
                                         l3451 247C                                           l3443 243A  
                                         l3259 2F86                                           l3283 29F0  
                                         l3275 2972                                           l3267 28F6  
                                         l3099 169E                                           l3291 349C  
                                         l2803 1294                                           l2811 12B4  
                                         l2731 112A                                           l2723 10FE  
                                         l2715 10CC                                           l2707 10A4  
                                         l3363 2A58                                           l3371 2A98  
                                         l3419 322C                                           l3427 324C  
                                         l3603 0A88                                           l3611 0B7E  
                                         l3523 071E                                           l3515 06FA  
                                         l3531 0760                                           l3507 06BC  
                                         l3435 32F6                                           l3197 2E0C  
                                         l3189 2DE8                                           l3357 33E8  
                                         l3349 2FF6                                           l3461 24B2  
                                         l3453 2482                                           l3445 2442  
                                         l2901 193C                                           l3285 29F6  
                                         l3277 2980                                           l3269 2924  
                                         l3293 34AC                                           l2813 12DA  
                                         l2821 1330                                           l2805 12A2  
                                         l2741 1148                                           l2733 1138  
                                         l2725 1100                                           l2717 10CE  
                                         l2709 10B6                                           l3373 2AAA  
                                         l3365 2A80                                           l3381 338E  
                                         l3701 0FE8                                           l3621 0C4A  
                                         l3613 0B9C                                           l3605 0AEC  
                                         l3541 07AA                                           l3533 0786  
                                         l3525 0736                                           l3517 070C  
                                         l3509 06C8                                           l3429 32B6  
                                         l3199 2E22                                           l3471 2500  
                                         l3463 24BC                                           l3455 2492  
                                         l3447 2450                                           l3439 2416  
                                         l2911 1970                                           l2903 193E  
                                         l3279 2992                                           l2831 1384  
                                         l2823 1356                                           l2815 130E  
                                         l2807 12A4                                           l2751 115C  
                                         l2743 114C                                           l2735 113C  
                                         l2719 10DE                                           l2727 1108  
                                         l3367 2A8C                                           l3359 29FA  
                                         l3391 2070                                           l3383 339E  
                                         l3703 0FF8                                           l3631 0CFA  
                                         l3623 0C5A                                           l3615 0BD0  
                                         l3607 0B44                                           l3551 07E0  
                                         l3535 0798                                           l3527 0740  
                                         l3519 0710                                           l3711 25AA  
                                         l2681 2D18                                           l2673 2CCC  
                                         l3481 2572                                           l3465 24C2  
                                         l3473 251C                                           l3457 249E  
                                         l3449 246C                                           l2921 19A2  
                                         l2905 194E                                           l2913 1978  
                                         l3289 3486                                           l2841 13AE  
                                         l2833 1392                                           l2825 1366  
                                         l2817 1310                                           l2809 12AE  
                                         l2761 1170                                           l2753 1160  
                                         l2745 1150                                           l2737 1140  
                                         l2729 1118                                           l3297 27F0  
                                         l3377 2AEE                                           l3393 20C6  
                                         l3385 3112                                           l3705 100E  
                                         l3641 0D5E                                           l3633 0D2E  
                                         l3625 0C6A                                           l3617 0C02  
                                         l3609 0B78                                           l3561 089E  
                                         l3537 079C                                           l3721 25F2  
                                         l3713 25BC                                           l3801 1E44  
                                         l2683 2D4E                                           l2675 2CDE  
                                         l3483 2578                                           l3475 2536  
                                         l3467 24F4                                           l3459 24A6  
                                         l2931 19D6                                           l2923 19A4  
                                         l2915 1988                                           l2907 195E  
                                         l2851 13E0                                           l2843 13BE  
                                         l2835 1394                                           l2819 1320  
                                         l2771 11C2                                           l2763 1174  
                                         l2755 1164                                           l2747 1154  
                                         l2739 1144                                           l2691 1052  
                                         l3299 2806                                           l3395 20DA  
                                         l3387 3130                                           l3707 1016  
                                         l3651 0E10                                           l3643 0D64  
                                         l3635 0D42                                           l3627 0C9E  
                                         l3619 0C18                                           l3571 095E  
                                         l3563 08D0                                           l3555 0826  
                                         l3539 07A2                                           l3491 0644  
                                         l3731 265E                                           l3723 25FA  
                                         l3715 25C4                                           l3811 1EA6  
                                         l3901 26E4                                           l2677 2CF0  
                                         l3485 2588                                           l3477 2548  
                                         l3469 24FA                                           l2941 1A1C  
                                         l2925 19B4                                           l2933 19DE  
                                         l2917 198E                                           l2909 196E  
                                         l2861 143A                                           l2853 13F6  
                                         l2837 13A2                                           l2829 137A  
                                         l2845 13C0                                           l2781 1206  
                                         l2773 11D2                                           l2757 1168  
                                         l2749 1158                                           l2765 1178  
                                         l2693 1054                                           l3397 20E8  
                                         l3389 2050                                           l3661 0E54  
                                         l3653 0E2C                                           l3645 0D6C  
                                         l3629 0CF4                                           l3637 0D46  
                                         l3581 09F2                                           l3565 090E  
                                         l3557 082C                                           l3549 07C6  
                                         l3493 0654                                           l3741 26C4  
                                         l3733 267C                                           l3725 2608  
                                         l3717 25D6                                           l3821 1F08  
                                         l3813 1EAE                                           l3805 1E7C  
                                         ?_map 001B                                           ?_pad 0011  
                                         l3911 2718                                           l3903 26E8  
                                         l2679 2CFA                                           l3479 2562  
                                         l2951 1A44                                           l2943 1A20  
                                         l2935 19EE                                           l2927 19C4  
                                         l2919 1994                                           l2871 14B6  
                                         l2863 1474                                           l2839 13AA  
                                         l2847 13CE                                           l2783 1208  
                                         l2775 11E8                                           l2767 117C  
                                         l2759 116C                                           l2695 1064  
                                         l2687 1038                                           l3663 0E5C  
                                         l3655 0E3A                                           l3671 0E7C  
                                         l3647 0D78                                           l3639 0D56  
                                         l3591 0A2A                                           l3583 09FC  
                                         l3567 0922                                           l3575 099E  
                                         l3559 0860                                           l3495 0662  
                                         l3735 2688                                           l3727 2646  
                                         l3719 25DE                                           l3751 2C32  
                                         l3743 2BEE                                           l3831 1FBA  
                                         l3823 1F3C                                           l3807 1E8C  
                                         l3921 275A                                           l3913 2728  
                                         l3905 26F6                                           l2961 1A92  
                                         l2937 1A04                                           l2929 19D4  
                                         l2881 14D6                                           l2873 14BA  
                                         l2857 1420                                           l2865 1476  
                                         l2849 13D2                                           l2793 1258  
                                         l2785 1212                                           l2777 11F4  
                                         l2769 11A6                                           l2697 1074  
                                         l2689 1044                                           l3681 0F02  
                                         l3673 0E8E                                           l3665 0E6C  
                                         l3657 0E4A                                           l3649 0DF0  
                                         l3593 0A42                                           l3585 0A04  
                                         l3577 09D8                                           l3569 0956  
                                         l3497 0666                                           l3489 063E  
                                         l3737 26BC                                           l3729 265A  
                                         l3753 2C4E                                           l3745 2C18  
                                         l3809 1E9E                                           l3817 1EB6  
                                         l3763 3570                                           l3931 27AC  
                                         l3923 2766                                           l3915 272C  
                                         l3907 2706                                           l2891 3356  
                                         l2971 1ADC                                           l2963 1AA2  
                                         l2955 1A58                                           l2939 1A14  
                                         l2947 1A34                                           l2883 14E4  
                                         l2875 14C8                                           l2867 1486  
                                         l2859 142C                                           l2795 1268  
                                         l2787 1234                                           l2779 11F8  
                                         l2699 1084                                           l3691 0F7C  
                                         l3683 0F36                                           l3675 0EA0  
                                         l3667 0E70                                           l3659 0E4E  
                                         l3595 0A54                                           l3587 0A0A  
                                         l3579 09E6                                           l3499 068A  
                                         l3739 26C0                                           l3755 2C6A  
                                         l3827 1F70                                           l3819 1EE8  
                                         l3771 1CE0                                           l3843 2026  
                                         l3765 3566                                           l3861 34EE  
                                         l3941 27DE                                           l3933 27AE  
                                         l3925 2774                                           l3917 273C  
                                         l3909 270A                                           l2893 3368  
                                         l2981 1B2A                                           l2973 1AE8  
                                         l2965 1AAA                                           l2957 1A72  
                                         l2949 1A44                                           l2885 14E6  
                                         l2877 14CE                                           l2869 1496  
                                         l2797 1276                                           l2789 1244  
                                         l3693 0F84                                           l3685 0F3E  
                                         l3677 0EA4                                           l3669 0E76  
                                         l3589 0A1C                                           l3597 0A5C  
                                         l3757 2C7C                                           l3749 2C24  
                                         l3837 1FE8                                           l3829 1F9A  
                                         l3781 1D2A                                           l3773 1CEE  
                                         l3767 357A                                           l3871 351A  
                                         l3863 3506                                           l3935 27B8  
                                         l3927 277E                                           l3919 2752  
                                         l2895 336C                                           l2983 1B40  
                                         l2991 1B70                                           l2975 1B06  
                                         l2967 1ABA                                           l2959 1A82  
                                         l2879 14D0                                           l2799 1284  
                                         l3695 0F92                                           l3679 0EAA  
                                         l3687 0F42                                           l3599 0A64  
                                         l3759 2CA6                                           l3839 2014  
                                         l3791 1DC6                                           l3783 1D46  
                                         l3775 1CFA                                           l3951 320C  
                                         l3961 3472                                           l3881 3446  
                                         l3873 340E                                           l3865 3508  
                                         l3929 279C                                           l3937 27BE  
                                         l2889 334A                                           l2993 1B7E  
                                         l2985 1B46                                           l2977 1B08  
                                         l2969 1ACE                                           l2897 1922  
                                         l3697 0FC2                                           l3689 0F60  
                                         l3793 1DFC                                           l3785 1D8A  
                                         l3777 1CFE                                           l3769 1CBC  
                                         l3945 31C8                                           l3955 344E  
                                         l3875 3422                                           l3867 350E  
                                         l3883 3520                                           l3939 27CE  
                                         l3891 30A8                                           l2995 1B82  
                                         l2987 1B50                                           l2979 1B18  
                                         l2899 192E                                           l3699 0FD0  
                                         l3795 1E20                                           l3779 1D0E  
                                         l3947 31D4                                           l3957 3460  
                                         l3877 342E                                           l3869 3510  
                                         l3965 354A                                           l3885 352E  
                                         l3893 30B8                                           l2997 1B90  
                                         l2989 1B5E                                           l3797 1E2C  
                                         l3789 1DA2                                           l3949 31F0  
                                         l3981 31B6                                           l3973 3178  
                                         l3959 3462                                           l3887 3534  
                                         l3879 343A                                           l3967 3556  
                                         l3991 34D4                                           l3895 30C6  
                                         l2999 1BBE                                           l3799 1E34  
                                         l3975 3188                                           l3889 355C  
                                         l3985 34BE                                           l3993 2264  
                                         l3897 30D6                                           l3969 302E  
                                         l3977 3190                                           l3987 34C2  
                                         l3995 2274                                           l3899 30E0  
                                         l3979 3198                                           l3989 34D0  
                                         l3997 2282                                           l3999 22C8  
                                         STR_1 0623                                           STR_2 0601  
                                         STR_3 0618                                           STR_4 063A  
                                         STR_5 062E                                           STR_8 0632  
                                         u3000 15CC                                           u3001 15C8  
                                         u3010 15DC                                           u3011 15D8  
                                         u2300 2D4E                                           u3100 189C  
                                         u3020 1756                                           u2301 2D4A  
                                         u3101 1898                                           _LATA 0F89  
                                         u3110 18CA                                           u3030 17B0  
                                         u2310 1052                                           _LATB 0F8A  
                                         u3111 18C6                                           u3031 17AC  
                                         u2311 104E                                           _LATC 0F8B  
                                         u3200 2E86                                           u3120 1904  
                                         u3040 17D0                                           u2400 11A6  
                                         u2320 1064                                           u4000 0E2C  
                                         _LATD 0F8C                                           u3201 2E82  
                                         u3121 1900                                           u3041 17CC  
                                         u3025 174C                                           u2401 11A2  
                                         u2321 1060                                           u4001 0E28  
                                         _LATE 0F8D                                           u3130 2DA8  
                                         u3210 2EA0                                           u3050 17E2  
                                         u2410 11BE                                           u2330 1074  
                                         u4010 0E3A                                           u3131 2DA4  
                                         u3211 2E9C                                           u3051 17DE  
                                         u2411 11B8                                           u2331 1070  
                                         u4011 0E36                                           u3140 2DC2  
                                         u3220 2EBE                                           u3300 2980  
                                         u3060 1810                                           u2500 12A2  
                                         u2420 11C0                                           u2340 10B6  
                                         u4020 0E8E                                           u4100 2608  
                                         u3141 2DBE                                           u3221 2EBA  
                                         u3301 297C                                           u3061 180C  
                                         u2501 129E                                           u2341 10B2  
                                         u4021 0E8A                                           u4101 2604  
                                         u3150 2DE8                                           u3230 2ED4  
                                         u2270 2CDE                                           u3310 29A0  
                                         u3070 1826                                           u2510 12DA  
                                         u2430 11E8                                           u2350 10CC  
                                         u4030 0F60                                           u4110 2626  
                                         u3151 2DE4                                           u3231 2ED0  
                                         u2271 2CDA                                           u3311 299C  
                                         u3071 1822                                           u2511 12D6  
                                         u2431 11E4                                           u2351 10C8  
                                         u4031 0F5C                                           u4111 2622  
                                         u3160 2E06                                           u3240 2EF8  
                                         u2280 2CF0                                           u3320 29F0  
                                         u3080 183A                                           u2600 13F6  
                                         u2520 1320                                           u2440 1206  
                                         u2360 10DE                                           u3400 28D4  
                                         u4040 0F7C                                           u4120 267C  
                                         u4200 1CE0                                           u3161 2E02  
                                         u3241 2EF4                                           u2281 2CEC  
                                         u3321 29EC                                           u3081 1836  
                                         u2601 13F2                                           u2521 131C  
                                         u2441 1202                                           u2361 10DA  
                                         u3401 28D0                                           u4041 0F78  
                                         u4121 2678                                           u4201 1CDC  
                                         u3170 2E22                                           u2290 2D18  
                                         u3410 2FC2                                           u3250 2F38  
                                         u3090 1854                                           u3330 349C  
                                         u2610 140C                                           u2530 1356  
                                         u2450 1226                                           u2370 10EE  
                                         u4050 0FE2                                           u4130 26A8  
                                         u4210 1D2A                                           u3171 2E1E  
                                         u2291 2D14                                           u3411 2FBE  
                                         u3251 2F34                                           u3091 1850  
                                         u3331 3498                                           u2611 1408  
                                         u2531 1352                                           u2451 1222  
                                         u2371 10EA                                           u4051 0FDC  
                                         u4211 1D26                                           u4300 26F6  
                                         u3180 2E48                                           u2700 338C  
                                         u3420 3018                                           u3260 2F76  
                                         u2620 1420                                           u2540 1366  
                                         u2460 1234                                           u2380 112A  
                                         u3340 2806                                           u3500 2AE6  
                                         u4060 0FE4                                           u4140 26E2  
                                         u4220 1D46                                           u4301 26F2  
                                         u3181 2E44                                           u2701 3388  
                                         u3421 3014                                           u3261 2F72  
                                         u2621 141C                                           u2541 1362  
                                         u2461 1230                                           u2381 1126  
                                         u3341 2802                                           u4141 26DE  
                                         u4221 1D42                                           u4310 2718  
                                         u3190 2E6C                                           u3430 33E8  
                                         u2710 193C                                           u3270 2FAA  
                                         u2630 143A                                           u2550 1392  
                                         u2470 1244                                           u2390 1138  
                                         u3350 283A                                           u3510 33CC  
                                         u4070 0FF8                                           u4150 2C18  
                                         u4230 1DC6                                           u4311 2714  
                                         u3191 2E68                                           u3431 33E4  
                                         u2711 1938                                           u3271 2FA6  
                                         u2631 1436                                           u2551 138E  
                                         u2471 1240                                           u2391 1134  
                                         u3511 33C8                                           u4071 0FF4  
                                         u4151 2C14                                           u4231 1DC2  
                                         u4400 2282                                           u4320 2752  
                                         u2800 1ADC                                           u2720 194E  
                                         u3280 2924                                           u2640 1474  
                                         u2560 13A2                                           u2480 1276  
                                         u3360 2868                                           u3440 2A3A  
                                         u3600 21E8                                           u3520 3130  
                                         u4160 2C4E                                           u4240 1DFC  
                                         u4401 227E                                           u4321 274E  
                                         u2801 1AD8                                           u2721 194A  
                                         u3281 2920                                           u2641 1470  
                                         u2561 139E                                           u2481 1272  
                                         u3361 2864                                           u3521 312C  
                                         u4137 269E                                           u4081 25B4  
                                         u4161 2C4A                                           u4241 1DF8  
                                         u4410 22DE                                           u4330 2774  
                                         u2810 1B06                                           u2730 195E  
                                         u3290 2962                                           u2650 1486  
                                         u2570 13BE                                           u2490 1284  
                                         u3370 287C                                           u3450 2A58  
                                         u3610 2204                                           u3530 2098  
                                         u4090 25D6                                           u4170 2C6A  
                                         u4250 1E20                                           u4411 22DA  
                                         u4331 2770                                           u2811 1B02  
                                         u2731 195A                                           u3291 295E  
                                         u2651 1482                                           u2571 13BA  
                                         u2491 1280                                           u3371 2878  
                                         u3355 2830                                           u3451 2A54  
                                         u3611 2200                                           u4091 25D2  
                                         u4171 2C66                                           u4251 1E1C  
                                         u4420 2334                                           u4340 279C  
                                         u3700 247C                                           u2900 1C02  
                                         u2820 1B2A                                           u2740 19A2  
                                         u2660 1496                                           u2580 13CE  
                                         u3380 28A4                                           u3460 2A80  
                                         u3620 2240                                           u3540 20C6  
                                         u4180 2C7C                                           u4260 1F04  
                                         u4421 2330                                           u4341 2798  
                                         u3701 2478                                           u2901 1BFE  
                                         u2821 1B26                                           u2741 199E  
                                         u2661 1492                                           u2581 13CA  
                                         u3381 28A0                                           u3461 2A7C  
                                         u3445 2A30                                           u3621 223C  
                                         u3605 21DE                                           u3541 20C2  
                                         u4181 2C78                                           u4261 1F00  
                                         u4270 352E                                           u4430 237E  
                                         u4350 27CE                                           u3710 2492  
                                         u2910 1C4A                                           u2830 1B40  
                                         u2750 19B4                                           u2670 14B6  
                                         u2590 13E0                                           u3390 28C4  
                                         u3470 2AAA                                           u3550 20E8  
                                         u3630 3266                                           u4190 2CA6  
                                         u4271 352A                                           u4431 237A  
                                         u4351 27CA                                           u3711 248E  
                                         u2911 1C46                                           u2831 1B3C  
                                         u2751 19B0                                           u2671 14B2  
                                         u2591 13DC                                           u3391 28C0  
                                         u3471 2AA6                                           u3551 20E4  
                                         u3535 208E                                           u3631 3262  
                                         u4191 2CA2                                           u4440 239C  
                                         u4280 30C6                                           u3720 2536  
                                         u2920 1C7A                                           u2840 1B5E  
                                         u2760 19C4                                           u2680 14C8  
                                         u3800 070C                                           u3640 32E6  
                                         u4360 320C                                           u4441 2398  
                                         u4281 30C2                                           u3721 2532  
                                         u2921 1C76                                           u2841 1B5A  
                                         u2761 19C0                                           u2681 14C4  
                                         u3801 0708                                           u4361 3208  
                                         u4370 3472                                           u4450 23AC  
                                         u4290 3100                                           u3730 2548  
                                         u2930 1CA8                                           u2850 1B7E  
                                         u2770 1A04                                           u2690 14E4  
                                         u3490 2AE4                                           u3570 2154  
                                         u3810 0786                                           u3650 32F6  
                                         u4371 346E                                           u4451 23A8  
                                         u4291 30FC                                           u3731 2544  
                                         u2931 1CA4                                           u2851 1B7A  
                                         u2771 1A00                                           u2691 14E0  
                                         u3491 2ADE                                           u3571 2150  
                                         u3811 0782                                           u3651 32F2  
                                         u4380 34EC                                           u4460 23BA  
                                         u3740 2562                                           u3660 2426  
                                         u2860 1B90                                           u2780 1A44  
                                         u2940 1512                                           u3580 2178  
                                         u3900 0A1C                                           u3820 0798  
                                         u4381 34E8                                           u4461 23B6  
                                         u3741 255E                                           u3661 2420  
                                         u2861 1B8C                                           u2781 1A40  
                                         u2941 150E                                           u3485 2ABC  
                                         u3565 20FC                                           u3901 0A18  
                                         u3821 0794                                           u4470 23F4  
                                         u4390 2274                                           u3750 2572  
                                         u3670 2428                                           u2870 1BBE  
                                         u2790 1ABA                                           u2950 1524  
                                         u3590 2194                                           u3566 2106  
                                         u3910 0A2A                                           u3830 0812  
                                         u4471 23F0                                           u4391 2270  
                                         u3751 256E                                           u2871 1BBA  
                                         u2791 1AB6                                           u2951 1520  
                                         u3591 2190                                           u3567 2116  
                                         u3911 0A26                                           u3831 080E  
                                         u3647 32DC                                           u4480 2402  
                                         u3680 243A                                           u2880 1BD4  
                                         u2960 1534                                           u3920 0A54  
                                         u3840 089E                                           u3760 0662  
                                         u4481 23FE                                           u3681 2436  
                                         u2881 1BD0                                           u2961 1530  
                                         u3585 216E                                           u3921 0A50  
                                         u3841 089A                                           u3761 065E  
                                         u3690 2450                                           u2890 1BE8  
                                         u2970 1574                                           u3930 0B9C  
                                         u3850 08D0                                           u3770 06AC  
                                         u3691 244C                                           u2891 1BE4  
                                         u2971 1570                                           u3931 0B98  
                                         u3851 08CC                                           u3771 06A8  
                                         u2980 1586                                           u3940 0C02  
                                         u3860 090E                                           u3780 06BC  
                                         u2981 1582                                           u3941 0BFE  
                                         u3861 090A                                           u3781 06B8  
                                         u2990 1596                                           u3950 0C4A  
                                         u3870 099A                                           u3790 06FA  
                                         u2991 1592                                           u3951 0C46  
                                         u3871 0996                                           u3791 06F6  
                                         u3960 0C5A                                           u3880 09D0  
                                         u3961 0C56                                           u3881 09CC  
                                         u4497 2BDE                                           u3970 0CF4  
                                         u3890 09E6                                           u3971 0CF0  
                                         u3891 09E2                                           u3980 0D42  
                                         u3981 0D3E                                           u3990 0DF0  
                                         u3991 0DEC                                           _WPUB 0F7C  
                                  _outputValue 00DE                                           abs@a 0007  
                                         _dbuf 0100                                           _labs 3112  
                                         _main 2AF8                                           _dtoa 2416  
                                         _prec 005B                                           pad@i 0018  
                                         pad@p 0015                                           fsr1h 0FE2  
                                         fsr2h 0FDA                                           indf1 0FE7  
                                         indf2 0FDF                                           fsr1l 0FE1  
                                         pad@w 001A                                           map@x 001B  
                                         fsr2l 0FD9                                           _stoa 25AA  
                                ___fpclassifyf 29FA                                           prodh 0FF4  
                                         prodl 0FF3                                           start 0002  
                              ___fldiv@new_exp 0012                                   ___param_bank 0000  
                                        ??_abs 0009                                          ??_map 002F  
                                        ??_pad 0017                                  ?_EUSART_Write 0001  
                __end_of_OSCILLATOR_Initialize 3566                                  ___fltol@sign1 0009  
                              __end_of___aldiv 27F0                                          ?_labs 0001  
                              __end_of___fladd 14F8                                          ?_main 0001  
                                        ?_dtoa 001C                                __end_of___fldiv 1CBC  
                              __end_of___awdiv 2E5A                                __end_of___flneg 34BE  
                                        STR_11 0636                                          STR_13 0636  
                              __end_of___awmod 2F0A                                __end_of___flmul 1922  
                              __end_of___flsub 334A                                __end_of___fltol 28F6  
                                        ?_stoa 000A                                          _ANSEL 0F7E  
                              ___awdiv@divisor 0003                                ___awdiv@counter 0005  
                                        _RCREG 0FAE                                          _RCSTA 0FAB  
                                 vfpfcnvrt@fmt 0039                                          _SPBRG 0FAF  
                                        _TRISA 0F92                                          _TRISB 0F93  
                                        _TRISC 0F94                                          _TRISD 0F95  
                                        _TRISE 0F96                                          _TXREG 0FAD  
                                        _TXSTA 0FAC                            ___lmul@multiplicand 0005  
                                  _xvalueASCII 00AC                                          _flags 005D  
                                        _fputc 2CCC                                          _fputs 334A  
                                        labs@a 0001                                          pad@fp 0011  
                                        _width 0059                                          _putch 358C  
                                        dtoa@d 001E                                          dtoa@i 0026  
                                        dtoa@p 0022                                          dtoa@s 0028  
                                        dtoa@w 0024                                          tablat 0FF5  
                                        plusw1 0FE3                                          plusw2 0FDB  
                                        stoa@i 0018                                          stoa@l 001C  
                                        stoa@p 001E                                          stoa@s 000C  
                                        stoa@w 0016                                          status 0FD8  
                              __end_of_sprintf 31C8                                 ?___fpclassifyf 0001  
                              __end_of_strncmp 2CCC                                __initialization 3268  
                                 __end_of_labs 3178                                   __end_of_main 2BEE  
                                 __end_of_dtoa 25AA                                   __end_of_stoa 26E4  
                               ??_EUSART_Write 0001                                         ??_labs 0005  
                                       ??_main 0058                                         ??_dtoa 0020  
                                       ??_stoa 000E                                  __activetblptr 0002  
            _EUSART_DefaultFramingErrorHandler 0000                                         _ADCON0 0FC2  
                                       _ADCON1 0FC1                                         _ADCON2 0FC0  
                   _EUSART_OverrunErrorHandler 00E6                                         ?_fputc 0001  
                                       ?_fputs 000A                                         _ADRESH 0FC4  
                                       _ADRESL 0FC3                               ___awdiv@dividend 0001  
                                       ?_putch 0001                                         _ANSELH 0F7F  
                                       _OSCCON 0FD3                                         _SPBRGH 0FB0  
                             __end_of___xxtofl 2416                                   vfprintf@cfmt 0048  
                                       ___flge 28F6                                         ___fleq 2F0A  
                                       ___lmul 30A8                                      ??___aldiv 0015  
                                    ??___fladd 0009                                      ??___fldiv 0009  
                                    ??___awdiv 0005                                      ??___flneg 0005  
                                    ??___awmod 0005                                      ??___flmul 0009  
                                    ??___flsub 0022                                      ??___fltol 0005  
                                       _efgtoa 063E                                         _floorf 2050  
                                       _memcpy 3218                                         clear_0 328E  
                                       clear_1 329A                               ___awdiv@quotient 0007  
                              ___awmod@divisor 0003                                         isa$std 0001  
                              ___awmod@counter 0005                                         pad@buf 0013  
                                       dtoa@fp 001C                                         _strcpy 338E  
                                       _strlen 32B6                                         fputc@c 0001  
                                       fputs@c 000E                                         fputs@i 000F  
                                       fputs@s 000A                                ___fpclassifyf@e 0009  
                              ___fpclassifyf@u 000B                                ___fpclassifyf@x 0001  
                                 __mediumconst 0000                                         tblptrh 0FF7  
                                       tblptrl 0FF6                                         tblptru 0FF8  
                     ADC_GetConversion@channel 0005                                         stoa@cp 001A  
                                       stoa@fp 000A                                         putch@c 0001  
                             __end_of_vfprintf 3218                                      ??_sprintf 004A  
                                    ??_strncmp 0007                                     ___flge@ff1 001A  
                                   ___flge@ff2 001E                                ??___fpclassifyf 0005  
                                 ___xxtofl@arg 0039                                   ___xxtofl@exp 0038  
                            _SYSTEM_Initialize 354A                                   ___xxtofl@val 002F  
                                   ___fleq@ff1 0001                                     ___fleq@ff2 0005  
                                   __accesstop 0060                        __end_of__initialization 32AC  
                                   ___flneg@f1 0001                             ?_SYSTEM_Initialize 0001  
                                ___rparam_used 0001                                     ___fltol@f1 0001  
                               __pcstackCOMRAM 0001                                   __pidataBANK0 3584  
                          ??_SYSTEM_Initialize 0003                                  __end_of_fputc 2D96  
                                __end_of_fputs 338E                                  __end_of_putch 358E  
              ??_EUSART_SetOverrunErrorHandler 0003                                        ??_fputc 0005  
                    __end_of_SYSTEM_Initialize 355C                                        ??_fputs 000E  
                                      ??_putch 0001                                     __pbssBANK0 00A2  
                                   __pbssBANK1 0100                           __end_of_EUSART_Write 3534  
                                      ?___flge 001A                                        ?___fleq 0001  
                                      ?___lmul 0001                                        ?_efgtoa 002E  
                                      ?_floorf 001A                                        ?_memcpy 0001  
                                      _BAUDCON 0FB8                                 ___lmul@product 0009  
                                      ?_strcpy 0001                                        ?_strlen 0001  
                                    ?___xxtofl 002F                                        _OSCTUNE 0F9B  
                     ??_EUSART_SetErrorHandler 0003                           _ADC_InterruptHandler 00AA  
                                      __Hparam 0000                                        __Lparam 0000  
                                      ___aldiv 26E4                                        ___fladd 1038  
                                      ___fldiv 1922                                        ___awdiv 2D96  
                                      ___flneg 3486                                        ___awmod 2E5A  
                                      ___flmul 14F8                                        ___flsub 3304  
                                      ___fltol 27F0                                      ?_vfprintf 008C  
                                 __psmallconst 0600                                        __pcinit 3268  
                                      __ramtop 0600                                        __ptext0 2AF8  
                                      __ptext1 3178                                        __ptext2 31C8  
                                      __ptext3 1CBC                                        __ptext4 2BEE  
                                      __ptext5 25AA                                        __ptext6 32B6  
                                      __ptext7 063E                                        __ptext8 338E  
                                      __ptext9 3218                          _OSCILLATOR_Initialize 355C  
                                   ??___xxtofl 0033                               ___awmod@dividend 0001  
                             ___aldiv@dividend 000D                       ??_PIN_MANAGER_Initialize 0001  
                                      efgtoa@c 0034                                        efgtoa@d 006B  
                                      efgtoa@e 006F                                        efgtoa@f 0030  
                                      efgtoa@g 0084                                        efgtoa@h 0079  
                                      efgtoa@i 0077                                        efgtoa@l 007D  
                                      efgtoa@m 006D                                        efgtoa@n 0082  
                                      efgtoa@p 0062                                        efgtoa@t 0064  
                                      efgtoa@u 0088                                        efgtoa@w 0071  
                                      _sprintf 3178                                        _strncmp 2BEE  
                         end_of_initialization 32AC                                        floorf@e 0028  
                                      floorf@m 0024                                        floorf@u 002A  
                                      floorf@x 001A          __end_of_EUSART_SetOverrunErrorHandler 3570  
                _EUSART_SetOverrunErrorHandler 3566                                        memcpy@d 0007  
                                      memcpy@n 0005                                        memcpy@s 0009  
                                      fputc@fp 0003                                  __Lmediumconst 0000  
                                      fputs@fp 000C                              _EUSART_Initialize 340E  
                           ?_EUSART_Initialize 0001                              __end_of_vfpfcnvrt 2050  
                                   efgtoa@mode 0069                                     efgtoa@sign 0081  
                                    _RCSTAbits 0FAB                               ___aldiv@quotient 0017  
                                      postdec1 0FE5                                        postdec2 0FDD  
                                      postinc0 0FEE                                        postinc1 0FE6  
                                      postinc2 0FDE                               vfpfcnvrt@convarg 0041  
                                   ??_vfprintf 0048                                        strcpy@d 0007  
                                      strlen@a 0003                                        strcpy@s 0005  
                                      strlen@s 0001                            ??_EUSART_Initialize 0003  
                                  ___fladd@grs 0010                             SendUsartString@str 0002  
                            ??_SendUsartString 0004                                  ___xxtofl@sign 0037  
                                  ___fldiv@grs 0014                                    ___fldiv@rem 000D  
                                   map@out_max 002B                                     map@out_min 0027  
                                  ___flmul@grs 000E                      __end_of_EUSART_Initialize 344C  
                                    _TXSTAbits 0FAC                                 __end_of___flge 29FA  
                               __end_of___fleq 2FB4                                 __end_of___lmul 3112  
                   _EUSART_DefaultErrorHandler 0000                                    vfpfcnvrt@ap 003B  
                                  vfpfcnvrt@cp 0046                                    vfpfcnvrt@fp 0037  
                               __end_of_efgtoa 1038                                   _EUSART_Write 351E  
                               _ADC_Initialize 3534                                 __end_of_floorf 2262  
                               __end_of_memcpy 3268                         ?_OSCILLATOR_Initialize 0001  
                                   floorf@F526 00A2                                 __end_of_strcpy 33CE  
                               __end_of_strlen 3304                            start_initialization 3268  
                                  __end_of_abs 340E                                    __end_of_map 30A8  
                                  __end_of_pad 302E                          __end_of___fpclassifyf 2AF8  
               ?_EUSART_SetOverrunErrorHandler 0001                                    vfprintf@fmt 008E  
                   _EUSART_FramingErrorHandler 00E8                                       ??___flge 0022  
                                     ??___fleq 0009                                       ??___lmul 0009  
                       _EUSART_SetErrorHandler 357A                                       ??_efgtoa 0035  
                       __end_of_ADC_Initialize 354A                                    __pdataBANK0 00EA  
                                     ??_floorf 001E                                       ??_memcpy 0007  
                                     ??_strcpy 0005                                       ??_strlen 0003  
                                    ___fladd@a 0005                                      ___fladd@b 0001  
                                    ___fldiv@a 0005                                      ___fldiv@b 0001  
                                    ___flmul@a 0005                                      ___flmul@b 0001  
                                  __pbssCOMRAM 0059                                      ___flsub@a 001E  
                                    ___flsub@b 001A                                  __pcstackBANK0 0060  
                                    __pnvBANK0 00DE                                    _efgtoa$1128 0066  
                       _PIN_MANAGER_Initialize 34EE                                      _dtoa$1097 0020  
                                     ?___aldiv 000D                                       ?___fladd 0001  
                                     ?___fldiv 0001                                       ?___awdiv 0001  
                                     ?___flneg 0001                                       ?___awmod 0001  
                                     ?___flmul 0001                                       ?___flsub 001A  
                                     ?___fltol 0001                                ?_ADC_Initialize 0001  
                                  __smallconst 0600                                       ?_sprintf 0092  
                                     ?_strncmp 0001                                ___aldiv@divisor 0011  
                              ___aldiv@counter 0015         EUSART_SetErrorHandler@interruptHandler 0001  
                            _eusartRxLastError 005E                                       _PIR1bits 0F9E  
              ??_EUSART_SetFramingErrorHandler 0003              _EUSART_DefaultOverrunErrorHandler 0000  
                              _SendUsartString 34BE                                      _vfpfcnvrt 1CBC  
                                    map@in_max 0023                                      map@in_min 001F  
                                   _ADCON0bits 0FC2                                     vfpfcnvrt@c 0045  
                            ___lmul@multiplier 0001                                    _INTCON2bits 0FF1  
                                    copy_data0 327C                                       __Hrparam 0000  
                                    memcpy@tmp 000B                                     vfprintf@ap 0090  
                                     __Lrparam 0000                                     vfprintf@fp 008C  
                            _ADC_GetConversion 344C                        ??_OSCILLATOR_Initialize 0001  
                          _EUSART_ErrorHandler 00E4                             ?_ADC_GetConversion 0001  
                                   ?_vfpfcnvrt 0037                             ___fpclassifyf@F465 00A6  
                          ??_ADC_GetConversion 0003                                     sprintf@fmt 0094  
                                     ___xxtofl 2262                                       __ptext10 3112  
                                     __ptext11 2050                                       __ptext20 1922  
                                     __ptext12 29FA                                       __ptext21 2416  
                                     __ptext13 27F0                                       __ptext30 30A8  
                                     __ptext22 2FB4                                       __ptext14 3304  
                                     __ptext31 26E4                                       __ptext23 334A  
                                     __ptext15 1038                                       __ptext40 3570  
                                     __ptext32 2262                                       __ptext24 2CCC  
                                     __ptext16 3486                                       __ptext41 357A  
                                     __ptext33 34BE                                       __ptext25 358C  
                                     __ptext17 14F8                                       __ptext42 3534  
                                     __ptext34 351E                                       __ptext26 33CE  
                                     __ptext18 28F6                                       __ptext43 344C  
                                     __ptext35 354A                                       __ptext27 2E5A  
                                     __ptext19 2F0A                                       __ptext36 34EE  
                                     __ptext28 2D96                                       __ptext37 355C  
                                     __ptext29 302E                                       __ptext38 340E  
                                     __ptext39 3566                                     strcpy@dest 0001  
                      __end_of_SendUsartString 34EE                      __end_of_ADC_GetConversion 3486  
                      ?_EUSART_SetErrorHandler 0001                                       efgtoa@fp 002E  
                                     efgtoa@ne 0060                                       efgtoa@pp 0068  
                                     efgtoa@ou 0073                                      stoa@F1179 00EA  
EUSART_SetOverrunErrorHandler@interruptHandler 0001                                       isa$xinst 0000  
                                     _vfprintf 31C8          __end_of_EUSART_SetFramingErrorHandler 357A  
                _EUSART_SetFramingErrorHandler 3570                                 _vfpfcnvrt$1161 003F  
                                   _INTCONbits 0FF2                                       memcpy@d1 0001  
                                     memcpy@s1 0003                                      sprintf@ap 004A  
                      ?_PIN_MANAGER_Initialize 0001                 __end_of_EUSART_SetErrorHandler 3584  
                                    strcpy@src 0003                                      strncmp@_l 0001  
                                    strncmp@_r 0003                               ??_ADC_Initialize 0001  
                                  efgtoa@nmode 006A  EUSART_SetFramingErrorHandler@interruptHandler 0001  
                                  ??_vfpfcnvrt 003D                                       stoa@nuls 000F  
                                  _sensorValue 00E2                                       sprintf@f 004C  
                                     sprintf@s 0092                                       strncmp@l 0008  
                                     strncmp@n 0005                                       strncmp@r 000A  
                                 ___aldiv@sign 0016                                  ___fladd@signs 000D  
                           EUSART_Write@txData 0001                 __end_of_PIN_MANAGER_Initialize 351E  
                                 ___fladd@aexp 000E                                   ___fladd@bexp 000F  
                             ?_SendUsartString 0002  
