

Microchip MPLAB XC8 Assembler V2.41 build 20230208172133 
                                                                                               Sun Jul 09 11:22:15 2023

Microchip MPLAB XC8 C Compiler v2.41 (Free license) build 20230208172133 Og1 
     1                           	processor	18F45K20
     2                           	fnconf	rparam,??,?,0
     3                           	pagewidth 120
     4                           	opt	flic
     5                           	psect	idataBANK0,global,class=CODE,delta=1,noexec
     6                           	psect	nvBANK0,global,class=BANK0,space=1,delta=1,lowdata,noexec
     7                           	psect	smallconst,global,reloc=2,class=SMALLCONST,delta=1,noexec
     8                           	psect	cinit,global,reloc=2,class=CODE,delta=1
     9                           	psect	bssCOMRAM,global,class=COMRAM,space=1,delta=1,lowdata,noexec
    10                           	psect	bssBANK0,global,class=BANK0,space=1,delta=1,lowdata,noexec
    11                           	psect	dataBANK0,global,class=BANK0,space=1,delta=1,lowdata,noexec
    12                           	psect	cstackCOMRAM,global,class=COMRAM,space=1,delta=1,lowdata,noexec
    13                           	psect	text0,global,reloc=2,class=CODE,delta=1
    14                           	psect	text1,global,reloc=2,class=CODE,delta=1,group=2
    15                           	psect	text2,global,reloc=2,class=CODE,delta=1,group=2
    16                           	psect	text3,global,reloc=2,class=CODE,delta=1,group=2
    17                           	psect	text4,global,reloc=2,class=CODE,delta=1,group=2
    18                           	psect	text5,global,reloc=2,class=CODE,delta=1
    19                           	psect	text6,global,reloc=2,class=CODE,delta=1,group=3
    20                           	psect	text7,global,reloc=2,class=CODE,delta=1,group=1
    21                           	psect	text8,global,reloc=2,class=CODE,delta=1,group=1
    22                           	psect	text9,global,reloc=2,class=CODE,delta=1,group=3
    23                           	psect	text10,global,reloc=2,class=CODE,delta=1,group=1
    24                           	psect	text11,global,reloc=2,class=CODE,delta=1,group=3
    25                           	psect	text12,global,reloc=2,class=CODE,delta=1,group=1
    26                           	psect	text13,global,reloc=2,class=CODE,delta=1,group=2
    27                           	psect	text14,global,reloc=2,class=CODE,delta=1,group=1
    28                           	psect	text15,global,reloc=2,class=CODE,delta=1,group=1
    29                           	psect	text16,global,reloc=2,class=CODE,delta=1,group=3
    30                           	psect	text17,global,reloc=2,class=CODE,delta=1,group=3
    31                           	psect	text18,global,reloc=2,class=CODE,delta=1,group=3
    32                           	psect	text19,global,reloc=2,class=CODE,delta=1,group=3
    33                           	psect	text20,global,reloc=2,class=CODE,delta=1
    34                           	psect	text21,global,reloc=2,class=CODE,delta=1
    35                           	psect	text22,global,reloc=2,class=CODE,delta=1
    36                           	psect	text23,global,reloc=2,class=CODE,delta=1
    37                           	psect	text24,global,reloc=2,class=CODE,delta=1
    38                           	psect	text25,global,reloc=2,class=CODE,delta=1,group=2
    39                           	psect	text26,global,reloc=2,class=CODE,delta=1,group=2
    40                           	psect	text27,global,reloc=2,class=CODE,delta=1
    41                           	psect	text28,global,reloc=2,class=CODE,delta=1
    42                           	psect	text29,global,reloc=2,class=CODE,delta=1
    43                           	psect	text30,global,reloc=2,class=CODE,delta=1
    44                           	psect	text31,global,reloc=2,class=CODE,delta=1
    45                           	psect	text32,global,reloc=2,class=CODE,delta=1
    46                           	psect	text33,global,reloc=2,class=CODE,delta=1
    47                           	psect	text34,global,reloc=2,class=CODE,delta=1
    48                           	psect	text35,global,reloc=2,class=CODE,delta=1
    49                           	psect	text36,global,reloc=2,class=CODE,delta=1
    50                           	psect	text37,global,reloc=2,class=CODE,delta=1
    51                           	psect	text38,global,reloc=2,class=CODE,delta=1
    52                           	psect	intsave_regs,global,class=BIGRAM,space=1,delta=1,noexec
    53                           	psect	rparam,global,class=COMRAM,space=1,delta=1,noexec
    54                           	psect	idloc,global,abs,ovrld,class=IDLOC,space=5,delta=1,noexec
    55                           	psect	config,global,abs,ovrld,class=CONFIG,space=4,delta=1,noexec
    56   000000                     
    57                           ; Version 2.20
    58                           ; Generated 12/02/2020 GMT
    59                           ; 
    60                           ; Copyright © 2020, Microchip Technology Inc. and its subsidiaries ("Microchip")
    61                           ; All rights reserved.
    62                           ; 
    63                           ; This software is developed by Microchip Technology Inc. and its subsidiaries ("Microch
      +                          ip").
    64                           ; 
    65                           ; Redistribution and use in source and binary forms, with or without modification, are
    66                           ; permitted provided that the following conditions are met:
    67                           ; 
    68                           ;     1. Redistributions of source code must retain the above copyright notice, this lis
      +                          t of
    69                           ;        conditions and the following disclaimer.
    70                           ; 
    71                           ;     2. Redistributions in binary form must reproduce the above copyright notice, this 
      +                          list
    72                           ;        of conditions and the following disclaimer in the documentation and/or other
    73                           ;        materials provided with the distribution.
    74                           ; 
    75                           ;     3. Microchip's name may not be used to endorse or promote products derived from th
      +                          is
    76                           ;        software without specific prior written permission.
    77                           ; 
    78                           ; THIS SOFTWARE IS PROVIDED BY MICROCHIP "AS IS" AND ANY EXPRESS OR IMPLIED WARRANTIES,
    79                           ; INCLUDING, BUT NOT LIMITED TO, THE IMPLIED WARRANTIES OF MERCHANTABILITY AND FITNESS F
      +                          OR
    80                           ; PURPOSE ARE DISCLAIMED.  IN NO EVENT SHALL MICROCHIP BE LIABLE FOR ANY DIRECT, INDIREC
      +                          T,
    81                           ; INCIDENTAL, SPECIAL, EXEMPLARY, OR CONSEQUENTIAL DAMAGES (INCLUDING BUT NOT LIMITED TO
    82                           ; PROCUREMENT OF SUBSTITUTE GOODS OR SERVICES; LOSS OF USE, DATA OR PROFITS; OR BUSINESS
    83                           ; INTERRUPTION) HOWSOEVER CAUSED AND ON ANY THEORY OF LIABILITY, WHETHER IN CONTRACT, ST
      +                          RICT
    84                           ; LIABILITY, OR TORT (INCLUDING NEGLIGENCE OR OTHERWISE) ARISING IN ANY WAY OUT OF THE U
      +                          SE OF
    85                           ; THIS SOFTWARE, EVEN IF ADVISED OF THE POSSIBILITY OF SUCH DAMAGE.
    86                           ; 
    87                           ; 
    88                           ; Code-generator required, PIC18F45K20 Definitions
    89                           ; 
    90                           ; SFR Addresses
    91   000000                     
    92 ;; Function _EUSART_DefaultFramingErrorHandler is unused but had its address taken
    93   000000                     
    94 ;; Function _EUSART_DefaultOverrunErrorHandler is unused but had its address taken
    95   000000                     
    96 ;; Function _EUSART_DefaultErrorHandler is unused but had its address taken
    97   000000                     
    98                           	psect	idataBANK0
    99   002160                     __pidataBANK0:
   100                           	callstack 0
   101                           
   102                           ;initializer for stoa@F1156
   103   002160  28                 	db	40
   104   002161  6E                 	db	110
   105   002162  75                 	db	117
   106   002163  6C                 	db	108
   107   002164  6C                 	db	108
   108   002165  29                 	db	41
   109   002166  00                 	db	0
   110   000000                     _TRISD	set	3989
   111   000000                     _TRISC	set	3988
   112   000000                     _TRISB	set	3987
   113   000000                     _LATC	set	3979
   114   000000                     _LATB	set	3978
   115   000000                     _TXREG	set	4013
   116   000000                     _RCREG	set	4014
   117   000000                     _SPBRG	set	4015
   118   000000                     _TXSTA	set	4012
   119   000000                     _ADCON0	set	4034
   120   000000                     _ADRESL	set	4035
   121                           
   122                           	psect	nvBANK0
   123   0000CD                     __pnvBANK0:
   124                           	callstack 0
   125   0000CD                     _EUSART_ErrorHandler:
   126                           	callstack 0
   127   0000CD                     	ds	2
   128   0000CF                     _EUSART_OverrunErrorHandler:
   129                           	callstack 0
   130   0000CF                     	ds	2
   131   0000D1                     _EUSART_FramingErrorHandler:
   132                           	callstack 0
   133   0000D1                     	ds	2
   134   000000                     _LATAbits	set	3977
   135   000000                     _LATBbits	set	3978
   136   000000                     _RCSTAbits	set	4011
   137   000000                     _TXSTAbits	set	4012
   138   000000                     _ADCON0bits	set	4034
   139   000000                     _WPUB	set	3964
   140   000000                     _ANSEL	set	3966
   141   000000                     _LATA	set	3977
   142   000000                     _LATD	set	3980
   143   000000                     _LATE	set	3981
   144   000000                     _OSCTUNE	set	3995
   145   000000                     _PIR1bits	set	3998
   146   000000                     _RCSTA	set	4011
   147   000000                     _BAUDCON	set	4024
   148   000000                     _ADCON2	set	4032
   149   000000                     _ADCON1	set	4033
   150   000000                     _OSCCON	set	4051
   151   000000                     _ADRESH	set	4036
   152   000000                     _SPBRGH	set	4016
   153   000000                     _INTCON2bits	set	4081
   154   000000                     _TRISA	set	3986
   155   000000                     _TRISE	set	3990
   156   000000                     _ANSELH	set	3967
   157   000000                     _INTCONbits	set	4082
   158                           
   159                           	psect	smallconst
   160   000600                     __psmallconst:
   161                           	callstack 0
   162   000600  00                 	db	0
   163   000601                     STR_2:
   164   000601  54                 	db	84	;'T'
   165   000602  65                 	db	101	;'e'
   166   000603  6D                 	db	109	;'m'
   167   000604  70                 	db	112	;'p'
   168   000605  65                 	db	101	;'e'
   169   000606  72                 	db	114	;'r'
   170   000607  61                 	db	97	;'a'
   171   000608  74                 	db	116	;'t'
   172   000609  75                 	db	117	;'u'
   173   00060A  72                 	db	114	;'r'
   174   00060B  65                 	db	101	;'e'
   175   00060C  20                 	db	32
   176   00060D  3A                 	db	58	;':'
   177   00060E  20                 	db	32
   178   00060F  00                 	db	0
   179   000610                     STR_3:
   180   000610  20                 	db	32
   181   000611  44                 	db	68	;'D'
   182   000612  65                 	db	101	;'e'
   183   000613  67                 	db	103	;'g'
   184   000614  72                 	db	114	;'r'
   185   000615  65                 	db	101	;'e'
   186   000616  65                 	db	101	;'e'
   187   000617  73                 	db	115	;'s'
   188   000618  20                 	db	32
   189   000619  0A                 	db	10
   190   00061A  0D                 	db	13
   191   00061B  20                 	db	32
   192   00061C  00                 	db	0
   193   00061D                     STR_1:
   194   00061D  25                 	db	37
   195   00061E  73                 	db	115	;'s'
   196   00061F  25                 	db	37
   197   000620  33                 	db	51	;'3'
   198   000621  64                 	db	100	;'d'
   199   000622  2E                 	db	46
   200   000623  25                 	db	37
   201   000624  30                 	db	48	;'0'
   202   000625  31                 	db	49	;'1'
   203   000626  64                 	db	100	;'d'
   204   000627  25                 	db	37
   205   000628  73                 	db	115	;'s'
   206   000629  00                 	db	0
   207   00062A                     STR_4:
   208   00062A  6C                 	db	108	;'l'
   209   00062B  6C                 	db	108	;'l'
   210   00062C  73                 	db	115	;'s'
   211   00062D  00                 	db	0
   212   00062E  00                 	db	0	; dummy byte at the end
   213   000000                     
   214                           ; #config settings
   215                           
   216                           	psect	cinit
   217   001FE8                     __pcinit:
   218                           	callstack 0
   219   001FE8                     start_initialization:
   220                           	callstack 0
   221   001FE8                     __initialization:
   222                           	callstack 0
   223                           
   224                           ; Initialize objects allocated to BANK0 (7 bytes)
   225                           ; load TBLPTR registers with __pidataBANK0
   226   001FE8  0E60               	movlw	low __pidataBANK0
   227   001FEA  6EF6               	movwf	tblptrl,c
   228   001FEC  0E21               	movlw	high __pidataBANK0
   229   001FEE  6EF7               	movwf	tblptrh,c
   230   001FF0  0E00               	movlw	low (__pidataBANK0 shr (0+16))
   231   001FF2  6EF8               	movwf	tblptru,c
   232   001FF4  EE00  F0C6         	lfsr	0,__pdataBANK0
   233   001FF8  EE10 F007          	lfsr	1,7
   234   001FFC                     copy_data0:
   235   001FFC  0009               	tblrd		*+
   236   001FFE  CFF5 FFEE          	movff	tablat,postinc0
   237   002002  50E5               	movf	postdec1,w,c
   238   002004  50E1               	movf	fsr1l,w,c
   239   002006  E1FA               	bnz	copy_data0
   240                           
   241                           ; Clear objects allocated to BANK0 (102 bytes)
   242   002008  EE00  F060         	lfsr	0,__pbssBANK0
   243   00200C  0E66               	movlw	102
   244   00200E                     clear_0:
   245   00200E  6AEE               	clrf	postinc0,c
   246   002010  06E8               	decf	wreg,f,c
   247   002012  E1FD               	bnz	clear_0
   248                           
   249                           ; Clear objects allocated to COMRAM (3 bytes)
   250   002014  6A5F               	clrf	(__pbssCOMRAM+2)& (0+255),c
   251   002016  6A5E               	clrf	(__pbssCOMRAM+1)& (0+255),c
   252   002018  6A5D               	clrf	__pbssCOMRAM& (0+255),c
   253   00201A                     end_of_initialization:
   254                           	callstack 0
   255   00201A                     __end_of__initialization:
   256                           	callstack 0
   257   00201A  0E00               	movlw	low (__Lmediumconst shr (0+16))
   258   00201C  6EF8               	movwf	tblptru,c
   259   00201E  0100               	movlb	0
   260   002020  EF77  F00C         	goto	_main	;jump to C main() function
   261                           
   262                           	psect	bssCOMRAM
   263   00005D                     __pbssCOMRAM:
   264                           	callstack 0
   265   00005D                     _TMP36_Reading:
   266                           	callstack 0
   267   00005D                     	ds	2
   268   00005F                     _flags:
   269                           	callstack 0
   270   00005F                     	ds	1
   271                           
   272                           	psect	bssBANK0
   273   000060                     __pbssBANK0:
   274                           	callstack 0
   275   000060                     _Voltage:
   276                           	callstack 0
   277   000060                     	ds	4
   278   000064                     _width:
   279                           	callstack 0
   280   000064                     	ds	2
   281   000066                     _prec:
   282                           	callstack 0
   283   000066                     	ds	2
   284   000068                     _decimal:
   285                           	callstack 0
   286   000068                     	ds	2
   287   00006A                     _whole:
   288                           	callstack 0
   289   00006A                     	ds	2
   290   00006C                     _ADC_InterruptHandler:
   291                           	callstack 0
   292   00006C                     	ds	2
   293   00006E                     _RAM:
   294                           	callstack 0
   295   00006E                     	ds	1
   296   00006F                     _Fourth_Digit:
   297                           	callstack 0
   298   00006F                     	ds	1
   299   000070                     _Third_Digit:
   300                           	callstack 0
   301   000070                     	ds	1
   302   000071                     _Second_Digit:
   303                           	callstack 0
   304   000071                     	ds	1
   305   000072                     _First_Digit:
   306                           	callstack 0
   307   000072                     	ds	1
   308   000073                     _eusartRxLastError:
   309                           	callstack 0
   310   000073                     	ds	1
   311   000074                     _xvalueASCII:
   312                           	callstack 0
   313   000074                     	ds	50
   314   0000A6                     _dbuf:
   315                           	callstack 0
   316   0000A6                     	ds	32
   317                           
   318                           	psect	dataBANK0
   319   0000C6                     __pdataBANK0:
   320                           	callstack 0
   321   0000C6                     stoa@F1156:
   322                           	callstack 0
   323   0000C6                     	ds	7
   324                           
   325                           	psect	cstackCOMRAM
   326   000001                     __pcstackCOMRAM:
   327                           	callstack 0
   328   000001                     ??_ADC_SelectChannel:
   329   000001                     ?_strlen:
   330                           	callstack 0
   331   000001                     ?_strncmp:
   332                           	callstack 0
   333   000001                     ?_ADC_GetConversionResult:
   334                           	callstack 0
   335   000001                     ?___wmul:
   336                           	callstack 0
   337   000001                     ?___awmod:
   338                           	callstack 0
   339   000001                     ?___flmul:
   340                           	callstack 0
   341   000001                     _EUSART_is_tx_ready$333:
   342                           	callstack 0
   343   000001                     EUSART_Write@txData:
   344                           	callstack 0
   345   000001                     EUSART_SetFramingErrorHandler@interruptHandler:
   346                           	callstack 0
   347   000001                     EUSART_SetOverrunErrorHandler@interruptHandler:
   348                           	callstack 0
   349   000001                     EUSART_SetErrorHandler@interruptHandler:
   350                           	callstack 0
   351   000001                     ___wmul@multiplier:
   352                           	callstack 0
   353   000001                     ___awmod@dividend:
   354                           	callstack 0
   355   000001                     fputc@c:
   356                           	callstack 0
   357   000001                     strlen@s:
   358                           	callstack 0
   359   000001                     strncmp@_l:
   360                           	callstack 0
   361   000001                     ___flmul@b:
   362                           	callstack 0
   363                           
   364                           ; 4 bytes @ 0x0
   365   000001                     	ds	1
   366   000002                     ADC_SelectChannel@channel:
   367                           	callstack 0
   368   000002                     USART_String_Transmit@string:
   369                           	callstack 0
   370                           
   371                           ; 2 bytes @ 0x1
   372   000002                     	ds	1
   373   000003                     ??_ADC_GetConversionResult:
   374   000003                     ___wmul@multiplicand:
   375                           	callstack 0
   376   000003                     ___awmod@divisor:
   377                           	callstack 0
   378   000003                     fputc@fp:
   379                           	callstack 0
   380   000003                     strlen@a:
   381                           	callstack 0
   382   000003                     strncmp@_r:
   383                           	callstack 0
   384                           
   385                           ; 2 bytes @ 0x2
   386   000003                     	ds	1
   387   000004                     
   388                           ; 1 bytes @ 0x3
   389   000004                     	ds	1
   390   000005                     ??_fputc:
   391   000005                     ?___xxtofl:
   392                           	callstack 0
   393   000005                     ___awmod@counter:
   394                           	callstack 0
   395   000005                     ___wmul@product:
   396                           	callstack 0
   397   000005                     strncmp@n:
   398                           	callstack 0
   399   000005                     ___flmul@a:
   400                           	callstack 0
   401   000005                     ___xxtofl@val:
   402                           	callstack 0
   403                           
   404                           ; 4 bytes @ 0x4
   405   000005                     	ds	1
   406   000006                     ___awmod@sign:
   407                           	callstack 0
   408                           
   409                           ; 1 bytes @ 0x5
   410   000006                     	ds	1
   411   000007                     ??_strncmp:
   412   000007                     ?_abs:
   413                           	callstack 0
   414   000007                     ?___awdiv:
   415                           	callstack 0
   416   000007                     ?_read_prec_or_width:
   417                           	callstack 0
   418   000007                     ___awdiv@dividend:
   419                           	callstack 0
   420   000007                     read_prec_or_width@fmt:
   421                           	callstack 0
   422   000007                     abs@a:
   423                           	callstack 0
   424                           
   425                           ; 2 bytes @ 0x6
   426   000007                     	ds	1
   427   000008                     strncmp@l:
   428                           	callstack 0
   429                           
   430                           ; 2 bytes @ 0x7
   431   000008                     	ds	1
   432   000009                     ??___flmul:
   433   000009                     ??_abs:
   434   000009                     ??___xxtofl:
   435   000009                     ___awdiv@divisor:
   436                           	callstack 0
   437   000009                     read_prec_or_width@ap:
   438                           	callstack 0
   439                           
   440                           ; 2 bytes @ 0x8
   441   000009                     	ds	1
   442   00000A                     stoa@fp:
   443                           	callstack 0
   444   00000A                     fputs@s:
   445                           	callstack 0
   446   00000A                     strncmp@r:
   447                           	callstack 0
   448                           
   449                           ; 2 bytes @ 0x9
   450   00000A                     	ds	1
   451   00000B                     ??_read_prec_or_width:
   452   00000B                     ___awdiv@counter:
   453                           	callstack 0
   454                           
   455                           ; 1 bytes @ 0xA
   456   00000B                     	ds	1
   457   00000C                     ___awdiv@sign:
   458                           	callstack 0
   459   00000C                     stoa@s:
   460                           	callstack 0
   461   00000C                     fputs@fp:
   462                           	callstack 0
   463                           
   464                           ; 2 bytes @ 0xB
   465   00000C                     	ds	1
   466   00000D                     ___flmul@sign:
   467                           	callstack 0
   468   00000D                     ___xxtofl@sign:
   469                           	callstack 0
   470   00000D                     read_prec_or_width@c:
   471                           	callstack 0
   472   00000D                     ___awdiv@quotient:
   473                           	callstack 0
   474                           
   475                           ; 2 bytes @ 0xC
   476   00000D                     	ds	1
   477   00000E                     ??_stoa:
   478   00000E                     ___xxtofl@exp:
   479                           	callstack 0
   480   00000E                     fputs@c:
   481                           	callstack 0
   482   00000E                     read_prec_or_width@n:
   483                           	callstack 0
   484   00000E                     ___flmul@grs:
   485                           	callstack 0
   486                           
   487                           ; 4 bytes @ 0xD
   488   00000E                     	ds	1
   489   00000F                     ??_Seven_Segment_Positive_Tempreture_Output:
   490   00000F                     fputs@i:
   491                           	callstack 0
   492   00000F                     ___xxtofl@arg:
   493                           	callstack 0
   494   00000F                     stoa@nuls:
   495                           	callstack 0
   496                           
   497                           ; 7 bytes @ 0xE
   498   00000F                     	ds	2
   499   000011                     pad@fp:
   500                           	callstack 0
   501   000011                     _Seven_Segment_Positive_Tempreture_Output$1498:
   502                           	callstack 0
   503                           
   504                           ; 2 bytes @ 0x10
   505   000011                     	ds	1
   506   000012                     ___flmul@aexp:
   507                           	callstack 0
   508                           
   509                           ; 1 bytes @ 0x11
   510   000012                     	ds	1
   511   000013                     ___flmul@bexp:
   512                           	callstack 0
   513   000013                     pad@buf:
   514                           	callstack 0
   515                           
   516                           ; 2 bytes @ 0x12
   517   000013                     	ds	1
   518   000014                     ___flmul@prod:
   519                           	callstack 0
   520                           
   521                           ; 4 bytes @ 0x13
   522   000014                     	ds	1
   523   000015                     pad@p:
   524                           	callstack 0
   525                           
   526                           ; 2 bytes @ 0x14
   527   000015                     	ds	1
   528   000016                     stoa@i:
   529                           	callstack 0
   530                           
   531                           ; 2 bytes @ 0x15
   532   000016                     	ds	1
   533   000017                     ??_pad:
   534                           
   535                           ; 1 bytes @ 0x16
   536   000017                     	ds	1
   537   000018                     ___flmul@temp:
   538                           	callstack 0
   539   000018                     pad@i:
   540                           	callstack 0
   541   000018                     stoa@w:
   542                           	callstack 0
   543                           
   544                           ; 2 bytes @ 0x17
   545   000018                     	ds	2
   546   00001A                     ?___fldiv:
   547                           	callstack 0
   548   00001A                     pad@w:
   549                           	callstack 0
   550   00001A                     stoa@cp:
   551                           	callstack 0
   552   00001A                     ___fldiv@b:
   553                           	callstack 0
   554                           
   555                           ; 4 bytes @ 0x19
   556   00001A                     	ds	2
   557   00001C                     dtoa@fp:
   558                           	callstack 0
   559   00001C                     stoa@p:
   560                           	callstack 0
   561                           
   562                           ; 2 bytes @ 0x1B
   563   00001C                     	ds	2
   564   00001E                     dtoa@d:
   565                           	callstack 0
   566   00001E                     stoa@l:
   567                           	callstack 0
   568   00001E                     ___fldiv@a:
   569                           	callstack 0
   570                           
   571                           ; 4 bytes @ 0x1D
   572   00001E                     	ds	2
   573   000020                     _dtoa$1177:
   574                           	callstack 0
   575                           
   576                           ; 2 bytes @ 0x1F
   577   000020                     	ds	2
   578   000022                     ??___fldiv:
   579   000022                     dtoa@p:
   580                           	callstack 0
   581                           
   582                           ; 2 bytes @ 0x21
   583   000022                     	ds	2
   584   000024                     dtoa@w:
   585                           	callstack 0
   586                           
   587                           ; 2 bytes @ 0x23
   588   000024                     	ds	2
   589   000026                     dtoa@i:
   590                           	callstack 0
   591   000026                     ___fldiv@rem:
   592                           	callstack 0
   593                           
   594                           ; 4 bytes @ 0x25
   595   000026                     	ds	2
   596   000028                     dtoa@s:
   597                           	callstack 0
   598                           
   599                           ; 1 bytes @ 0x27
   600   000028                     	ds	1
   601   000029                     vfpfcnvrt@fp:
   602                           	callstack 0
   603                           
   604                           ; 2 bytes @ 0x28
   605   000029                     	ds	1
   606   00002A                     ___fldiv@sign:
   607                           	callstack 0
   608                           
   609                           ; 1 bytes @ 0x29
   610   00002A                     	ds	1
   611   00002B                     ___fldiv@new_exp:
   612                           	callstack 0
   613   00002B                     vfpfcnvrt@fmt:
   614                           	callstack 0
   615                           
   616                           ; 2 bytes @ 0x2A
   617   00002B                     	ds	2
   618   00002D                     vfpfcnvrt@ap:
   619                           	callstack 0
   620   00002D                     ___fldiv@grs:
   621                           	callstack 0
   622                           
   623                           ; 4 bytes @ 0x2C
   624   00002D                     	ds	2
   625   00002F                     ??_vfpfcnvrt:
   626                           
   627                           ; 1 bytes @ 0x2E
   628   00002F                     	ds	2
   629   000031                     ___fldiv@bexp:
   630                           	callstack 0
   631   000031                     vfpfcnvrt@convarg:
   632                           	callstack 0
   633                           
   634                           ; 4 bytes @ 0x30
   635   000031                     	ds	1
   636   000032                     ___fldiv@aexp:
   637                           	callstack 0
   638                           
   639                           ; 1 bytes @ 0x31
   640   000032                     	ds	1
   641   000033                     ?___fltol:
   642                           	callstack 0
   643   000033                     ___fltol@f1:
   644                           	callstack 0
   645                           
   646                           ; 4 bytes @ 0x32
   647   000033                     	ds	2
   648   000035                     vfpfcnvrt@done:
   649                           	callstack 0
   650                           
   651                           ; 2 bytes @ 0x34
   652   000035                     	ds	2
   653   000037                     ??___fltol:
   654   000037                     _vfpfcnvrt$1215:
   655                           	callstack 0
   656                           
   657                           ; 2 bytes @ 0x36
   658   000037                     	ds	2
   659   000039                     vfpfcnvrt@cp:
   660                           	callstack 0
   661                           
   662                           ; 2 bytes @ 0x38
   663   000039                     	ds	2
   664   00003B                     ?_vfprintf:
   665                           	callstack 0
   666   00003B                     ___fltol@sign1:
   667                           	callstack 0
   668   00003B                     vfprintf@fp:
   669                           	callstack 0
   670                           
   671                           ; 2 bytes @ 0x3A
   672   00003B                     	ds	1
   673   00003C                     ___fltol@exp1:
   674                           	callstack 0
   675                           
   676                           ; 1 bytes @ 0x3B
   677   00003C                     	ds	1
   678   00003D                     vfprintf@fmt:
   679                           	callstack 0
   680                           
   681                           ; 2 bytes @ 0x3C
   682   00003D                     	ds	2
   683   00003F                     vfprintf@ap:
   684                           	callstack 0
   685                           
   686                           ; 2 bytes @ 0x3E
   687   00003F                     	ds	2
   688   000041                     vfprintf@cfmt:
   689                           	callstack 0
   690                           
   691                           ; 2 bytes @ 0x40
   692   000041                     	ds	2
   693   000043                     ?_sprintf:
   694                           	callstack 0
   695   000043                     sprintf@s:
   696                           	callstack 0
   697                           
   698                           ; 2 bytes @ 0x42
   699   000043                     	ds	2
   700   000045                     sprintf@fmt:
   701                           	callstack 0
   702                           
   703                           ; 2 bytes @ 0x44
   704   000045                     	ds	10
   705   00004F                     sprintf@ap:
   706                           	callstack 0
   707                           
   708                           ; 2 bytes @ 0x4E
   709   00004F                     	ds	2
   710   000051                     sprintf@f:
   711                           	callstack 0
   712                           
   713                           ; 12 bytes @ 0x50
   714   000051                     	ds	12
   715   00005D                     
   716                           ; 1 bytes @ 0x5C
   717 ;;
   718 ;;Main: autosize = 0, tempsize = 0, incstack = 0, save=0
   719 ;;
   720 ;; *************** function _main *****************
   721 ;; Defined at:
   722 ;;		line 43 in file "main.c"
   723 ;; Parameters:    Size  Location     Type
   724 ;;		None
   725 ;; Auto vars:     Size  Location     Type
   726 ;;		None
   727 ;; Return value:  Size  Location     Type
   728 ;;                  1    wreg      void 
   729 ;; Registers used:
   730 ;;		wreg, fsr1l, fsr1h, fsr2l, fsr2h, status,2, status,0, tblptrl, tblptrh, tblptru, prodl, prodh, cstack
   731 ;; Tracked objects:
   732 ;;		On entry : 0/0
   733 ;;		On exit  : 0/0
   734 ;;		Unchanged: 0/0
   735 ;; Data sizes:     COMRAM   BANK0   BANK1   BANK2   BANK3   BANK4   BANK5
   736 ;;      Params:         0       0       0       0       0       0       0
   737 ;;      Locals:         0       0       0       0       0       0       0
   738 ;;      Temps:          0       0       0       0       0       0       0
   739 ;;      Totals:         0       0       0       0       0       0       0
   740 ;;Total ram usage:        0 bytes
   741 ;; Hardware stack levels required when called: 9
   742 ;; This function calls:
   743 ;;		_ADC_GetConversionResult
   744 ;;		_ADC_IsConversionDone
   745 ;;		_ADC_SelectChannel
   746 ;;		_ADC_StartConversion
   747 ;;		_SYSTEM_Initialize
   748 ;;		_Seven_Segment_Positive_Tempreture_Output
   749 ;;		_UART_Positive_Negative_Tempreture_Output
   750 ;;		___awdiv
   751 ;;		___fldiv
   752 ;;		___flmul
   753 ;;		___fltol
   754 ;;		___xxtofl
   755 ;; This function is called by:
   756 ;;		Startup code after reset
   757 ;; This function uses a non-reentrant model
   758 ;;
   759                           
   760                           	psect	text0
   761   0018EE                     __ptext0:
   762                           	callstack 0
   763   0018EE                     _main:
   764                           	callstack 22
   765   0018EE                     
   766                           ;main.c: 46:     SYSTEM_Initialize();
   767   0018EE  EC93  F010         	call	_SYSTEM_Initialize	;wreg free
   768   0018F2                     l239:
   769                           
   770                           ;main.c: 49:     { ADC_SelectChannel(0);
   771   0018F2  0E00               	movlw	0
   772   0018F4  EC53  F010         	call	_ADC_SelectChannel
   773   0018F8                     
   774                           ;main.c: 50:         ADC_StartConversion();
   775   0018F8  ECB4  F010         	call	_ADC_StartConversion	;wreg free
   776   0018FC                     l2910:
   777   0018FC  EC7F  F010         	call	_ADC_IsConversionDone	;wreg free
   778   001900  0900               	iorlw	0
   779   001902  A4D8               	btfss	status,2,c
   780   001904  EF86  F00C         	goto	u2691
   781   001908  EF88  F00C         	goto	u2690
   782   00190C                     u2691:
   783   00190C  EF7E  F00C         	goto	l2910
   784   001910                     u2690:
   785   001910                     
   786                           ;main.c: 52:         Voltage= ADC_GetConversionResult();
   787   001910  EC89  F010         	call	_ADC_GetConversionResult	;wreg free
   788   001914  C001  F005         	movff	?_ADC_GetConversionResult,___xxtofl@val
   789   001918  C002  F006         	movff	?_ADC_GetConversionResult+1,___xxtofl@val+1
   790   00191C  6A07               	clrf	(___xxtofl@val+2)^0,c
   791   00191E  6A08               	clrf	(___xxtofl@val+3)^0,c
   792   001920  0E00               	movlw	0
   793   001922  EC33  F009         	call	___xxtofl
   794   001926  C005  F060         	movff	?___xxtofl,_Voltage
   795   00192A  C006  F061         	movff	?___xxtofl+1,_Voltage+1
   796   00192E  C007  F062         	movff	?___xxtofl+2,_Voltage+2
   797   001932  C008  F063         	movff	?___xxtofl+3,_Voltage+3
   798   001936                     
   799                           ;main.c: 53:         TMP36_Reading = (((Voltage*3300)/1024));
   800   001936  0E00               	movlw	0
   801   001938  6E1E               	movwf	___fldiv@a^0,c
   802   00193A  0E00               	movlw	0
   803   00193C  6E1F               	movwf	(___fldiv@a+1)^0,c
   804   00193E  0E80               	movlw	128
   805   001940  6E20               	movwf	(___fldiv@a+2)^0,c
   806   001942  0E44               	movlw	68
   807   001944  6E21               	movwf	(___fldiv@a+3)^0,c
   808   001946  0E00               	movlw	0
   809   001948  6E05               	movwf	___flmul@a^0,c
   810   00194A  0E40               	movlw	64
   811   00194C  6E06               	movwf	(___flmul@a+1)^0,c
   812   00194E  0E4E               	movlw	78
   813   001950  6E07               	movwf	(___flmul@a+2)^0,c
   814   001952  0E45               	movlw	69
   815   001954  6E08               	movwf	(___flmul@a+3)^0,c
   816   001956  C060  F001         	movff	_Voltage,___flmul@b
   817   00195A  C061  F002         	movff	_Voltage+1,___flmul@b+1
   818   00195E  C062  F003         	movff	_Voltage+2,___flmul@b+2
   819   001962  C063  F004         	movff	_Voltage+3,___flmul@b+3
   820   001966  EC18  F003         	call	___flmul	;wreg free
   821   00196A  C001  F01A         	movff	?___flmul,___fldiv@b
   822   00196E  C002  F01B         	movff	?___flmul+1,___fldiv@b+1
   823   001972  C003  F01C         	movff	?___flmul+2,___fldiv@b+2
   824   001976  C004  F01D         	movff	?___flmul+3,___fldiv@b+3
   825   00197A  EC2D  F005         	call	___fldiv	;wreg free
   826   00197E  C01A  F033         	movff	?___fldiv,___fltol@f1
   827   001982  C01B  F034         	movff	?___fldiv+1,___fltol@f1+1
   828   001986  C01C  F035         	movff	?___fldiv+2,___fltol@f1+2
   829   00198A  C01D  F036         	movff	?___fldiv+3,___fltol@f1+3
   830   00198E  EC85  F00B         	call	___fltol	;wreg free
   831   001992  C033  F05D         	movff	?___fltol,_TMP36_Reading
   832   001996  C034  F05E         	movff	?___fltol+1,_TMP36_Reading+1
   833   00199A                     
   834                           ;main.c: 54:         TMP36_Reading = ((TMP36_Reading-500)/10);
   835   00199A  0E0C               	movlw	12
   836   00199C  245D               	addwf	_TMP36_Reading^0,w,c
   837   00199E  6E07               	movwf	___awdiv@dividend^0,c
   838   0019A0  0EFE               	movlw	254
   839   0019A2  205E               	addwfc	(_TMP36_Reading+1)^0,w,c
   840   0019A4  6E08               	movwf	(___awdiv@dividend+1)^0,c
   841   0019A6  0E00               	movlw	0
   842   0019A8  6E0A               	movwf	(___awdiv@divisor+1)^0,c
   843   0019AA  0E0A               	movlw	10
   844   0019AC  6E09               	movwf	___awdiv@divisor^0,c
   845   0019AE  ECAD  F00D         	call	___awdiv	;wreg free
   846   0019B2  C007  F05D         	movff	?___awdiv,_TMP36_Reading
   847   0019B6  C008  F05E         	movff	?___awdiv+1,_TMP36_Reading+1
   848   0019BA                     
   849                           ;main.c: 55:         UART_Positive_Negative_Tempreture_Output();
   850   0019BA  ECBC  F00E         	call	_UART_Positive_Negative_Tempreture_Output	;wreg free
   851   0019BE                     
   852                           ;main.c: 56:         Seven_Segment_Positive_Tempreture_Output();
   853   0019BE  ECD5  F00A         	call	_Seven_Segment_Positive_Tempreture_Output	;wreg free
   854   0019C2  EF79  F00C         	goto	l239
   855   0019C6  EF00  F000         	goto	start
   856   0019CA                     __end_of_main:
   857                           	callstack 0
   858                           
   859 ;; *************** function ___xxtofl *****************
   860 ;; Defined at:
   861 ;;		line 10 in file "C:\Program Files\Microchip\xc8\v2.41\pic\sources\c99\common\xxtofl.c"
   862 ;; Parameters:    Size  Location     Type
   863 ;;  sign            1    wreg     unsigned char 
   864 ;;  val             4    4[COMRAM] long 
   865 ;; Auto vars:     Size  Location     Type
   866 ;;  sign            1   12[COMRAM] unsigned char 
   867 ;;  arg             4   14[COMRAM] unsigned long 
   868 ;;  exp             1   13[COMRAM] unsigned char 
   869 ;; Return value:  Size  Location     Type
   870 ;;                  4    4[COMRAM] unsigned char 
   871 ;; Registers used:
   872 ;;		wreg, status,2, status,0
   873 ;; Tracked objects:
   874 ;;		On entry : 0/0
   875 ;;		On exit  : 0/0
   876 ;;		Unchanged: 0/0
   877 ;; Data sizes:     COMRAM   BANK0   BANK1   BANK2   BANK3   BANK4   BANK5
   878 ;;      Params:         4       0       0       0       0       0       0
   879 ;;      Locals:         6       0       0       0       0       0       0
   880 ;;      Temps:          4       0       0       0       0       0       0
   881 ;;      Totals:        14       0       0       0       0       0       0
   882 ;;Total ram usage:       14 bytes
   883 ;; Hardware stack levels used: 1
   884 ;; This function calls:
   885 ;;		Nothing
   886 ;; This function is called by:
   887 ;;		_main
   888 ;; This function uses a non-reentrant model
   889 ;;
   890                           
   891                           	psect	text1
   892   001266                     __ptext1:
   893                           	callstack 0
   894   001266                     ___xxtofl:
   895                           	callstack 30
   896                           
   897                           ;incstack = 0
   898                           ;___xxtofl@sign stored from wreg
   899   001266  6E0D               	movwf	___xxtofl@sign^0,c
   900   001268  500D               	movf	___xxtofl@sign^0,w,c
   901   00126A  B4D8               	btfsc	status,2,c
   902   00126C  EF3A  F009         	goto	u2571
   903   001270  EF3C  F009         	goto	u2570
   904   001274                     u2571:
   905   001274  EF5E  F009         	goto	l921
   906   001278                     u2570:
   907   001278  BE08               	btfsc	(___xxtofl@val+3)^0,7,c
   908   00127A  EF43  F009         	goto	u2580
   909   00127E  EF41  F009         	goto	u2581
   910   001282                     u2581:
   911   001282  EF5E  F009         	goto	l921
   912   001286                     u2580:
   913   001286  C005  F009         	movff	___xxtofl@val,??___xxtofl
   914   00128A  C006  F00A         	movff	___xxtofl@val+1,??___xxtofl+1
   915   00128E  C007  F00B         	movff	___xxtofl@val+2,??___xxtofl+2
   916   001292  C008  F00C         	movff	___xxtofl@val+3,??___xxtofl+3
   917   001296  1E09               	comf	??___xxtofl^0,f,c
   918   001298  1E0A               	comf	(??___xxtofl+1)^0,f,c
   919   00129A  1E0B               	comf	(??___xxtofl+2)^0,f,c
   920   00129C  1E0C               	comf	(??___xxtofl+3)^0,f,c
   921   00129E  2A09               	incf	??___xxtofl^0,f,c
   922   0012A0  0E00               	movlw	0
   923   0012A2  220A               	addwfc	(??___xxtofl+1)^0,f,c
   924   0012A4  220B               	addwfc	(??___xxtofl+2)^0,f,c
   925   0012A6  220C               	addwfc	(??___xxtofl+3)^0,f,c
   926   0012A8  C009  F00F         	movff	??___xxtofl,___xxtofl@arg
   927   0012AC  C00A  F010         	movff	??___xxtofl+1,___xxtofl@arg+1
   928   0012B0  C00B  F011         	movff	??___xxtofl+2,___xxtofl@arg+2
   929   0012B4  C00C  F012         	movff	??___xxtofl+3,___xxtofl@arg+3
   930   0012B8  EF66  F009         	goto	l2854
   931   0012BC                     l921:
   932   0012BC  C005  F00F         	movff	___xxtofl@val,___xxtofl@arg
   933   0012C0  C006  F010         	movff	___xxtofl@val+1,___xxtofl@arg+1
   934   0012C4  C007  F011         	movff	___xxtofl@val+2,___xxtofl@arg+2
   935   0012C8  C008  F012         	movff	___xxtofl@val+3,___xxtofl@arg+3
   936   0012CC                     l2854:
   937   0012CC  5005               	movf	___xxtofl@val^0,w,c
   938   0012CE  1006               	iorwf	(___xxtofl@val+1)^0,w,c
   939   0012D0  1007               	iorwf	(___xxtofl@val+2)^0,w,c
   940   0012D2  1008               	iorwf	(___xxtofl@val+3)^0,w,c
   941   0012D4  A4D8               	btfss	status,2,c
   942   0012D6  EF6F  F009         	goto	u2591
   943   0012DA  EF71  F009         	goto	u2590
   944   0012DE                     u2591:
   945   0012DE  EF7B  F009         	goto	l2860
   946   0012E2                     u2590:
   947   0012E2  0E00               	movlw	0
   948   0012E4  6E05               	movwf	?___xxtofl^0,c
   949   0012E6  0E00               	movlw	0
   950   0012E8  6E06               	movwf	(?___xxtofl+1)^0,c
   951   0012EA  0E00               	movlw	0
   952   0012EC  6E07               	movwf	(?___xxtofl+2)^0,c
   953   0012EE  0E00               	movlw	0
   954   0012F0  6E08               	movwf	(?___xxtofl+3)^0,c
   955   0012F2  EF0C  F00A         	goto	l924
   956   0012F6                     l2860:
   957   0012F6  0E96               	movlw	150
   958   0012F8  6E0E               	movwf	___xxtofl@exp^0,c
   959   0012FA  EF85  F009         	goto	l2864
   960   0012FE                     l2862:
   961   0012FE  2A0E               	incf	___xxtofl@exp^0,f,c
   962   001300  90D8               	bcf	status,0,c
   963   001302  3212               	rrcf	(___xxtofl@arg+3)^0,f,c
   964   001304  3211               	rrcf	(___xxtofl@arg+2)^0,f,c
   965   001306  3210               	rrcf	(___xxtofl@arg+1)^0,f,c
   966   001308  320F               	rrcf	___xxtofl@arg^0,f,c
   967   00130A                     l2864:
   968   00130A  0E00               	movlw	0
   969   00130C  140F               	andwf	___xxtofl@arg^0,w,c
   970   00130E  6E09               	movwf	??___xxtofl^0,c
   971   001310  0E00               	movlw	0
   972   001312  1410               	andwf	(___xxtofl@arg+1)^0,w,c
   973   001314  6E0A               	movwf	(??___xxtofl+1)^0,c
   974   001316  0E00               	movlw	0
   975   001318  1411               	andwf	(___xxtofl@arg+2)^0,w,c
   976   00131A  6E0B               	movwf	(??___xxtofl+2)^0,c
   977   00131C  0EFE               	movlw	254
   978   00131E  1412               	andwf	(___xxtofl@arg+3)^0,w,c
   979   001320  6E0C               	movwf	(??___xxtofl+3)^0,c
   980   001322  5009               	movf	??___xxtofl^0,w,c
   981   001324  100A               	iorwf	(??___xxtofl+1)^0,w,c
   982   001326  100B               	iorwf	(??___xxtofl+2)^0,w,c
   983   001328  100C               	iorwf	(??___xxtofl+3)^0,w,c
   984   00132A  A4D8               	btfss	status,2,c
   985   00132C  EF9A  F009         	goto	u2601
   986   001330  EF9C  F009         	goto	u2600
   987   001334                     u2601:
   988   001334  EF7F  F009         	goto	l2862
   989   001338                     u2600:
   990   001338  EFAA  F009         	goto	l928
   991   00133C                     l2866:
   992   00133C  2A0E               	incf	___xxtofl@exp^0,f,c
   993   00133E  0E01               	movlw	1
   994   001340  260F               	addwf	___xxtofl@arg^0,f,c
   995   001342  0E00               	movlw	0
   996   001344  2210               	addwfc	(___xxtofl@arg+1)^0,f,c
   997   001346  2211               	addwfc	(___xxtofl@arg+2)^0,f,c
   998   001348  2212               	addwfc	(___xxtofl@arg+3)^0,f,c
   999   00134A  90D8               	bcf	status,0,c
  1000   00134C  3212               	rrcf	(___xxtofl@arg+3)^0,f,c
  1001   00134E  3211               	rrcf	(___xxtofl@arg+2)^0,f,c
  1002   001350  3210               	rrcf	(___xxtofl@arg+1)^0,f,c
  1003   001352  320F               	rrcf	___xxtofl@arg^0,f,c
  1004   001354                     l928:
  1005   001354  0E00               	movlw	0
  1006   001356  140F               	andwf	___xxtofl@arg^0,w,c
  1007   001358  6E09               	movwf	??___xxtofl^0,c
  1008   00135A  0E00               	movlw	0
  1009   00135C  1410               	andwf	(___xxtofl@arg+1)^0,w,c
  1010   00135E  6E0A               	movwf	(??___xxtofl+1)^0,c
  1011   001360  0E00               	movlw	0
  1012   001362  1411               	andwf	(___xxtofl@arg+2)^0,w,c
  1013   001364  6E0B               	movwf	(??___xxtofl+2)^0,c
  1014   001366  0EFF               	movlw	255
  1015   001368  1412               	andwf	(___xxtofl@arg+3)^0,w,c
  1016   00136A  6E0C               	movwf	(??___xxtofl+3)^0,c
  1017   00136C  5009               	movf	??___xxtofl^0,w,c
  1018   00136E  100A               	iorwf	(??___xxtofl+1)^0,w,c
  1019   001370  100B               	iorwf	(??___xxtofl+2)^0,w,c
  1020   001372  100C               	iorwf	(??___xxtofl+3)^0,w,c
  1021   001374  A4D8               	btfss	status,2,c
  1022   001376  EFBF  F009         	goto	u2611
  1023   00137A  EFC1  F009         	goto	u2610
  1024   00137E                     u2611:
  1025   00137E  EF9E  F009         	goto	l2866
  1026   001382                     u2610:
  1027   001382  EFC9  F009         	goto	l2874
  1028   001386                     l2872:
  1029   001386  060E               	decf	___xxtofl@exp^0,f,c
  1030   001388  90D8               	bcf	status,0,c
  1031   00138A  360F               	rlcf	___xxtofl@arg^0,f,c
  1032   00138C  3610               	rlcf	(___xxtofl@arg+1)^0,f,c
  1033   00138E  3611               	rlcf	(___xxtofl@arg+2)^0,f,c
  1034   001390  3612               	rlcf	(___xxtofl@arg+3)^0,f,c
  1035   001392                     l2874:
  1036   001392  BE11               	btfsc	(___xxtofl@arg+2)^0,7,c
  1037   001394  EFCE  F009         	goto	u2621
  1038   001398  EFD0  F009         	goto	u2620
  1039   00139C                     u2621:
  1040   00139C  EFD8  F009         	goto	l935
  1041   0013A0                     u2620:
  1042   0013A0  0E02               	movlw	2
  1043   0013A2  600E               	cpfslt	___xxtofl@exp^0,c
  1044   0013A4  EFD6  F009         	goto	u2631
  1045   0013A8  EFD8  F009         	goto	u2630
  1046   0013AC                     u2631:
  1047   0013AC  EFC3  F009         	goto	l2872
  1048   0013B0                     u2630:
  1049   0013B0                     l935:
  1050   0013B0  B00E               	btfsc	___xxtofl@exp^0,0,c
  1051   0013B2  EFDD  F009         	goto	u2641
  1052   0013B6  EFDF  F009         	goto	u2640
  1053   0013BA                     u2641:
  1054   0013BA  EFE0  F009         	goto	l2880
  1055   0013BE                     u2640:
  1056   0013BE  9E11               	bcf	(___xxtofl@arg+2)^0,7,c
  1057   0013C0                     l2880:
  1058   0013C0  90D8               	bcf	status,0,c
  1059   0013C2  320E               	rrcf	___xxtofl@exp^0,f,c
  1060   0013C4  C00E  F009         	movff	___xxtofl@exp,??___xxtofl
  1061   0013C8  6A0A               	clrf	(??___xxtofl+1)^0,c
  1062   0013CA  6A0B               	clrf	(??___xxtofl+2)^0,c
  1063   0013CC  6A0C               	clrf	(??___xxtofl+3)^0,c
  1064   0013CE  C009  F00C         	movff	??___xxtofl,??___xxtofl+3
  1065   0013D2  6A0B               	clrf	(??___xxtofl+2)^0,c
  1066   0013D4  6A0A               	clrf	(??___xxtofl+1)^0,c
  1067   0013D6  6A09               	clrf	??___xxtofl^0,c
  1068   0013D8  5009               	movf	??___xxtofl^0,w,c
  1069   0013DA  120F               	iorwf	___xxtofl@arg^0,f,c
  1070   0013DC  500A               	movf	(??___xxtofl+1)^0,w,c
  1071   0013DE  1210               	iorwf	(___xxtofl@arg+1)^0,f,c
  1072   0013E0  500B               	movf	(??___xxtofl+2)^0,w,c
  1073   0013E2  1211               	iorwf	(___xxtofl@arg+2)^0,f,c
  1074   0013E4  500C               	movf	(??___xxtofl+3)^0,w,c
  1075   0013E6  1212               	iorwf	(___xxtofl@arg+3)^0,f,c
  1076   0013E8  500D               	movf	___xxtofl@sign^0,w,c
  1077   0013EA  B4D8               	btfsc	status,2,c
  1078   0013EC  EFFA  F009         	goto	u2651
  1079   0013F0  EFFC  F009         	goto	u2650
  1080   0013F4                     u2651:
  1081   0013F4  EF04  F00A         	goto	l2890
  1082   0013F8                     u2650:
  1083   0013F8  BE08               	btfsc	(___xxtofl@val+3)^0,7,c
  1084   0013FA  EF03  F00A         	goto	u2660
  1085   0013FE  EF01  F00A         	goto	u2661
  1086   001402                     u2661:
  1087   001402  EF04  F00A         	goto	l2890
  1088   001406                     u2660:
  1089   001406  8E12               	bsf	(___xxtofl@arg+3)^0,7,c
  1090   001408                     l2890:
  1091   001408  C00F  F005         	movff	___xxtofl@arg,?___xxtofl
  1092   00140C  C010  F006         	movff	___xxtofl@arg+1,?___xxtofl+1
  1093   001410  C011  F007         	movff	___xxtofl@arg+2,?___xxtofl+2
  1094   001414  C012  F008         	movff	___xxtofl@arg+3,?___xxtofl+3
  1095   001418                     l924:
  1096   001418  0012               	return		;funcret
  1097   00141A                     __end_of___xxtofl:
  1098                           	callstack 0
  1099                           
  1100 ;; *************** function ___fltol *****************
  1101 ;; Defined at:
  1102 ;;		line 43 in file "C:\Program Files\Microchip\xc8\v2.41\pic\sources\c99\common\fltol.c"
  1103 ;; Parameters:    Size  Location     Type
  1104 ;;  f1              4   50[COMRAM] unsigned char 
  1105 ;; Auto vars:     Size  Location     Type
  1106 ;;  exp1            1   59[COMRAM] unsigned char 
  1107 ;;  sign1           1   58[COMRAM] unsigned char 
  1108 ;; Return value:  Size  Location     Type
  1109 ;;                  4   50[COMRAM] long 
  1110 ;; Registers used:
  1111 ;;		wreg, status,2, status,0
  1112 ;; Tracked objects:
  1113 ;;		On entry : 0/0
  1114 ;;		On exit  : 0/0
  1115 ;;		Unchanged: 0/0
  1116 ;; Data sizes:     COMRAM   BANK0   BANK1   BANK2   BANK3   BANK4   BANK5
  1117 ;;      Params:         4       0       0       0       0       0       0
  1118 ;;      Locals:         2       0       0       0       0       0       0
  1119 ;;      Temps:          4       0       0       0       0       0       0
  1120 ;;      Totals:        10       0       0       0       0       0       0
  1121 ;;Total ram usage:       10 bytes
  1122 ;; Hardware stack levels used: 1
  1123 ;; This function calls:
  1124 ;;		Nothing
  1125 ;; This function is called by:
  1126 ;;		_main
  1127 ;; This function uses a non-reentrant model
  1128 ;;
  1129                           
  1130                           	psect	text2
  1131   00170A                     __ptext2:
  1132                           	callstack 0
  1133   00170A                     ___fltol:
  1134                           	callstack 30
  1135   00170A  3435               	rlcf	(___fltol@f1+2)^0,w,c
  1136   00170C  3436               	rlcf	(___fltol@f1+3)^0,w,c
  1137   00170E  6E3C               	movwf	___fltol@exp1^0,c
  1138   001710  503C               	movf	___fltol@exp1^0,w,c
  1139   001712  A4D8               	btfss	status,2,c
  1140   001714  EF8E  F00B         	goto	u2501
  1141   001718  EF90  F00B         	goto	u2500
  1142   00171C                     u2501:
  1143   00171C  EF9A  F00B         	goto	l2810
  1144   001720                     u2500:
  1145   001720                     l2806:
  1146   001720  0E00               	movlw	0
  1147   001722  6E33               	movwf	?___fltol^0,c
  1148   001724  0E00               	movlw	0
  1149   001726  6E34               	movwf	(?___fltol+1)^0,c
  1150   001728  0E00               	movlw	0
  1151   00172A  6E35               	movwf	(?___fltol+2)^0,c
  1152   00172C  0E00               	movlw	0
  1153   00172E  6E36               	movwf	(?___fltol+3)^0,c
  1154   001730  EF07  F00C         	goto	l563
  1155   001734                     l2810:
  1156   001734  C033  F037         	movff	___fltol@f1,??___fltol
  1157   001738  C034  F038         	movff	___fltol@f1+1,??___fltol+1
  1158   00173C  C035  F039         	movff	___fltol@f1+2,??___fltol+2
  1159   001740  C036  F03A         	movff	___fltol@f1+3,??___fltol+3
  1160   001744  0E20               	movlw	32
  1161   001746  EFAA  F00B         	goto	u2510
  1162   00174A                     u2515:
  1163   00174A  90D8               	bcf	status,0,c
  1164   00174C  323A               	rrcf	(??___fltol+3)^0,f,c
  1165   00174E  3239               	rrcf	(??___fltol+2)^0,f,c
  1166   001750  3238               	rrcf	(??___fltol+1)^0,f,c
  1167   001752  3237               	rrcf	??___fltol^0,f,c
  1168   001754                     u2510:
  1169   001754  2EE8               	decfsz	wreg,f,c
  1170   001756  EFA5  F00B         	goto	u2515
  1171   00175A  5037               	movf	??___fltol^0,w,c
  1172   00175C  6E3B               	movwf	___fltol@sign1^0,c
  1173   00175E  8E35               	bsf	(___fltol@f1+2)^0,7,c
  1174   001760  0EFF               	movlw	255
  1175   001762  1633               	andwf	___fltol@f1^0,f,c
  1176   001764  0EFF               	movlw	255
  1177   001766  1634               	andwf	(___fltol@f1+1)^0,f,c
  1178   001768  0EFF               	movlw	255
  1179   00176A  1635               	andwf	(___fltol@f1+2)^0,f,c
  1180   00176C  0E00               	movlw	0
  1181   00176E  1636               	andwf	(___fltol@f1+3)^0,f,c
  1182   001770  0E96               	movlw	150
  1183   001772  5E3C               	subwf	___fltol@exp1^0,f,c
  1184   001774  BE3C               	btfsc	___fltol@exp1^0,7,c
  1185   001776  EFC1  F00B         	goto	u2520
  1186   00177A  EFBF  F00B         	goto	u2521
  1187   00177E                     u2521:
  1188   00177E  EFD7  F00B         	goto	l2830
  1189   001782                     u2520:
  1190   001782  503C               	movf	___fltol@exp1^0,w,c
  1191   001784  0A80               	xorlw	128
  1192   001786  0F97               	addlw	151
  1193   001788  B0D8               	btfsc	status,0,c
  1194   00178A  EFC9  F00B         	goto	u2531
  1195   00178E  EFCB  F00B         	goto	u2530
  1196   001792                     u2531:
  1197   001792  EFCD  F00B         	goto	l2826
  1198   001796                     u2530:
  1199   001796  EF90  F00B         	goto	l2806
  1200   00179A                     l2826:
  1201   00179A  90D8               	bcf	status,0,c
  1202   00179C  3236               	rrcf	(___fltol@f1+3)^0,f,c
  1203   00179E  3235               	rrcf	(___fltol@f1+2)^0,f,c
  1204   0017A0  3234               	rrcf	(___fltol@f1+1)^0,f,c
  1205   0017A2  3233               	rrcf	___fltol@f1^0,f,c
  1206   0017A4  3E3C               	incfsz	___fltol@exp1^0,f,c
  1207   0017A6  EFCD  F00B         	goto	l2826
  1208   0017AA  EFEF  F00B         	goto	l2840
  1209   0017AE                     l2830:
  1210   0017AE  0E1F               	movlw	31
  1211   0017B0  643C               	cpfsgt	___fltol@exp1^0,c
  1212   0017B2  EFDD  F00B         	goto	u2541
  1213   0017B6  EFDF  F00B         	goto	u2540
  1214   0017BA                     u2541:
  1215   0017BA  EFE7  F00B         	goto	l2838
  1216   0017BE                     u2540:
  1217   0017BE  EF90  F00B         	goto	l2806
  1218   0017C2                     l2836:
  1219   0017C2  90D8               	bcf	status,0,c
  1220   0017C4  3633               	rlcf	___fltol@f1^0,f,c
  1221   0017C6  3634               	rlcf	(___fltol@f1+1)^0,f,c
  1222   0017C8  3635               	rlcf	(___fltol@f1+2)^0,f,c
  1223   0017CA  3636               	rlcf	(___fltol@f1+3)^0,f,c
  1224   0017CC  063C               	decf	___fltol@exp1^0,f,c
  1225   0017CE                     l2838:
  1226   0017CE  503C               	movf	___fltol@exp1^0,w,c
  1227   0017D0  A4D8               	btfss	status,2,c
  1228   0017D2  EFED  F00B         	goto	u2551
  1229   0017D6  EFEF  F00B         	goto	u2550
  1230   0017DA                     u2551:
  1231   0017DA  EFE1  F00B         	goto	l2836
  1232   0017DE                     u2550:
  1233   0017DE                     l2840:
  1234   0017DE  503B               	movf	___fltol@sign1^0,w,c
  1235   0017E0  B4D8               	btfsc	status,2,c
  1236   0017E2  EFF5  F00B         	goto	u2561
  1237   0017E6  EFF7  F00B         	goto	u2560
  1238   0017EA                     u2561:
  1239   0017EA  EFFF  F00B         	goto	l2844
  1240   0017EE                     u2560:
  1241   0017EE  1E36               	comf	(___fltol@f1+3)^0,f,c
  1242   0017F0  1E35               	comf	(___fltol@f1+2)^0,f,c
  1243   0017F2  1E34               	comf	(___fltol@f1+1)^0,f,c
  1244   0017F4  6C33               	negf	___fltol@f1^0,c
  1245   0017F6  0E00               	movlw	0
  1246   0017F8  2234               	addwfc	(___fltol@f1+1)^0,f,c
  1247   0017FA  2235               	addwfc	(___fltol@f1+2)^0,f,c
  1248   0017FC  2236               	addwfc	(___fltol@f1+3)^0,f,c
  1249   0017FE                     l2844:
  1250   0017FE  C033  F033         	movff	___fltol@f1,?___fltol
  1251   001802  C034  F034         	movff	___fltol@f1+1,?___fltol+1
  1252   001806  C035  F035         	movff	___fltol@f1+2,?___fltol+2
  1253   00180A  C036  F036         	movff	___fltol@f1+3,?___fltol+3
  1254   00180E                     l563:
  1255   00180E  0012               	return		;funcret
  1256   001810                     __end_of___fltol:
  1257                           	callstack 0
  1258                           
  1259 ;; *************** function ___flmul *****************
  1260 ;; Defined at:
  1261 ;;		line 8 in file "C:\Program Files\Microchip\xc8\v2.41\pic\sources\c99\common\sprcmul.c"
  1262 ;; Parameters:    Size  Location     Type
  1263 ;;  b               4    0[COMRAM] long 
  1264 ;;  a               4    4[COMRAM] long 
  1265 ;; Auto vars:     Size  Location     Type
  1266 ;;  prod            4   19[COMRAM] struct .
  1267 ;;  grs             4   13[COMRAM] unsigned long 
  1268 ;;  temp            2   23[COMRAM] struct .
  1269 ;;  bexp            1   18[COMRAM] unsigned char 
  1270 ;;  aexp            1   17[COMRAM] unsigned char 
  1271 ;;  sign            1   12[COMRAM] unsigned char 
  1272 ;; Return value:  Size  Location     Type
  1273 ;;                  4    0[COMRAM] unsigned char 
  1274 ;; Registers used:
  1275 ;;		wreg, status,2, status,0, prodl, prodh
  1276 ;; Tracked objects:
  1277 ;;		On entry : 0/0
  1278 ;;		On exit  : 0/0
  1279 ;;		Unchanged: 0/0
  1280 ;; Data sizes:     COMRAM   BANK0   BANK1   BANK2   BANK3   BANK4   BANK5
  1281 ;;      Params:         8       0       0       0       0       0       0
  1282 ;;      Locals:        13       0       0       0       0       0       0
  1283 ;;      Temps:          4       0       0       0       0       0       0
  1284 ;;      Totals:        25       0       0       0       0       0       0
  1285 ;;Total ram usage:       25 bytes
  1286 ;; Hardware stack levels used: 1
  1287 ;; This function calls:
  1288 ;;		Nothing
  1289 ;; This function is called by:
  1290 ;;		_main
  1291 ;; This function uses a non-reentrant model
  1292 ;;
  1293                           
  1294                           	psect	text3
  1295   000630                     __ptext3:
  1296                           	callstack 0
  1297   000630                     ___flmul:
  1298                           	callstack 30
  1299   000630  5004               	movf	(___flmul@b+3)^0,w,c
  1300   000632  0B80               	andlw	128
  1301   000634  6E0D               	movwf	___flmul@sign^0,c
  1302   000636  5004               	movf	(___flmul@b+3)^0,w,c
  1303   000638  2404               	addwf	(___flmul@b+3)^0,w,c
  1304   00063A  6E13               	movwf	___flmul@bexp^0,c
  1305   00063C  AE03               	btfss	(___flmul@b+2)^0,7,c
  1306   00063E  EF23  F003         	goto	u2311
  1307   000642  EF25  F003         	goto	u2310
  1308   000646                     u2311:
  1309   000646  EF26  F003         	goto	l2680
  1310   00064A                     u2310:
  1311   00064A  8013               	bsf	___flmul@bexp^0,0,c
  1312   00064C                     l2680:
  1313   00064C  5013               	movf	___flmul@bexp^0,w,c
  1314   00064E  B4D8               	btfsc	status,2,c
  1315   000650  EF2C  F003         	goto	u2321
  1316   000654  EF2E  F003         	goto	u2320
  1317   000658                     u2321:
  1318   000658  EF41  F003         	goto	l2688
  1319   00065C                     u2320:
  1320   00065C  2813               	incf	___flmul@bexp^0,w,c
  1321   00065E  A4D8               	btfss	status,2,c
  1322   000660  EF34  F003         	goto	u2331
  1323   000664  EF36  F003         	goto	u2330
  1324   000668                     u2331:
  1325   000668  EF3E  F003         	goto	l2686
  1326   00066C                     u2330:
  1327   00066C  0E00               	movlw	0
  1328   00066E  6E01               	movwf	___flmul@b^0,c
  1329   000670  0E00               	movlw	0
  1330   000672  6E02               	movwf	(___flmul@b+1)^0,c
  1331   000674  0E00               	movlw	0
  1332   000676  6E03               	movwf	(___flmul@b+2)^0,c
  1333   000678  0E00               	movlw	0
  1334   00067A  6E04               	movwf	(___flmul@b+3)^0,c
  1335   00067C                     l2686:
  1336   00067C  8E03               	bsf	(___flmul@b+2)^0,7,c
  1337   00067E  EF49  F003         	goto	l2690
  1338   000682                     l2688:
  1339   000682  0E00               	movlw	0
  1340   000684  6E01               	movwf	___flmul@b^0,c
  1341   000686  0E00               	movlw	0
  1342   000688  6E02               	movwf	(___flmul@b+1)^0,c
  1343   00068A  0E00               	movlw	0
  1344   00068C  6E03               	movwf	(___flmul@b+2)^0,c
  1345   00068E  0E00               	movlw	0
  1346   000690  6E04               	movwf	(___flmul@b+3)^0,c
  1347   000692                     l2690:
  1348   000692  5008               	movf	(___flmul@a+3)^0,w,c
  1349   000694  0B80               	andlw	128
  1350   000696  1A0D               	xorwf	___flmul@sign^0,f,c
  1351   000698  5008               	movf	(___flmul@a+3)^0,w,c
  1352   00069A  2408               	addwf	(___flmul@a+3)^0,w,c
  1353   00069C  6E12               	movwf	___flmul@aexp^0,c
  1354   00069E  AE07               	btfss	(___flmul@a+2)^0,7,c
  1355   0006A0  EF54  F003         	goto	u2341
  1356   0006A4  EF56  F003         	goto	u2340
  1357   0006A8                     u2341:
  1358   0006A8  EF57  F003         	goto	l2698
  1359   0006AC                     u2340:
  1360   0006AC  8012               	bsf	___flmul@aexp^0,0,c
  1361   0006AE                     l2698:
  1362   0006AE  5012               	movf	___flmul@aexp^0,w,c
  1363   0006B0  B4D8               	btfsc	status,2,c
  1364   0006B2  EF5D  F003         	goto	u2351
  1365   0006B6  EF5F  F003         	goto	u2350
  1366   0006BA                     u2351:
  1367   0006BA  EF72  F003         	goto	l2706
  1368   0006BE                     u2350:
  1369   0006BE  2812               	incf	___flmul@aexp^0,w,c
  1370   0006C0  A4D8               	btfss	status,2,c
  1371   0006C2  EF65  F003         	goto	u2361
  1372   0006C6  EF67  F003         	goto	u2360
  1373   0006CA                     u2361:
  1374   0006CA  EF6F  F003         	goto	l2704
  1375   0006CE                     u2360:
  1376   0006CE  0E00               	movlw	0
  1377   0006D0  6E05               	movwf	___flmul@a^0,c
  1378   0006D2  0E00               	movlw	0
  1379   0006D4  6E06               	movwf	(___flmul@a+1)^0,c
  1380   0006D6  0E00               	movlw	0
  1381   0006D8  6E07               	movwf	(___flmul@a+2)^0,c
  1382   0006DA  0E00               	movlw	0
  1383   0006DC  6E08               	movwf	(___flmul@a+3)^0,c
  1384   0006DE                     l2704:
  1385   0006DE  8E07               	bsf	(___flmul@a+2)^0,7,c
  1386   0006E0  EF7A  F003         	goto	l880
  1387   0006E4                     l2706:
  1388   0006E4  0E00               	movlw	0
  1389   0006E6  6E05               	movwf	___flmul@a^0,c
  1390   0006E8  0E00               	movlw	0
  1391   0006EA  6E06               	movwf	(___flmul@a+1)^0,c
  1392   0006EC  0E00               	movlw	0
  1393   0006EE  6E07               	movwf	(___flmul@a+2)^0,c
  1394   0006F0  0E00               	movlw	0
  1395   0006F2  6E08               	movwf	(___flmul@a+3)^0,c
  1396   0006F4                     l880:
  1397   0006F4  5012               	movf	___flmul@aexp^0,w,c
  1398   0006F6  B4D8               	btfsc	status,2,c
  1399   0006F8  EF80  F003         	goto	u2371
  1400   0006FC  EF82  F003         	goto	u2370
  1401   000700                     u2371:
  1402   000700  EF8A  F003         	goto	l2710
  1403   000704                     u2370:
  1404   000704  5013               	movf	___flmul@bexp^0,w,c
  1405   000706  A4D8               	btfss	status,2,c
  1406   000708  EF88  F003         	goto	u2381
  1407   00070C  EF8A  F003         	goto	u2380
  1408   000710                     u2381:
  1409   000710  EF94  F003         	goto	l2714
  1410   000714                     u2380:
  1411   000714                     l2710:
  1412   000714  0E00               	movlw	0
  1413   000716  6E01               	movwf	?___flmul^0,c
  1414   000718  0E00               	movlw	0
  1415   00071A  6E02               	movwf	(?___flmul+1)^0,c
  1416   00071C  0E00               	movlw	0
  1417   00071E  6E03               	movwf	(?___flmul+2)^0,c
  1418   000720  0E00               	movlw	0
  1419   000722  6E04               	movwf	(?___flmul+3)^0,c
  1420   000724  EF2C  F005         	goto	l884
  1421   000728                     l2714:
  1422   000728  5007               	movf	(___flmul@a+2)^0,w,c
  1423   00072A  0201               	mulwf	___flmul@b^0,c
  1424   00072C  CFF3 F018          	movff	prodl,___flmul@temp
  1425   000730  CFF4 F019          	movff	prodh,___flmul@temp+1
  1426   000734  5018               	movf	___flmul@temp^0,w,c
  1427   000736  6E0E               	movwf	___flmul@grs^0,c
  1428   000738  6A0F               	clrf	(___flmul@grs+1)^0,c
  1429   00073A  6A10               	clrf	(___flmul@grs+2)^0,c
  1430   00073C  6A11               	clrf	(___flmul@grs+3)^0,c
  1431   00073E  5019               	movf	(___flmul@temp+1)^0,w,c
  1432   000740  6E14               	movwf	___flmul@prod^0,c
  1433   000742  6A15               	clrf	(___flmul@prod+1)^0,c
  1434   000744  6A16               	clrf	(___flmul@prod+2)^0,c
  1435   000746  6A17               	clrf	(___flmul@prod+3)^0,c
  1436   000748  5006               	movf	(___flmul@a+1)^0,w,c
  1437   00074A  0202               	mulwf	(___flmul@b+1)^0,c
  1438   00074C  CFF3 F018          	movff	prodl,___flmul@temp
  1439   000750  CFF4 F019          	movff	prodh,___flmul@temp+1
  1440   000754  5018               	movf	___flmul@temp^0,w,c
  1441   000756  260E               	addwf	___flmul@grs^0,f,c
  1442   000758  0E00               	movlw	0
  1443   00075A  220F               	addwfc	(___flmul@grs+1)^0,f,c
  1444   00075C  2210               	addwfc	(___flmul@grs+2)^0,f,c
  1445   00075E  2211               	addwfc	(___flmul@grs+3)^0,f,c
  1446   000760  5019               	movf	(___flmul@temp+1)^0,w,c
  1447   000762  2614               	addwf	___flmul@prod^0,f,c
  1448   000764  0E00               	movlw	0
  1449   000766  2215               	addwfc	(___flmul@prod+1)^0,f,c
  1450   000768  2216               	addwfc	(___flmul@prod+2)^0,f,c
  1451   00076A  2217               	addwfc	(___flmul@prod+3)^0,f,c
  1452   00076C  5005               	movf	___flmul@a^0,w,c
  1453   00076E  0203               	mulwf	(___flmul@b+2)^0,c
  1454   000770  CFF3 F018          	movff	prodl,___flmul@temp
  1455   000774  CFF4 F019          	movff	prodh,___flmul@temp+1
  1456   000778  5018               	movf	___flmul@temp^0,w,c
  1457   00077A  260E               	addwf	___flmul@grs^0,f,c
  1458   00077C  0E00               	movlw	0
  1459   00077E  220F               	addwfc	(___flmul@grs+1)^0,f,c
  1460   000780  2210               	addwfc	(___flmul@grs+2)^0,f,c
  1461   000782  2211               	addwfc	(___flmul@grs+3)^0,f,c
  1462   000784  5019               	movf	(___flmul@temp+1)^0,w,c
  1463   000786  2614               	addwf	___flmul@prod^0,f,c
  1464   000788  0E00               	movlw	0
  1465   00078A  2215               	addwfc	(___flmul@prod+1)^0,f,c
  1466   00078C  2216               	addwfc	(___flmul@prod+2)^0,f,c
  1467   00078E  2217               	addwfc	(___flmul@prod+3)^0,f,c
  1468   000790  C010  F011         	movff	___flmul@grs+2,___flmul@grs+3
  1469   000794  C00F  F010         	movff	___flmul@grs+1,___flmul@grs+2
  1470   000798  C00E  F00F         	movff	___flmul@grs,___flmul@grs+1
  1471   00079C  6A0E               	clrf	___flmul@grs^0,c
  1472   00079E  5005               	movf	___flmul@a^0,w,c
  1473   0007A0  0202               	mulwf	(___flmul@b+1)^0,c
  1474   0007A2  CFF3 F018          	movff	prodl,___flmul@temp
  1475   0007A6  CFF4 F019          	movff	prodh,___flmul@temp+1
  1476   0007AA  5018               	movf	___flmul@temp^0,w,c
  1477   0007AC  260E               	addwf	___flmul@grs^0,f,c
  1478   0007AE  5019               	movf	(___flmul@temp+1)^0,w,c
  1479   0007B0  220F               	addwfc	(___flmul@grs+1)^0,f,c
  1480   0007B2  0E00               	movlw	0
  1481   0007B4  2210               	addwfc	(___flmul@grs+2)^0,f,c
  1482   0007B6  0E00               	movlw	0
  1483   0007B8  2211               	addwfc	(___flmul@grs+3)^0,f,c
  1484   0007BA  5006               	movf	(___flmul@a+1)^0,w,c
  1485   0007BC  0201               	mulwf	___flmul@b^0,c
  1486   0007BE  CFF3 F018          	movff	prodl,___flmul@temp
  1487   0007C2  CFF4 F019          	movff	prodh,___flmul@temp+1
  1488   0007C6  5018               	movf	___flmul@temp^0,w,c
  1489   0007C8  260E               	addwf	___flmul@grs^0,f,c
  1490   0007CA  5019               	movf	(___flmul@temp+1)^0,w,c
  1491   0007CC  220F               	addwfc	(___flmul@grs+1)^0,f,c
  1492   0007CE  0E00               	movlw	0
  1493   0007D0  2210               	addwfc	(___flmul@grs+2)^0,f,c
  1494   0007D2  0E00               	movlw	0
  1495   0007D4  2211               	addwfc	(___flmul@grs+3)^0,f,c
  1496   0007D6  C010  F011         	movff	___flmul@grs+2,___flmul@grs+3
  1497   0007DA  C00F  F010         	movff	___flmul@grs+1,___flmul@grs+2
  1498   0007DE  C00E  F00F         	movff	___flmul@grs,___flmul@grs+1
  1499   0007E2  6A0E               	clrf	___flmul@grs^0,c
  1500   0007E4  5005               	movf	___flmul@a^0,w,c
  1501   0007E6  0201               	mulwf	___flmul@b^0,c
  1502   0007E8  CFF3 F018          	movff	prodl,___flmul@temp
  1503   0007EC  CFF4 F019          	movff	prodh,___flmul@temp+1
  1504   0007F0  5018               	movf	___flmul@temp^0,w,c
  1505   0007F2  260E               	addwf	___flmul@grs^0,f,c
  1506   0007F4  5019               	movf	(___flmul@temp+1)^0,w,c
  1507   0007F6  220F               	addwfc	(___flmul@grs+1)^0,f,c
  1508   0007F8  0E00               	movlw	0
  1509   0007FA  2210               	addwfc	(___flmul@grs+2)^0,f,c
  1510   0007FC  0E00               	movlw	0
  1511   0007FE  2211               	addwfc	(___flmul@grs+3)^0,f,c
  1512   000800  5007               	movf	(___flmul@a+2)^0,w,c
  1513   000802  0202               	mulwf	(___flmul@b+1)^0,c
  1514   000804  CFF3 F018          	movff	prodl,___flmul@temp
  1515   000808  CFF4 F019          	movff	prodh,___flmul@temp+1
  1516   00080C  5018               	movf	___flmul@temp^0,w,c
  1517   00080E  2614               	addwf	___flmul@prod^0,f,c
  1518   000810  5019               	movf	(___flmul@temp+1)^0,w,c
  1519   000812  2215               	addwfc	(___flmul@prod+1)^0,f,c
  1520   000814  0E00               	movlw	0
  1521   000816  2216               	addwfc	(___flmul@prod+2)^0,f,c
  1522   000818  0E00               	movlw	0
  1523   00081A  2217               	addwfc	(___flmul@prod+3)^0,f,c
  1524   00081C  5006               	movf	(___flmul@a+1)^0,w,c
  1525   00081E  0203               	mulwf	(___flmul@b+2)^0,c
  1526   000820  CFF3 F018          	movff	prodl,___flmul@temp
  1527   000824  CFF4 F019          	movff	prodh,___flmul@temp+1
  1528   000828  5018               	movf	___flmul@temp^0,w,c
  1529   00082A  2614               	addwf	___flmul@prod^0,f,c
  1530   00082C  5019               	movf	(___flmul@temp+1)^0,w,c
  1531   00082E  2215               	addwfc	(___flmul@prod+1)^0,f,c
  1532   000830  0E00               	movlw	0
  1533   000832  2216               	addwfc	(___flmul@prod+2)^0,f,c
  1534   000834  0E00               	movlw	0
  1535   000836  2217               	addwfc	(___flmul@prod+3)^0,f,c
  1536   000838  5007               	movf	(___flmul@a+2)^0,w,c
  1537   00083A  0203               	mulwf	(___flmul@b+2)^0,c
  1538   00083C  CFF3 F018          	movff	prodl,___flmul@temp
  1539   000840  CFF4 F019          	movff	prodh,___flmul@temp+1
  1540   000844  5018               	movf	___flmul@temp^0,w,c
  1541   000846  6E09               	movwf	??___flmul^0,c
  1542   000848  5019               	movf	(___flmul@temp+1)^0,w,c
  1543   00084A  6E0A               	movwf	(??___flmul+1)^0,c
  1544   00084C  6A0B               	clrf	(??___flmul+2)^0,c
  1545   00084E  6A0C               	clrf	(??___flmul+3)^0,c
  1546   000850  C00B  F00C         	movff	??___flmul+2,??___flmul+3
  1547   000854  C00A  F00B         	movff	??___flmul+1,??___flmul+2
  1548   000858  C009  F00A         	movff	??___flmul,??___flmul+1
  1549   00085C  6A09               	clrf	??___flmul^0,c
  1550   00085E  5009               	movf	??___flmul^0,w,c
  1551   000860  2614               	addwf	___flmul@prod^0,f,c
  1552   000862  500A               	movf	(??___flmul+1)^0,w,c
  1553   000864  2215               	addwfc	(___flmul@prod+1)^0,f,c
  1554   000866  500B               	movf	(??___flmul+2)^0,w,c
  1555   000868  2216               	addwfc	(___flmul@prod+2)^0,f,c
  1556   00086A  500C               	movf	(??___flmul+3)^0,w,c
  1557   00086C  2217               	addwfc	(___flmul@prod+3)^0,f,c
  1558   00086E  C00E  F009         	movff	___flmul@grs,??___flmul
  1559   000872  C00F  F00A         	movff	___flmul@grs+1,??___flmul+1
  1560   000876  C010  F00B         	movff	___flmul@grs+2,??___flmul+2
  1561   00087A  C011  F00C         	movff	___flmul@grs+3,??___flmul+3
  1562   00087E  0E19               	movlw	25
  1563   000880  EF47  F004         	goto	u2390
  1564   000884                     u2395:
  1565   000884  90D8               	bcf	status,0,c
  1566   000886  320C               	rrcf	(??___flmul+3)^0,f,c
  1567   000888  320B               	rrcf	(??___flmul+2)^0,f,c
  1568   00088A  320A               	rrcf	(??___flmul+1)^0,f,c
  1569   00088C  3209               	rrcf	??___flmul^0,f,c
  1570   00088E                     u2390:
  1571   00088E  2EE8               	decfsz	wreg,f,c
  1572   000890  EF42  F004         	goto	u2395
  1573   000894  5009               	movf	??___flmul^0,w,c
  1574   000896  2614               	addwf	___flmul@prod^0,f,c
  1575   000898  500A               	movf	(??___flmul+1)^0,w,c
  1576   00089A  2215               	addwfc	(___flmul@prod+1)^0,f,c
  1577   00089C  500B               	movf	(??___flmul+2)^0,w,c
  1578   00089E  2216               	addwfc	(___flmul@prod+2)^0,f,c
  1579   0008A0  500C               	movf	(??___flmul+3)^0,w,c
  1580   0008A2  2217               	addwfc	(___flmul@prod+3)^0,f,c
  1581   0008A4  C010  F011         	movff	___flmul@grs+2,___flmul@grs+3
  1582   0008A8  C00F  F010         	movff	___flmul@grs+1,___flmul@grs+2
  1583   0008AC  C00E  F00F         	movff	___flmul@grs,___flmul@grs+1
  1584   0008B0  6A0E               	clrf	___flmul@grs^0,c
  1585   0008B2  5012               	movf	___flmul@aexp^0,w,c
  1586   0008B4  C013  F009         	movff	___flmul@bexp,??___flmul
  1587   0008B8  6A0A               	clrf	(??___flmul+1)^0,c
  1588   0008BA  2609               	addwf	??___flmul^0,f,c
  1589   0008BC  0E00               	movlw	0
  1590   0008BE  220A               	addwfc	(??___flmul+1)^0,f,c
  1591   0008C0  0E82               	movlw	130
  1592   0008C2  2409               	addwf	??___flmul^0,w,c
  1593   0008C4  6E18               	movwf	___flmul@temp^0,c
  1594   0008C6  0EFF               	movlw	255
  1595   0008C8  200A               	addwfc	(??___flmul+1)^0,w,c
  1596   0008CA  6E19               	movwf	(___flmul@temp+1)^0,c
  1597   0008CC  EF7D  F004         	goto	l2762
  1598   0008D0                     l2756:
  1599   0008D0  90D8               	bcf	status,0,c
  1600   0008D2  3614               	rlcf	___flmul@prod^0,f,c
  1601   0008D4  3615               	rlcf	(___flmul@prod+1)^0,f,c
  1602   0008D6  3616               	rlcf	(___flmul@prod+2)^0,f,c
  1603   0008D8  3617               	rlcf	(___flmul@prod+3)^0,f,c
  1604   0008DA  AE11               	btfss	(___flmul@grs+3)^0,7,c
  1605   0008DC  EF72  F004         	goto	u2401
  1606   0008E0  EF74  F004         	goto	u2400
  1607   0008E4                     u2401:
  1608   0008E4  EF75  F004         	goto	l887
  1609   0008E8                     u2400:
  1610   0008E8  8014               	bsf	___flmul@prod^0,0,c
  1611   0008EA                     l887:
  1612   0008EA  90D8               	bcf	status,0,c
  1613   0008EC  360E               	rlcf	___flmul@grs^0,f,c
  1614   0008EE  360F               	rlcf	(___flmul@grs+1)^0,f,c
  1615   0008F0  3610               	rlcf	(___flmul@grs+2)^0,f,c
  1616   0008F2  3611               	rlcf	(___flmul@grs+3)^0,f,c
  1617   0008F4  0618               	decf	___flmul@temp^0,f,c
  1618   0008F6  A0D8               	btfss	status,0,c
  1619   0008F8  0619               	decf	(___flmul@temp+1)^0,f,c
  1620   0008FA                     l2762:
  1621   0008FA  AE16               	btfss	(___flmul@prod+2)^0,7,c
  1622   0008FC  EF82  F004         	goto	u2411
  1623   000900  EF84  F004         	goto	u2410
  1624   000904                     u2411:
  1625   000904  EF68  F004         	goto	l2756
  1626   000908                     u2410:
  1627   000908  0E00               	movlw	0
  1628   00090A  6E12               	movwf	___flmul@aexp^0,c
  1629   00090C  AE11               	btfss	(___flmul@grs+3)^0,7,c
  1630   00090E  EF8B  F004         	goto	u2421
  1631   000912  EF8D  F004         	goto	u2420
  1632   000916                     u2421:
  1633   000916  EFB1  F004         	goto	l889
  1634   00091A                     u2420:
  1635   00091A  0EFF               	movlw	255
  1636   00091C  140E               	andwf	___flmul@grs^0,w,c
  1637   00091E  6E09               	movwf	??___flmul^0,c
  1638   000920  0EFF               	movlw	255
  1639   000922  140F               	andwf	(___flmul@grs+1)^0,w,c
  1640   000924  6E0A               	movwf	(??___flmul+1)^0,c
  1641   000926  0EFF               	movlw	255
  1642   000928  1410               	andwf	(___flmul@grs+2)^0,w,c
  1643   00092A  6E0B               	movwf	(??___flmul+2)^0,c
  1644   00092C  0E7F               	movlw	127
  1645   00092E  1411               	andwf	(___flmul@grs+3)^0,w,c
  1646   000930  6E0C               	movwf	(??___flmul+3)^0,c
  1647   000932  5009               	movf	??___flmul^0,w,c
  1648   000934  100A               	iorwf	(??___flmul+1)^0,w,c
  1649   000936  100B               	iorwf	(??___flmul+2)^0,w,c
  1650   000938  100C               	iorwf	(??___flmul+3)^0,w,c
  1651   00093A  B4D8               	btfsc	status,2,c
  1652   00093C  EFA2  F004         	goto	u2431
  1653   000940  EFA4  F004         	goto	u2430
  1654   000944                     u2431:
  1655   000944  EFA8  F004         	goto	l890
  1656   000948                     u2430:
  1657   000948                     l2770:
  1658   000948  0E01               	movlw	1
  1659   00094A  6E12               	movwf	___flmul@aexp^0,c
  1660   00094C  EFB1  F004         	goto	l889
  1661   000950                     l890:
  1662   000950  A014               	btfss	___flmul@prod^0,0,c
  1663   000952  EFAD  F004         	goto	u2441
  1664   000956  EFAF  F004         	goto	u2440
  1665   00095A                     u2441:
  1666   00095A  EFB1  F004         	goto	l889
  1667   00095E                     u2440:
  1668   00095E  EFA4  F004         	goto	l2770
  1669   000962                     l889:
  1670   000962  5012               	movf	___flmul@aexp^0,w,c
  1671   000964  B4D8               	btfsc	status,2,c
  1672   000966  EFB7  F004         	goto	u2451
  1673   00096A  EFB9  F004         	goto	u2450
  1674   00096E                     u2451:
  1675   00096E  EFDD  F004         	goto	l2782
  1676   000972                     u2450:
  1677   000972  0E01               	movlw	1
  1678   000974  2614               	addwf	___flmul@prod^0,f,c
  1679   000976  0E00               	movlw	0
  1680   000978  2215               	addwfc	(___flmul@prod+1)^0,f,c
  1681   00097A  2216               	addwfc	(___flmul@prod+2)^0,f,c
  1682   00097C  2217               	addwfc	(___flmul@prod+3)^0,f,c
  1683   00097E  A017               	btfss	(___flmul@prod+3)^0,0,c
  1684   000980  EFC4  F004         	goto	u2461
  1685   000984  EFC6  F004         	goto	u2460
  1686   000988                     u2461:
  1687   000988  EFDD  F004         	goto	l2782
  1688   00098C                     u2460:
  1689   00098C  C014  F009         	movff	___flmul@prod,??___flmul
  1690   000990  C015  F00A         	movff	___flmul@prod+1,??___flmul+1
  1691   000994  C016  F00B         	movff	___flmul@prod+2,??___flmul+2
  1692   000998  C017  F00C         	movff	___flmul@prod+3,??___flmul+3
  1693   00099C  340C               	rlcf	(??___flmul+3)^0,w,c
  1694   00099E  320C               	rrcf	(??___flmul+3)^0,f,c
  1695   0009A0  320B               	rrcf	(??___flmul+2)^0,f,c
  1696   0009A2  320A               	rrcf	(??___flmul+1)^0,f,c
  1697   0009A4  3209               	rrcf	??___flmul^0,f,c
  1698   0009A6  C009  F014         	movff	??___flmul,___flmul@prod
  1699   0009AA  C00A  F015         	movff	??___flmul+1,___flmul@prod+1
  1700   0009AE  C00B  F016         	movff	??___flmul+2,___flmul@prod+2
  1701   0009B2  C00C  F017         	movff	??___flmul+3,___flmul@prod+3
  1702   0009B6  4A18               	infsnz	___flmul@temp^0,f,c
  1703   0009B8  2A19               	incf	(___flmul@temp+1)^0,f,c
  1704   0009BA                     l2782:
  1705   0009BA  BE19               	btfsc	(___flmul@temp+1)^0,7,c
  1706   0009BC  EFE8  F004         	goto	u2471
  1707   0009C0  5019               	movf	(___flmul@temp+1)^0,w,c
  1708   0009C2  E108               	bnz	u2470
  1709   0009C4  2818               	incf	___flmul@temp^0,w,c
  1710   0009C6  A0D8               	btfss	status,0,c
  1711   0009C8  EFE8  F004         	goto	u2471
  1712   0009CC  EFEA  F004         	goto	u2470
  1713   0009D0                     u2471:
  1714   0009D0  EFF4  F004         	goto	l2786
  1715   0009D4                     u2470:
  1716   0009D4  0E00               	movlw	0
  1717   0009D6  6E14               	movwf	___flmul@prod^0,c
  1718   0009D8  0E00               	movlw	0
  1719   0009DA  6E15               	movwf	(___flmul@prod+1)^0,c
  1720   0009DC  0E80               	movlw	128
  1721   0009DE  6E16               	movwf	(___flmul@prod+2)^0,c
  1722   0009E0  0E7F               	movlw	127
  1723   0009E2  6E17               	movwf	(___flmul@prod+3)^0,c
  1724   0009E4  EF22  F005         	goto	l2798
  1725   0009E8                     l2786:
  1726   0009E8  BE19               	btfsc	(___flmul@temp+1)^0,7,c
  1727   0009EA  EF01  F005         	goto	u2480
  1728   0009EE  5019               	movf	(___flmul@temp+1)^0,w,c
  1729   0009F0  E106               	bnz	u2481
  1730   0009F2  0418               	decf	___flmul@temp^0,w,c
  1731   0009F4  B0D8               	btfsc	status,0,c
  1732   0009F6  EFFF  F004         	goto	u2481
  1733   0009FA  EF01  F005         	goto	u2480
  1734   0009FE                     u2481:
  1735   0009FE  EF0D  F005         	goto	l897
  1736   000A02                     u2480:
  1737   000A02  0E00               	movlw	0
  1738   000A04  6E14               	movwf	___flmul@prod^0,c
  1739   000A06  0E00               	movlw	0
  1740   000A08  6E15               	movwf	(___flmul@prod+1)^0,c
  1741   000A0A  0E00               	movlw	0
  1742   000A0C  6E16               	movwf	(___flmul@prod+2)^0,c
  1743   000A0E  0E00               	movlw	0
  1744   000A10  6E17               	movwf	(___flmul@prod+3)^0,c
  1745   000A12  0E00               	movlw	0
  1746   000A14  6E0D               	movwf	___flmul@sign^0,c
  1747   000A16  EF22  F005         	goto	l2798
  1748   000A1A                     l897:
  1749   000A1A  C018  F013         	movff	___flmul@temp,___flmul@bexp
  1750   000A1E  0EFF               	movlw	255
  1751   000A20  1614               	andwf	___flmul@prod^0,f,c
  1752   000A22  0EFF               	movlw	255
  1753   000A24  1615               	andwf	(___flmul@prod+1)^0,f,c
  1754   000A26  0E7F               	movlw	127
  1755   000A28  1616               	andwf	(___flmul@prod+2)^0,f,c
  1756   000A2A  0E00               	movlw	0
  1757   000A2C  1617               	andwf	(___flmul@prod+3)^0,f,c
  1758   000A2E  A013               	btfss	___flmul@bexp^0,0,c
  1759   000A30  EF1C  F005         	goto	u2491
  1760   000A34  EF1E  F005         	goto	u2490
  1761   000A38                     u2491:
  1762   000A38  EF1F  F005         	goto	l2796
  1763   000A3C                     u2490:
  1764   000A3C  8E16               	bsf	(___flmul@prod+2)^0,7,c
  1765   000A3E                     l2796:
  1766   000A3E  90D8               	bcf	status,0,c
  1767   000A40  3013               	rrcf	___flmul@bexp^0,w,c
  1768   000A42  6E17               	movwf	(___flmul@prod+3)^0,c
  1769   000A44                     l2798:
  1770   000A44  500D               	movf	___flmul@sign^0,w,c
  1771   000A46  1217               	iorwf	(___flmul@prod+3)^0,f,c
  1772   000A48  C014  F001         	movff	___flmul@prod,?___flmul
  1773   000A4C  C015  F002         	movff	___flmul@prod+1,?___flmul+1
  1774   000A50  C016  F003         	movff	___flmul@prod+2,?___flmul+2
  1775   000A54  C017  F004         	movff	___flmul@prod+3,?___flmul+3
  1776   000A58                     l884:
  1777   000A58  0012               	return		;funcret
  1778   000A5A                     __end_of___flmul:
  1779                           	callstack 0
  1780                           
  1781 ;; *************** function ___fldiv *****************
  1782 ;; Defined at:
  1783 ;;		line 11 in file "C:\Program Files\Microchip\xc8\v2.41\pic\sources\c99\common\sprcdiv.c"
  1784 ;; Parameters:    Size  Location     Type
  1785 ;;  b               4   25[COMRAM] unsigned char 
  1786 ;;  a               4   29[COMRAM] unsigned char 
  1787 ;; Auto vars:     Size  Location     Type
  1788 ;;  grs             4   44[COMRAM] unsigned long 
  1789 ;;  rem             4   37[COMRAM] unsigned long 
  1790 ;;  new_exp         2   42[COMRAM] short 
  1791 ;;  aexp            1   49[COMRAM] unsigned char 
  1792 ;;  bexp            1   48[COMRAM] unsigned char 
  1793 ;;  sign            1   41[COMRAM] unsigned char 
  1794 ;; Return value:  Size  Location     Type
  1795 ;;                  4   25[COMRAM] unsigned char 
  1796 ;; Registers used:
  1797 ;;		wreg, status,2, status,0
  1798 ;; Tracked objects:
  1799 ;;		On entry : 0/0
  1800 ;;		On exit  : 0/0
  1801 ;;		Unchanged: 0/0
  1802 ;; Data sizes:     COMRAM   BANK0   BANK1   BANK2   BANK3   BANK4   BANK5
  1803 ;;      Params:         8       0       0       0       0       0       0
  1804 ;;      Locals:        13       0       0       0       0       0       0
  1805 ;;      Temps:          4       0       0       0       0       0       0
  1806 ;;      Totals:        25       0       0       0       0       0       0
  1807 ;;Total ram usage:       25 bytes
  1808 ;; Hardware stack levels used: 1
  1809 ;; This function calls:
  1810 ;;		Nothing
  1811 ;; This function is called by:
  1812 ;;		_main
  1813 ;; This function uses a non-reentrant model
  1814 ;;
  1815                           
  1816                           	psect	text4
  1817   000A5A                     __ptext4:
  1818                           	callstack 0
  1819   000A5A                     ___fldiv:
  1820                           	callstack 30
  1821   000A5A  501D               	movf	(___fldiv@b+3)^0,w,c
  1822   000A5C  0B80               	andlw	128
  1823   000A5E  6E2A               	movwf	___fldiv@sign^0,c
  1824   000A60  501D               	movf	(___fldiv@b+3)^0,w,c
  1825   000A62  241D               	addwf	(___fldiv@b+3)^0,w,c
  1826   000A64  6E31               	movwf	___fldiv@bexp^0,c
  1827   000A66  AE1C               	btfss	(___fldiv@b+2)^0,7,c
  1828   000A68  EF38  F005         	goto	u2081
  1829   000A6C  EF3A  F005         	goto	u2080
  1830   000A70                     u2081:
  1831   000A70  EF3B  F005         	goto	l2542
  1832   000A74                     u2080:
  1833   000A74  8031               	bsf	___fldiv@bexp^0,0,c
  1834   000A76                     l2542:
  1835   000A76  5031               	movf	___fldiv@bexp^0,w,c
  1836   000A78  B4D8               	btfsc	status,2,c
  1837   000A7A  EF41  F005         	goto	u2091
  1838   000A7E  EF43  F005         	goto	u2090
  1839   000A82                     u2091:
  1840   000A82  EF58  F005         	goto	l2552
  1841   000A86                     u2090:
  1842   000A86  2831               	incf	___fldiv@bexp^0,w,c
  1843   000A88  A4D8               	btfss	status,2,c
  1844   000A8A  EF49  F005         	goto	u2101
  1845   000A8E  EF4B  F005         	goto	u2100
  1846   000A92                     u2101:
  1847   000A92  EF53  F005         	goto	l2548
  1848   000A96                     u2100:
  1849   000A96  0E00               	movlw	0
  1850   000A98  6E1A               	movwf	___fldiv@b^0,c
  1851   000A9A  0E00               	movlw	0
  1852   000A9C  6E1B               	movwf	(___fldiv@b+1)^0,c
  1853   000A9E  0E00               	movlw	0
  1854   000AA0  6E1C               	movwf	(___fldiv@b+2)^0,c
  1855   000AA2  0E00               	movlw	0
  1856   000AA4  6E1D               	movwf	(___fldiv@b+3)^0,c
  1857   000AA6                     l2548:
  1858   000AA6  8E1C               	bsf	(___fldiv@b+2)^0,7,c
  1859   000AA8  0E00               	movlw	0
  1860   000AAA  6E1D               	movwf	(___fldiv@b+3)^0,c
  1861   000AAC  EF60  F005         	goto	l2554
  1862   000AB0                     l2552:
  1863   000AB0  0E00               	movlw	0
  1864   000AB2  6E1A               	movwf	___fldiv@b^0,c
  1865   000AB4  0E00               	movlw	0
  1866   000AB6  6E1B               	movwf	(___fldiv@b+1)^0,c
  1867   000AB8  0E00               	movlw	0
  1868   000ABA  6E1C               	movwf	(___fldiv@b+2)^0,c
  1869   000ABC  0E00               	movlw	0
  1870   000ABE  6E1D               	movwf	(___fldiv@b+3)^0,c
  1871   000AC0                     l2554:
  1872   000AC0  5021               	movf	(___fldiv@a+3)^0,w,c
  1873   000AC2  0B80               	andlw	128
  1874   000AC4  1A2A               	xorwf	___fldiv@sign^0,f,c
  1875   000AC6  5021               	movf	(___fldiv@a+3)^0,w,c
  1876   000AC8  2421               	addwf	(___fldiv@a+3)^0,w,c
  1877   000ACA  6E32               	movwf	___fldiv@aexp^0,c
  1878   000ACC  AE20               	btfss	(___fldiv@a+2)^0,7,c
  1879   000ACE  EF6B  F005         	goto	u2111
  1880   000AD2  EF6D  F005         	goto	u2110
  1881   000AD6                     u2111:
  1882   000AD6  EF6E  F005         	goto	l2562
  1883   000ADA                     u2110:
  1884   000ADA  8032               	bsf	___fldiv@aexp^0,0,c
  1885   000ADC                     l2562:
  1886   000ADC  5032               	movf	___fldiv@aexp^0,w,c
  1887   000ADE  B4D8               	btfsc	status,2,c
  1888   000AE0  EF74  F005         	goto	u2121
  1889   000AE4  EF76  F005         	goto	u2120
  1890   000AE8                     u2121:
  1891   000AE8  EF8B  F005         	goto	l2572
  1892   000AEC                     u2120:
  1893   000AEC  2832               	incf	___fldiv@aexp^0,w,c
  1894   000AEE  A4D8               	btfss	status,2,c
  1895   000AF0  EF7C  F005         	goto	u2131
  1896   000AF4  EF7E  F005         	goto	u2130
  1897   000AF8                     u2131:
  1898   000AF8  EF86  F005         	goto	l2568
  1899   000AFC                     u2130:
  1900   000AFC  0E00               	movlw	0
  1901   000AFE  6E1E               	movwf	___fldiv@a^0,c
  1902   000B00  0E00               	movlw	0
  1903   000B02  6E1F               	movwf	(___fldiv@a+1)^0,c
  1904   000B04  0E00               	movlw	0
  1905   000B06  6E20               	movwf	(___fldiv@a+2)^0,c
  1906   000B08  0E00               	movlw	0
  1907   000B0A  6E21               	movwf	(___fldiv@a+3)^0,c
  1908   000B0C                     l2568:
  1909   000B0C  8E20               	bsf	(___fldiv@a+2)^0,7,c
  1910   000B0E  0E00               	movlw	0
  1911   000B10  6E21               	movwf	(___fldiv@a+3)^0,c
  1912   000B12  EF93  F005         	goto	l2574
  1913   000B16                     l2572:
  1914   000B16  0E00               	movlw	0
  1915   000B18  6E1E               	movwf	___fldiv@a^0,c
  1916   000B1A  0E00               	movlw	0
  1917   000B1C  6E1F               	movwf	(___fldiv@a+1)^0,c
  1918   000B1E  0E00               	movlw	0
  1919   000B20  6E20               	movwf	(___fldiv@a+2)^0,c
  1920   000B22  0E00               	movlw	0
  1921   000B24  6E21               	movwf	(___fldiv@a+3)^0,c
  1922   000B26                     l2574:
  1923   000B26  501E               	movf	___fldiv@a^0,w,c
  1924   000B28  101F               	iorwf	(___fldiv@a+1)^0,w,c
  1925   000B2A  1020               	iorwf	(___fldiv@a+2)^0,w,c
  1926   000B2C  1021               	iorwf	(___fldiv@a+3)^0,w,c
  1927   000B2E  A4D8               	btfss	status,2,c
  1928   000B30  EF9C  F005         	goto	u2141
  1929   000B34  EF9E  F005         	goto	u2140
  1930   000B38                     u2141:
  1931   000B38  EFB6  F005         	goto	l2586
  1932   000B3C                     u2140:
  1933   000B3C  0E00               	movlw	0
  1934   000B3E  6E1A               	movwf	___fldiv@b^0,c
  1935   000B40  0E00               	movlw	0
  1936   000B42  6E1B               	movwf	(___fldiv@b+1)^0,c
  1937   000B44  0E00               	movlw	0
  1938   000B46  6E1C               	movwf	(___fldiv@b+2)^0,c
  1939   000B48  0E00               	movlw	0
  1940   000B4A  6E1D               	movwf	(___fldiv@b+3)^0,c
  1941   000B4C  0E80               	movlw	128
  1942   000B4E  121C               	iorwf	(___fldiv@b+2)^0,f,c
  1943   000B50  0E7F               	movlw	127
  1944   000B52  121D               	iorwf	(___fldiv@b+3)^0,f,c
  1945   000B54                     l2580:
  1946   000B54  502A               	movf	___fldiv@sign^0,w,c
  1947   000B56  121D               	iorwf	(___fldiv@b+3)^0,f,c
  1948   000B58  C01A  F01A         	movff	___fldiv@b,?___fldiv
  1949   000B5C  C01B  F01B         	movff	___fldiv@b+1,?___fldiv+1
  1950   000B60  C01C  F01C         	movff	___fldiv@b+2,?___fldiv+2
  1951   000B64  C01D  F01D         	movff	___fldiv@b+3,?___fldiv+3
  1952   000B68  EFF9  F006         	goto	l848
  1953   000B6C                     l2586:
  1954   000B6C  5031               	movf	___fldiv@bexp^0,w,c
  1955   000B6E  A4D8               	btfss	status,2,c
  1956   000B70  EFBC  F005         	goto	u2151
  1957   000B74  EFBE  F005         	goto	u2150
  1958   000B78                     u2151:
  1959   000B78  EFC8  F005         	goto	l2594
  1960   000B7C                     u2150:
  1961   000B7C  0E00               	movlw	0
  1962   000B7E  6E1A               	movwf	?___fldiv^0,c
  1963   000B80  0E00               	movlw	0
  1964   000B82  6E1B               	movwf	(?___fldiv+1)^0,c
  1965   000B84  0E00               	movlw	0
  1966   000B86  6E1C               	movwf	(?___fldiv+2)^0,c
  1967   000B88  0E00               	movlw	0
  1968   000B8A  6E1D               	movwf	(?___fldiv+3)^0,c
  1969   000B8C  EFF9  F006         	goto	l848
  1970   000B90                     l2594:
  1971   000B90  5032               	movf	___fldiv@aexp^0,w,c
  1972   000B92  C031  F022         	movff	___fldiv@bexp,??___fldiv
  1973   000B96  6A23               	clrf	(??___fldiv+1)^0,c
  1974   000B98  5E22               	subwf	??___fldiv^0,f,c
  1975   000B9A  0E00               	movlw	0
  1976   000B9C  5A23               	subwfb	(??___fldiv+1)^0,f,c
  1977   000B9E  0E7F               	movlw	127
  1978   000BA0  2422               	addwf	??___fldiv^0,w,c
  1979   000BA2  6E2B               	movwf	___fldiv@new_exp^0,c
  1980   000BA4  0E00               	movlw	0
  1981   000BA6  2023               	addwfc	(??___fldiv+1)^0,w,c
  1982   000BA8  6E2C               	movwf	(___fldiv@new_exp+1)^0,c
  1983   000BAA  C01A  F026         	movff	___fldiv@b,___fldiv@rem
  1984   000BAE  C01B  F027         	movff	___fldiv@b+1,___fldiv@rem+1
  1985   000BB2  C01C  F028         	movff	___fldiv@b+2,___fldiv@rem+2
  1986   000BB6  C01D  F029         	movff	___fldiv@b+3,___fldiv@rem+3
  1987   000BBA  0E00               	movlw	0
  1988   000BBC  6E1A               	movwf	___fldiv@b^0,c
  1989   000BBE  0E00               	movlw	0
  1990   000BC0  6E1B               	movwf	(___fldiv@b+1)^0,c
  1991   000BC2  0E00               	movlw	0
  1992   000BC4  6E1C               	movwf	(___fldiv@b+2)^0,c
  1993   000BC6  0E00               	movlw	0
  1994   000BC8  6E1D               	movwf	(___fldiv@b+3)^0,c
  1995   000BCA  0E00               	movlw	0
  1996   000BCC  6E2D               	movwf	___fldiv@grs^0,c
  1997   000BCE  0E00               	movlw	0
  1998   000BD0  6E2E               	movwf	(___fldiv@grs+1)^0,c
  1999   000BD2  0E00               	movlw	0
  2000   000BD4  6E2F               	movwf	(___fldiv@grs+2)^0,c
  2001   000BD6  0E00               	movlw	0
  2002   000BD8  6E30               	movwf	(___fldiv@grs+3)^0,c
  2003   000BDA  0E00               	movlw	0
  2004   000BDC  6E32               	movwf	___fldiv@aexp^0,c
  2005   000BDE  EF29  F006         	goto	l850
  2006   000BE2                     l2604:
  2007   000BE2  5032               	movf	___fldiv@aexp^0,w,c
  2008   000BE4  B4D8               	btfsc	status,2,c
  2009   000BE6  EFF7  F005         	goto	u2161
  2010   000BEA  EFF9  F005         	goto	u2160
  2011   000BEE                     u2161:
  2012   000BEE  EF10  F006         	goto	l2612
  2013   000BF2                     u2160:
  2014   000BF2  90D8               	bcf	status,0,c
  2015   000BF4  3626               	rlcf	___fldiv@rem^0,f,c
  2016   000BF6  3627               	rlcf	(___fldiv@rem+1)^0,f,c
  2017   000BF8  3628               	rlcf	(___fldiv@rem+2)^0,f,c
  2018   000BFA  3629               	rlcf	(___fldiv@rem+3)^0,f,c
  2019   000BFC  90D8               	bcf	status,0,c
  2020   000BFE  361A               	rlcf	___fldiv@b^0,f,c
  2021   000C00  361B               	rlcf	(___fldiv@b+1)^0,f,c
  2022   000C02  361C               	rlcf	(___fldiv@b+2)^0,f,c
  2023   000C04  361D               	rlcf	(___fldiv@b+3)^0,f,c
  2024   000C06  AE30               	btfss	(___fldiv@grs+3)^0,7,c
  2025   000C08  EF08  F006         	goto	u2171
  2026   000C0C  EF0A  F006         	goto	u2170
  2027   000C10                     u2171:
  2028   000C10  EF0B  F006         	goto	l853
  2029   000C14                     u2170:
  2030   000C14  801A               	bsf	___fldiv@b^0,0,c
  2031   000C16                     l853:
  2032   000C16  90D8               	bcf	status,0,c
  2033   000C18  362D               	rlcf	___fldiv@grs^0,f,c
  2034   000C1A  362E               	rlcf	(___fldiv@grs+1)^0,f,c
  2035   000C1C  362F               	rlcf	(___fldiv@grs+2)^0,f,c
  2036   000C1E  3630               	rlcf	(___fldiv@grs+3)^0,f,c
  2037   000C20                     l2612:
  2038   000C20  501E               	movf	___fldiv@a^0,w,c
  2039   000C22  5C26               	subwf	___fldiv@rem^0,w,c
  2040   000C24  501F               	movf	(___fldiv@a+1)^0,w,c
  2041   000C26  5827               	subwfb	(___fldiv@rem+1)^0,w,c
  2042   000C28  5020               	movf	(___fldiv@a+2)^0,w,c
  2043   000C2A  5828               	subwfb	(___fldiv@rem+2)^0,w,c
  2044   000C2C  5021               	movf	(___fldiv@a+3)^0,w,c
  2045   000C2E  5829               	subwfb	(___fldiv@rem+3)^0,w,c
  2046   000C30  A0D8               	btfss	status,0,c
  2047   000C32  EF1D  F006         	goto	u2181
  2048   000C36  EF1F  F006         	goto	u2180
  2049   000C3A                     u2181:
  2050   000C3A  EF28  F006         	goto	l2618
  2051   000C3E                     u2180:
  2052   000C3E  8C30               	bsf	(___fldiv@grs+3)^0,6,c
  2053   000C40  501E               	movf	___fldiv@a^0,w,c
  2054   000C42  5E26               	subwf	___fldiv@rem^0,f,c
  2055   000C44  501F               	movf	(___fldiv@a+1)^0,w,c
  2056   000C46  5A27               	subwfb	(___fldiv@rem+1)^0,f,c
  2057   000C48  5020               	movf	(___fldiv@a+2)^0,w,c
  2058   000C4A  5A28               	subwfb	(___fldiv@rem+2)^0,f,c
  2059   000C4C  5021               	movf	(___fldiv@a+3)^0,w,c
  2060   000C4E  5A29               	subwfb	(___fldiv@rem+3)^0,f,c
  2061   000C50                     l2618:
  2062   000C50  2A32               	incf	___fldiv@aexp^0,f,c
  2063   000C52                     l850:
  2064   000C52  0E19               	movlw	25
  2065   000C54  6432               	cpfsgt	___fldiv@aexp^0,c
  2066   000C56  EF2F  F006         	goto	u2191
  2067   000C5A  EF31  F006         	goto	u2190
  2068   000C5E                     u2191:
  2069   000C5E  EFF1  F005         	goto	l2604
  2070   000C62                     u2190:
  2071   000C62  5026               	movf	___fldiv@rem^0,w,c
  2072   000C64  1027               	iorwf	(___fldiv@rem+1)^0,w,c
  2073   000C66  1028               	iorwf	(___fldiv@rem+2)^0,w,c
  2074   000C68  1029               	iorwf	(___fldiv@rem+3)^0,w,c
  2075   000C6A  B4D8               	btfsc	status,2,c
  2076   000C6C  EF3A  F006         	goto	u2201
  2077   000C70  EF3C  F006         	goto	u2200
  2078   000C74                     u2201:
  2079   000C74  EF54  F006         	goto	l2630
  2080   000C78                     u2200:
  2081   000C78  802D               	bsf	___fldiv@grs^0,0,c
  2082   000C7A  EF54  F006         	goto	l2630
  2083   000C7E                     l2624:
  2084   000C7E  90D8               	bcf	status,0,c
  2085   000C80  361A               	rlcf	___fldiv@b^0,f,c
  2086   000C82  361B               	rlcf	(___fldiv@b+1)^0,f,c
  2087   000C84  361C               	rlcf	(___fldiv@b+2)^0,f,c
  2088   000C86  361D               	rlcf	(___fldiv@b+3)^0,f,c
  2089   000C88  AE30               	btfss	(___fldiv@grs+3)^0,7,c
  2090   000C8A  EF49  F006         	goto	u2211
  2091   000C8E  EF4B  F006         	goto	u2210
  2092   000C92                     u2211:
  2093   000C92  EF4C  F006         	goto	l859
  2094   000C96                     u2210:
  2095   000C96  801A               	bsf	___fldiv@b^0,0,c
  2096   000C98                     l859:
  2097   000C98  90D8               	bcf	status,0,c
  2098   000C9A  362D               	rlcf	___fldiv@grs^0,f,c
  2099   000C9C  362E               	rlcf	(___fldiv@grs+1)^0,f,c
  2100   000C9E  362F               	rlcf	(___fldiv@grs+2)^0,f,c
  2101   000CA0  3630               	rlcf	(___fldiv@grs+3)^0,f,c
  2102   000CA2  062B               	decf	___fldiv@new_exp^0,f,c
  2103   000CA4  A0D8               	btfss	status,0,c
  2104   000CA6  062C               	decf	(___fldiv@new_exp+1)^0,f,c
  2105   000CA8                     l2630:
  2106   000CA8  AE1C               	btfss	(___fldiv@b+2)^0,7,c
  2107   000CAA  EF59  F006         	goto	u2221
  2108   000CAE  EF5B  F006         	goto	u2220
  2109   000CB2                     u2221:
  2110   000CB2  EF3F  F006         	goto	l2624
  2111   000CB6                     u2220:
  2112   000CB6  0E00               	movlw	0
  2113   000CB8  6E32               	movwf	___fldiv@aexp^0,c
  2114   000CBA  AE30               	btfss	(___fldiv@grs+3)^0,7,c
  2115   000CBC  EF62  F006         	goto	u2231
  2116   000CC0  EF64  F006         	goto	u2230
  2117   000CC4                     u2231:
  2118   000CC4  EF88  F006         	goto	l861
  2119   000CC8                     u2230:
  2120   000CC8  0EFF               	movlw	255
  2121   000CCA  142D               	andwf	___fldiv@grs^0,w,c
  2122   000CCC  6E22               	movwf	??___fldiv^0,c
  2123   000CCE  0EFF               	movlw	255
  2124   000CD0  142E               	andwf	(___fldiv@grs+1)^0,w,c
  2125   000CD2  6E23               	movwf	(??___fldiv+1)^0,c
  2126   000CD4  0EFF               	movlw	255
  2127   000CD6  142F               	andwf	(___fldiv@grs+2)^0,w,c
  2128   000CD8  6E24               	movwf	(??___fldiv+2)^0,c
  2129   000CDA  0E7F               	movlw	127
  2130   000CDC  1430               	andwf	(___fldiv@grs+3)^0,w,c
  2131   000CDE  6E25               	movwf	(??___fldiv+3)^0,c
  2132   000CE0  5022               	movf	??___fldiv^0,w,c
  2133   000CE2  1023               	iorwf	(??___fldiv+1)^0,w,c
  2134   000CE4  1024               	iorwf	(??___fldiv+2)^0,w,c
  2135   000CE6  1025               	iorwf	(??___fldiv+3)^0,w,c
  2136   000CE8  B4D8               	btfsc	status,2,c
  2137   000CEA  EF79  F006         	goto	u2241
  2138   000CEE  EF7B  F006         	goto	u2240
  2139   000CF2                     u2241:
  2140   000CF2  EF7F  F006         	goto	l862
  2141   000CF6                     u2240:
  2142   000CF6                     l2638:
  2143   000CF6  0E01               	movlw	1
  2144   000CF8  6E32               	movwf	___fldiv@aexp^0,c
  2145   000CFA  EF88  F006         	goto	l861
  2146   000CFE                     l862:
  2147   000CFE  A01A               	btfss	___fldiv@b^0,0,c
  2148   000D00  EF84  F006         	goto	u2251
  2149   000D04  EF86  F006         	goto	u2250
  2150   000D08                     u2251:
  2151   000D08  EF88  F006         	goto	l861
  2152   000D0C                     u2250:
  2153   000D0C  EF7B  F006         	goto	l2638
  2154   000D10                     l861:
  2155   000D10  5032               	movf	___fldiv@aexp^0,w,c
  2156   000D12  B4D8               	btfsc	status,2,c
  2157   000D14  EF8E  F006         	goto	u2261
  2158   000D18  EF90  F006         	goto	u2260
  2159   000D1C                     u2261:
  2160   000D1C  EFB4  F006         	goto	l2650
  2161   000D20                     u2260:
  2162   000D20  0E01               	movlw	1
  2163   000D22  261A               	addwf	___fldiv@b^0,f,c
  2164   000D24  0E00               	movlw	0
  2165   000D26  221B               	addwfc	(___fldiv@b+1)^0,f,c
  2166   000D28  221C               	addwfc	(___fldiv@b+2)^0,f,c
  2167   000D2A  221D               	addwfc	(___fldiv@b+3)^0,f,c
  2168   000D2C  A01D               	btfss	(___fldiv@b+3)^0,0,c
  2169   000D2E  EF9B  F006         	goto	u2271
  2170   000D32  EF9D  F006         	goto	u2270
  2171   000D36                     u2271:
  2172   000D36  EFB4  F006         	goto	l2650
  2173   000D3A                     u2270:
  2174   000D3A  C01A  F022         	movff	___fldiv@b,??___fldiv
  2175   000D3E  C01B  F023         	movff	___fldiv@b+1,??___fldiv+1
  2176   000D42  C01C  F024         	movff	___fldiv@b+2,??___fldiv+2
  2177   000D46  C01D  F025         	movff	___fldiv@b+3,??___fldiv+3
  2178   000D4A  3425               	rlcf	(??___fldiv+3)^0,w,c
  2179   000D4C  3225               	rrcf	(??___fldiv+3)^0,f,c
  2180   000D4E  3224               	rrcf	(??___fldiv+2)^0,f,c
  2181   000D50  3223               	rrcf	(??___fldiv+1)^0,f,c
  2182   000D52  3222               	rrcf	??___fldiv^0,f,c
  2183   000D54  C022  F01A         	movff	??___fldiv,___fldiv@b
  2184   000D58  C023  F01B         	movff	??___fldiv+1,___fldiv@b+1
  2185   000D5C  C024  F01C         	movff	??___fldiv+2,___fldiv@b+2
  2186   000D60  C025  F01D         	movff	??___fldiv+3,___fldiv@b+3
  2187   000D64  4A2B               	infsnz	___fldiv@new_exp^0,f,c
  2188   000D66  2A2C               	incf	(___fldiv@new_exp+1)^0,f,c
  2189   000D68                     l2650:
  2190   000D68  BE2C               	btfsc	(___fldiv@new_exp+1)^0,7,c
  2191   000D6A  EFBF  F006         	goto	u2281
  2192   000D6E  502C               	movf	(___fldiv@new_exp+1)^0,w,c
  2193   000D70  E108               	bnz	u2280
  2194   000D72  282B               	incf	___fldiv@new_exp^0,w,c
  2195   000D74  A0D8               	btfss	status,0,c
  2196   000D76  EFBF  F006         	goto	u2281
  2197   000D7A  EFC1  F006         	goto	u2280
  2198   000D7E                     u2281:
  2199   000D7E  EFCC  F006         	goto	l2654
  2200   000D82                     u2280:
  2201   000D82  0E00               	movlw	0
  2202   000D84  6E2C               	movwf	(___fldiv@new_exp+1)^0,c
  2203   000D86  682B               	setf	___fldiv@new_exp^0,c
  2204   000D88  0E00               	movlw	0
  2205   000D8A  6E1A               	movwf	___fldiv@b^0,c
  2206   000D8C  0E00               	movlw	0
  2207   000D8E  6E1B               	movwf	(___fldiv@b+1)^0,c
  2208   000D90  0E00               	movlw	0
  2209   000D92  6E1C               	movwf	(___fldiv@b+2)^0,c
  2210   000D94  0E00               	movlw	0
  2211   000D96  6E1D               	movwf	(___fldiv@b+3)^0,c
  2212   000D98                     l2654:
  2213   000D98  BE2C               	btfsc	(___fldiv@new_exp+1)^0,7,c
  2214   000D9A  EFD9  F006         	goto	u2290
  2215   000D9E  502C               	movf	(___fldiv@new_exp+1)^0,w,c
  2216   000DA0  E106               	bnz	u2291
  2217   000DA2  042B               	decf	___fldiv@new_exp^0,w,c
  2218   000DA4  B0D8               	btfsc	status,0,c
  2219   000DA6  EFD7  F006         	goto	u2291
  2220   000DAA  EFD9  F006         	goto	u2290
  2221   000DAE                     u2291:
  2222   000DAE  EFE7  F006         	goto	l2658
  2223   000DB2                     u2290:
  2224   000DB2  0E00               	movlw	0
  2225   000DB4  6E2C               	movwf	(___fldiv@new_exp+1)^0,c
  2226   000DB6  0E00               	movlw	0
  2227   000DB8  6E2B               	movwf	___fldiv@new_exp^0,c
  2228   000DBA  0E00               	movlw	0
  2229   000DBC  6E1A               	movwf	___fldiv@b^0,c
  2230   000DBE  0E00               	movlw	0
  2231   000DC0  6E1B               	movwf	(___fldiv@b+1)^0,c
  2232   000DC2  0E00               	movlw	0
  2233   000DC4  6E1C               	movwf	(___fldiv@b+2)^0,c
  2234   000DC6  0E00               	movlw	0
  2235   000DC8  6E1D               	movwf	(___fldiv@b+3)^0,c
  2236   000DCA  0E00               	movlw	0
  2237   000DCC  6E2A               	movwf	___fldiv@sign^0,c
  2238   000DCE                     l2658:
  2239   000DCE  C02B  F031         	movff	___fldiv@new_exp,___fldiv@bexp
  2240   000DD2  A031               	btfss	___fldiv@bexp^0,0,c
  2241   000DD4  EFEE  F006         	goto	u2301
  2242   000DD8  EFF0  F006         	goto	u2300
  2243   000DDC                     u2301:
  2244   000DDC  EFF3  F006         	goto	l2664
  2245   000DE0                     u2300:
  2246   000DE0  8E1C               	bsf	(___fldiv@b+2)^0,7,c
  2247   000DE2  EFF4  F006         	goto	l2666
  2248   000DE6                     l2664:
  2249   000DE6  9E1C               	bcf	(___fldiv@b+2)^0,7,c
  2250   000DE8                     l2666:
  2251   000DE8  90D8               	bcf	status,0,c
  2252   000DEA  3031               	rrcf	___fldiv@bexp^0,w,c
  2253   000DEC  6E1D               	movwf	(___fldiv@b+3)^0,c
  2254   000DEE  EFAA  F005         	goto	l2580
  2255   000DF2                     l848:
  2256   000DF2  0012               	return		;funcret
  2257   000DF4                     __end_of___fldiv:
  2258                           	callstack 0
  2259                           
  2260 ;; *************** function _UART_Positive_Negative_Tempreture_Output *****************
  2261 ;; Defined at:
  2262 ;;		line 105 in file "main.c"
  2263 ;; Parameters:    Size  Location     Type
  2264 ;;		None
  2265 ;; Auto vars:     Size  Location     Type
  2266 ;;		None
  2267 ;; Return value:  Size  Location     Type
  2268 ;;                  1    wreg      void 
  2269 ;; Registers used:
  2270 ;;		wreg, fsr1l, fsr1h, fsr2l, fsr2h, status,2, status,0, tblptrl, tblptrh, tblptru, prodl, prodh, cstack
  2271 ;; Tracked objects:
  2272 ;;		On entry : 0/0
  2273 ;;		On exit  : 0/0
  2274 ;;		Unchanged: 0/0
  2275 ;; Data sizes:     COMRAM   BANK0   BANK1   BANK2   BANK3   BANK4   BANK5
  2276 ;;      Params:         0       0       0       0       0       0       0
  2277 ;;      Locals:         0       0       0       0       0       0       0
  2278 ;;      Temps:          0       0       0       0       0       0       0
  2279 ;;      Totals:         0       0       0       0       0       0       0
  2280 ;;Total ram usage:        0 bytes
  2281 ;; Hardware stack levels used: 1
  2282 ;; Hardware stack levels required when called: 8
  2283 ;; This function calls:
  2284 ;;		_USART_String_Transmit
  2285 ;;		___wmul
  2286 ;;		_sprintf
  2287 ;; This function is called by:
  2288 ;;		_main
  2289 ;; This function uses a non-reentrant model
  2290 ;;
  2291                           
  2292                           	psect	text5
  2293   001D78                     __ptext5:
  2294                           	callstack 0
  2295   001D78                     _UART_Positive_Negative_Tempreture_Output:
  2296                           	callstack 22
  2297   001D78                     
  2298                           ;main.c: 107:     whole = TMP36_Reading;
  2299   001D78  C05D  F06A         	movff	_TMP36_Reading,_whole
  2300   001D7C  C05E  F06B         	movff	_TMP36_Reading+1,_whole+1
  2301   001D80                     
  2302                           ;main.c: 108:     decimal=(TMP36_Reading-whole)*1000;
  2303   001D80  0100               	movlb	0	; () banked
  2304   001D82  516A               	movf	_whole& (0+255),w,b
  2305   001D84  5C5D               	subwf	_TMP36_Reading^0,w,c
  2306   001D86  6E01               	movwf	___wmul@multiplier^0,c
  2307   001D88  516B               	movf	(_whole+1)& (0+255),w,b
  2308   001D8A  585E               	subwfb	(_TMP36_Reading+1)^0,w,c
  2309   001D8C  6E02               	movwf	(___wmul@multiplier+1)^0,c
  2310   001D8E  0E03               	movlw	3
  2311   001D90  6E04               	movwf	(___wmul@multiplicand+1)^0,c
  2312   001D92  0EE8               	movlw	232
  2313   001D94  6E03               	movwf	___wmul@multiplicand^0,c
  2314   001D96  EC40  F010         	call	___wmul	;wreg free
  2315   001D9A  C001  F068         	movff	?___wmul,_decimal
  2316   001D9E  C002  F069         	movff	?___wmul+1,_decimal+1
  2317   001DA2                     
  2318                           ;main.c: 109:     sprintf(xvalueASCII,"%s%3d.%01d%s","Temperature : ",whole,decimal, " D
      +                          egrees \n\r " );
  2319   001DA2  0E74               	movlw	low _xvalueASCII
  2320   001DA4  6E43               	movwf	sprintf@s^0,c
  2321   001DA6  0E00               	movlw	high _xvalueASCII
  2322   001DA8  6E44               	movwf	(sprintf@s+1)^0,c
  2323   001DAA  0E1D               	movlw	low STR_1
  2324   001DAC  6E45               	movwf	sprintf@fmt^0,c
  2325   001DAE  0E06               	movlw	high STR_1
  2326   001DB0  6E46               	movwf	(sprintf@fmt+1)^0,c
  2327   001DB2  0E01               	movlw	low STR_2
  2328   001DB4  6E47               	movwf	(?_sprintf+4)^0,c
  2329   001DB6  0E06               	movlw	high STR_2
  2330   001DB8  6E48               	movwf	(?_sprintf+5)^0,c
  2331   001DBA  C06A  F049         	movff	_whole,?_sprintf+6
  2332   001DBE  C06B  F04A         	movff	_whole+1,?_sprintf+7
  2333   001DC2  C068  F04B         	movff	_decimal,?_sprintf+8
  2334   001DC6  C069  F04C         	movff	_decimal+1,?_sprintf+9
  2335   001DCA  0E10               	movlw	low STR_3
  2336   001DCC  6E4D               	movwf	(?_sprintf+10)^0,c
  2337   001DCE  0E06               	movlw	high STR_3
  2338   001DD0  6E4E               	movwf	(?_sprintf+11)^0,c
  2339   001DD2  EC6C  F00F         	call	_sprintf	;wreg free
  2340   001DD6                     
  2341                           ;main.c: 110:     USART_String_Transmit(xvalueASCII);
  2342   001DD6  0E74               	movlw	low _xvalueASCII
  2343   001DD8  6E02               	movwf	USART_String_Transmit@string^0,c
  2344   001DDA  0E00               	movlw	high _xvalueASCII
  2345   001DDC  6E03               	movwf	(USART_String_Transmit@string+1)^0,c
  2346   001DDE  ECF2  F00E         	call	_USART_String_Transmit	;wreg free
  2347   001DE2  0012               	return		;funcret
  2348   001DE4                     __end_of_UART_Positive_Negative_Tempreture_Output:
  2349                           	callstack 0
  2350                           
  2351 ;; *************** function _sprintf *****************
  2352 ;; Defined at:
  2353 ;;		line 9 in file "C:\Program Files\Microchip\xc8\v2.41\pic\sources\c99\common\nf_sprintf.c"
  2354 ;; Parameters:    Size  Location     Type
  2355 ;;  s               2   66[COMRAM] PTR unsigned char 
  2356 ;;		 -> xvalueASCII(50), 
  2357 ;;  fmt             2   68[COMRAM] PTR const unsigned char 
  2358 ;;		 -> STR_1(13), 
  2359 ;; Auto vars:     Size  Location     Type
  2360 ;;  f              12   80[COMRAM] struct _IO_FILE
  2361 ;;  ap              2   78[COMRAM] PTR void [1]
  2362 ;;		 -> ?_sprintf(2), 
  2363 ;;  ret             2    0        int 
  2364 ;; Return value:  Size  Location     Type
  2365 ;;                  2   66[COMRAM] int 
  2366 ;; Registers used:
  2367 ;;		wreg, fsr1l, fsr1h, fsr2l, fsr2h, status,2, status,0, tblptrl, tblptrh, tblptru, prodl, prodh, cstack
  2368 ;; Tracked objects:
  2369 ;;		On entry : 0/0
  2370 ;;		On exit  : 0/0
  2371 ;;		Unchanged: 0/0
  2372 ;; Data sizes:     COMRAM   BANK0   BANK1   BANK2   BANK3   BANK4   BANK5
  2373 ;;      Params:        12       0       0       0       0       0       0
  2374 ;;      Locals:        14       0       0       0       0       0       0
  2375 ;;      Temps:          0       0       0       0       0       0       0
  2376 ;;      Totals:        26       0       0       0       0       0       0
  2377 ;;Total ram usage:       26 bytes
  2378 ;; Hardware stack levels used: 1
  2379 ;; Hardware stack levels required when called: 7
  2380 ;; This function calls:
  2381 ;;		_vfprintf
  2382 ;; This function is called by:
  2383 ;;		_UART_Positive_Negative_Tempreture_Output
  2384 ;; This function uses a non-reentrant model
  2385 ;;
  2386                           
  2387                           	psect	text6
  2388   001ED8                     __ptext6:
  2389                           	callstack 0
  2390   001ED8                     _sprintf:
  2391                           	callstack 22
  2392   001ED8  0E47               	movlw	low (?_sprintf+4)
  2393   001EDA  6E4F               	movwf	sprintf@ap^0,c
  2394   001EDC  0E00               	movlw	high (?_sprintf+4)
  2395   001EDE  6E50               	movwf	(sprintf@ap+1)^0,c
  2396   001EE0  C043  F051         	movff	sprintf@s,sprintf@f
  2397   001EE4  C044  F052         	movff	sprintf@s+1,sprintf@f+1
  2398   001EE8  0E00               	movlw	0
  2399   001EEA  6E55               	movwf	(sprintf@f+4)^0,c
  2400   001EEC  0E00               	movlw	0
  2401   001EEE  6E54               	movwf	(sprintf@f+3)^0,c
  2402   001EF0  0E00               	movlw	0
  2403   001EF2  6E5C               	movwf	(sprintf@f+11)^0,c
  2404   001EF4  0E00               	movlw	0
  2405   001EF6  6E5B               	movwf	(sprintf@f+10)^0,c
  2406   001EF8  0E51               	movlw	low sprintf@f
  2407   001EFA  6E3B               	movwf	vfprintf@fp^0,c
  2408   001EFC  0E00               	movlw	high sprintf@f
  2409   001EFE  6E3C               	movwf	(vfprintf@fp+1)^0,c
  2410   001F00  C045  F03D         	movff	sprintf@fmt,vfprintf@fmt
  2411   001F04  C046  F03E         	movff	sprintf@fmt+1,vfprintf@fmt+1
  2412   001F08  0E4F               	movlw	low sprintf@ap
  2413   001F0A  6E3F               	movwf	vfprintf@ap^0,c
  2414   001F0C  0E00               	movlw	high sprintf@ap
  2415   001F0E  6E40               	movwf	(vfprintf@ap+1)^0,c
  2416   001F10  EC1E  F00F         	call	_vfprintf	;wreg free
  2417   001F14  5054               	movf	(sprintf@f+3)^0,w,c
  2418   001F16  2443               	addwf	sprintf@s^0,w,c
  2419   001F18  6ED9               	movwf	fsr2l,c
  2420   001F1A  5055               	movf	(sprintf@f+4)^0,w,c
  2421   001F1C  2044               	addwfc	(sprintf@s+1)^0,w,c
  2422   001F1E  6EDA               	movwf	fsr2h,c
  2423   001F20  6ADF               	clrf	indf2,c
  2424   001F22  0012               	return		;funcret
  2425   001F24                     __end_of_sprintf:
  2426                           	callstack 0
  2427                           
  2428 ;; *************** function _vfprintf *****************
  2429 ;; Defined at:
  2430 ;;		line 1546 in file "C:\Program Files\Microchip\xc8\v2.41\pic\sources\c99\common\doprnt.c"
  2431 ;; Parameters:    Size  Location     Type
  2432 ;;  fp              2   58[COMRAM] PTR struct _IO_FILE
  2433 ;;		 -> sprintf@f(12), 
  2434 ;;  fmt             2   60[COMRAM] PTR const unsigned char 
  2435 ;;		 -> STR_1(13), 
  2436 ;;  ap              2   62[COMRAM] PTR PTR void 
  2437 ;;		 -> sprintf@ap(2), 
  2438 ;; Auto vars:     Size  Location     Type
  2439 ;;  cfmt            2   64[COMRAM] PTR unsigned char 
  2440 ;;		 -> STR_1(13), 
  2441 ;; Return value:  Size  Location     Type
  2442 ;;                  2   58[COMRAM] int 
  2443 ;; Registers used:
  2444 ;;		wreg, fsr1l, fsr1h, fsr2l, fsr2h, status,2, status,0, tblptrl, tblptrh, tblptru, prodl, prodh, cstack
  2445 ;; Tracked objects:
  2446 ;;		On entry : 0/0
  2447 ;;		On exit  : 0/0
  2448 ;;		Unchanged: 0/0
  2449 ;; Data sizes:     COMRAM   BANK0   BANK1   BANK2   BANK3   BANK4   BANK5
  2450 ;;      Params:         6       0       0       0       0       0       0
  2451 ;;      Locals:         2       0       0       0       0       0       0
  2452 ;;      Temps:          0       0       0       0       0       0       0
  2453 ;;      Totals:         8       0       0       0       0       0       0
  2454 ;;Total ram usage:        8 bytes
  2455 ;; Hardware stack levels used: 1
  2456 ;; Hardware stack levels required when called: 6
  2457 ;; This function calls:
  2458 ;;		_vfpfcnvrt
  2459 ;; This function is called by:
  2460 ;;		_sprintf
  2461 ;; This function uses a non-reentrant model
  2462 ;;
  2463                           
  2464                           	psect	text7
  2465   001E3C                     __ptext7:
  2466                           	callstack 0
  2467   001E3C                     _vfprintf:
  2468                           	callstack 22
  2469   001E3C                     
  2470                           ;C:\Program Files\Microchip\xc8\v2.41\pic\sources\c99\common\doprnt.c: 1546: int vfprint
      +                          f(FILE *fp, const char *fmt, va_list ap);C:\Program Files\Microchip\xc8\v2.41\pic\source
      +                          s\c99\common\doprnt.c: 1547: {;C:\Program Files\Microchip\xc8\v2.41\pic\sources\c99\comm
      +                          on\doprnt.c: 1549:     char *cfmt;;C:\Program Files\Microchip\xc8\v2.41\pic\sources\c99\
      +                          common\doprnt.c: 1551:     cfmt = (char *)fmt;
  2471   001E3C  C03D  F041         	movff	vfprintf@fmt,vfprintf@cfmt
  2472   001E40  C03E  F042         	movff	vfprintf@fmt+1,vfprintf@cfmt+1
  2473                           
  2474                           ;C:\Program Files\Microchip\xc8\v2.41\pic\sources\c99\common\doprnt.c: 1555:     while (
      +                          *cfmt) {
  2475   001E44  EF32  F00F         	goto	l2396
  2476   001E48                     l2394:
  2477                           
  2478                           ;C:\Program Files\Microchip\xc8\v2.41\pic\sources\c99\common\doprnt.c: 1559:    vfpfcnvr
      +                          t(fp, &cfmt, ap);
  2479   001E48  C03B  F029         	movff	vfprintf@fp,vfpfcnvrt@fp
  2480   001E4C  C03C  F02A         	movff	vfprintf@fp+1,vfpfcnvrt@fp+1
  2481   001E50  0E41               	movlw	low vfprintf@cfmt
  2482   001E52  6E2B               	movwf	vfpfcnvrt@fmt^0,c
  2483   001E54  0E00               	movlw	high vfprintf@cfmt
  2484   001E56  6E2C               	movwf	(vfpfcnvrt@fmt+1)^0,c
  2485   001E58  C03F  F02D         	movff	vfprintf@ap,vfpfcnvrt@ap
  2486   001E5C  C040  F02E         	movff	vfprintf@ap+1,vfpfcnvrt@ap+1
  2487   001E60  ECFA  F006         	call	_vfpfcnvrt	;wreg free
  2488   001E64                     l2396:
  2489                           
  2490                           ;C:\Program Files\Microchip\xc8\v2.41\pic\sources\c99\common\doprnt.c: 1555:     while (
      +                          *cfmt) {
  2491   001E64  C041  FFF6         	movff	vfprintf@cfmt,tblptrl
  2492   001E68  C042  FFF7         	movff	vfprintf@cfmt+1,tblptrh
  2493   001E6C                     	if	0	;tblptru may be non-zero
  2494   001E6C                     	endif
  2495   001E6C                     	if	0	;tblptru may be non-zero
  2496   001E6C                     	endif
  2497   001E6C  0008               	tblrd		*
  2498   001E6E  50F5               	movf	tablat,w,c
  2499   001E70  0900               	iorlw	0
  2500   001E72  A4D8               	btfss	status,2,c
  2501   001E74  EF3E  F00F         	goto	u2021
  2502   001E78  EF40  F00F         	goto	u2020
  2503   001E7C                     u2021:
  2504   001E7C  EF24  F00F         	goto	l2394
  2505   001E80                     u2020:
  2506   001E80                     
  2507                           ;C:\Program Files\Microchip\xc8\v2.41\pic\sources\c99\common\doprnt.c: 1564:  return 0;
  2508   001E80  0E00               	movlw	0
  2509   001E82  6E3C               	movwf	(?_vfprintf+1)^0,c
  2510   001E84  0E00               	movlw	0
  2511   001E86  6E3B               	movwf	?_vfprintf^0,c
  2512   001E88  0012               	return		;funcret
  2513   001E8A                     __end_of_vfprintf:
  2514                           	callstack 0
  2515                           
  2516 ;; *************** function _vfpfcnvrt *****************
  2517 ;; Defined at:
  2518 ;;		line 1048 in file "C:\Program Files\Microchip\xc8\v2.41\pic\sources\c99\common\doprnt.c"
  2519 ;; Parameters:    Size  Location     Type
  2520 ;;  fp              2   40[COMRAM] PTR struct _IO_FILE
  2521 ;;		 -> sprintf@f(12), 
  2522 ;;  fmt             2   42[COMRAM] PTR PTR unsigned char 
  2523 ;;		 -> vfprintf@cfmt(2), 
  2524 ;;  ap              2   44[COMRAM] PTR PTR void 
  2525 ;;		 -> sprintf@ap(2), 
  2526 ;; Auto vars:     Size  Location     Type
  2527 ;;  convarg         4   48[COMRAM] struct .
  2528 ;;  cp              2   56[COMRAM] PTR unsigned char 
  2529 ;;		 -> STR_1(13), 
  2530 ;;  done            2   52[COMRAM] int 
  2531 ;;  i               2    0        int 
  2532 ;;  c               1    0        unsigned char 
  2533 ;; Return value:  Size  Location     Type
  2534 ;;                  1    wreg      void 
  2535 ;; Registers used:
  2536 ;;		wreg, fsr1l, fsr1h, fsr2l, fsr2h, status,2, status,0, tblptrl, tblptrh, tblptru, prodl, prodh, cstack
  2537 ;; Tracked objects:
  2538 ;;		On entry : 0/0
  2539 ;;		On exit  : 0/0
  2540 ;;		Unchanged: 0/0
  2541 ;; Data sizes:     COMRAM   BANK0   BANK1   BANK2   BANK3   BANK4   BANK5
  2542 ;;      Params:         6       0       0       0       0       0       0
  2543 ;;      Locals:        10       0       0       0       0       0       0
  2544 ;;      Temps:          2       0       0       0       0       0       0
  2545 ;;      Totals:        18       0       0       0       0       0       0
  2546 ;;Total ram usage:       18 bytes
  2547 ;; Hardware stack levels used: 1
  2548 ;; Hardware stack levels required when called: 5
  2549 ;; This function calls:
  2550 ;;		_dtoa
  2551 ;;		_fputc
  2552 ;;		_read_prec_or_width
  2553 ;;		_stoa
  2554 ;;		_strncmp
  2555 ;; This function is called by:
  2556 ;;		_vfprintf
  2557 ;; This function uses a non-reentrant model
  2558 ;;
  2559                           
  2560                           	psect	text8
  2561   000DF4                     __ptext8:
  2562                           	callstack 0
  2563   000DF4                     _vfpfcnvrt:
  2564                           	callstack 22
  2565   000DF4                     
  2566                           ;C:\Program Files\Microchip\xc8\v2.41\pic\sources\c99\common\doprnt.c: 1048: vfpfcnvrt(F
      +                          ILE *fp, char *fmt[], va_list ap);C:\Program Files\Microchip\xc8\v2.41\pic\sources\c99\c
      +                          ommon\doprnt.c: 1049: {;C:\Program Files\Microchip\xc8\v2.41\pic\sources\c99\common\dopr
      +                          nt.c: 1050:     char c, *cp;;C:\Program Files\Microchip\xc8\v2.41\pic\sources\c99\common
      +                          \doprnt.c: 1051:     int done, i;;C:\Program Files\Microchip\xc8\v2.41\pic\sources\c99\c
      +                          ommon\doprnt.c: 1059:  } convarg;;C:\Program Files\Microchip\xc8\v2.41\pic\sources\c99\c
      +                          ommon\doprnt.c: 1062:     if ((*fmt)[0] == '%') {
  2567   000DF4  C02B  FFD9         	movff	vfpfcnvrt@fmt,fsr2l
  2568   000DF8  C02C  FFDA         	movff	vfpfcnvrt@fmt+1,fsr2h
  2569   000DFC  CFDE FFF6          	movff	postinc2,tblptrl
  2570   000E00  CFDD FFF7          	movff	postdec2,tblptrh
  2571   000E04                     	if	0	;tblptru may be non-zero
  2572   000E04                     	endif
  2573   000E04                     	if	0	;tblptru may be non-zero
  2574   000E04                     	endif
  2575   000E04  0008               	tblrd		*
  2576   000E06  50F5               	movf	tablat,w,c
  2577   000E08  0A25               	xorlw	37
  2578   000E0A  A4D8               	btfss	status,2,c
  2579   000E0C  EF0A  F007         	goto	u1901
  2580   000E10  EF0C  F007         	goto	u1900
  2581   000E14                     u1901:
  2582   000E14  EF38  F008         	goto	l2358
  2583   000E18                     u1900:
  2584   000E18                     
  2585                           ;C:\Program Files\Microchip\xc8\v2.41\pic\sources\c99\common\doprnt.c: 1063:         ++*
      +                          fmt;
  2586   000E18  C02B  FFD9         	movff	vfpfcnvrt@fmt,fsr2l
  2587   000E1C  C02C  FFDA         	movff	vfpfcnvrt@fmt+1,fsr2h
  2588   000E20  2ADE               	incf	postinc2,f,c
  2589   000E22  0E00               	movlw	0
  2590   000E24  22DD               	addwfc	postdec2,f,c
  2591   000E26                     
  2592                           ;C:\Program Files\Microchip\xc8\v2.41\pic\sources\c99\common\doprnt.c: 1065:         fla
      +                          gs = width = 0;
  2593   000E26  0E00               	movlw	0
  2594   000E28  0100               	movlb	0	; () banked
  2595   000E2A  6F65               	movwf	(_width+1)& (0+255),b
  2596   000E2C  0E00               	movlw	0
  2597   000E2E  6F64               	movwf	_width& (0+255),b
  2598   000E30  C064  F05F         	movff	_width,_flags
  2599   000E34                     
  2600                           ; BSR set to: 0
  2601                           ;C:\Program Files\Microchip\xc8\v2.41\pic\sources\c99\common\doprnt.c: 1066:         pre
      +                          c = -1;
  2602   000E34  6966               	setf	_prec& (0+255),b
  2603   000E36  6967               	setf	(_prec+1)& (0+255),b
  2604   000E38                     
  2605                           ; BSR set to: 0
  2606                           ;C:\Program Files\Microchip\xc8\v2.41\pic\sources\c99\common\doprnt.c: 1070:         don
      +                          e = 0;
  2607   000E38  0E00               	movlw	0
  2608   000E3A  6E36               	movwf	(vfpfcnvrt@done+1)^0,c
  2609   000E3C  0E00               	movlw	0
  2610   000E3E  6E35               	movwf	vfpfcnvrt@done^0,c
  2611                           
  2612                           ;C:\Program Files\Microchip\xc8\v2.41\pic\sources\c99\common\doprnt.c: 1071:         whi
      +                          le (!done) {
  2613   000E40  EF4C  F007         	goto	l2318
  2614   000E44                     l2308:
  2615                           
  2616                           ;C:\Program Files\Microchip\xc8\v2.41\pic\sources\c99\common\doprnt.c: 1081:            
      +                                   flags |= (1 << 1);
  2617   000E44  825F               	bsf	_flags^0,1,c
  2618   000E46                     
  2619                           ;C:\Program Files\Microchip\xc8\v2.41\pic\sources\c99\common\doprnt.c: 1082:            
      +                                   ++*fmt;
  2620   000E46  C02B  FFD9         	movff	vfpfcnvrt@fmt,fsr2l
  2621   000E4A  C02C  FFDA         	movff	vfpfcnvrt@fmt+1,fsr2h
  2622   000E4E  2ADE               	incf	postinc2,f,c
  2623   000E50  0E00               	movlw	0
  2624   000E52  22DD               	addwfc	postdec2,f,c
  2625                           
  2626                           ;C:\Program Files\Microchip\xc8\v2.41\pic\sources\c99\common\doprnt.c: 1083:            
      +                                   break;
  2627   000E54  EF4C  F007         	goto	l2318
  2628   000E58                     l2312:
  2629                           
  2630                           ;C:\Program Files\Microchip\xc8\v2.41\pic\sources\c99\common\doprnt.c: 1104:            
      +                                   done = 1;
  2631   000E58  0E00               	movlw	0
  2632   000E5A  6E36               	movwf	(vfpfcnvrt@done+1)^0,c
  2633   000E5C  0E01               	movlw	1
  2634   000E5E  6E35               	movwf	vfpfcnvrt@done^0,c
  2635                           
  2636                           ;C:\Program Files\Microchip\xc8\v2.41\pic\sources\c99\common\doprnt.c: 1105:            
      +                                   break;
  2637   000E60  EF4C  F007         	goto	l2318
  2638   000E64                     l2316:
  2639   000E64  C02B  FFD9         	movff	vfpfcnvrt@fmt,fsr2l
  2640   000E68  C02C  FFDA         	movff	vfpfcnvrt@fmt+1,fsr2h
  2641   000E6C  CFDE FFF6          	movff	postinc2,tblptrl
  2642   000E70  CFDD FFF7          	movff	postdec2,tblptrh
  2643   000E74                     	if	0	;tblptru may be non-zero
  2644   000E74                     	endif
  2645   000E74                     	if	0	;tblptru may be non-zero
  2646   000E74                     	endif
  2647   000E74  0008               	tblrd		*
  2648   000E76  50F5               	movf	tablat,w,c
  2649   000E78  6E2F               	movwf	??_vfpfcnvrt^0,c
  2650   000E7A  6A30               	clrf	(??_vfpfcnvrt+1)^0,c
  2651                           
  2652                           ; Switch on 2 bytes has been partitioned into a top level switch of size 1, and 1 sub-sw
      +                          itches
  2653                           ; Switch size 1, requested type "simple"
  2654                           ; Number of cases is 1, Range of values is 0 to 0
  2655                           ; switch strategies available:
  2656                           ; Name         Instructions Cycles
  2657                           ; simple_byte            4     3 (average)
  2658                           ;	Chosen strategy is simple_byte
  2659   000E7C  5030               	movf	(??_vfpfcnvrt+1)^0,w,c
  2660   000E7E  0A00               	xorlw	0	; case 0
  2661   000E80  B4D8               	btfsc	status,2,c
  2662   000E82  EF45  F007         	goto	l2942
  2663   000E86  EF2C  F007         	goto	l2312
  2664   000E8A                     l2942:
  2665                           
  2666                           ; Switch size 1, requested type "simple"
  2667                           ; Number of cases is 1, Range of values is 48 to 48
  2668                           ; switch strategies available:
  2669                           ; Name         Instructions Cycles
  2670                           ; simple_byte            4     3 (average)
  2671                           ;	Chosen strategy is simple_byte
  2672   000E8A  502F               	movf	??_vfpfcnvrt^0,w,c
  2673   000E8C  0A30               	xorlw	48	; case 48
  2674   000E8E  B4D8               	btfsc	status,2,c
  2675   000E90  EF22  F007         	goto	l2308
  2676   000E94  EF2C  F007         	goto	l2312
  2677   000E98                     l2318:
  2678                           
  2679                           ;C:\Program Files\Microchip\xc8\v2.41\pic\sources\c99\common\doprnt.c: 1071:         whi
      +                          le (!done) {
  2680   000E98  5035               	movf	vfpfcnvrt@done^0,w,c
  2681   000E9A  1036               	iorwf	(vfpfcnvrt@done+1)^0,w,c
  2682   000E9C  B4D8               	btfsc	status,2,c
  2683   000E9E  EF53  F007         	goto	u1911
  2684   000EA2  EF55  F007         	goto	u1910
  2685   000EA6                     u1911:
  2686   000EA6  EF32  F007         	goto	l2316
  2687   000EAA                     u1910:
  2688   000EAA                     
  2689                           ;C:\Program Files\Microchip\xc8\v2.41\pic\sources\c99\common\doprnt.c: 1117:   width = r
      +                          ead_prec_or_width(fmt, ap);
  2690   000EAA  C02B  F007         	movff	vfpfcnvrt@fmt,read_prec_or_width@fmt
  2691   000EAE  C02C  F008         	movff	vfpfcnvrt@fmt+1,read_prec_or_width@fmt+1
  2692   000EB2  C02D  F009         	movff	vfpfcnvrt@ap,read_prec_or_width@ap
  2693   000EB6  C02E  F00A         	movff	vfpfcnvrt@ap+1,read_prec_or_width@ap+1
  2694   000EBA  EC4A  F00D         	call	_read_prec_or_width	;wreg free
  2695   000EBE  C007  F064         	movff	?_read_prec_or_width,_width
  2696   000EC2  C008  F065         	movff	?_read_prec_or_width+1,_width+1
  2697   000EC6                     
  2698                           ;C:\Program Files\Microchip\xc8\v2.41\pic\sources\c99\common\doprnt.c: 1118:   if (width
      +                           < 0) {
  2699   000EC6  0100               	movlb	0	; () banked
  2700   000EC8  BF65               	btfsc	(_width+1)& (0+255),7,b
  2701   000ECA  EF6B  F007         	goto	u1920
  2702   000ECE  EF69  F007         	goto	u1921
  2703   000ED2                     u1921:
  2704   000ED2  EF70  F007         	goto	l2326
  2705   000ED6                     u1920:
  2706   000ED6                     
  2707                           ; BSR set to: 0
  2708                           ;C:\Program Files\Microchip\xc8\v2.41\pic\sources\c99\common\doprnt.c: 1119:    flags |=
      +                           (1 << 0);
  2709   000ED6  805F               	bsf	_flags^0,0,c
  2710                           
  2711                           ;C:\Program Files\Microchip\xc8\v2.41\pic\sources\c99\common\doprnt.c: 1120:    width = 
      +                          -width;
  2712   000ED8  6D64               	negf	_width& (0+255),b
  2713   000EDA  1F65               	comf	(_width+1)& (0+255),f,b
  2714   000EDC  B0D8               	btfsc	status,0,c
  2715   000EDE  2B65               	incf	(_width+1)& (0+255),f,b
  2716   000EE0                     l2326:
  2717                           
  2718                           ; BSR set to: 0
  2719                           ;C:\Program Files\Microchip\xc8\v2.41\pic\sources\c99\common\doprnt.c: 1143:   cp = *fmt
      +                          ;
  2720   000EE0  C02B  FFD9         	movff	vfpfcnvrt@fmt,fsr2l
  2721   000EE4  C02C  FFDA         	movff	vfpfcnvrt@fmt+1,fsr2h
  2722   000EE8  CFDE F039          	movff	postinc2,vfpfcnvrt@cp
  2723   000EEC  CFDD F03A          	movff	postdec2,vfpfcnvrt@cp+1
  2724   000EF0                     
  2725                           ; BSR set to: 0
  2726                           ;C:\Program Files\Microchip\xc8\v2.41\pic\sources\c99\common\doprnt.c: 1213:   if (*cp =
      +                          = 'd' || *cp == 'i') {
  2727   000EF0  C039  FFF6         	movff	vfpfcnvrt@cp,tblptrl
  2728   000EF4  C03A  FFF7         	movff	vfpfcnvrt@cp+1,tblptrh
  2729   000EF8                     	if	0	;tblptru may be non-zero
  2730   000EF8                     	endif
  2731   000EF8                     	if	0	;tblptru may be non-zero
  2732   000EF8                     	endif
  2733   000EF8  0008               	tblrd		*
  2734   000EFA  50F5               	movf	tablat,w,c
  2735   000EFC  0A64               	xorlw	100
  2736   000EFE  B4D8               	btfsc	status,2,c
  2737   000F00  EF84  F007         	goto	u1931
  2738   000F04  EF86  F007         	goto	u1930
  2739   000F08                     u1931:
  2740   000F08  EF94  F007         	goto	l2332
  2741   000F0C                     u1930:
  2742   000F0C                     
  2743                           ; BSR set to: 0
  2744   000F0C  C039  FFF6         	movff	vfpfcnvrt@cp,tblptrl
  2745   000F10  C03A  FFF7         	movff	vfpfcnvrt@cp+1,tblptrh
  2746   000F14                     	if	0	;tblptru may be non-zero
  2747   000F14                     	endif
  2748   000F14                     	if	0	;tblptru may be non-zero
  2749   000F14                     	endif
  2750   000F14  0008               	tblrd		*
  2751   000F16  50F5               	movf	tablat,w,c
  2752   000F18  0A69               	xorlw	105
  2753   000F1A  A4D8               	btfss	status,2,c
  2754   000F1C  EF92  F007         	goto	u1941
  2755   000F20  EF94  F007         	goto	u1940
  2756   000F24                     u1941:
  2757   000F24  EFC2  F007         	goto	l2338
  2758   000F28                     u1940:
  2759   000F28                     l2332:
  2760                           
  2761                           ; BSR set to: 0
  2762                           ;C:\Program Files\Microchip\xc8\v2.41\pic\sources\c99\common\doprnt.c: 1256:    convarg.
      +                          sint = (vfpf_sint_t)(int)(*(int *)__va_arg(*(int **)ap, (int)0));
  2763   000F28  C02D  FFD9         	movff	vfpfcnvrt@ap,fsr2l
  2764   000F2C  C02E  FFDA         	movff	vfpfcnvrt@ap+1,fsr2h
  2765   000F30  CFDF F02F          	movff	indf2,??_vfpfcnvrt
  2766   000F34  0E02               	movlw	2
  2767   000F36  26DE               	addwf	postinc2,f,c
  2768   000F38  CFDF F030          	movff	indf2,??_vfpfcnvrt+1
  2769   000F3C  0E00               	movlw	0
  2770   000F3E  22DD               	addwfc	postdec2,f,c
  2771   000F40  C02F  FFD9         	movff	??_vfpfcnvrt,fsr2l
  2772   000F44  C030  FFDA         	movff	??_vfpfcnvrt+1,fsr2h
  2773   000F48  CFDE F031          	movff	postinc2,vfpfcnvrt@convarg
  2774   000F4C  CFDD F032          	movff	postdec2,vfpfcnvrt@convarg+1
  2775                           
  2776                           ;C:\Program Files\Microchip\xc8\v2.41\pic\sources\c99\common\doprnt.c: 1258:    *fmt = c
      +                          p+1;
  2777   000F50  0E01               	movlw	1
  2778   000F52  2439               	addwf	vfpfcnvrt@cp^0,w,c
  2779   000F54  6E2F               	movwf	??_vfpfcnvrt^0,c
  2780   000F56  0E00               	movlw	0
  2781   000F58  203A               	addwfc	(vfpfcnvrt@cp+1)^0,w,c
  2782   000F5A  6E30               	movwf	(??_vfpfcnvrt+1)^0,c
  2783   000F5C  C02B  FFD9         	movff	vfpfcnvrt@fmt,fsr2l
  2784   000F60  C02C  FFDA         	movff	vfpfcnvrt@fmt+1,fsr2h
  2785   000F64  C02F  FFDE         	movff	??_vfpfcnvrt,postinc2
  2786   000F68  C030  FFDD         	movff	??_vfpfcnvrt+1,postdec2
  2787   000F6C                     
  2788                           ; BSR set to: 0
  2789                           ;C:\Program Files\Microchip\xc8\v2.41\pic\sources\c99\common\doprnt.c: 1259:    return (
      +                          void) dtoa(fp, convarg.sint);;	Return value of _vfpfcnvrt is never used
  2790   000F6C  C029  F01C         	movff	vfpfcnvrt@fp,dtoa@fp
  2791   000F70  C02A  F01D         	movff	vfpfcnvrt@fp+1,dtoa@fp+1
  2792   000F74  C031  F01E         	movff	vfpfcnvrt@convarg,dtoa@d
  2793   000F78  C032  F01F         	movff	vfpfcnvrt@convarg+1,dtoa@d+1
  2794   000F7C  EC4D  F008         	call	_dtoa	;wreg free
  2795   000F80  EF4C  F008         	goto	l1044
  2796   000F84                     l2338:
  2797                           
  2798                           ; BSR set to: 0
  2799                           ;C:\Program Files\Microchip\xc8\v2.41\pic\sources\c99\common\doprnt.c: 1409:         if 
      +                          (*fmt[0] == 's' || !strncmp(*fmt, "lls", ((sizeof("lls")/sizeof("lls"[0]))-1))) {
  2800   000F84  C02B  FFD9         	movff	vfpfcnvrt@fmt,fsr2l
  2801   000F88  C02C  FFDA         	movff	vfpfcnvrt@fmt+1,fsr2h
  2802   000F8C  CFDE FFF6          	movff	postinc2,tblptrl
  2803   000F90  CFDD FFF7          	movff	postdec2,tblptrh
  2804   000F94                     	if	0	;tblptru may be non-zero
  2805   000F94                     	endif
  2806   000F94                     	if	0	;tblptru may be non-zero
  2807   000F94                     	endif
  2808   000F94  0008               	tblrd		*
  2809   000F96  50F5               	movf	tablat,w,c
  2810   000F98  0A73               	xorlw	115
  2811   000F9A  B4D8               	btfsc	status,2,c
  2812   000F9C  EFD2  F007         	goto	u1951
  2813   000FA0  EFD4  F007         	goto	u1950
  2814   000FA4                     u1951:
  2815   000FA4  EFEF  F007         	goto	l2342
  2816   000FA8                     u1950:
  2817   000FA8                     
  2818                           ; BSR set to: 0
  2819   000FA8  C02B  FFD9         	movff	vfpfcnvrt@fmt,fsr2l
  2820   000FAC  C02C  FFDA         	movff	vfpfcnvrt@fmt+1,fsr2h
  2821   000FB0  CFDE F001          	movff	postinc2,strncmp@_l
  2822   000FB4  CFDD F002          	movff	postdec2,strncmp@_l+1
  2823   000FB8  0E2A               	movlw	low STR_4
  2824   000FBA  6E03               	movwf	strncmp@_r^0,c
  2825   000FBC  0E06               	movlw	high STR_4
  2826   000FBE  6E04               	movwf	(strncmp@_r+1)^0,c
  2827   000FC0  0E00               	movlw	0
  2828   000FC2  6E06               	movwf	(strncmp@n+1)^0,c
  2829   000FC4  0E03               	movlw	3
  2830   000FC6  6E05               	movwf	strncmp@n^0,c
  2831   000FC8  EC08  F00C         	call	_strncmp	;wreg free
  2832   000FCC  5001               	movf	?_strncmp^0,w,c
  2833   000FCE  1002               	iorwf	(?_strncmp+1)^0,w,c
  2834   000FD0  A4D8               	btfss	status,2,c
  2835   000FD2  EFED  F007         	goto	u1961
  2836   000FD6  EFEF  F007         	goto	u1960
  2837   000FDA                     u1961:
  2838   000FDA  EF2F  F008         	goto	l2354
  2839   000FDE                     u1960:
  2840   000FDE                     l2342:
  2841                           
  2842                           ;C:\Program Files\Microchip\xc8\v2.41\pic\sources\c99\common\doprnt.c: 1411:    *fmt += 
      +                          *fmt[0] == 's' ? 1 : ((sizeof("lls")/sizeof("lls"[0]))-1);
  2843   000FDE  C02B  FFD9         	movff	vfpfcnvrt@fmt,fsr2l
  2844   000FE2  C02C  FFDA         	movff	vfpfcnvrt@fmt+1,fsr2h
  2845   000FE6  CFDE FFF6          	movff	postinc2,tblptrl
  2846   000FEA  CFDD FFF7          	movff	postdec2,tblptrh
  2847   000FEE                     	if	0	;tblptru may be non-zero
  2848   000FEE                     	endif
  2849   000FEE                     	if	0	;tblptru may be non-zero
  2850   000FEE                     	endif
  2851   000FEE  0008               	tblrd		*
  2852   000FF0  50F5               	movf	tablat,w,c
  2853   000FF2  0A73               	xorlw	115
  2854   000FF4  B4D8               	btfsc	status,2,c
  2855   000FF6  EFFF  F007         	goto	u1971
  2856   000FFA  EF01  F008         	goto	u1970
  2857   000FFE                     u1971:
  2858   000FFE  EF07  F008         	goto	l2346
  2859   001002                     u1970:
  2860   001002  0E00               	movlw	0
  2861   001004  6E38               	movwf	(_vfpfcnvrt$1215+1)^0,c
  2862   001006  0E03               	movlw	3
  2863   001008  6E37               	movwf	_vfpfcnvrt$1215^0,c
  2864   00100A  EF0B  F008         	goto	l2348
  2865   00100E                     l2346:
  2866   00100E  0E00               	movlw	0
  2867   001010  6E38               	movwf	(_vfpfcnvrt$1215+1)^0,c
  2868   001012  0E01               	movlw	1
  2869   001014  6E37               	movwf	_vfpfcnvrt$1215^0,c
  2870   001016                     l2348:
  2871   001016  C02B  FFD9         	movff	vfpfcnvrt@fmt,fsr2l
  2872   00101A  C02C  FFDA         	movff	vfpfcnvrt@fmt+1,fsr2h
  2873   00101E  5037               	movf	_vfpfcnvrt$1215^0,w,c
  2874   001020  26DE               	addwf	postinc2,f,c
  2875   001022  5038               	movf	(_vfpfcnvrt$1215+1)^0,w,c
  2876   001024  22DD               	addwfc	postdec2,f,c
  2877   001026                     
  2878                           ;C:\Program Files\Microchip\xc8\v2.41\pic\sources\c99\common\doprnt.c: 1412:            
      +                           return (void) stoa(fp, (*(char * *)__va_arg(*(char * **)ap, (char *)0)));;	Return value
      +                           of _vfpfcnvrt is never used
  2879   001026  C029  F00A         	movff	vfpfcnvrt@fp,stoa@fp
  2880   00102A  C02A  F00B         	movff	vfpfcnvrt@fp+1,stoa@fp+1
  2881   00102E  C02D  FFD9         	movff	vfpfcnvrt@ap,fsr2l
  2882   001032  C02E  FFDA         	movff	vfpfcnvrt@ap+1,fsr2h
  2883   001036  CFDF F02F          	movff	indf2,??_vfpfcnvrt
  2884   00103A  0E02               	movlw	2
  2885   00103C  26DE               	addwf	postinc2,f,c
  2886   00103E  CFDF F030          	movff	indf2,??_vfpfcnvrt+1
  2887   001042  0E00               	movlw	0
  2888   001044  22DD               	addwfc	postdec2,f,c
  2889   001046  C02F  FFD9         	movff	??_vfpfcnvrt,fsr2l
  2890   00104A  C030  FFDA         	movff	??_vfpfcnvrt+1,fsr2h
  2891   00104E  CFDE F00C          	movff	postinc2,stoa@s
  2892   001052  CFDD F00D          	movff	postdec2,stoa@s+1
  2893   001056  EC0D  F00A         	call	_stoa	;wreg free
  2894   00105A  EF4C  F008         	goto	l1044
  2895   00105E                     l2354:
  2896                           
  2897                           ;C:\Program Files\Microchip\xc8\v2.41\pic\sources\c99\common\doprnt.c: 1535:         ++*
      +                          fmt;
  2898   00105E  C02B  FFD9         	movff	vfpfcnvrt@fmt,fsr2l
  2899   001062  C02C  FFDA         	movff	vfpfcnvrt@fmt+1,fsr2h
  2900   001066  2ADE               	incf	postinc2,f,c
  2901   001068  0E00               	movlw	0
  2902   00106A  22DD               	addwfc	postdec2,f,c
  2903   00106C  EF4C  F008         	goto	l1044
  2904   001070                     l2358:
  2905                           
  2906                           ;C:\Program Files\Microchip\xc8\v2.41\pic\sources\c99\common\doprnt.c: 1540:     fputc((
      +                          int)(*fmt)[0], fp);
  2907   001070  C02B  FFD9         	movff	vfpfcnvrt@fmt,fsr2l
  2908   001074  C02C  FFDA         	movff	vfpfcnvrt@fmt+1,fsr2h
  2909   001078  CFDE FFF6          	movff	postinc2,tblptrl
  2910   00107C  CFDD FFF7          	movff	postdec2,tblptrh
  2911   001080                     	if	0	;tblptru may be non-zero
  2912   001080                     	endif
  2913   001080                     	if	0	;tblptru may be non-zero
  2914   001080                     	endif
  2915   001080  0008               	tblrd		*
  2916   001082  50F5               	movf	tablat,w,c
  2917   001084  6E01               	movwf	fputc@c^0,c
  2918   001086  6A02               	clrf	(fputc@c+1)^0,c
  2919   001088  C029  F003         	movff	vfpfcnvrt@fp,fputc@fp
  2920   00108C  C02A  F004         	movff	vfpfcnvrt@fp+1,fputc@fp+1
  2921   001090  ECE5  F00C         	call	_fputc	;wreg free
  2922   001094  EF2F  F008         	goto	l2354
  2923   001098                     l1044:
  2924   001098  0012               	return		;funcret
  2925   00109A                     __end_of_vfpfcnvrt:
  2926                           	callstack 0
  2927                           
  2928 ;; *************** function _strncmp *****************
  2929 ;; Defined at:
  2930 ;;		line 3 in file "C:\Program Files\Microchip\xc8\v2.41\pic\sources\c99\common\strncmp.c"
  2931 ;; Parameters:    Size  Location     Type
  2932 ;;  _l              2    0[COMRAM] PTR const unsigned char 
  2933 ;;		 -> STR_1(13), 
  2934 ;;  _r              2    2[COMRAM] PTR const unsigned char 
  2935 ;;		 -> STR_6(4), 
  2936 ;;  n               2    4[COMRAM] unsigned int 
  2937 ;; Auto vars:     Size  Location     Type
  2938 ;;  r               2    9[COMRAM] PTR const unsigned char 
  2939 ;;		 -> STR_6(4), 
  2940 ;;  l               2    7[COMRAM] PTR const unsigned char 
  2941 ;;		 -> STR_1(13), 
  2942 ;; Return value:  Size  Location     Type
  2943 ;;                  2    0[COMRAM] int 
  2944 ;; Registers used:
  2945 ;;		wreg, status,2, status,0, tblptrl, tblptrh, tblptru
  2946 ;; Tracked objects:
  2947 ;;		On entry : 0/0
  2948 ;;		On exit  : 0/0
  2949 ;;		Unchanged: 0/0
  2950 ;; Data sizes:     COMRAM   BANK0   BANK1   BANK2   BANK3   BANK4   BANK5
  2951 ;;      Params:         6       0       0       0       0       0       0
  2952 ;;      Locals:         4       0       0       0       0       0       0
  2953 ;;      Temps:          1       0       0       0       0       0       0
  2954 ;;      Totals:        11       0       0       0       0       0       0
  2955 ;;Total ram usage:       11 bytes
  2956 ;; Hardware stack levels used: 1
  2957 ;; This function calls:
  2958 ;;		Nothing
  2959 ;; This function is called by:
  2960 ;;		_vfpfcnvrt
  2961 ;; This function uses a non-reentrant model
  2962 ;;
  2963                           
  2964                           	psect	text9
  2965   001810                     __ptext9:
  2966                           	callstack 0
  2967   001810                     _strncmp:
  2968                           	callstack 26
  2969   001810  C001  F008         	movff	strncmp@_l,strncmp@l
  2970   001814  C002  F009         	movff	strncmp@_l+1,strncmp@l+1
  2971   001818  C003  F00A         	movff	strncmp@_r,strncmp@r
  2972   00181C  C004  F00B         	movff	strncmp@_r+1,strncmp@r+1
  2973   001820  0605               	decf	strncmp@n^0,f,c
  2974   001822  A0D8               	btfss	status,0,c
  2975   001824  0606               	decf	(strncmp@n+1)^0,f,c
  2976   001826  2805               	incf	strncmp@n^0,w,c
  2977   001828  E106               	bnz	u1851
  2978   00182A  2806               	incf	(strncmp@n+1)^0,w,c
  2979   00182C  A4D8               	btfss	status,2,c
  2980   00182E  EF1B  F00C         	goto	u1851
  2981   001832  EF1D  F00C         	goto	u1850
  2982   001836                     u1851:
  2983   001836  EF2A  F00C         	goto	l2286
  2984   00183A                     u1850:
  2985   00183A  0E00               	movlw	0
  2986   00183C  6E02               	movwf	(?_strncmp+1)^0,c
  2987   00183E  0E00               	movlw	0
  2988   001840  6E01               	movwf	?_strncmp^0,c
  2989   001842  EF76  F00C         	goto	l1097
  2990   001846                     l2284:
  2991   001846  4A08               	infsnz	strncmp@l^0,f,c
  2992   001848  2A09               	incf	(strncmp@l+1)^0,f,c
  2993   00184A  4A0A               	infsnz	strncmp@r^0,f,c
  2994   00184C  2A0B               	incf	(strncmp@r+1)^0,f,c
  2995   00184E  0605               	decf	strncmp@n^0,f,c
  2996   001850  A0D8               	btfss	status,0,c
  2997   001852  0606               	decf	(strncmp@n+1)^0,f,c
  2998   001854                     l2286:
  2999   001854  C008  FFF6         	movff	strncmp@l,tblptrl
  3000   001858  C009  FFF7         	movff	strncmp@l+1,tblptrh
  3001   00185C                     	if	0	;tblptru may be non-zero
  3002   00185C                     	endif
  3003   00185C                     	if	0	;tblptru may be non-zero
  3004   00185C                     	endif
  3005   00185C  0008               	tblrd		*
  3006   00185E  50F5               	movf	tablat,w,c
  3007   001860  0900               	iorlw	0
  3008   001862  B4D8               	btfsc	status,2,c
  3009   001864  EF36  F00C         	goto	u1861
  3010   001868  EF38  F00C         	goto	u1860
  3011   00186C                     u1861:
  3012   00186C  EF64  F00C         	goto	l2294
  3013   001870                     u1860:
  3014   001870  C00A  FFF6         	movff	strncmp@r,tblptrl
  3015   001874  C00B  FFF7         	movff	strncmp@r+1,tblptrh
  3016   001878                     	if	0	;tblptru may be non-zero
  3017   001878                     	endif
  3018   001878                     	if	0	;tblptru may be non-zero
  3019   001878                     	endif
  3020   001878  0008               	tblrd		*
  3021   00187A  50F5               	movf	tablat,w,c
  3022   00187C  0900               	iorlw	0
  3023   00187E  B4D8               	btfsc	status,2,c
  3024   001880  EF44  F00C         	goto	u1871
  3025   001884  EF46  F00C         	goto	u1870
  3026   001888                     u1871:
  3027   001888  EF64  F00C         	goto	l2294
  3028   00188C                     u1870:
  3029   00188C  5005               	movf	strncmp@n^0,w,c
  3030   00188E  1006               	iorwf	(strncmp@n+1)^0,w,c
  3031   001890  B4D8               	btfsc	status,2,c
  3032   001892  EF4D  F00C         	goto	u1881
  3033   001896  EF4F  F00C         	goto	u1880
  3034   00189A                     u1881:
  3035   00189A  EF64  F00C         	goto	l2294
  3036   00189E                     u1880:
  3037   00189E  C008  FFF6         	movff	strncmp@l,tblptrl
  3038   0018A2  C009  FFF7         	movff	strncmp@l+1,tblptrh
  3039   0018A6                     	if	0	;tblptru may be non-zero
  3040   0018A6                     	endif
  3041   0018A6                     	if	0	;tblptru may be non-zero
  3042   0018A6                     	endif
  3043   0018A6  0008               	tblrd		*
  3044   0018A8  CFF5 F007          	movff	tablat,??_strncmp
  3045   0018AC  C00A  FFF6         	movff	strncmp@r,tblptrl
  3046   0018B0  C00B  FFF7         	movff	strncmp@r+1,tblptrh
  3047   0018B4                     	if	0	;tblptru may be non-zero
  3048   0018B4                     	endif
  3049   0018B4                     	if	0	;tblptru may be non-zero
  3050   0018B4                     	endif
  3051   0018B4  0008               	tblrd		*
  3052   0018B6  50F5               	movf	tablat,w,c
  3053   0018B8  1807               	xorwf	??_strncmp^0,w,c
  3054   0018BA  B4D8               	btfsc	status,2,c
  3055   0018BC  EF62  F00C         	goto	u1891
  3056   0018C0  EF64  F00C         	goto	u1890
  3057   0018C4                     u1891:
  3058   0018C4  EF23  F00C         	goto	l2284
  3059   0018C8                     u1890:
  3060   0018C8                     l2294:
  3061   0018C8  C008  FFF6         	movff	strncmp@l,tblptrl
  3062   0018CC  C009  FFF7         	movff	strncmp@l+1,tblptrh
  3063   0018D0                     	if	0	;tblptru may be non-zero
  3064   0018D0                     	endif
  3065   0018D0                     	if	0	;tblptru may be non-zero
  3066   0018D0                     	endif
  3067   0018D0  0008               	tblrd		*
  3068   0018D2  CFF5 F007          	movff	tablat,??_strncmp
  3069   0018D6  C00A  FFF6         	movff	strncmp@r,tblptrl
  3070   0018DA  C00B  FFF7         	movff	strncmp@r+1,tblptrh
  3071   0018DE                     	if	0	;tblptru may be non-zero
  3072   0018DE                     	endif
  3073   0018DE                     	if	0	;tblptru may be non-zero
  3074   0018DE                     	endif
  3075   0018DE  0008               	tblrd		*
  3076   0018E0  50F5               	movf	tablat,w,c
  3077   0018E2  5C07               	subwf	??_strncmp^0,w,c
  3078   0018E4  6E01               	movwf	?_strncmp^0,c
  3079   0018E6  6A02               	clrf	(?_strncmp+1)^0,c
  3080   0018E8  A0D8               	btfss	status,0,c
  3081   0018EA  0602               	decf	(?_strncmp+1)^0,f,c
  3082   0018EC                     l1097:
  3083   0018EC  0012               	return		;funcret
  3084   0018EE                     __end_of_strncmp:
  3085                           	callstack 0
  3086                           
  3087 ;; *************** function _stoa *****************
  3088 ;; Defined at:
  3089 ;;		line 862 in file "C:\Program Files\Microchip\xc8\v2.41\pic\sources\c99\common\doprnt.c"
  3090 ;; Parameters:    Size  Location     Type
  3091 ;;  fp              2    9[COMRAM] PTR struct _IO_FILE
  3092 ;;		 -> sprintf@f(12), 
  3093 ;;  s               2   11[COMRAM] PTR unsigned char 
  3094 ;;		 -> ?_sprintf(2), STR_3(13), STR_2(15), 
  3095 ;; Auto vars:     Size  Location     Type
  3096 ;;  nuls            7   14[COMRAM] unsigned char [7]
  3097 ;;  l               2   29[COMRAM] int 
  3098 ;;  p               2   27[COMRAM] int 
  3099 ;;  cp              2   25[COMRAM] PTR unsigned char 
  3100 ;;		 -> stoa@nuls(7), ?_sprintf(2), STR_3(13), STR_2(15), 
  3101 ;;  w               2   23[COMRAM] int 
  3102 ;;  i               2   21[COMRAM] int 
  3103 ;; Return value:  Size  Location     Type
  3104 ;;                  1    wreg      void 
  3105 ;; Registers used:
  3106 ;;		wreg, fsr1l, fsr1h, fsr2l, fsr2h, status,2, status,0, tblptrl, tblptrh, tblptru, cstack
  3107 ;; Tracked objects:
  3108 ;;		On entry : 0/0
  3109 ;;		On exit  : 0/0
  3110 ;;		Unchanged: 0/0
  3111 ;; Data sizes:     COMRAM   BANK0   BANK1   BANK2   BANK3   BANK4   BANK5
  3112 ;;      Params:         4       0       0       0       0       0       0
  3113 ;;      Locals:        17       0       0       0       0       0       0
  3114 ;;      Temps:          1       0       0       0       0       0       0
  3115 ;;      Totals:        22       0       0       0       0       0       0
  3116 ;;Total ram usage:       22 bytes
  3117 ;; Hardware stack levels used: 1
  3118 ;; Hardware stack levels required when called: 2
  3119 ;; This function calls:
  3120 ;;		_fputc
  3121 ;;		_strlen
  3122 ;; This function is called by:
  3123 ;;		_vfpfcnvrt
  3124 ;; This function uses a non-reentrant model
  3125 ;;
  3126                           
  3127                           	psect	text10
  3128   00141A                     __ptext10:
  3129                           	callstack 0
  3130   00141A                     _stoa:
  3131                           	callstack 24
  3132   00141A                     
  3133                           ;C:\Program Files\Microchip\xc8\v2.41\pic\sources\c99\common\doprnt.c: 862: static void 
      +                          stoa(FILE *fp, char *s);C:\Program Files\Microchip\xc8\v2.41\pic\sources\c99\common\dopr
      +                          nt.c: 863: {;C:\Program Files\Microchip\xc8\v2.41\pic\sources\c99\common\doprnt.c: 864: 
      +                              char *cp, nuls[] = "(null)";
  3134   00141A  EE20  F0C6         	lfsr	2,stoa@F1156
  3135   00141E  EE10  F00F         	lfsr	1,stoa@nuls
  3136   001422  0E06               	movlw	6
  3137   001424                     u1731:
  3138   001424  CFDB FFE3          	movff	plusw2,plusw1
  3139   001428  06E8               	decf	wreg,f,c
  3140   00142A  E2FC               	bc	u1731
  3141   00142C                     
  3142                           ;C:\Program Files\Microchip\xc8\v2.41\pic\sources\c99\common\doprnt.c: 865:     int i, l
      +                          , p, w;;C:\Program Files\Microchip\xc8\v2.41\pic\sources\c99\common\doprnt.c: 868:     c
      +                          p = s;
  3143   00142C  C00C  F01A         	movff	stoa@s,stoa@cp
  3144   001430  C00D  F01B         	movff	stoa@s+1,stoa@cp+1
  3145   001434                     
  3146                           ;C:\Program Files\Microchip\xc8\v2.41\pic\sources\c99\common\doprnt.c: 869:     if (!cp)
      +                           {
  3147   001434  501A               	movf	stoa@cp^0,w,c
  3148   001436  101B               	iorwf	(stoa@cp+1)^0,w,c
  3149   001438  A4D8               	btfss	status,2,c
  3150   00143A  EF21  F00A         	goto	u1741
  3151   00143E  EF23  F00A         	goto	u1740
  3152   001442                     u1741:
  3153   001442  EF27  F00A         	goto	l2232
  3154   001446                     u1740:
  3155   001446                     
  3156                           ;C:\Program Files\Microchip\xc8\v2.41\pic\sources\c99\common\doprnt.c: 870:         cp =
      +                           nuls;
  3157   001446  0E0F               	movlw	low stoa@nuls
  3158   001448  6E1A               	movwf	stoa@cp^0,c
  3159   00144A  0E00               	movlw	high stoa@nuls
  3160   00144C  6E1B               	movwf	(stoa@cp+1)^0,c
  3161   00144E                     l2232:
  3162                           
  3163                           ;C:\Program Files\Microchip\xc8\v2.41\pic\sources\c99\common\doprnt.c: 874:     l = (int
      +                          )strlen(cp);
  3164   00144E  C01A  F001         	movff	stoa@cp,strlen@s
  3165   001452  C01B  F002         	movff	stoa@cp+1,strlen@s+1
  3166   001456  EC45  F00F         	call	_strlen	;wreg free
  3167   00145A  C001  F01E         	movff	?_strlen,stoa@l
  3168   00145E  C002  F01F         	movff	?_strlen+1,stoa@l+1
  3169   001462                     
  3170                           ;C:\Program Files\Microchip\xc8\v2.41\pic\sources\c99\common\doprnt.c: 875:     p = prec
      +                          ;
  3171   001462  C066  F01C         	movff	_prec,stoa@p
  3172   001466  C067  F01D         	movff	_prec+1,stoa@p+1
  3173   00146A                     
  3174                           ;C:\Program Files\Microchip\xc8\v2.41\pic\sources\c99\common\doprnt.c: 876:     l = (!(p
      +                           < 0) && (p < l)) ? p : l;
  3175   00146A  BE1D               	btfsc	(stoa@p+1)^0,7,c
  3176   00146C  EF3A  F00A         	goto	u1751
  3177   001470  EF3C  F00A         	goto	u1750
  3178   001474                     u1751:
  3179   001474  EF51  F00A         	goto	l1007
  3180   001478                     u1750:
  3181   001478  501E               	movf	stoa@l^0,w,c
  3182   00147A  5C1C               	subwf	stoa@p^0,w,c
  3183   00147C  501D               	movf	(stoa@p+1)^0,w,c
  3184   00147E  0A80               	xorlw	128
  3185   001480  6E0E               	movwf	??_stoa^0,c
  3186   001482  501F               	movf	(stoa@l+1)^0,w,c
  3187   001484  0A80               	xorlw	128
  3188   001486  580E               	subwfb	??_stoa^0,w,c
  3189   001488  A0D8               	btfss	status,0,c
  3190   00148A  EF49  F00A         	goto	u1761
  3191   00148E  EF4B  F00A         	goto	u1760
  3192   001492                     u1761:
  3193   001492  EF4D  F00A         	goto	l1005
  3194   001496                     u1760:
  3195   001496  EF51  F00A         	goto	l1007
  3196   00149A                     l1005:
  3197   00149A  C01C  F01E         	movff	stoa@p,stoa@l
  3198   00149E  C01D  F01F         	movff	stoa@p+1,stoa@l+1
  3199   0014A2                     l1007:
  3200                           
  3201                           ;C:\Program Files\Microchip\xc8\v2.41\pic\sources\c99\common\doprnt.c: 877:     p = l;
  3202   0014A2  C01E  F01C         	movff	stoa@l,stoa@p
  3203   0014A6  C01F  F01D         	movff	stoa@l+1,stoa@p+1
  3204                           
  3205                           ;C:\Program Files\Microchip\xc8\v2.41\pic\sources\c99\common\doprnt.c: 878:     w = widt
      +                          h;
  3206   0014AA  C064  F018         	movff	_width,stoa@w
  3207   0014AE  C065  F019         	movff	_width+1,stoa@w+1
  3208                           
  3209                           ;C:\Program Files\Microchip\xc8\v2.41\pic\sources\c99\common\doprnt.c: 882:     if (!(fl
      +                          ags & (1 << 0))) {
  3210   0014B2  B05F               	btfsc	_flags^0,0,c
  3211   0014B4  EF5E  F00A         	goto	u1771
  3212   0014B8  EF60  F00A         	goto	u1770
  3213   0014BC                     u1771:
  3214   0014BC  EF7D  F00A         	goto	l2248
  3215   0014C0                     u1770:
  3216   0014C0  EF6E  F00A         	goto	l2246
  3217   0014C4                     l2242:
  3218                           
  3219                           ;C:\Program Files\Microchip\xc8\v2.41\pic\sources\c99\common\doprnt.c: 885:             
      +                          fputc(' ', fp);
  3220   0014C4  0E00               	movlw	0
  3221   0014C6  6E02               	movwf	(fputc@c+1)^0,c
  3222   0014C8  0E20               	movlw	32
  3223   0014CA  6E01               	movwf	fputc@c^0,c
  3224   0014CC  C00A  F003         	movff	stoa@fp,fputc@fp
  3225   0014D0  C00B  F004         	movff	stoa@fp+1,fputc@fp+1
  3226   0014D4  ECE5  F00C         	call	_fputc	;wreg free
  3227   0014D8                     
  3228                           ;C:\Program Files\Microchip\xc8\v2.41\pic\sources\c99\common\doprnt.c: 886:             
      +                          ++l;
  3229   0014D8  4A1E               	infsnz	stoa@l^0,f,c
  3230   0014DA  2A1F               	incf	(stoa@l+1)^0,f,c
  3231   0014DC                     l2246:
  3232                           
  3233                           ;C:\Program Files\Microchip\xc8\v2.41\pic\sources\c99\common\doprnt.c: 884:         whil
      +                          e (l < w) {
  3234   0014DC  5018               	movf	stoa@w^0,w,c
  3235   0014DE  5C1E               	subwf	stoa@l^0,w,c
  3236   0014E0  501F               	movf	(stoa@l+1)^0,w,c
  3237   0014E2  0A80               	xorlw	128
  3238   0014E4  6E0E               	movwf	??_stoa^0,c
  3239   0014E6  5019               	movf	(stoa@w+1)^0,w,c
  3240   0014E8  0A80               	xorlw	128
  3241   0014EA  580E               	subwfb	??_stoa^0,w,c
  3242   0014EC  A0D8               	btfss	status,0,c
  3243   0014EE  EF7B  F00A         	goto	u1781
  3244   0014F2  EF7D  F00A         	goto	u1780
  3245   0014F6                     u1781:
  3246   0014F6  EF62  F00A         	goto	l2242
  3247   0014FA                     u1780:
  3248   0014FA                     l2248:
  3249                           
  3250                           ;C:\Program Files\Microchip\xc8\v2.41\pic\sources\c99\common\doprnt.c: 893:     i = 0;
  3251   0014FA  0E00               	movlw	0
  3252   0014FC  6E17               	movwf	(stoa@i+1)^0,c
  3253   0014FE  0E00               	movlw	0
  3254   001500  6E16               	movwf	stoa@i^0,c
  3255                           
  3256                           ;C:\Program Files\Microchip\xc8\v2.41\pic\sources\c99\common\doprnt.c: 894:     while (i
      +                           < p) {
  3257   001502  EFA1  F00A         	goto	l2256
  3258   001506                     l2250:
  3259                           
  3260                           ;C:\Program Files\Microchip\xc8\v2.41\pic\sources\c99\common\doprnt.c: 895:         fput
      +                          c(*cp, fp);
  3261   001506  C01A  FFF6         	movff	stoa@cp,tblptrl
  3262   00150A  C01B  FFF7         	movff	stoa@cp+1,tblptrh
  3263   00150E  6AF8               	clrf	tblptru,c
  3264   001510  0E05               	movlw	(high __ramtop+-1)
  3265   001512  64F7               	cpfsgt	tblptrh,c
  3266   001514  D003               	bra	u1797
  3267   001516  0008               	tblrd		*
  3268   001518  50F5               	movf	tablat,w,c
  3269   00151A  D005               	bra	u1790
  3270   00151C                     u1797:
  3271   00151C  CFF6 FFE1          	movff	tblptrl,fsr1l
  3272   001520  CFF7 FFE2          	movff	tblptrh,fsr1h
  3273   001524  50E7               	movf	indf1,w,c
  3274   001526                     u1790:
  3275   001526  6E0E               	movwf	??_stoa^0,c
  3276   001528  500E               	movf	??_stoa^0,w,c
  3277   00152A  6E01               	movwf	fputc@c^0,c
  3278   00152C  6A02               	clrf	(fputc@c+1)^0,c
  3279   00152E  C00A  F003         	movff	stoa@fp,fputc@fp
  3280   001532  C00B  F004         	movff	stoa@fp+1,fputc@fp+1
  3281   001536  ECE5  F00C         	call	_fputc	;wreg free
  3282   00153A                     
  3283                           ;C:\Program Files\Microchip\xc8\v2.41\pic\sources\c99\common\doprnt.c: 896:         ++cp
      +                          ;
  3284   00153A  4A1A               	infsnz	stoa@cp^0,f,c
  3285   00153C  2A1B               	incf	(stoa@cp+1)^0,f,c
  3286   00153E                     
  3287                           ;C:\Program Files\Microchip\xc8\v2.41\pic\sources\c99\common\doprnt.c: 897:         ++i;
  3288   00153E  4A16               	infsnz	stoa@i^0,f,c
  3289   001540  2A17               	incf	(stoa@i+1)^0,f,c
  3290   001542                     l2256:
  3291                           
  3292                           ;C:\Program Files\Microchip\xc8\v2.41\pic\sources\c99\common\doprnt.c: 894:     while (i
      +                           < p) {
  3293   001542  501C               	movf	stoa@p^0,w,c
  3294   001544  5C16               	subwf	stoa@i^0,w,c
  3295   001546  5017               	movf	(stoa@i+1)^0,w,c
  3296   001548  0A80               	xorlw	128
  3297   00154A  6E0E               	movwf	??_stoa^0,c
  3298   00154C  501D               	movf	(stoa@p+1)^0,w,c
  3299   00154E  0A80               	xorlw	128
  3300   001550  580E               	subwfb	??_stoa^0,w,c
  3301   001552  A0D8               	btfss	status,0,c
  3302   001554  EFAE  F00A         	goto	u1801
  3303   001558  EFB0  F00A         	goto	u1800
  3304   00155C                     u1801:
  3305   00155C  EF83  F00A         	goto	l2250
  3306   001560                     u1800:
  3307   001560                     
  3308                           ;C:\Program Files\Microchip\xc8\v2.41\pic\sources\c99\common\doprnt.c: 902:     if (flag
      +                          s & (1 << 0)) {
  3309   001560  A05F               	btfss	_flags^0,0,c
  3310   001562  EFB5  F00A         	goto	u1811
  3311   001566  EFB7  F00A         	goto	u1810
  3312   00156A                     u1811:
  3313   00156A  EFD4  F00A         	goto	l1021
  3314   00156E                     u1810:
  3315   00156E  EFC5  F00A         	goto	l2264
  3316   001572                     l2260:
  3317                           
  3318                           ;C:\Program Files\Microchip\xc8\v2.41\pic\sources\c99\common\doprnt.c: 904:             
      +                          fputc(' ', fp);
  3319   001572  0E00               	movlw	0
  3320   001574  6E02               	movwf	(fputc@c+1)^0,c
  3321   001576  0E20               	movlw	32
  3322   001578  6E01               	movwf	fputc@c^0,c
  3323   00157A  C00A  F003         	movff	stoa@fp,fputc@fp
  3324   00157E  C00B  F004         	movff	stoa@fp+1,fputc@fp+1
  3325   001582  ECE5  F00C         	call	_fputc	;wreg free
  3326   001586                     
  3327                           ;C:\Program Files\Microchip\xc8\v2.41\pic\sources\c99\common\doprnt.c: 905:             
      +                          ++l;
  3328   001586  4A1E               	infsnz	stoa@l^0,f,c
  3329   001588  2A1F               	incf	(stoa@l+1)^0,f,c
  3330   00158A                     l2264:
  3331                           
  3332                           ;C:\Program Files\Microchip\xc8\v2.41\pic\sources\c99\common\doprnt.c: 903:         whil
      +                          e (l < w) {
  3333   00158A  5018               	movf	stoa@w^0,w,c
  3334   00158C  5C1E               	subwf	stoa@l^0,w,c
  3335   00158E  501F               	movf	(stoa@l+1)^0,w,c
  3336   001590  0A80               	xorlw	128
  3337   001592  6E0E               	movwf	??_stoa^0,c
  3338   001594  5019               	movf	(stoa@w+1)^0,w,c
  3339   001596  0A80               	xorlw	128
  3340   001598  580E               	subwfb	??_stoa^0,w,c
  3341   00159A  A0D8               	btfss	status,0,c
  3342   00159C  EFD2  F00A         	goto	u1821
  3343   0015A0  EFD4  F00A         	goto	u1820
  3344   0015A4                     u1821:
  3345   0015A4  EFB9  F00A         	goto	l2260
  3346   0015A8                     u1820:
  3347   0015A8                     l1021:
  3348   0015A8  0012               	return		;funcret
  3349   0015AA                     __end_of_stoa:
  3350                           	callstack 0
  3351                           
  3352 ;; *************** function _strlen *****************
  3353 ;; Defined at:
  3354 ;;		line 5 in file "C:\Program Files\Microchip\xc8\v2.41\pic\sources\c99\common\strlen.c"
  3355 ;; Parameters:    Size  Location     Type
  3356 ;;  s               2    0[COMRAM] PTR const unsigned char 
  3357 ;;		 -> stoa@nuls(7), ?_sprintf(2), STR_3(13), STR_2(15), 
  3358 ;; Auto vars:     Size  Location     Type
  3359 ;;  a               2    2[COMRAM] PTR const unsigned char 
  3360 ;;		 -> stoa@nuls(7), ?_sprintf(2), STR_3(13), STR_2(15), 
  3361 ;; Return value:  Size  Location     Type
  3362 ;;                  2    0[COMRAM] unsigned int 
  3363 ;; Registers used:
  3364 ;;		wreg, fsr1l, fsr1h, status,2, status,0, tblptrl, tblptrh, tblptru
  3365 ;; Tracked objects:
  3366 ;;		On entry : 0/0
  3367 ;;		On exit  : 0/0
  3368 ;;		Unchanged: 0/0
  3369 ;; Data sizes:     COMRAM   BANK0   BANK1   BANK2   BANK3   BANK4   BANK5
  3370 ;;      Params:         2       0       0       0       0       0       0
  3371 ;;      Locals:         2       0       0       0       0       0       0
  3372 ;;      Temps:          0       0       0       0       0       0       0
  3373 ;;      Totals:         4       0       0       0       0       0       0
  3374 ;;Total ram usage:        4 bytes
  3375 ;; Hardware stack levels used: 1
  3376 ;; This function calls:
  3377 ;;		Nothing
  3378 ;; This function is called by:
  3379 ;;		_stoa
  3380 ;; This function uses a non-reentrant model
  3381 ;;
  3382                           
  3383                           	psect	text11
  3384   001E8A                     __ptext11:
  3385                           	callstack 0
  3386   001E8A                     _strlen:
  3387                           	callstack 25
  3388   001E8A  C001  F003         	movff	strlen@s,strlen@a
  3389   001E8E  C002  F004         	movff	strlen@s+1,strlen@a+1
  3390   001E92  EF4D  F00F         	goto	l2160
  3391   001E96                     l2158:
  3392   001E96  4A01               	infsnz	strlen@s^0,f,c
  3393   001E98  2A02               	incf	(strlen@s+1)^0,f,c
  3394   001E9A                     l2160:
  3395   001E9A  C001  FFF6         	movff	strlen@s,tblptrl
  3396   001E9E  C002  FFF7         	movff	strlen@s+1,tblptrh
  3397   001EA2  6AF8               	clrf	tblptru,c
  3398   001EA4  0E05               	movlw	(high __ramtop+-1)
  3399   001EA6  64F7               	cpfsgt	tblptrh,c
  3400   001EA8  D003               	bra	u1587
  3401   001EAA  0008               	tblrd		*
  3402   001EAC  50F5               	movf	tablat,w,c
  3403   001EAE  D005               	bra	u1580
  3404   001EB0                     u1587:
  3405   001EB0  CFF6 FFE1          	movff	tblptrl,fsr1l
  3406   001EB4  CFF7 FFE2          	movff	tblptrh,fsr1h
  3407   001EB8  50E7               	movf	indf1,w,c
  3408   001EBA                     u1580:
  3409   001EBA  0900               	iorlw	0
  3410   001EBC  A4D8               	btfss	status,2,c
  3411   001EBE  EF63  F00F         	goto	u1591
  3412   001EC2  EF65  F00F         	goto	u1590
  3413   001EC6                     u1591:
  3414   001EC6  EF4B  F00F         	goto	l2158
  3415   001ECA                     u1590:
  3416   001ECA  5003               	movf	strlen@a^0,w,c
  3417   001ECC  5C01               	subwf	strlen@s^0,w,c
  3418   001ECE  6E01               	movwf	?_strlen^0,c
  3419   001ED0  5004               	movf	(strlen@a+1)^0,w,c
  3420   001ED2  5802               	subwfb	(strlen@s+1)^0,w,c
  3421   001ED4  6E02               	movwf	(?_strlen+1)^0,c
  3422   001ED6  0012               	return		;funcret
  3423   001ED8                     __end_of_strlen:
  3424                           	callstack 0
  3425                           
  3426 ;; *************** function _read_prec_or_width *****************
  3427 ;; Defined at:
  3428 ;;		line 1029 in file "C:\Program Files\Microchip\xc8\v2.41\pic\sources\c99\common\doprnt.c"
  3429 ;; Parameters:    Size  Location     Type
  3430 ;;  fmt             2    6[COMRAM] PTR PTR const unsigned c
  3431 ;;		 -> vfprintf@cfmt(2), 
  3432 ;;  ap              2    8[COMRAM] PTR PTR void [1]
  3433 ;;		 -> sprintf@ap(2), 
  3434 ;; Auto vars:     Size  Location     Type
  3435 ;;  c               1   12[COMRAM] unsigned char 
  3436 ;;  n               2   13[COMRAM] int 
  3437 ;; Return value:  Size  Location     Type
  3438 ;;                  2    6[COMRAM] int 
  3439 ;; Registers used:
  3440 ;;		wreg, fsr2l, fsr2h, status,2, status,0, tblptrl, tblptrh, tblptru, prodl, prodh, cstack
  3441 ;; Tracked objects:
  3442 ;;		On entry : 0/0
  3443 ;;		On exit  : 0/0
  3444 ;;		Unchanged: 0/0
  3445 ;; Data sizes:     COMRAM   BANK0   BANK1   BANK2   BANK3   BANK4   BANK5
  3446 ;;      Params:         4       0       0       0       0       0       0
  3447 ;;      Locals:         3       0       0       0       0       0       0
  3448 ;;      Temps:          2       0       0       0       0       0       0
  3449 ;;      Totals:         9       0       0       0       0       0       0
  3450 ;;Total ram usage:        9 bytes
  3451 ;; Hardware stack levels used: 1
  3452 ;; Hardware stack levels required when called: 1
  3453 ;; This function calls:
  3454 ;;		___wmul
  3455 ;; This function is called by:
  3456 ;;		_vfpfcnvrt
  3457 ;; This function uses a non-reentrant model
  3458 ;;
  3459                           
  3460                           	psect	text12
  3461   001A94                     __ptext12:
  3462                           	callstack 0
  3463   001A94                     _read_prec_or_width:
  3464                           	callstack 25
  3465   001A94                     
  3466                           ;C:\Program Files\Microchip\xc8\v2.41\pic\sources\c99\common\doprnt.c: 1030:     int n =
      +                           0;
  3467   001A94  0E00               	movlw	0
  3468   001A96  6E0F               	movwf	(read_prec_or_width@n+1)^0,c
  3469   001A98  0E00               	movlw	0
  3470   001A9A  6E0E               	movwf	read_prec_or_width@n^0,c
  3471   001A9C                     
  3472                           ;C:\Program Files\Microchip\xc8\v2.41\pic\sources\c99\common\doprnt.c: 1031:     if ((*f
      +                          mt)[0] == '*') {
  3473   001A9C  C007  FFD9         	movff	read_prec_or_width@fmt,fsr2l
  3474   001AA0  C008  FFDA         	movff	read_prec_or_width@fmt+1,fsr2h
  3475   001AA4  CFDE FFF6          	movff	postinc2,tblptrl
  3476   001AA8  CFDD FFF7          	movff	postdec2,tblptrh
  3477   001AAC                     	if	0	;tblptru may be non-zero
  3478   001AAC                     	endif
  3479   001AAC                     	if	0	;tblptru may be non-zero
  3480   001AAC                     	endif
  3481   001AAC  0008               	tblrd		*
  3482   001AAE  50F5               	movf	tablat,w,c
  3483   001AB0  0A2A               	xorlw	42
  3484   001AB2  A4D8               	btfss	status,2,c
  3485   001AB4  EF5E  F00D         	goto	u1831
  3486   001AB8  EF60  F00D         	goto	u1830
  3487   001ABC                     u1831:
  3488   001ABC  EF94  F00D         	goto	l2276
  3489   001AC0                     u1830:
  3490   001AC0                     
  3491                           ;C:\Program Files\Microchip\xc8\v2.41\pic\sources\c99\common\doprnt.c: 1032:         ++*
      +                          fmt;
  3492   001AC0  C007  FFD9         	movff	read_prec_or_width@fmt,fsr2l
  3493   001AC4  C008  FFDA         	movff	read_prec_or_width@fmt+1,fsr2h
  3494   001AC8  2ADE               	incf	postinc2,f,c
  3495   001ACA  0E00               	movlw	0
  3496   001ACC  22DD               	addwfc	postdec2,f,c
  3497                           
  3498                           ;C:\Program Files\Microchip\xc8\v2.41\pic\sources\c99\common\doprnt.c: 1033:         n =
      +                           (*(int *)__va_arg(*(int **)*ap, (int)0));
  3499   001ACE  C009  FFD9         	movff	read_prec_or_width@ap,fsr2l
  3500   001AD2  C00A  FFDA         	movff	read_prec_or_width@ap+1,fsr2h
  3501   001AD6  CFDF F00B          	movff	indf2,??_read_prec_or_width
  3502   001ADA  0E02               	movlw	2
  3503   001ADC  26DE               	addwf	postinc2,f,c
  3504   001ADE  CFDF F00C          	movff	indf2,??_read_prec_or_width+1
  3505   001AE2  0E00               	movlw	0
  3506   001AE4  22DD               	addwfc	postdec2,f,c
  3507   001AE6  C00B  FFD9         	movff	??_read_prec_or_width,fsr2l
  3508   001AEA  C00C  FFDA         	movff	??_read_prec_or_width+1,fsr2h
  3509   001AEE  CFDE F00E          	movff	postinc2,read_prec_or_width@n
  3510   001AF2  CFDD F00F          	movff	postdec2,read_prec_or_width@n+1
  3511                           
  3512                           ;C:\Program Files\Microchip\xc8\v2.41\pic\sources\c99\common\doprnt.c: 1034:     } else 
      +                          {
  3513   001AF6  EFA8  F00D         	goto	l1025
  3514   001AFA                     l2272:
  3515                           
  3516                           ;C:\Program Files\Microchip\xc8\v2.41\pic\sources\c99\common\doprnt.c: 1037:            
      +                           n = n * 10 + c;
  3517   001AFA  C00E  F001         	movff	read_prec_or_width@n,___wmul@multiplier
  3518   001AFE  C00F  F002         	movff	read_prec_or_width@n+1,___wmul@multiplier+1
  3519   001B02  0E00               	movlw	0
  3520   001B04  6E04               	movwf	(___wmul@multiplicand+1)^0,c
  3521   001B06  0E0A               	movlw	10
  3522   001B08  6E03               	movwf	___wmul@multiplicand^0,c
  3523   001B0A  EC40  F010         	call	___wmul	;wreg free
  3524   001B0E  500D               	movf	read_prec_or_width@c^0,w,c
  3525   001B10  2401               	addwf	?___wmul^0,w,c
  3526   001B12  6E0E               	movwf	read_prec_or_width@n^0,c
  3527   001B14  0E00               	movlw	0
  3528   001B16  2002               	addwfc	(?___wmul+1)^0,w,c
  3529   001B18  6E0F               	movwf	(read_prec_or_width@n+1)^0,c
  3530   001B1A                     
  3531                           ;C:\Program Files\Microchip\xc8\v2.41\pic\sources\c99\common\doprnt.c: 1038:            
      +                           ++*fmt;
  3532   001B1A  C007  FFD9         	movff	read_prec_or_width@fmt,fsr2l
  3533   001B1E  C008  FFDA         	movff	read_prec_or_width@fmt+1,fsr2h
  3534   001B22  2ADE               	incf	postinc2,f,c
  3535   001B24  0E00               	movlw	0
  3536   001B26  22DD               	addwfc	postdec2,f,c
  3537   001B28                     l2276:
  3538                           
  3539                           ;C:\Program Files\Microchip\xc8\v2.41\pic\sources\c99\common\doprnt.c: 1036:         whi
      +                          le ((c = ((unsigned)(*fmt)[0]) - '0') < 10) {
  3540   001B28  C007  FFD9         	movff	read_prec_or_width@fmt,fsr2l
  3541   001B2C  C008  FFDA         	movff	read_prec_or_width@fmt+1,fsr2h
  3542   001B30  CFDE FFF6          	movff	postinc2,tblptrl
  3543   001B34  CFDD FFF7          	movff	postdec2,tblptrh
  3544   001B38                     	if	0	;tblptru may be non-zero
  3545   001B38                     	endif
  3546   001B38                     	if	0	;tblptru may be non-zero
  3547   001B38                     	endif
  3548   001B38  0008               	tblrd		*
  3549   001B3A  50F5               	movf	tablat,w,c
  3550   001B3C  0FD0               	addlw	208
  3551   001B3E  6E0D               	movwf	read_prec_or_width@c^0,c
  3552   001B40  0E09               	movlw	9
  3553   001B42  640D               	cpfsgt	read_prec_or_width@c^0,c
  3554   001B44  EFA6  F00D         	goto	u1841
  3555   001B48  EFA8  F00D         	goto	u1840
  3556   001B4C                     u1841:
  3557   001B4C  EF7D  F00D         	goto	l2272
  3558   001B50                     u1840:
  3559   001B50                     l1025:
  3560                           
  3561                           ;C:\Program Files\Microchip\xc8\v2.41\pic\sources\c99\common\doprnt.c: 1041:     return 
      +                          n;
  3562   001B50  C00E  F007         	movff	read_prec_or_width@n,?_read_prec_or_width
  3563   001B54  C00F  F008         	movff	read_prec_or_width@n+1,?_read_prec_or_width+1
  3564   001B58  0012               	return		;funcret
  3565   001B5A                     __end_of_read_prec_or_width:
  3566                           	callstack 0
  3567                           
  3568 ;; *************** function ___wmul *****************
  3569 ;; Defined at:
  3570 ;;		line 15 in file "C:\Program Files\Microchip\xc8\v2.41\pic\sources\c99\common\Umul16.c"
  3571 ;; Parameters:    Size  Location     Type
  3572 ;;  multiplier      2    0[COMRAM] unsigned int 
  3573 ;;  multiplicand    2    2[COMRAM] unsigned int 
  3574 ;; Auto vars:     Size  Location     Type
  3575 ;;  product         2    4[COMRAM] unsigned int 
  3576 ;; Return value:  Size  Location     Type
  3577 ;;                  2    0[COMRAM] unsigned int 
  3578 ;; Registers used:
  3579 ;;		wreg, status,2, status,0, prodl, prodh
  3580 ;; Tracked objects:
  3581 ;;		On entry : 0/0
  3582 ;;		On exit  : 0/0
  3583 ;;		Unchanged: 0/0
  3584 ;; Data sizes:     COMRAM   BANK0   BANK1   BANK2   BANK3   BANK4   BANK5
  3585 ;;      Params:         4       0       0       0       0       0       0
  3586 ;;      Locals:         2       0       0       0       0       0       0
  3587 ;;      Temps:          0       0       0       0       0       0       0
  3588 ;;      Totals:         6       0       0       0       0       0       0
  3589 ;;Total ram usage:        6 bytes
  3590 ;; Hardware stack levels used: 1
  3591 ;; This function calls:
  3592 ;;		Nothing
  3593 ;; This function is called by:
  3594 ;;		_UART_Positive_Negative_Tempreture_Output
  3595 ;;		_read_prec_or_width
  3596 ;; This function uses a non-reentrant model
  3597 ;;
  3598                           
  3599                           	psect	text13
  3600   002080                     __ptext13:
  3601                           	callstack 0
  3602   002080                     ___wmul:
  3603                           	callstack 25
  3604   002080  5001               	movf	___wmul@multiplier^0,w,c
  3605   002082  0203               	mulwf	___wmul@multiplicand^0,c
  3606   002084  CFF3 F005          	movff	prodl,___wmul@product
  3607   002088  CFF4 F006          	movff	prodh,___wmul@product+1
  3608   00208C  5001               	movf	___wmul@multiplier^0,w,c
  3609   00208E  0204               	mulwf	(___wmul@multiplicand+1)^0,c
  3610   002090  50F3               	movf	243,w,c
  3611   002092  2606               	addwf	(___wmul@product+1)^0,f,c
  3612   002094  5002               	movf	(___wmul@multiplier+1)^0,w,c
  3613   002096  0203               	mulwf	___wmul@multiplicand^0,c
  3614   002098  50F3               	movf	243,w,c
  3615   00209A  2606               	addwf	(___wmul@product+1)^0,f,c
  3616   00209C  C005  F001         	movff	___wmul@product,?___wmul
  3617   0020A0  C006  F002         	movff	___wmul@product+1,?___wmul+1
  3618   0020A4  0012               	return		;funcret
  3619   0020A6                     __end_of___wmul:
  3620                           	callstack 0
  3621                           
  3622 ;; *************** function _dtoa *****************
  3623 ;; Defined at:
  3624 ;;		line 470 in file "C:\Program Files\Microchip\xc8\v2.41\pic\sources\c99\common\doprnt.c"
  3625 ;; Parameters:    Size  Location     Type
  3626 ;;  fp              2   27[COMRAM] PTR struct _IO_FILE
  3627 ;;		 -> sprintf@f(12), 
  3628 ;;  d               2   29[COMRAM] int 
  3629 ;; Auto vars:     Size  Location     Type
  3630 ;;  i               2   37[COMRAM] int 
  3631 ;;  w               2   35[COMRAM] int 
  3632 ;;  p               2   33[COMRAM] int 
  3633 ;;  s               1   39[COMRAM] unsigned char 
  3634 ;; Return value:  Size  Location     Type
  3635 ;;                  1    wreg      void 
  3636 ;; Registers used:
  3637 ;;		wreg, fsr1l, fsr1h, fsr2l, fsr2h, status,2, status,0, cstack
  3638 ;; Tracked objects:
  3639 ;;		On entry : 0/0
  3640 ;;		On exit  : 0/0
  3641 ;;		Unchanged: 0/0
  3642 ;; Data sizes:     COMRAM   BANK0   BANK1   BANK2   BANK3   BANK4   BANK5
  3643 ;;      Params:         4       0       0       0       0       0       0
  3644 ;;      Locals:         9       0       0       0       0       0       0
  3645 ;;      Temps:          0       0       0       0       0       0       0
  3646 ;;      Totals:        13       0       0       0       0       0       0
  3647 ;;Total ram usage:       13 bytes
  3648 ;; Hardware stack levels used: 1
  3649 ;; Hardware stack levels required when called: 4
  3650 ;; This function calls:
  3651 ;;		___awdiv
  3652 ;;		___awmod
  3653 ;;		_abs
  3654 ;;		_pad
  3655 ;; This function is called by:
  3656 ;;		_vfpfcnvrt
  3657 ;; This function uses a non-reentrant model
  3658 ;;
  3659                           
  3660                           	psect	text14
  3661   00109A                     __ptext14:
  3662                           	callstack 0
  3663   00109A                     _dtoa:
  3664                           	callstack 22
  3665   00109A                     
  3666                           ;C:\Program Files\Microchip\xc8\v2.41\pic\sources\c99\common\doprnt.c: 470: static void 
      +                          dtoa(FILE *fp, vfpf_sint_t d);C:\Program Files\Microchip\xc8\v2.41\pic\sources\c99\commo
      +                          n\doprnt.c: 471: {;C:\Program Files\Microchip\xc8\v2.41\pic\sources\c99\common\doprnt.c:
      +                           472:  char s;;C:\Program Files\Microchip\xc8\v2.41\pic\sources\c99\common\doprnt.c: 473
      +                          :     int i, p, w;;C:\Program Files\Microchip\xc8\v2.41\pic\sources\c99\common\doprnt.c:
      +                           476:     s = d < 0 ? 1 : 0;
  3667   00109A  BE1F               	btfsc	(dtoa@d+1)^0,7,c
  3668   00109C  EF52  F008         	goto	u1601
  3669   0010A0  EF55  F008         	goto	u1600
  3670   0010A4                     u1601:
  3671   0010A4  0E01               	movlw	1
  3672   0010A6  EF56  F008         	goto	u1610
  3673   0010AA                     u1600:
  3674   0010AA  0E00               	movlw	0
  3675   0010AC                     u1610:
  3676   0010AC  6E28               	movwf	dtoa@s^0,c
  3677   0010AE                     
  3678                           ;C:\Program Files\Microchip\xc8\v2.41\pic\sources\c99\common\doprnt.c: 477:     if (s) {
  3679   0010AE  5028               	movf	dtoa@s^0,w,c
  3680   0010B0  B4D8               	btfsc	status,2,c
  3681   0010B2  EF5D  F008         	goto	u1621
  3682   0010B6  EF5F  F008         	goto	u1620
  3683   0010BA                     u1621:
  3684   0010BA  EF63  F008         	goto	l2172
  3685   0010BE                     u1620:
  3686   0010BE                     
  3687                           ;C:\Program Files\Microchip\xc8\v2.41\pic\sources\c99\common\doprnt.c: 478:         d = 
      +                          -d;
  3688   0010BE  6C1E               	negf	dtoa@d^0,c
  3689   0010C0  1E1F               	comf	(dtoa@d+1)^0,f,c
  3690   0010C2  B0D8               	btfsc	status,0,c
  3691   0010C4  2A1F               	incf	(dtoa@d+1)^0,f,c
  3692   0010C6                     l2172:
  3693                           
  3694                           ;C:\Program Files\Microchip\xc8\v2.41\pic\sources\c99\common\doprnt.c: 483:     if (!(pr
      +                          ec < 0)) {
  3695   0010C6  0100               	movlb	0	; () banked
  3696   0010C8  BF67               	btfsc	(_prec+1)& (0+255),7,b
  3697   0010CA  EF69  F008         	goto	u1631
  3698   0010CE  EF6B  F008         	goto	u1630
  3699   0010D2                     u1631:
  3700   0010D2  EF6C  F008         	goto	l2176
  3701   0010D6                     u1630:
  3702   0010D6                     
  3703                           ; BSR set to: 0
  3704                           ;C:\Program Files\Microchip\xc8\v2.41\pic\sources\c99\common\doprnt.c: 484:         flag
      +                          s &= ~(1 << 1);
  3705   0010D6  925F               	bcf	_flags^0,1,c
  3706   0010D8                     l2176:
  3707                           
  3708                           ; BSR set to: 0
  3709                           ;C:\Program Files\Microchip\xc8\v2.41\pic\sources\c99\common\doprnt.c: 487:     p = (0 <
      +                          = prec) ? prec : 1;
  3710   0010D8  BF67               	btfsc	(_prec+1)& (0+255),7,b
  3711   0010DA  EF73  F008         	goto	u1640
  3712   0010DE  EF71  F008         	goto	u1641
  3713   0010E2                     u1641:
  3714   0010E2  EF79  F008         	goto	l982
  3715   0010E6                     u1640:
  3716   0010E6                     
  3717                           ; BSR set to: 0
  3718   0010E6  0E00               	movlw	0
  3719   0010E8  6E23               	movwf	(dtoa@p+1)^0,c
  3720   0010EA  0E01               	movlw	1
  3721   0010EC  6E22               	movwf	dtoa@p^0,c
  3722   0010EE  EF7D  F008         	goto	l984
  3723   0010F2                     l982:
  3724                           
  3725                           ; BSR set to: 0
  3726   0010F2  C066  F022         	movff	_prec,dtoa@p
  3727   0010F6  C067  F023         	movff	_prec+1,dtoa@p+1
  3728   0010FA                     l984:
  3729                           
  3730                           ; BSR set to: 0
  3731                           ;C:\Program Files\Microchip\xc8\v2.41\pic\sources\c99\common\doprnt.c: 488:     w = widt
      +                          h;
  3732   0010FA  C064  F024         	movff	_width,dtoa@w
  3733   0010FE  C065  F025         	movff	_width+1,dtoa@w+1
  3734   001102                     
  3735                           ; BSR set to: 0
  3736                           ;C:\Program Files\Microchip\xc8\v2.41\pic\sources\c99\common\doprnt.c: 489:     if (s
  3737   001102  5028               	movf	dtoa@s^0,w,c
  3738   001104  B4D8               	btfsc	status,2,c
  3739   001106  EF87  F008         	goto	u1651
  3740   00110A  EF89  F008         	goto	u1650
  3741   00110E                     u1651:
  3742   00110E  EFA0  F008         	goto	l985
  3743   001112                     u1650:
  3744   001112                     
  3745                           ; BSR set to: 0
  3746                           ;C:\Program Files\Microchip\xc8\v2.41\pic\sources\c99\common\doprnt.c: 493:     ) {;C:\P
      +                          rogram Files\Microchip\xc8\v2.41\pic\sources\c99\common\doprnt.c: 494:         --w;
  3747   001112  0624               	decf	dtoa@w^0,f,c
  3748   001114  A0D8               	btfss	status,0,c
  3749   001116  0625               	decf	(dtoa@w+1)^0,f,c
  3750   001118                     
  3751                           ; BSR set to: 0
  3752                           ;C:\Program Files\Microchip\xc8\v2.41\pic\sources\c99\common\doprnt.c: 495:   s = s ? '-
      +                          ' : '+';
  3753   001118  5028               	movf	dtoa@s^0,w,c
  3754   00111A  A4D8               	btfss	status,2,c
  3755   00111C  EF92  F008         	goto	u1661
  3756   001120  EF94  F008         	goto	u1660
  3757   001124                     u1661:
  3758   001124  EF9A  F008         	goto	l2188
  3759   001128                     u1660:
  3760   001128                     
  3761                           ; BSR set to: 0
  3762   001128  0E00               	movlw	0
  3763   00112A  6E21               	movwf	(_dtoa$1177+1)^0,c
  3764   00112C  0E2B               	movlw	43
  3765   00112E  6E20               	movwf	_dtoa$1177^0,c
  3766   001130  EF9E  F008         	goto	l2190
  3767   001134                     l2188:
  3768                           
  3769                           ; BSR set to: 0
  3770   001134  0E00               	movlw	0
  3771   001136  6E21               	movwf	(_dtoa$1177+1)^0,c
  3772   001138  0E2D               	movlw	45
  3773   00113A  6E20               	movwf	_dtoa$1177^0,c
  3774   00113C                     l2190:
  3775                           
  3776                           ; BSR set to: 0
  3777   00113C  C020  F028         	movff	_dtoa$1177,dtoa@s
  3778   001140                     l985:
  3779                           
  3780                           ; BSR set to: 0
  3781                           ;C:\Program Files\Microchip\xc8\v2.41\pic\sources\c99\common\doprnt.c: 505:     i = size
      +                          of(dbuf) - 1;
  3782   001140  0E00               	movlw	0
  3783   001142  6E27               	movwf	(dtoa@i+1)^0,c
  3784   001144  0E1F               	movlw	31
  3785   001146  6E26               	movwf	dtoa@i^0,c
  3786   001148                     
  3787                           ; BSR set to: 0
  3788                           ;C:\Program Files\Microchip\xc8\v2.41\pic\sources\c99\common\doprnt.c: 506:     dbuf[i] 
      +                          = '\0';
  3789   001148  0E00               	movlw	0
  3790   00114A  6FC5               	movwf	(_dbuf+31)& (0+255),b
  3791                           
  3792                           ;C:\Program Files\Microchip\xc8\v2.41\pic\sources\c99\common\doprnt.c: 507:     while (!
      +                          (i < 1) && (d || (0 < p)
  3793   00114C  EFD8  F008         	goto	l2204
  3794   001150                     l2194:
  3795                           
  3796                           ;C:\Program Files\Microchip\xc8\v2.41\pic\sources\c99\common\doprnt.c: 511:     )) {;C:\
      +                          Program Files\Microchip\xc8\v2.41\pic\sources\c99\common\doprnt.c: 512:         --i;
  3797   001150  0626               	decf	dtoa@i^0,f,c
  3798   001152  A0D8               	btfss	status,0,c
  3799   001154  0627               	decf	(dtoa@i+1)^0,f,c
  3800   001156                     
  3801                           ;C:\Program Files\Microchip\xc8\v2.41\pic\sources\c99\common\doprnt.c: 513:         dbuf
      +                          [i] = (char)((int)'0' + abs(d % 10));
  3802   001156  0EA6               	movlw	low _dbuf
  3803   001158  2426               	addwf	dtoa@i^0,w,c
  3804   00115A  6ED9               	movwf	fsr2l,c
  3805   00115C  0E00               	movlw	high _dbuf
  3806   00115E  2027               	addwfc	(dtoa@i+1)^0,w,c
  3807   001160  6EDA               	movwf	fsr2h,c
  3808   001162  C01E  F001         	movff	dtoa@d,___awmod@dividend
  3809   001166  C01F  F002         	movff	dtoa@d+1,___awmod@dividend+1
  3810   00116A  0E00               	movlw	0
  3811   00116C  6E04               	movwf	(___awmod@divisor+1)^0,c
  3812   00116E  0E0A               	movlw	10
  3813   001170  6E03               	movwf	___awmod@divisor^0,c
  3814   001172  EC0F  F00E         	call	___awmod	;wreg free
  3815   001176  C001  F007         	movff	?___awmod,abs@a
  3816   00117A  C002  F008         	movff	?___awmod+1,abs@a+1
  3817   00117E  ECB4  F00F         	call	_abs	;wreg free
  3818   001182  5007               	movf	?_abs^0,w,c
  3819   001184  0F30               	addlw	48
  3820   001186  6EDF               	movwf	indf2,c
  3821   001188                     
  3822                           ;C:\Program Files\Microchip\xc8\v2.41\pic\sources\c99\common\doprnt.c: 514:         --p;
  3823   001188  0622               	decf	dtoa@p^0,f,c
  3824   00118A  A0D8               	btfss	status,0,c
  3825   00118C  0623               	decf	(dtoa@p+1)^0,f,c
  3826   00118E                     
  3827                           ;C:\Program Files\Microchip\xc8\v2.41\pic\sources\c99\common\doprnt.c: 515:         --w;
  3828   00118E  0624               	decf	dtoa@w^0,f,c
  3829   001190  A0D8               	btfss	status,0,c
  3830   001192  0625               	decf	(dtoa@w+1)^0,f,c
  3831   001194                     
  3832                           ;C:\Program Files\Microchip\xc8\v2.41\pic\sources\c99\common\doprnt.c: 516:         d = 
      +                          d / 10;
  3833   001194  C01E  F007         	movff	dtoa@d,___awdiv@dividend
  3834   001198  C01F  F008         	movff	dtoa@d+1,___awdiv@dividend+1
  3835   00119C  0E00               	movlw	0
  3836   00119E  6E0A               	movwf	(___awdiv@divisor+1)^0,c
  3837   0011A0  0E0A               	movlw	10
  3838   0011A2  6E09               	movwf	___awdiv@divisor^0,c
  3839   0011A4  ECAD  F00D         	call	___awdiv	;wreg free
  3840   0011A8  C007  F01E         	movff	?___awdiv,dtoa@d
  3841   0011AC  C008  F01F         	movff	?___awdiv+1,dtoa@d+1
  3842   0011B0                     l2204:
  3843                           
  3844                           ;C:\Program Files\Microchip\xc8\v2.41\pic\sources\c99\common\doprnt.c: 507:     while (!
      +                          (i < 1) && (d || (0 < p)
  3845   0011B0  BE27               	btfsc	(dtoa@i+1)^0,7,c
  3846   0011B2  EFE3  F008         	goto	u1671
  3847   0011B6  5027               	movf	(dtoa@i+1)^0,w,c
  3848   0011B8  E108               	bnz	u1670
  3849   0011BA  0426               	decf	dtoa@i^0,w,c
  3850   0011BC  A0D8               	btfss	status,0,c
  3851   0011BE  EFE3  F008         	goto	u1671
  3852   0011C2  EFE5  F008         	goto	u1670
  3853   0011C6                     u1671:
  3854   0011C6  EF0F  F009         	goto	l2214
  3855   0011CA                     u1670:
  3856   0011CA  501E               	movf	dtoa@d^0,w,c
  3857   0011CC  101F               	iorwf	(dtoa@d+1)^0,w,c
  3858   0011CE  A4D8               	btfss	status,2,c
  3859   0011D0  EFEC  F008         	goto	u1681
  3860   0011D4  EFEE  F008         	goto	u1680
  3861   0011D8                     u1681:
  3862   0011D8  EFA8  F008         	goto	l2194
  3863   0011DC                     u1680:
  3864   0011DC  BE23               	btfsc	(dtoa@p+1)^0,7,c
  3865   0011DE  EFFB  F008         	goto	u1690
  3866   0011E2  5023               	movf	(dtoa@p+1)^0,w,c
  3867   0011E4  E106               	bnz	u1691
  3868   0011E6  0422               	decf	dtoa@p^0,w,c
  3869   0011E8  B0D8               	btfsc	status,0,c
  3870   0011EA  EFF9  F008         	goto	u1691
  3871   0011EE  EFFB  F008         	goto	u1690
  3872   0011F2                     u1691:
  3873   0011F2  EFA8  F008         	goto	l2194
  3874   0011F6                     u1690:
  3875   0011F6  BE25               	btfsc	(dtoa@w+1)^0,7,c
  3876   0011F8  EF06  F009         	goto	u1701
  3877   0011FC  5025               	movf	(dtoa@w+1)^0,w,c
  3878   0011FE  E108               	bnz	u1700
  3879   001200  0424               	decf	dtoa@w^0,w,c
  3880   001202  A0D8               	btfss	status,0,c
  3881   001204  EF06  F009         	goto	u1701
  3882   001208  EF08  F009         	goto	u1700
  3883   00120C                     u1701:
  3884   00120C  EF0F  F009         	goto	l2214
  3885   001210                     u1700:
  3886   001210  B25F               	btfsc	_flags^0,1,c
  3887   001212  EF0D  F009         	goto	u1711
  3888   001216  EF0F  F009         	goto	u1710
  3889   00121A                     u1711:
  3890   00121A  EFA8  F008         	goto	l2194
  3891   00121E                     u1710:
  3892   00121E                     l2214:
  3893                           
  3894                           ;C:\Program Files\Microchip\xc8\v2.41\pic\sources\c99\common\doprnt.c: 520:     if (s !=
      +                           0) {
  3895   00121E  5028               	movf	dtoa@s^0,w,c
  3896   001220  B4D8               	btfsc	status,2,c
  3897   001222  EF15  F009         	goto	u1721
  3898   001226  EF17  F009         	goto	u1720
  3899   00122A                     u1721:
  3900   00122A  EF22  F009         	goto	l2220
  3901   00122E                     u1720:
  3902   00122E                     
  3903                           ;C:\Program Files\Microchip\xc8\v2.41\pic\sources\c99\common\doprnt.c: 521:         --i;
  3904   00122E  0626               	decf	dtoa@i^0,f,c
  3905   001230  A0D8               	btfss	status,0,c
  3906   001232  0627               	decf	(dtoa@i+1)^0,f,c
  3907   001234                     
  3908                           ;C:\Program Files\Microchip\xc8\v2.41\pic\sources\c99\common\doprnt.c: 522:         dbuf
      +                          [i] = s;
  3909   001234  0EA6               	movlw	low _dbuf
  3910   001236  2426               	addwf	dtoa@i^0,w,c
  3911   001238  6ED9               	movwf	fsr2l,c
  3912   00123A  0E00               	movlw	high _dbuf
  3913   00123C  2027               	addwfc	(dtoa@i+1)^0,w,c
  3914   00123E  6EDA               	movwf	fsr2h,c
  3915   001240  C028  FFDF         	movff	dtoa@s,indf2
  3916   001244                     l2220:
  3917                           
  3918                           ;C:\Program Files\Microchip\xc8\v2.41\pic\sources\c99\common\doprnt.c: 526:     return (
      +                          void) pad(fp, &dbuf[i], w);
  3919   001244  C01C  F011         	movff	dtoa@fp,pad@fp
  3920   001248  C01D  F012         	movff	dtoa@fp+1,pad@fp+1
  3921   00124C  0EA6               	movlw	low _dbuf
  3922   00124E  2426               	addwf	dtoa@i^0,w,c
  3923   001250  6E13               	movwf	pad@buf^0,c
  3924   001252  0E00               	movlw	high _dbuf
  3925   001254  2027               	addwfc	(dtoa@i+1)^0,w,c
  3926   001256  6E14               	movwf	(pad@buf+1)^0,c
  3927   001258  C024  F015         	movff	dtoa@w,pad@p
  3928   00125C  C025  F016         	movff	dtoa@w+1,pad@p+1
  3929   001260  EC67  F00E         	call	_pad	;wreg free
  3930   001264  0012               	return		;funcret
  3931   001266                     __end_of_dtoa:
  3932                           	callstack 0
  3933                           
  3934 ;; *************** function _pad *****************
  3935 ;; Defined at:
  3936 ;;		line 152 in file "C:\Program Files\Microchip\xc8\v2.41\pic\sources\c99\common\doprnt.c"
  3937 ;; Parameters:    Size  Location     Type
  3938 ;;  fp              2   16[COMRAM] PTR struct _IO_FILE
  3939 ;;		 -> sprintf@f(12), 
  3940 ;;  buf             2   18[COMRAM] PTR unsigned char 
  3941 ;;		 -> dbuf(32), 
  3942 ;;  p               2   20[COMRAM] int 
  3943 ;; Auto vars:     Size  Location     Type
  3944 ;;  w               2   25[COMRAM] int 
  3945 ;;  i               2   23[COMRAM] int 
  3946 ;; Return value:  Size  Location     Type
  3947 ;;                  1    wreg      void 
  3948 ;; Registers used:
  3949 ;;		wreg, fsr1l, fsr1h, fsr2l, fsr2h, status,2, status,0, cstack
  3950 ;; Tracked objects:
  3951 ;;		On entry : 0/0
  3952 ;;		On exit  : 0/0
  3953 ;;		Unchanged: 0/0
  3954 ;; Data sizes:     COMRAM   BANK0   BANK1   BANK2   BANK3   BANK4   BANK5
  3955 ;;      Params:         6       0       0       0       0       0       0
  3956 ;;      Locals:         4       0       0       0       0       0       0
  3957 ;;      Temps:          1       0       0       0       0       0       0
  3958 ;;      Totals:        11       0       0       0       0       0       0
  3959 ;;Total ram usage:       11 bytes
  3960 ;; Hardware stack levels used: 1
  3961 ;; Hardware stack levels required when called: 3
  3962 ;; This function calls:
  3963 ;;		_fputc
  3964 ;;		_fputs
  3965 ;; This function is called by:
  3966 ;;		_dtoa
  3967 ;; This function uses a non-reentrant model
  3968 ;;
  3969                           
  3970                           	psect	text15
  3971   001CCE                     __ptext15:
  3972                           	callstack 0
  3973   001CCE                     _pad:
  3974                           	callstack 22
  3975   001CCE                     
  3976                           ;C:\Program Files\Microchip\xc8\v2.41\pic\sources\c99\common\doprnt.c: 152: static void 
      +                          pad(FILE *fp, char *buf, int p);C:\Program Files\Microchip\xc8\v2.41\pic\sources\c99\com
      +                          mon\doprnt.c: 153: {;C:\Program Files\Microchip\xc8\v2.41\pic\sources\c99\common\doprnt.
      +                          c: 154:     int i, w;;C:\Program Files\Microchip\xc8\v2.41\pic\sources\c99\common\doprnt
      +                          .c: 158:     if (flags & (1 << 0)) {
  3977   001CCE  A05F               	btfss	_flags^0,0,c
  3978   001CD0  EF6C  F00E         	goto	u1531
  3979   001CD4  EF6E  F00E         	goto	u1530
  3980   001CD8                     u1531:
  3981   001CD8  EF78  F00E         	goto	l2138
  3982   001CDC                     u1530:
  3983   001CDC                     
  3984                           ;C:\Program Files\Microchip\xc8\v2.41\pic\sources\c99\common\doprnt.c: 159:         fput
      +                          s((const char *)buf, fp);
  3985   001CDC  C013  F00A         	movff	pad@buf,fputs@s
  3986   001CE0  C014  F00B         	movff	pad@buf+1,fputs@s+1
  3987   001CE4  C011  F00C         	movff	pad@fp,fputs@fp
  3988   001CE8  C012  F00D         	movff	pad@fp+1,fputs@fp+1
  3989   001CEC  EC92  F00F         	call	_fputs	;wreg free
  3990   001CF0                     l2138:
  3991                           
  3992                           ;C:\Program Files\Microchip\xc8\v2.41\pic\sources\c99\common\doprnt.c: 164:     w = (p <
      +                           0) ? 0 : p;
  3993   001CF0  BE16               	btfsc	(pad@p+1)^0,7,c
  3994   001CF2  EF7D  F00E         	goto	u1541
  3995   001CF6  EF7F  F00E         	goto	u1540
  3996   001CFA                     u1541:
  3997   001CFA  EF85  F00E         	goto	l2142
  3998   001CFE                     u1540:
  3999   001CFE  C015  F01A         	movff	pad@p,pad@w
  4000   001D02  C016  F01B         	movff	pad@p+1,pad@w+1
  4001   001D06  EF89  F00E         	goto	l971
  4002   001D0A                     l2142:
  4003   001D0A  0E00               	movlw	0
  4004   001D0C  6E1B               	movwf	(pad@w+1)^0,c
  4005   001D0E  0E00               	movlw	0
  4006   001D10  6E1A               	movwf	pad@w^0,c
  4007   001D12                     l971:
  4008                           
  4009                           ;C:\Program Files\Microchip\xc8\v2.41\pic\sources\c99\common\doprnt.c: 165:     i = 0;
  4010   001D12  0E00               	movlw	0
  4011   001D14  6E19               	movwf	(pad@i+1)^0,c
  4012   001D16  0E00               	movlw	0
  4013   001D18  6E18               	movwf	pad@i^0,c
  4014                           
  4015                           ;C:\Program Files\Microchip\xc8\v2.41\pic\sources\c99\common\doprnt.c: 166:     while (i
      +                           < w) {
  4016   001D1A  EF9B  F00E         	goto	l2148
  4017   001D1E                     l2144:
  4018                           
  4019                           ;C:\Program Files\Microchip\xc8\v2.41\pic\sources\c99\common\doprnt.c: 167:         fput
      +                          c(' ', fp);
  4020   001D1E  0E00               	movlw	0
  4021   001D20  6E02               	movwf	(fputc@c+1)^0,c
  4022   001D22  0E20               	movlw	32
  4023   001D24  6E01               	movwf	fputc@c^0,c
  4024   001D26  C011  F003         	movff	pad@fp,fputc@fp
  4025   001D2A  C012  F004         	movff	pad@fp+1,fputc@fp+1
  4026   001D2E  ECE5  F00C         	call	_fputc	;wreg free
  4027   001D32                     
  4028                           ;C:\Program Files\Microchip\xc8\v2.41\pic\sources\c99\common\doprnt.c: 168:         ++i;
  4029   001D32  4A18               	infsnz	pad@i^0,f,c
  4030   001D34  2A19               	incf	(pad@i+1)^0,f,c
  4031   001D36                     l2148:
  4032                           
  4033                           ;C:\Program Files\Microchip\xc8\v2.41\pic\sources\c99\common\doprnt.c: 166:     while (i
      +                           < w) {
  4034   001D36  501A               	movf	pad@w^0,w,c
  4035   001D38  5C18               	subwf	pad@i^0,w,c
  4036   001D3A  5019               	movf	(pad@i+1)^0,w,c
  4037   001D3C  0A80               	xorlw	128
  4038   001D3E  6E17               	movwf	??_pad^0,c
  4039   001D40  501B               	movf	(pad@w+1)^0,w,c
  4040   001D42  0A80               	xorlw	128
  4041   001D44  5817               	subwfb	??_pad^0,w,c
  4042   001D46  A0D8               	btfss	status,0,c
  4043   001D48  EFA8  F00E         	goto	u1551
  4044   001D4C  EFAA  F00E         	goto	u1550
  4045   001D50                     u1551:
  4046   001D50  EF8F  F00E         	goto	l2144
  4047   001D54                     u1550:
  4048   001D54                     
  4049                           ;C:\Program Files\Microchip\xc8\v2.41\pic\sources\c99\common\doprnt.c: 173:     if (!(fl
      +                          ags & (1 << 0))) {
  4050   001D54  B05F               	btfsc	_flags^0,0,c
  4051   001D56  EFAF  F00E         	goto	u1561
  4052   001D5A  EFB1  F00E         	goto	u1560
  4053   001D5E                     u1561:
  4054   001D5E  EFBB  F00E         	goto	l976
  4055   001D62                     u1560:
  4056   001D62                     
  4057                           ;C:\Program Files\Microchip\xc8\v2.41\pic\sources\c99\common\doprnt.c: 175:         fput
      +                          s((const char *)buf, fp);
  4058   001D62  C013  F00A         	movff	pad@buf,fputs@s
  4059   001D66  C014  F00B         	movff	pad@buf+1,fputs@s+1
  4060   001D6A  C011  F00C         	movff	pad@fp,fputs@fp
  4061   001D6E  C012  F00D         	movff	pad@fp+1,fputs@fp+1
  4062   001D72  EC92  F00F         	call	_fputs	;wreg free
  4063   001D76                     l976:
  4064   001D76  0012               	return		;funcret
  4065   001D78                     __end_of_pad:
  4066                           	callstack 0
  4067                           
  4068 ;; *************** function _fputs *****************
  4069 ;; Defined at:
  4070 ;;		line 8 in file "C:\Program Files\Microchip\xc8\v2.41\pic\sources\c99\common\nf_fputs.c"
  4071 ;; Parameters:    Size  Location     Type
  4072 ;;  s               2    9[COMRAM] PTR const unsigned char 
  4073 ;;		 -> dbuf(32), 
  4074 ;;  fp              2   11[COMRAM] PTR struct _IO_FILE
  4075 ;;		 -> sprintf@f(12), 
  4076 ;; Auto vars:     Size  Location     Type
  4077 ;;  i               2   14[COMRAM] int 
  4078 ;;  c               1   13[COMRAM] unsigned char 
  4079 ;; Return value:  Size  Location     Type
  4080 ;;                  2    9[COMRAM] int 
  4081 ;; Registers used:
  4082 ;;		wreg, fsr1l, fsr1h, fsr2l, fsr2h, status,2, status,0, cstack
  4083 ;; Tracked objects:
  4084 ;;		On entry : 0/0
  4085 ;;		On exit  : 0/0
  4086 ;;		Unchanged: 0/0
  4087 ;; Data sizes:     COMRAM   BANK0   BANK1   BANK2   BANK3   BANK4   BANK5
  4088 ;;      Params:         4       0       0       0       0       0       0
  4089 ;;      Locals:         3       0       0       0       0       0       0
  4090 ;;      Temps:          0       0       0       0       0       0       0
  4091 ;;      Totals:         7       0       0       0       0       0       0
  4092 ;;Total ram usage:        7 bytes
  4093 ;; Hardware stack levels used: 1
  4094 ;; Hardware stack levels required when called: 2
  4095 ;; This function calls:
  4096 ;;		_fputc
  4097 ;; This function is called by:
  4098 ;;		_pad
  4099 ;; This function uses a non-reentrant model
  4100 ;;
  4101                           
  4102                           	psect	text16
  4103   001F24                     __ptext16:
  4104                           	callstack 0
  4105   001F24                     _fputs:
  4106                           	callstack 22
  4107   001F24  0E00               	movlw	0
  4108   001F26  6E10               	movwf	(fputs@i+1)^0,c
  4109   001F28  0E00               	movlw	0
  4110   001F2A  6E0F               	movwf	fputs@i^0,c
  4111   001F2C  EFA3  F00F         	goto	l2046
  4112   001F30                     l2042:
  4113   001F30  C00E  F001         	movff	fputs@c,fputc@c
  4114   001F34  6A02               	clrf	(fputc@c+1)^0,c
  4115   001F36  C00C  F003         	movff	fputs@fp,fputc@fp
  4116   001F3A  C00D  F004         	movff	fputs@fp+1,fputc@fp+1
  4117   001F3E  ECE5  F00C         	call	_fputc	;wreg free
  4118   001F42  4A0F               	infsnz	fputs@i^0,f,c
  4119   001F44  2A10               	incf	(fputs@i+1)^0,f,c
  4120   001F46                     l2046:
  4121   001F46  500F               	movf	fputs@i^0,w,c
  4122   001F48  240A               	addwf	fputs@s^0,w,c
  4123   001F4A  6ED9               	movwf	fsr2l,c
  4124   001F4C  5010               	movf	(fputs@i+1)^0,w,c
  4125   001F4E  200B               	addwfc	(fputs@s+1)^0,w,c
  4126   001F50  6EDA               	movwf	fsr2h,c
  4127   001F52  50DF               	movf	indf2,w,c
  4128   001F54  6E0E               	movwf	fputs@c^0,c
  4129   001F56  500E               	movf	fputs@c^0,w,c
  4130   001F58  A4D8               	btfss	status,2,c
  4131   001F5A  EFB1  F00F         	goto	u1401
  4132   001F5E  EFB3  F00F         	goto	u1400
  4133   001F62                     u1401:
  4134   001F62  EF98  F00F         	goto	l2042
  4135   001F66                     u1400:
  4136   001F66  0012               	return		;funcret
  4137   001F68                     __end_of_fputs:
  4138                           	callstack 0
  4139                           
  4140 ;; *************** function _fputc *****************
  4141 ;; Defined at:
  4142 ;;		line 8 in file "C:\Program Files\Microchip\xc8\v2.41\pic\sources\c99\common\nf_fputc.c"
  4143 ;; Parameters:    Size  Location     Type
  4144 ;;  c               2    0[COMRAM] int 
  4145 ;;  fp              2    2[COMRAM] PTR struct _IO_FILE
  4146 ;;		 -> sprintf@f(12), 
  4147 ;; Auto vars:     Size  Location     Type
  4148 ;;		None
  4149 ;; Return value:  Size  Location     Type
  4150 ;;                  2    0[COMRAM] int 
  4151 ;; Registers used:
  4152 ;;		wreg, fsr1l, fsr1h, fsr2l, fsr2h, status,2, status,0, cstack
  4153 ;; Tracked objects:
  4154 ;;		On entry : 0/0
  4155 ;;		On exit  : 0/0
  4156 ;;		Unchanged: 0/0
  4157 ;; Data sizes:     COMRAM   BANK0   BANK1   BANK2   BANK3   BANK4   BANK5
  4158 ;;      Params:         4       0       0       0       0       0       0
  4159 ;;      Locals:         0       0       0       0       0       0       0
  4160 ;;      Temps:          5       0       0       0       0       0       0
  4161 ;;      Totals:         9       0       0       0       0       0       0
  4162 ;;Total ram usage:        9 bytes
  4163 ;; Hardware stack levels used: 1
  4164 ;; Hardware stack levels required when called: 1
  4165 ;; This function calls:
  4166 ;;		_putch
  4167 ;; This function is called by:
  4168 ;;		_pad
  4169 ;;		_stoa
  4170 ;;		_vfpfcnvrt
  4171 ;;		_fputs
  4172 ;; This function uses a non-reentrant model
  4173 ;;
  4174                           
  4175                           	psect	text17
  4176   0019CA                     __ptext17:
  4177                           	callstack 0
  4178   0019CA                     _fputc:
  4179                           	callstack 24
  4180   0019CA  5003               	movf	fputc@fp^0,w,c
  4181   0019CC  1004               	iorwf	(fputc@fp+1)^0,w,c
  4182   0019CE  B4D8               	btfsc	status,2,c
  4183   0019D0  EFEC  F00C         	goto	u1361
  4184   0019D4  EFEE  F00C         	goto	u1360
  4185   0019D8                     u1361:
  4186   0019D8  EFF7  F00C         	goto	l2030
  4187   0019DC                     u1360:
  4188   0019DC  5003               	movf	fputc@fp^0,w,c
  4189   0019DE  1004               	iorwf	(fputc@fp+1)^0,w,c
  4190   0019E0  A4D8               	btfss	status,2,c
  4191   0019E2  EFF5  F00C         	goto	u1371
  4192   0019E6  EFF7  F00C         	goto	u1370
  4193   0019EA                     u1371:
  4194   0019EA  EFFC  F00C         	goto	l2032
  4195   0019EE                     u1370:
  4196   0019EE                     l2030:
  4197   0019EE  5001               	movf	fputc@c^0,w,c
  4198   0019F0  ECB6  F010         	call	_putch
  4199   0019F4  EF49  F00D         	goto	l1076
  4200   0019F8                     l2032:
  4201   0019F8  EE20 F00A          	lfsr	2,10
  4202   0019FC  5003               	movf	fputc@fp^0,w,c
  4203   0019FE  26D9               	addwf	fsr2l,f,c
  4204   001A00  5004               	movf	(fputc@fp+1)^0,w,c
  4205   001A02  22DA               	addwfc	fsr2h,f,c
  4206   001A04  50DE               	movf	postinc2,w,c
  4207   001A06  10DE               	iorwf	postinc2,w,c
  4208   001A08  B4D8               	btfsc	status,2,c
  4209   001A0A  EF09  F00D         	goto	u1381
  4210   001A0E  EF0B  F00D         	goto	u1380
  4211   001A12                     u1381:
  4212   001A12  EF26  F00D         	goto	l2036
  4213   001A16                     u1380:
  4214   001A16  EE20 F00A          	lfsr	2,10
  4215   001A1A  5003               	movf	fputc@fp^0,w,c
  4216   001A1C  26D9               	addwf	fsr2l,f,c
  4217   001A1E  5004               	movf	(fputc@fp+1)^0,w,c
  4218   001A20  22DA               	addwfc	fsr2h,f,c
  4219   001A22  EE10 F003          	lfsr	1,3
  4220   001A26  5003               	movf	fputc@fp^0,w,c
  4221   001A28  26E1               	addwf	fsr1l,f,c
  4222   001A2A  5004               	movf	(fputc@fp+1)^0,w,c
  4223   001A2C  22E2               	addwfc	fsr1h,f,c
  4224   001A2E  50DE               	movf	postinc2,w,c
  4225   001A30  5CE6               	subwf	postinc1,w,c
  4226   001A32  50E6               	movf	postinc1,w,c
  4227   001A34  0A80               	xorlw	128
  4228   001A36  6E09               	movwf	(??_fputc+4)^0,c
  4229   001A38  50DE               	movf	postinc2,w,c
  4230   001A3A  0A80               	xorlw	128
  4231   001A3C  5809               	subwfb	(??_fputc+4)^0,w,c
  4232   001A3E  B0D8               	btfsc	status,0,c
  4233   001A40  EF24  F00D         	goto	u1391
  4234   001A44  EF26  F00D         	goto	u1390
  4235   001A48                     u1391:
  4236   001A48  EF49  F00D         	goto	l1076
  4237   001A4C                     u1390:
  4238   001A4C                     l2036:
  4239   001A4C  EE20 F003          	lfsr	2,3
  4240   001A50  5003               	movf	fputc@fp^0,w,c
  4241   001A52  26D9               	addwf	fsr2l,f,c
  4242   001A54  5004               	movf	(fputc@fp+1)^0,w,c
  4243   001A56  22DA               	addwfc	fsr2h,f,c
  4244   001A58  CFDE F005          	movff	postinc2,??_fputc
  4245   001A5C  CFDD F006          	movff	postdec2,??_fputc+1
  4246   001A60  C003  FFD9         	movff	fputc@fp,fsr2l
  4247   001A64  C004  FFDA         	movff	fputc@fp+1,fsr2h
  4248   001A68  CFDE F007          	movff	postinc2,??_fputc+2
  4249   001A6C  CFDD F008          	movff	postdec2,??_fputc+3
  4250   001A70  5005               	movf	??_fputc^0,w,c
  4251   001A72  2407               	addwf	(??_fputc+2)^0,w,c
  4252   001A74  6ED9               	movwf	fsr2l,c
  4253   001A76  5006               	movf	(??_fputc+1)^0,w,c
  4254   001A78  2008               	addwfc	(??_fputc+3)^0,w,c
  4255   001A7A  6EDA               	movwf	fsr2h,c
  4256   001A7C  C001  FFDF         	movff	fputc@c,indf2
  4257   001A80  EE20 F003          	lfsr	2,3
  4258   001A84  5003               	movf	fputc@fp^0,w,c
  4259   001A86  26D9               	addwf	fsr2l,f,c
  4260   001A88  5004               	movf	(fputc@fp+1)^0,w,c
  4261   001A8A  22DA               	addwfc	fsr2h,f,c
  4262   001A8C  2ADE               	incf	postinc2,f,c
  4263   001A8E  0E00               	movlw	0
  4264   001A90  22DD               	addwfc	postdec2,f,c
  4265   001A92                     l1076:
  4266   001A92  0012               	return		;funcret
  4267   001A94                     __end_of_fputc:
  4268                           	callstack 0
  4269                           
  4270 ;; *************** function _putch *****************
  4271 ;; Defined at:
  4272 ;;		line 7 in file "C:\Program Files\Microchip\xc8\v2.41\pic\sources\c99\common\putch.c"
  4273 ;; Parameters:    Size  Location     Type
  4274 ;;  c               1    wreg     unsigned char 
  4275 ;; Auto vars:     Size  Location     Type
  4276 ;;  c               1    0[COMRAM] unsigned char 
  4277 ;; Return value:  Size  Location     Type
  4278 ;;                  1    wreg      void 
  4279 ;; Registers used:
  4280 ;;		wreg
  4281 ;; Tracked objects:
  4282 ;;		On entry : 0/0
  4283 ;;		On exit  : 0/0
  4284 ;;		Unchanged: 0/0
  4285 ;; Data sizes:     COMRAM   BANK0   BANK1   BANK2   BANK3   BANK4   BANK5
  4286 ;;      Params:         0       0       0       0       0       0       0
  4287 ;;      Locals:         0       0       0       0       0       0       0
  4288 ;;      Temps:          0       0       0       0       0       0       0
  4289 ;;      Totals:         0       0       0       0       0       0       0
  4290 ;;Total ram usage:        0 bytes
  4291 ;; Hardware stack levels used: 1
  4292 ;; This function calls:
  4293 ;;		Nothing
  4294 ;; This function is called by:
  4295 ;;		_fputc
  4296 ;; This function uses a non-reentrant model
  4297 ;;
  4298                           
  4299                           	psect	text18
  4300   00216C                     __ptext18:
  4301                           	callstack 0
  4302   00216C                     _putch:
  4303                           	callstack 24
  4304   00216C  0012               	return		;funcret
  4305   00216E                     __end_of_putch:
  4306                           	callstack 0
  4307                           
  4308 ;; *************** function _abs *****************
  4309 ;; Defined at:
  4310 ;;		line 1 in file "C:\Program Files\Microchip\xc8\v2.41\pic\sources\c99\common\abs.c"
  4311 ;; Parameters:    Size  Location     Type
  4312 ;;  a               2    6[COMRAM] int 
  4313 ;; Auto vars:     Size  Location     Type
  4314 ;;		None
  4315 ;; Return value:  Size  Location     Type
  4316 ;;                  2    6[COMRAM] int 
  4317 ;; Registers used:
  4318 ;;		wreg, status,2, status,0
  4319 ;; Tracked objects:
  4320 ;;		On entry : 0/0
  4321 ;;		On exit  : 0/0
  4322 ;;		Unchanged: 0/0
  4323 ;; Data sizes:     COMRAM   BANK0   BANK1   BANK2   BANK3   BANK4   BANK5
  4324 ;;      Params:         2       0       0       0       0       0       0
  4325 ;;      Locals:         0       0       0       0       0       0       0
  4326 ;;      Temps:          2       0       0       0       0       0       0
  4327 ;;      Totals:         4       0       0       0       0       0       0
  4328 ;;Total ram usage:        4 bytes
  4329 ;; Hardware stack levels used: 1
  4330 ;; This function calls:
  4331 ;;		Nothing
  4332 ;; This function is called by:
  4333 ;;		_dtoa
  4334 ;; This function uses a non-reentrant model
  4335 ;;
  4336                           
  4337                           	psect	text19
  4338   001F68                     __ptext19:
  4339                           	callstack 0
  4340   001F68                     _abs:
  4341                           	callstack 25
  4342   001F68  BE08               	btfsc	(abs@a+1)^0,7,c
  4343   001F6A  EFC1  F00F         	goto	u1570
  4344   001F6E  5008               	movf	(abs@a+1)^0,w,c
  4345   001F70  E106               	bnz	u1571
  4346   001F72  0407               	decf	abs@a^0,w,c
  4347   001F74  B0D8               	btfsc	status,0,c
  4348   001F76  EFBF  F00F         	goto	u1571
  4349   001F7A  EFC1  F00F         	goto	u1570
  4350   001F7E                     u1571:
  4351   001F7E  EFCF  F00F         	goto	l1061
  4352   001F82                     u1570:
  4353   001F82  C007  F009         	movff	abs@a,??_abs
  4354   001F86  C008  F00A         	movff	abs@a+1,??_abs+1
  4355   001F8A  1E09               	comf	??_abs^0,f,c
  4356   001F8C  1E0A               	comf	(??_abs+1)^0,f,c
  4357   001F8E  4A09               	infsnz	??_abs^0,f,c
  4358   001F90  2A0A               	incf	(??_abs+1)^0,f,c
  4359   001F92  C009  F007         	movff	??_abs,?_abs
  4360   001F96  C00A  F008         	movff	??_abs+1,?_abs+1
  4361   001F9A  EFD3  F00F         	goto	l1064
  4362   001F9E                     l1061:
  4363   001F9E  C007  F007         	movff	abs@a,?_abs
  4364   001FA2  C008  F008         	movff	abs@a+1,?_abs+1
  4365   001FA6                     l1064:
  4366   001FA6  0012               	return		;funcret
  4367   001FA8                     __end_of_abs:
  4368                           	callstack 0
  4369                           
  4370 ;; *************** function _USART_String_Transmit *****************
  4371 ;; Defined at:
  4372 ;;		line 115 in file "main.c"
  4373 ;; Parameters:    Size  Location     Type
  4374 ;;  string          2    1[COMRAM] PTR unsigned char 
  4375 ;;		 -> xvalueASCII(50), 
  4376 ;; Auto vars:     Size  Location     Type
  4377 ;;		None
  4378 ;; Return value:  Size  Location     Type
  4379 ;;                  1    wreg      void 
  4380 ;; Registers used:
  4381 ;;		wreg, fsr2l, fsr2h, status,2, status,0, cstack
  4382 ;; Tracked objects:
  4383 ;;		On entry : 0/0
  4384 ;;		On exit  : 0/0
  4385 ;;		Unchanged: 0/0
  4386 ;; Data sizes:     COMRAM   BANK0   BANK1   BANK2   BANK3   BANK4   BANK5
  4387 ;;      Params:         2       0       0       0       0       0       0
  4388 ;;      Locals:         0       0       0       0       0       0       0
  4389 ;;      Temps:          0       0       0       0       0       0       0
  4390 ;;      Totals:         2       0       0       0       0       0       0
  4391 ;;Total ram usage:        2 bytes
  4392 ;; Hardware stack levels used: 1
  4393 ;; Hardware stack levels required when called: 1
  4394 ;; This function calls:
  4395 ;;		_EUSART_Write
  4396 ;;		_EUSART_is_tx_done
  4397 ;;		_EUSART_is_tx_ready
  4398 ;; This function is called by:
  4399 ;;		_UART_Positive_Negative_Tempreture_Output
  4400 ;; This function uses a non-reentrant model
  4401 ;;
  4402                           
  4403                           	psect	text20
  4404   001DE4                     __ptext20:
  4405                           	callstack 0
  4406   001DE4                     _USART_String_Transmit:
  4407                           	callstack 28
  4408   001DE4                     l2438:
  4409   001DE4  EC2C  F010         	call	_EUSART_is_tx_ready	;wreg free
  4410   001DE8  0900               	iorlw	0
  4411   001DEA  B4D8               	btfsc	status,2,c
  4412   001DEC  EFFA  F00E         	goto	u2031
  4413   001DF0  EFFC  F00E         	goto	u2030
  4414   001DF4                     u2031:
  4415   001DF4  EFF2  F00E         	goto	l2438
  4416   001DF8                     u2030:
  4417   001DF8  EF07  F00F         	goto	l2444
  4418   001DFC                     l2440:
  4419                           
  4420                           ;main.c: 119:     EUSART_Write(*string++);
  4421   001DFC  C002  FFD9         	movff	USART_String_Transmit@string,fsr2l
  4422   001E00  C003  FFDA         	movff	USART_String_Transmit@string+1,fsr2h
  4423   001E04  50DF               	movf	indf2,w,c
  4424   001E06  EC5F  F010         	call	_EUSART_Write
  4425   001E0A  4A02               	infsnz	USART_String_Transmit@string^0,f,c
  4426   001E0C  2A03               	incf	(USART_String_Transmit@string+1)^0,f,c
  4427   001E0E                     l2444:
  4428                           
  4429                           ;main.c: 118:     while (*string)
  4430   001E0E  C002  FFD9         	movff	USART_String_Transmit@string,fsr2l
  4431   001E12  C003  FFDA         	movff	USART_String_Transmit@string+1,fsr2h
  4432   001E16  50DF               	movf	indf2,w,c
  4433   001E18  A4D8               	btfss	status,2,c
  4434   001E1A  EF11  F00F         	goto	u2041
  4435   001E1E  EF13  F00F         	goto	u2040
  4436   001E22                     u2041:
  4437   001E22  EFFE  F00E         	goto	l2440
  4438   001E26                     u2040:
  4439   001E26                     l2446:
  4440   001E26  EC75  F010         	call	_EUSART_is_tx_done	;wreg free
  4441   001E2A  0900               	iorlw	0
  4442   001E2C  B4D8               	btfsc	status,2,c
  4443   001E2E  EF1B  F00F         	goto	u2051
  4444   001E32  EF1D  F00F         	goto	u2050
  4445   001E36                     u2051:
  4446   001E36  EF13  F00F         	goto	l2446
  4447   001E3A                     u2050:
  4448   001E3A  0012               	return		;funcret
  4449   001E3C                     __end_of_USART_String_Transmit:
  4450                           	callstack 0
  4451                           
  4452 ;; *************** function _EUSART_is_tx_ready *****************
  4453 ;; Defined at:
  4454 ;;		line 94 in file "mcc_generated_files/eusart.c"
  4455 ;; Parameters:    Size  Location     Type
  4456 ;;		None
  4457 ;; Auto vars:     Size  Location     Type
  4458 ;;		None
  4459 ;; Return value:  Size  Location     Type
  4460 ;;                  1    wreg      _Bool 
  4461 ;; Registers used:
  4462 ;;		wreg, status,2
  4463 ;; Tracked objects:
  4464 ;;		On entry : 0/0
  4465 ;;		On exit  : 0/0
  4466 ;;		Unchanged: 0/0
  4467 ;; Data sizes:     COMRAM   BANK0   BANK1   BANK2   BANK3   BANK4   BANK5
  4468 ;;      Params:         0       0       0       0       0       0       0
  4469 ;;      Locals:         1       0       0       0       0       0       0
  4470 ;;      Temps:          0       0       0       0       0       0       0
  4471 ;;      Totals:         1       0       0       0       0       0       0
  4472 ;;Total ram usage:        1 bytes
  4473 ;; Hardware stack levels used: 1
  4474 ;; This function calls:
  4475 ;;		Nothing
  4476 ;; This function is called by:
  4477 ;;		_USART_String_Transmit
  4478 ;; This function uses a non-reentrant model
  4479 ;;
  4480                           
  4481                           	psect	text21
  4482   002058                     __ptext21:
  4483                           	callstack 0
  4484   002058                     _EUSART_is_tx_ready:
  4485                           	callstack 28
  4486   002058                     
  4487                           ;mcc_generated_files/eusart.c: 96:     return (_Bool)(PIR1bits.TX1IF && TXSTAbits.TXEN);
  4488   002058  0E00               	movlw	0
  4489   00205A  6E01               	movwf	_EUSART_is_tx_ready$333^0,c
  4490   00205C  A89E               	btfss	158,4,c	;volatile
  4491   00205E  EF33  F010         	goto	u1981
  4492   002062  EF35  F010         	goto	u1980
  4493   002066                     u1981:
  4494   002066  EF3E  F010         	goto	l87
  4495   00206A                     u1980:
  4496   00206A  AAAC               	btfss	172,5,c	;volatile
  4497   00206C  EF3A  F010         	goto	u1991
  4498   002070  EF3C  F010         	goto	u1990
  4499   002074                     u1991:
  4500   002074  EF3E  F010         	goto	l87
  4501   002078                     u1990:
  4502   002078  0E01               	movlw	1
  4503   00207A  6E01               	movwf	_EUSART_is_tx_ready$333^0,c
  4504   00207C                     l87:
  4505   00207C  5001               	movf	_EUSART_is_tx_ready$333^0,w,c
  4506   00207E  0012               	return		;funcret
  4507   002080                     __end_of_EUSART_is_tx_ready:
  4508                           	callstack 0
  4509                           
  4510 ;; *************** function _EUSART_is_tx_done *****************
  4511 ;; Defined at:
  4512 ;;		line 104 in file "mcc_generated_files/eusart.c"
  4513 ;; Parameters:    Size  Location     Type
  4514 ;;		None
  4515 ;; Auto vars:     Size  Location     Type
  4516 ;;		None
  4517 ;; Return value:  Size  Location     Type
  4518 ;;                  1    wreg      _Bool 
  4519 ;; Registers used:
  4520 ;;		wreg
  4521 ;; Tracked objects:
  4522 ;;		On entry : 0/0
  4523 ;;		On exit  : 0/0
  4524 ;;		Unchanged: 0/0
  4525 ;; Data sizes:     COMRAM   BANK0   BANK1   BANK2   BANK3   BANK4   BANK5
  4526 ;;      Params:         0       0       0       0       0       0       0
  4527 ;;      Locals:         0       0       0       0       0       0       0
  4528 ;;      Temps:          0       0       0       0       0       0       0
  4529 ;;      Totals:         0       0       0       0       0       0       0
  4530 ;;Total ram usage:        0 bytes
  4531 ;; Hardware stack levels used: 1
  4532 ;; This function calls:
  4533 ;;		Nothing
  4534 ;; This function is called by:
  4535 ;;		_USART_String_Transmit
  4536 ;; This function uses a non-reentrant model
  4537 ;;
  4538                           
  4539                           	psect	text22
  4540   0020EA                     __ptext22:
  4541                           	callstack 0
  4542   0020EA                     _EUSART_is_tx_done:
  4543                           	callstack 28
  4544   0020EA                     
  4545                           ;mcc_generated_files/eusart.c: 106:     return TXSTAbits.TRMT;
  4546   0020EA  B2AC               	btfsc	172,1,c	;volatile
  4547   0020EC  EF7A  F010         	goto	u2001
  4548   0020F0  EF7D  F010         	goto	u2000
  4549   0020F4                     u2001:
  4550   0020F4  0E01               	movlw	1
  4551   0020F6  EF7E  F010         	goto	u2006
  4552   0020FA                     u2000:
  4553   0020FA  0E00               	movlw	0
  4554   0020FC                     u2006:
  4555   0020FC  0012               	return		;funcret
  4556   0020FE                     __end_of_EUSART_is_tx_done:
  4557                           	callstack 0
  4558                           
  4559 ;; *************** function _EUSART_Write *****************
  4560 ;; Defined at:
  4561 ;;		line 132 in file "mcc_generated_files/eusart.c"
  4562 ;; Parameters:    Size  Location     Type
  4563 ;;  txData          1    wreg     unsigned char 
  4564 ;; Auto vars:     Size  Location     Type
  4565 ;;  txData          1    0[COMRAM] unsigned char 
  4566 ;; Return value:  Size  Location     Type
  4567 ;;                  1    wreg      void 
  4568 ;; Registers used:
  4569 ;;		wreg
  4570 ;; Tracked objects:
  4571 ;;		On entry : 0/0
  4572 ;;		On exit  : 0/0
  4573 ;;		Unchanged: 0/0
  4574 ;; Data sizes:     COMRAM   BANK0   BANK1   BANK2   BANK3   BANK4   BANK5
  4575 ;;      Params:         0       0       0       0       0       0       0
  4576 ;;      Locals:         1       0       0       0       0       0       0
  4577 ;;      Temps:          0       0       0       0       0       0       0
  4578 ;;      Totals:         1       0       0       0       0       0       0
  4579 ;;Total ram usage:        1 bytes
  4580 ;; Hardware stack levels used: 1
  4581 ;; This function calls:
  4582 ;;		Nothing
  4583 ;; This function is called by:
  4584 ;;		_USART_String_Transmit
  4585 ;; This function uses a non-reentrant model
  4586 ;;
  4587                           
  4588                           	psect	text23
  4589   0020BE                     __ptext23:
  4590                           	callstack 0
  4591   0020BE                     _EUSART_Write:
  4592                           	callstack 28
  4593                           
  4594                           ;incstack = 0
  4595                           ;EUSART_Write@txData stored from wreg
  4596   0020BE  6E01               	movwf	EUSART_Write@txData^0,c
  4597   0020C0                     l107:
  4598                           
  4599                           ;mcc_generated_files/eusart.c: 134:     while(0 == PIR1bits.TX1IF)
  4600   0020C0  A89E               	btfss	158,4,c	;volatile
  4601   0020C2  EF65  F010         	goto	u2011
  4602   0020C6  EF67  F010         	goto	u2010
  4603   0020CA                     u2011:
  4604   0020CA  EF60  F010         	goto	l107
  4605   0020CE                     u2010:
  4606   0020CE                     
  4607                           ;mcc_generated_files/eusart.c: 138:     TXREG = txData;
  4608   0020CE  C001  FFAD         	movff	EUSART_Write@txData,4013	;volatile
  4609   0020D2  0012               	return		;funcret
  4610   0020D4                     __end_of_EUSART_Write:
  4611                           	callstack 0
  4612                           
  4613 ;; *************** function _Seven_Segment_Positive_Tempreture_Output *****************
  4614 ;; Defined at:
  4615 ;;		line 60 in file "main.c"
  4616 ;; Parameters:    Size  Location     Type
  4617 ;;		None
  4618 ;; Auto vars:     Size  Location     Type
  4619 ;;		None
  4620 ;; Return value:  Size  Location     Type
  4621 ;;                  1    wreg      void 
  4622 ;; Registers used:
  4623 ;;		wreg, status,2, status,0, cstack
  4624 ;; Tracked objects:
  4625 ;;		On entry : 0/0
  4626 ;;		On exit  : 0/0
  4627 ;;		Unchanged: 0/0
  4628 ;; Data sizes:     COMRAM   BANK0   BANK1   BANK2   BANK3   BANK4   BANK5
  4629 ;;      Params:         0       0       0       0       0       0       0
  4630 ;;      Locals:         2       0       0       0       0       0       0
  4631 ;;      Temps:          2       0       0       0       0       0       0
  4632 ;;      Totals:         4       0       0       0       0       0       0
  4633 ;;Total ram usage:        4 bytes
  4634 ;; Hardware stack levels used: 1
  4635 ;; Hardware stack levels required when called: 1
  4636 ;; This function calls:
  4637 ;;		___awdiv
  4638 ;;		___awmod
  4639 ;; This function is called by:
  4640 ;;		_main
  4641 ;; This function uses a non-reentrant model
  4642 ;;
  4643                           
  4644                           	psect	text24
  4645   0015AA                     __ptext24:
  4646                           	callstack 0
  4647   0015AA                     _Seven_Segment_Positive_Tempreture_Output:
  4648                           	callstack 29
  4649   0015AA                     
  4650                           ;main.c: 62:     LATBbits.LATB4 = 1;
  4651   0015AA  888A               	bsf	138,4,c	;volatile
  4652   0015AC                     
  4653                           ;main.c: 64:         First_Digit = (TMP36_Reading % 100)%10;
  4654   0015AC  0E00               	movlw	0
  4655   0015AE  6E04               	movwf	(___awmod@divisor+1)^0,c
  4656   0015B0  0E64               	movlw	100
  4657   0015B2  6E03               	movwf	___awmod@divisor^0,c
  4658   0015B4  C05D  F001         	movff	_TMP36_Reading,___awmod@dividend
  4659   0015B8  C05E  F002         	movff	_TMP36_Reading+1,___awmod@dividend+1
  4660   0015BC  EC0F  F00E         	call	___awmod	;wreg free
  4661   0015C0  C001  F011         	movff	?___awmod,_Seven_Segment_Positive_Tempreture_Output$1498
  4662   0015C4  C002  F012         	movff	?___awmod+1,_Seven_Segment_Positive_Tempreture_Output$1498+1
  4663                           
  4664                           ;main.c: 64:         First_Digit = (TMP36_Reading % 100)%10;
  4665   0015C8  C011  F001         	movff	_Seven_Segment_Positive_Tempreture_Output$1498,___awmod@dividend
  4666   0015CC  C012  F002         	movff	_Seven_Segment_Positive_Tempreture_Output$1498+1,___awmod@dividend+1
  4667   0015D0  0E00               	movlw	0
  4668   0015D2  6E04               	movwf	(___awmod@divisor+1)^0,c
  4669   0015D4  0E0A               	movlw	10
  4670   0015D6  6E03               	movwf	___awmod@divisor^0,c
  4671   0015D8  EC0F  F00E         	call	___awmod	;wreg free
  4672   0015DC  5001               	movf	?___awmod^0,w,c
  4673   0015DE  0100               	movlb	0	; () banked
  4674   0015E0  6F72               	movwf	_First_Digit& (0+255),b
  4675   0015E2                     
  4676                           ; BSR set to: 0
  4677                           ;main.c: 65:         RAM = LATB;
  4678   0015E2  CF8A F06E          	movff	3978,_RAM	;volatile
  4679   0015E6                     
  4680                           ; BSR set to: 0
  4681                           ;main.c: 66:         LATB = First_Digit | (RAM&=0xF0) ;
  4682   0015E6  0EF0               	movlw	240
  4683   0015E8  176E               	andwf	_RAM& (0+255),f,b
  4684   0015EA  516E               	movf	_RAM& (0+255),w,b
  4685   0015EC  1172               	iorwf	_First_Digit& (0+255),w,b
  4686   0015EE  6E8A               	movwf	138,c	;volatile
  4687   0015F0                     
  4688                           ; BSR set to: 0
  4689                           ;main.c: 67:         LATAbits.LATA1 = 1;
  4690   0015F0  8289               	bsf	137,1,c	;volatile
  4691   0015F2                     
  4692                           ; BSR set to: 0
  4693                           ;main.c: 68:         LATAbits.LATA2 = !1;
  4694   0015F2  9489               	bcf	137,2,c	;volatile
  4695   0015F4                     
  4696                           ; BSR set to: 0
  4697                           ;main.c: 69:         LATAbits.LATA3 = !1;
  4698   0015F4  9689               	bcf	137,3,c	;volatile
  4699   0015F6                     
  4700                           ; BSR set to: 0
  4701                           ;main.c: 70:         LATAbits.LATA5 = !1;
  4702   0015F6  9A89               	bcf	137,5,c	;volatile
  4703   0015F8                     
  4704                           ; BSR set to: 0
  4705                           ;main.c: 71:         _delay((unsigned long)((255)*(20000000/4000.0)));
  4706   0015F8  0E07               	movlw	7
  4707   0015FA  6E10               	movwf	(??_Seven_Segment_Positive_Tempreture_Output+1)^0,c
  4708   0015FC  0E78               	movlw	120
  4709   0015FE  6E0F               	movwf	??_Seven_Segment_Positive_Tempreture_Output^0,c
  4710   001600  0ED2               	movlw	210
  4711   001602                     u2707:
  4712   001602  2EE8               	decfsz	wreg,f,c
  4713   001604  D7FE               	bra	u2707
  4714   001606  2E0F               	decfsz	??_Seven_Segment_Positive_Tempreture_Output^0,f,c
  4715   001608  D7FC               	bra	u2707
  4716   00160A  2E10               	decfsz	(??_Seven_Segment_Positive_Tempreture_Output+1)^0,f,c
  4717   00160C  D7FA               	bra	u2707
  4718   00160E                     
  4719                           ;main.c: 74:         Second_Digit = (TMP36_Reading % 100)/10;
  4720   00160E  0E00               	movlw	0
  4721   001610  6E04               	movwf	(___awmod@divisor+1)^0,c
  4722   001612  0E64               	movlw	100
  4723   001614  6E03               	movwf	___awmod@divisor^0,c
  4724   001616  C05D  F001         	movff	_TMP36_Reading,___awmod@dividend
  4725   00161A  C05E  F002         	movff	_TMP36_Reading+1,___awmod@dividend+1
  4726   00161E  EC0F  F00E         	call	___awmod	;wreg free
  4727   001622  C001  F007         	movff	?___awmod,___awdiv@dividend
  4728   001626  C002  F008         	movff	?___awmod+1,___awdiv@dividend+1
  4729   00162A  0E00               	movlw	0
  4730   00162C  6E0A               	movwf	(___awdiv@divisor+1)^0,c
  4731   00162E  0E0A               	movlw	10
  4732   001630  6E09               	movwf	___awdiv@divisor^0,c
  4733   001632  ECAD  F00D         	call	___awdiv	;wreg free
  4734   001636  5007               	movf	?___awdiv^0,w,c
  4735   001638  0100               	movlb	0	; () banked
  4736   00163A  6F71               	movwf	_Second_Digit& (0+255),b
  4737   00163C                     
  4738                           ; BSR set to: 0
  4739                           ;main.c: 75:         RAM = LATB;
  4740   00163C  CF8A F06E          	movff	3978,_RAM	;volatile
  4741   001640                     
  4742                           ; BSR set to: 0
  4743                           ;main.c: 76:         LATB = Second_Digit | (RAM&=0xF0) ;
  4744   001640  0EF0               	movlw	240
  4745   001642  176E               	andwf	_RAM& (0+255),f,b
  4746   001644  516E               	movf	_RAM& (0+255),w,b
  4747   001646  1171               	iorwf	_Second_Digit& (0+255),w,b
  4748   001648  6E8A               	movwf	138,c	;volatile
  4749   00164A                     
  4750                           ; BSR set to: 0
  4751                           ;main.c: 77:         LATAbits.LATA1 = !1;
  4752   00164A  9289               	bcf	137,1,c	;volatile
  4753   00164C                     
  4754                           ; BSR set to: 0
  4755                           ;main.c: 78:         LATAbits.LATA2 = 1;
  4756   00164C  8489               	bsf	137,2,c	;volatile
  4757   00164E                     
  4758                           ; BSR set to: 0
  4759                           ;main.c: 79:         LATAbits.LATA3 = !1;
  4760   00164E  9689               	bcf	137,3,c	;volatile
  4761   001650                     
  4762                           ; BSR set to: 0
  4763                           ;main.c: 80:         LATAbits.LATA5 = !1;
  4764   001650  9A89               	bcf	137,5,c	;volatile
  4765                           
  4766                           ;main.c: 81:         _delay((unsigned long)((255)*(20000000/4000.0)));
  4767   001652  0E07               	movlw	7
  4768   001654  6E10               	movwf	(??_Seven_Segment_Positive_Tempreture_Output+1)^0,c
  4769   001656  0E78               	movlw	120
  4770   001658  6E0F               	movwf	??_Seven_Segment_Positive_Tempreture_Output^0,c
  4771   00165A  0ED2               	movlw	210
  4772   00165C                     u2717:
  4773   00165C  2EE8               	decfsz	wreg,f,c
  4774   00165E  D7FE               	bra	u2717
  4775   001660  2E0F               	decfsz	??_Seven_Segment_Positive_Tempreture_Output^0,f,c
  4776   001662  D7FC               	bra	u2717
  4777   001664  2E10               	decfsz	(??_Seven_Segment_Positive_Tempreture_Output+1)^0,f,c
  4778   001666  D7FA               	bra	u2717
  4779   001668                     
  4780                           ;main.c: 84:         Third_Digit = (TMP36_Reading % 1000)/100;
  4781   001668  0E03               	movlw	3
  4782   00166A  6E04               	movwf	(___awmod@divisor+1)^0,c
  4783   00166C  0EE8               	movlw	232
  4784   00166E  6E03               	movwf	___awmod@divisor^0,c
  4785   001670  C05D  F001         	movff	_TMP36_Reading,___awmod@dividend
  4786   001674  C05E  F002         	movff	_TMP36_Reading+1,___awmod@dividend+1
  4787   001678  EC0F  F00E         	call	___awmod	;wreg free
  4788   00167C  C001  F007         	movff	?___awmod,___awdiv@dividend
  4789   001680  C002  F008         	movff	?___awmod+1,___awdiv@dividend+1
  4790   001684  0E00               	movlw	0
  4791   001686  6E0A               	movwf	(___awdiv@divisor+1)^0,c
  4792   001688  0E64               	movlw	100
  4793   00168A  6E09               	movwf	___awdiv@divisor^0,c
  4794   00168C  ECAD  F00D         	call	___awdiv	;wreg free
  4795   001690  5007               	movf	?___awdiv^0,w,c
  4796   001692  0100               	movlb	0	; () banked
  4797   001694  6F70               	movwf	_Third_Digit& (0+255),b
  4798   001696                     
  4799                           ; BSR set to: 0
  4800                           ;main.c: 85:         RAM = LATB;
  4801   001696  CF8A F06E          	movff	3978,_RAM	;volatile
  4802   00169A                     
  4803                           ; BSR set to: 0
  4804                           ;main.c: 86:         LATB = Third_Digit | (RAM&=0xF0);
  4805   00169A  0EF0               	movlw	240
  4806   00169C  176E               	andwf	_RAM& (0+255),f,b
  4807   00169E  516E               	movf	_RAM& (0+255),w,b
  4808   0016A0  1170               	iorwf	_Third_Digit& (0+255),w,b
  4809   0016A2  6E8A               	movwf	138,c	;volatile
  4810   0016A4                     
  4811                           ; BSR set to: 0
  4812                           ;main.c: 87:         LATAbits.LATA1 = !1;
  4813   0016A4  9289               	bcf	137,1,c	;volatile
  4814   0016A6                     
  4815                           ; BSR set to: 0
  4816                           ;main.c: 88:         LATAbits.LATA2 = !1;
  4817   0016A6  9489               	bcf	137,2,c	;volatile
  4818   0016A8                     
  4819                           ; BSR set to: 0
  4820                           ;main.c: 89:         LATAbits.LATA3 = 1;
  4821   0016A8  8689               	bsf	137,3,c	;volatile
  4822   0016AA                     
  4823                           ; BSR set to: 0
  4824                           ;main.c: 90:         LATAbits.LATA5 = !1;
  4825   0016AA  9A89               	bcf	137,5,c	;volatile
  4826   0016AC                     
  4827                           ; BSR set to: 0
  4828                           ;main.c: 91:         _delay((unsigned long)((255)*(20000000/4000.0)));
  4829   0016AC  0E07               	movlw	7
  4830   0016AE  6E10               	movwf	(??_Seven_Segment_Positive_Tempreture_Output+1)^0,c
  4831   0016B0  0E78               	movlw	120
  4832   0016B2  6E0F               	movwf	??_Seven_Segment_Positive_Tempreture_Output^0,c
  4833   0016B4  0ED2               	movlw	210
  4834   0016B6                     u2727:
  4835   0016B6  2EE8               	decfsz	wreg,f,c
  4836   0016B8  D7FE               	bra	u2727
  4837   0016BA  2E0F               	decfsz	??_Seven_Segment_Positive_Tempreture_Output^0,f,c
  4838   0016BC  D7FC               	bra	u2727
  4839   0016BE  2E10               	decfsz	(??_Seven_Segment_Positive_Tempreture_Output+1)^0,f,c
  4840   0016C0  D7FA               	bra	u2727
  4841   0016C2                     
  4842                           ;main.c: 94:         Fourth_Digit = TMP36_Reading / 1000;
  4843   0016C2  C05D  F007         	movff	_TMP36_Reading,___awdiv@dividend
  4844   0016C6  C05E  F008         	movff	_TMP36_Reading+1,___awdiv@dividend+1
  4845   0016CA  0E03               	movlw	3
  4846   0016CC  6E0A               	movwf	(___awdiv@divisor+1)^0,c
  4847   0016CE  0EE8               	movlw	232
  4848   0016D0  6E09               	movwf	___awdiv@divisor^0,c
  4849   0016D2  ECAD  F00D         	call	___awdiv	;wreg free
  4850   0016D6  5007               	movf	?___awdiv^0,w,c
  4851   0016D8  0100               	movlb	0	; () banked
  4852   0016DA  6F6F               	movwf	_Fourth_Digit& (0+255),b
  4853   0016DC                     
  4854                           ; BSR set to: 0
  4855                           ;main.c: 95:         RAM = LATB;
  4856   0016DC  CF8A F06E          	movff	3978,_RAM	;volatile
  4857                           
  4858                           ;main.c: 96:         LATB = Fourth_Digit | (RAM&=0xF0);
  4859   0016E0  0EF0               	movlw	240
  4860   0016E2  176E               	andwf	_RAM& (0+255),f,b
  4861   0016E4  516E               	movf	_RAM& (0+255),w,b
  4862   0016E6  116F               	iorwf	_Fourth_Digit& (0+255),w,b
  4863   0016E8  6E8A               	movwf	138,c	;volatile
  4864   0016EA                     
  4865                           ; BSR set to: 0
  4866                           ;main.c: 97:         LATAbits.LATA1 = !1;
  4867   0016EA  9289               	bcf	137,1,c	;volatile
  4868   0016EC                     
  4869                           ; BSR set to: 0
  4870                           ;main.c: 98:         LATAbits.LATA2 = !1;
  4871   0016EC  9489               	bcf	137,2,c	;volatile
  4872   0016EE                     
  4873                           ; BSR set to: 0
  4874                           ;main.c: 99:         LATAbits.LATA3 = !1;
  4875   0016EE  9689               	bcf	137,3,c	;volatile
  4876   0016F0                     
  4877                           ; BSR set to: 0
  4878                           ;main.c: 100:         LATAbits.LATA5 = 1;
  4879   0016F0  8A89               	bsf	137,5,c	;volatile
  4880   0016F2                     
  4881                           ; BSR set to: 0
  4882                           ;main.c: 101:         _delay((unsigned long)((255)*(20000000/4000.0)));
  4883   0016F2  0E07               	movlw	7
  4884   0016F4  6E10               	movwf	(??_Seven_Segment_Positive_Tempreture_Output+1)^0,c
  4885   0016F6  0E78               	movlw	120
  4886   0016F8  6E0F               	movwf	??_Seven_Segment_Positive_Tempreture_Output^0,c
  4887   0016FA  0ED2               	movlw	210
  4888   0016FC                     u2737:
  4889   0016FC  2EE8               	decfsz	wreg,f,c
  4890   0016FE  D7FE               	bra	u2737
  4891   001700  2E0F               	decfsz	??_Seven_Segment_Positive_Tempreture_Output^0,f,c
  4892   001702  D7FC               	bra	u2737
  4893   001704  2E10               	decfsz	(??_Seven_Segment_Positive_Tempreture_Output+1)^0,f,c
  4894   001706  D7FA               	bra	u2737
  4895   001708  0012               	return		;funcret
  4896   00170A                     __end_of_Seven_Segment_Positive_Tempreture_Output:
  4897                           	callstack 0
  4898                           
  4899 ;; *************** function ___awmod *****************
  4900 ;; Defined at:
  4901 ;;		line 7 in file "C:\Program Files\Microchip\xc8\v2.41\pic\sources\c99\common\awmod.c"
  4902 ;; Parameters:    Size  Location     Type
  4903 ;;  dividend        2    0[COMRAM] int 
  4904 ;;  divisor         2    2[COMRAM] int 
  4905 ;; Auto vars:     Size  Location     Type
  4906 ;;  sign            1    5[COMRAM] unsigned char 
  4907 ;;  counter         1    4[COMRAM] unsigned char 
  4908 ;; Return value:  Size  Location     Type
  4909 ;;                  2    0[COMRAM] int 
  4910 ;; Registers used:
  4911 ;;		wreg, status,2, status,0
  4912 ;; Tracked objects:
  4913 ;;		On entry : 0/0
  4914 ;;		On exit  : 0/0
  4915 ;;		Unchanged: 0/0
  4916 ;; Data sizes:     COMRAM   BANK0   BANK1   BANK2   BANK3   BANK4   BANK5
  4917 ;;      Params:         4       0       0       0       0       0       0
  4918 ;;      Locals:         2       0       0       0       0       0       0
  4919 ;;      Temps:          0       0       0       0       0       0       0
  4920 ;;      Totals:         6       0       0       0       0       0       0
  4921 ;;Total ram usage:        6 bytes
  4922 ;; Hardware stack levels used: 1
  4923 ;; This function calls:
  4924 ;;		Nothing
  4925 ;; This function is called by:
  4926 ;;		_Seven_Segment_Positive_Tempreture_Output
  4927 ;;		_dtoa
  4928 ;; This function uses a non-reentrant model
  4929 ;;
  4930                           
  4931                           	psect	text25
  4932   001C1E                     __ptext25:
  4933                           	callstack 0
  4934   001C1E                     ___awmod:
  4935                           	callstack 25
  4936   001C1E  0E00               	movlw	0
  4937   001C20  6E06               	movwf	___awmod@sign^0,c
  4938   001C22  BE02               	btfsc	(___awmod@dividend+1)^0,7,c
  4939   001C24  EF18  F00E         	goto	u1470
  4940   001C28  EF16  F00E         	goto	u1471
  4941   001C2C                     u1471:
  4942   001C2C  EF1E  F00E         	goto	l2106
  4943   001C30                     u1470:
  4944   001C30  6C01               	negf	___awmod@dividend^0,c
  4945   001C32  1E02               	comf	(___awmod@dividend+1)^0,f,c
  4946   001C34  B0D8               	btfsc	status,0,c
  4947   001C36  2A02               	incf	(___awmod@dividend+1)^0,f,c
  4948   001C38  0E01               	movlw	1
  4949   001C3A  6E06               	movwf	___awmod@sign^0,c
  4950   001C3C                     l2106:
  4951   001C3C  BE04               	btfsc	(___awmod@divisor+1)^0,7,c
  4952   001C3E  EF25  F00E         	goto	u1480
  4953   001C42  EF23  F00E         	goto	u1481
  4954   001C46                     u1481:
  4955   001C46  EF29  F00E         	goto	l2110
  4956   001C4A                     u1480:
  4957   001C4A  6C03               	negf	___awmod@divisor^0,c
  4958   001C4C  1E04               	comf	(___awmod@divisor+1)^0,f,c
  4959   001C4E  B0D8               	btfsc	status,0,c
  4960   001C50  2A04               	incf	(___awmod@divisor+1)^0,f,c
  4961   001C52                     l2110:
  4962   001C52  5003               	movf	___awmod@divisor^0,w,c
  4963   001C54  1004               	iorwf	(___awmod@divisor+1)^0,w,c
  4964   001C56  B4D8               	btfsc	status,2,c
  4965   001C58  EF30  F00E         	goto	u1491
  4966   001C5C  EF32  F00E         	goto	u1490
  4967   001C60                     u1491:
  4968   001C60  EF56  F00E         	goto	l2126
  4969   001C64                     u1490:
  4970   001C64  0E01               	movlw	1
  4971   001C66  6E05               	movwf	___awmod@counter^0,c
  4972   001C68  EF3A  F00E         	goto	l2116
  4973   001C6C                     l2114:
  4974   001C6C  90D8               	bcf	status,0,c
  4975   001C6E  3603               	rlcf	___awmod@divisor^0,f,c
  4976   001C70  3604               	rlcf	(___awmod@divisor+1)^0,f,c
  4977   001C72  2A05               	incf	___awmod@counter^0,f,c
  4978   001C74                     l2116:
  4979   001C74  AE04               	btfss	(___awmod@divisor+1)^0,7,c
  4980   001C76  EF3F  F00E         	goto	u1501
  4981   001C7A  EF41  F00E         	goto	u1500
  4982   001C7E                     u1501:
  4983   001C7E  EF36  F00E         	goto	l2114
  4984   001C82                     u1500:
  4985   001C82                     l2118:
  4986   001C82  5003               	movf	___awmod@divisor^0,w,c
  4987   001C84  5C01               	subwf	___awmod@dividend^0,w,c
  4988   001C86  5004               	movf	(___awmod@divisor+1)^0,w,c
  4989   001C88  5802               	subwfb	(___awmod@dividend+1)^0,w,c
  4990   001C8A  A0D8               	btfss	status,0,c
  4991   001C8C  EF4A  F00E         	goto	u1511
  4992   001C90  EF4C  F00E         	goto	u1510
  4993   001C94                     u1511:
  4994   001C94  EF50  F00E         	goto	l2122
  4995   001C98                     u1510:
  4996   001C98  5003               	movf	___awmod@divisor^0,w,c
  4997   001C9A  5E01               	subwf	___awmod@dividend^0,f,c
  4998   001C9C  5004               	movf	(___awmod@divisor+1)^0,w,c
  4999   001C9E  5A02               	subwfb	(___awmod@dividend+1)^0,f,c
  5000   001CA0                     l2122:
  5001   001CA0  90D8               	bcf	status,0,c
  5002   001CA2  3204               	rrcf	(___awmod@divisor+1)^0,f,c
  5003   001CA4  3203               	rrcf	___awmod@divisor^0,f,c
  5004   001CA6  2E05               	decfsz	___awmod@counter^0,f,c
  5005   001CA8  EF41  F00E         	goto	l2118
  5006   001CAC                     l2126:
  5007   001CAC  5006               	movf	___awmod@sign^0,w,c
  5008   001CAE  B4D8               	btfsc	status,2,c
  5009   001CB0  EF5C  F00E         	goto	u1521
  5010   001CB4  EF5E  F00E         	goto	u1520
  5011   001CB8                     u1521:
  5012   001CB8  EF62  F00E         	goto	l2130
  5013   001CBC                     u1520:
  5014   001CBC  6C01               	negf	___awmod@dividend^0,c
  5015   001CBE  1E02               	comf	(___awmod@dividend+1)^0,f,c
  5016   001CC0  B0D8               	btfsc	status,0,c
  5017   001CC2  2A02               	incf	(___awmod@dividend+1)^0,f,c
  5018   001CC4                     l2130:
  5019   001CC4  C001  F001         	movff	___awmod@dividend,?___awmod
  5020   001CC8  C002  F002         	movff	___awmod@dividend+1,?___awmod+1
  5021   001CCC  0012               	return		;funcret
  5022   001CCE                     __end_of___awmod:
  5023                           	callstack 0
  5024                           
  5025 ;; *************** function ___awdiv *****************
  5026 ;; Defined at:
  5027 ;;		line 7 in file "C:\Program Files\Microchip\xc8\v2.41\pic\sources\c99\common\awdiv.c"
  5028 ;; Parameters:    Size  Location     Type
  5029 ;;  dividend        2    6[COMRAM] int 
  5030 ;;  divisor         2    8[COMRAM] int 
  5031 ;; Auto vars:     Size  Location     Type
  5032 ;;  quotient        2   12[COMRAM] int 
  5033 ;;  sign            1   11[COMRAM] unsigned char 
  5034 ;;  counter         1   10[COMRAM] unsigned char 
  5035 ;; Return value:  Size  Location     Type
  5036 ;;                  2    6[COMRAM] int 
  5037 ;; Registers used:
  5038 ;;		wreg, status,2, status,0
  5039 ;; Tracked objects:
  5040 ;;		On entry : 0/0
  5041 ;;		On exit  : 0/0
  5042 ;;		Unchanged: 0/0
  5043 ;; Data sizes:     COMRAM   BANK0   BANK1   BANK2   BANK3   BANK4   BANK5
  5044 ;;      Params:         4       0       0       0       0       0       0
  5045 ;;      Locals:         4       0       0       0       0       0       0
  5046 ;;      Temps:          0       0       0       0       0       0       0
  5047 ;;      Totals:         8       0       0       0       0       0       0
  5048 ;;Total ram usage:        8 bytes
  5049 ;; Hardware stack levels used: 1
  5050 ;; This function calls:
  5051 ;;		Nothing
  5052 ;; This function is called by:
  5053 ;;		_main
  5054 ;;		_Seven_Segment_Positive_Tempreture_Output
  5055 ;;		_dtoa
  5056 ;; This function uses a non-reentrant model
  5057 ;;
  5058                           
  5059                           	psect	text26
  5060   001B5A                     __ptext26:
  5061                           	callstack 0
  5062   001B5A                     ___awdiv:
  5063                           	callstack 30
  5064   001B5A  0E00               	movlw	0
  5065   001B5C  6E0C               	movwf	___awdiv@sign^0,c
  5066   001B5E  BE0A               	btfsc	(___awdiv@divisor+1)^0,7,c
  5067   001B60  EFB6  F00D         	goto	u1410
  5068   001B64  EFB4  F00D         	goto	u1411
  5069   001B68                     u1411:
  5070   001B68  EFBC  F00D         	goto	l2062
  5071   001B6C                     u1410:
  5072   001B6C  6C09               	negf	___awdiv@divisor^0,c
  5073   001B6E  1E0A               	comf	(___awdiv@divisor+1)^0,f,c
  5074   001B70  B0D8               	btfsc	status,0,c
  5075   001B72  2A0A               	incf	(___awdiv@divisor+1)^0,f,c
  5076   001B74  0E01               	movlw	1
  5077   001B76  6E0C               	movwf	___awdiv@sign^0,c
  5078   001B78                     l2062:
  5079   001B78  BE08               	btfsc	(___awdiv@dividend+1)^0,7,c
  5080   001B7A  EFC3  F00D         	goto	u1420
  5081   001B7E  EFC1  F00D         	goto	u1421
  5082   001B82                     u1421:
  5083   001B82  EFC9  F00D         	goto	l2068
  5084   001B86                     u1420:
  5085   001B86  6C07               	negf	___awdiv@dividend^0,c
  5086   001B88  1E08               	comf	(___awdiv@dividend+1)^0,f,c
  5087   001B8A  B0D8               	btfsc	status,0,c
  5088   001B8C  2A08               	incf	(___awdiv@dividend+1)^0,f,c
  5089   001B8E  0E01               	movlw	1
  5090   001B90  1A0C               	xorwf	___awdiv@sign^0,f,c
  5091   001B92                     l2068:
  5092   001B92  0E00               	movlw	0
  5093   001B94  6E0E               	movwf	(___awdiv@quotient+1)^0,c
  5094   001B96  0E00               	movlw	0
  5095   001B98  6E0D               	movwf	___awdiv@quotient^0,c
  5096   001B9A  5009               	movf	___awdiv@divisor^0,w,c
  5097   001B9C  100A               	iorwf	(___awdiv@divisor+1)^0,w,c
  5098   001B9E  B4D8               	btfsc	status,2,c
  5099   001BA0  EFD4  F00D         	goto	u1431
  5100   001BA4  EFD6  F00D         	goto	u1430
  5101   001BA8                     u1431:
  5102   001BA8  EFFE  F00D         	goto	l2090
  5103   001BAC                     u1430:
  5104   001BAC  0E01               	movlw	1
  5105   001BAE  6E0B               	movwf	___awdiv@counter^0,c
  5106   001BB0  EFDE  F00D         	goto	l2076
  5107   001BB4                     l2074:
  5108   001BB4  90D8               	bcf	status,0,c
  5109   001BB6  3609               	rlcf	___awdiv@divisor^0,f,c
  5110   001BB8  360A               	rlcf	(___awdiv@divisor+1)^0,f,c
  5111   001BBA  2A0B               	incf	___awdiv@counter^0,f,c
  5112   001BBC                     l2076:
  5113   001BBC  AE0A               	btfss	(___awdiv@divisor+1)^0,7,c
  5114   001BBE  EFE3  F00D         	goto	u1441
  5115   001BC2  EFE5  F00D         	goto	u1440
  5116   001BC6                     u1441:
  5117   001BC6  EFDA  F00D         	goto	l2074
  5118   001BCA                     u1440:
  5119   001BCA                     l2078:
  5120   001BCA  90D8               	bcf	status,0,c
  5121   001BCC  360D               	rlcf	___awdiv@quotient^0,f,c
  5122   001BCE  360E               	rlcf	(___awdiv@quotient+1)^0,f,c
  5123   001BD0  5009               	movf	___awdiv@divisor^0,w,c
  5124   001BD2  5C07               	subwf	___awdiv@dividend^0,w,c
  5125   001BD4  500A               	movf	(___awdiv@divisor+1)^0,w,c
  5126   001BD6  5808               	subwfb	(___awdiv@dividend+1)^0,w,c
  5127   001BD8  A0D8               	btfss	status,0,c
  5128   001BDA  EFF1  F00D         	goto	u1451
  5129   001BDE  EFF3  F00D         	goto	u1450
  5130   001BE2                     u1451:
  5131   001BE2  EFF8  F00D         	goto	l2086
  5132   001BE6                     u1450:
  5133   001BE6  5009               	movf	___awdiv@divisor^0,w,c
  5134   001BE8  5E07               	subwf	___awdiv@dividend^0,f,c
  5135   001BEA  500A               	movf	(___awdiv@divisor+1)^0,w,c
  5136   001BEC  5A08               	subwfb	(___awdiv@dividend+1)^0,f,c
  5137   001BEE  800D               	bsf	___awdiv@quotient^0,0,c
  5138   001BF0                     l2086:
  5139   001BF0  90D8               	bcf	status,0,c
  5140   001BF2  320A               	rrcf	(___awdiv@divisor+1)^0,f,c
  5141   001BF4  3209               	rrcf	___awdiv@divisor^0,f,c
  5142   001BF6  2E0B               	decfsz	___awdiv@counter^0,f,c
  5143   001BF8  EFE5  F00D         	goto	l2078
  5144   001BFC                     l2090:
  5145   001BFC  500C               	movf	___awdiv@sign^0,w,c
  5146   001BFE  B4D8               	btfsc	status,2,c
  5147   001C00  EF04  F00E         	goto	u1461
  5148   001C04  EF06  F00E         	goto	u1460
  5149   001C08                     u1461:
  5150   001C08  EF0A  F00E         	goto	l2094
  5151   001C0C                     u1460:
  5152   001C0C  6C0D               	negf	___awdiv@quotient^0,c
  5153   001C0E  1E0E               	comf	(___awdiv@quotient+1)^0,f,c
  5154   001C10  B0D8               	btfsc	status,0,c
  5155   001C12  2A0E               	incf	(___awdiv@quotient+1)^0,f,c
  5156   001C14                     l2094:
  5157   001C14  C00D  F007         	movff	___awdiv@quotient,?___awdiv
  5158   001C18  C00E  F008         	movff	___awdiv@quotient+1,?___awdiv+1
  5159   001C1C  0012               	return		;funcret
  5160   001C1E                     __end_of___awdiv:
  5161                           	callstack 0
  5162                           
  5163 ;; *************** function _SYSTEM_Initialize *****************
  5164 ;; Defined at:
  5165 ;;		line 50 in file "mcc_generated_files/mcc.c"
  5166 ;; Parameters:    Size  Location     Type
  5167 ;;		None
  5168 ;; Auto vars:     Size  Location     Type
  5169 ;;		None
  5170 ;; Return value:  Size  Location     Type
  5171 ;;                  1    wreg      void 
  5172 ;; Registers used:
  5173 ;;		wreg, status,2, status,0, cstack
  5174 ;; Tracked objects:
  5175 ;;		On entry : 0/0
  5176 ;;		On exit  : 0/0
  5177 ;;		Unchanged: 0/0
  5178 ;; Data sizes:     COMRAM   BANK0   BANK1   BANK2   BANK3   BANK4   BANK5
  5179 ;;      Params:         0       0       0       0       0       0       0
  5180 ;;      Locals:         0       0       0       0       0       0       0
  5181 ;;      Temps:          0       0       0       0       0       0       0
  5182 ;;      Totals:         0       0       0       0       0       0       0
  5183 ;;Total ram usage:        0 bytes
  5184 ;; Hardware stack levels used: 1
  5185 ;; Hardware stack levels required when called: 2
  5186 ;; This function calls:
  5187 ;;		_ADC_Initialize
  5188 ;;		_EUSART_Initialize
  5189 ;;		_OSCILLATOR_Initialize
  5190 ;;		_PIN_MANAGER_Initialize
  5191 ;; This function is called by:
  5192 ;;		_main
  5193 ;; This function uses a non-reentrant model
  5194 ;;
  5195                           
  5196                           	psect	text27
  5197   002126                     __ptext27:
  5198                           	callstack 0
  5199   002126                     _SYSTEM_Initialize:
  5200                           	callstack 28
  5201   002126                     
  5202                           ;mcc_generated_files/mcc.c: 53:     PIN_MANAGER_Initialize();
  5203   002126  EC12  F010         	call	_PIN_MANAGER_Initialize	;wreg free
  5204                           
  5205                           ;mcc_generated_files/mcc.c: 54:     OSCILLATOR_Initialize();
  5206   00212A  EC9C  F010         	call	_OSCILLATOR_Initialize	;wreg free
  5207                           
  5208                           ;mcc_generated_files/mcc.c: 55:     ADC_Initialize();
  5209   00212E  EC6A  F010         	call	_ADC_Initialize	;wreg free
  5210   002132                     
  5211                           ;mcc_generated_files/mcc.c: 56:     EUSART_Initialize();
  5212   002132  ECD4  F00F         	call	_EUSART_Initialize	;wreg free
  5213   002136  0012               	return		;funcret
  5214   002138                     __end_of_SYSTEM_Initialize:
  5215                           	callstack 0
  5216                           
  5217 ;; *************** function _PIN_MANAGER_Initialize *****************
  5218 ;; Defined at:
  5219 ;;		line 55 in file "mcc_generated_files/pin_manager.c"
  5220 ;; Parameters:    Size  Location     Type
  5221 ;;		None
  5222 ;; Auto vars:     Size  Location     Type
  5223 ;;		None
  5224 ;; Return value:  Size  Location     Type
  5225 ;;                  1    wreg      void 
  5226 ;; Registers used:
  5227 ;;		wreg, status,2
  5228 ;; Tracked objects:
  5229 ;;		On entry : 0/0
  5230 ;;		On exit  : 0/0
  5231 ;;		Unchanged: 0/0
  5232 ;; Data sizes:     COMRAM   BANK0   BANK1   BANK2   BANK3   BANK4   BANK5
  5233 ;;      Params:         0       0       0       0       0       0       0
  5234 ;;      Locals:         0       0       0       0       0       0       0
  5235 ;;      Temps:          0       0       0       0       0       0       0
  5236 ;;      Totals:         0       0       0       0       0       0       0
  5237 ;;Total ram usage:        0 bytes
  5238 ;; Hardware stack levels used: 1
  5239 ;; This function calls:
  5240 ;;		Nothing
  5241 ;; This function is called by:
  5242 ;;		_SYSTEM_Initialize
  5243 ;; This function uses a non-reentrant model
  5244 ;;
  5245                           
  5246                           	psect	text28
  5247   002024                     __ptext28:
  5248                           	callstack 0
  5249   002024                     _PIN_MANAGER_Initialize:
  5250                           	callstack 29
  5251   002024                     
  5252                           ;mcc_generated_files/pin_manager.c: 60:     LATE = 0x00;
  5253   002024  0E00               	movlw	0
  5254   002026  6E8D               	movwf	141,c	;volatile
  5255                           
  5256                           ;mcc_generated_files/pin_manager.c: 61:     LATD = 0x00;
  5257   002028  0E00               	movlw	0
  5258   00202A  6E8C               	movwf	140,c	;volatile
  5259                           
  5260                           ;mcc_generated_files/pin_manager.c: 62:     LATA = 0x00;
  5261   00202C  0E00               	movlw	0
  5262   00202E  6E89               	movwf	137,c	;volatile
  5263                           
  5264                           ;mcc_generated_files/pin_manager.c: 63:     LATB = 0x00;
  5265   002030  0E00               	movlw	0
  5266   002032  6E8A               	movwf	138,c	;volatile
  5267                           
  5268                           ;mcc_generated_files/pin_manager.c: 64:     LATC = 0x00;
  5269   002034  0E00               	movlw	0
  5270   002036  6E8B               	movwf	139,c	;volatile
  5271                           
  5272                           ;mcc_generated_files/pin_manager.c: 69:     TRISE = 0x07;
  5273   002038  0E07               	movlw	7
  5274   00203A  6E96               	movwf	150,c	;volatile
  5275                           
  5276                           ;mcc_generated_files/pin_manager.c: 70:     TRISA = 0xD1;
  5277   00203C  0ED1               	movlw	209
  5278   00203E  6E92               	movwf	146,c	;volatile
  5279                           
  5280                           ;mcc_generated_files/pin_manager.c: 71:     TRISB = 0xE0;
  5281   002040  0EE0               	movlw	224
  5282   002042  6E93               	movwf	147,c	;volatile
  5283                           
  5284                           ;mcc_generated_files/pin_manager.c: 72:     TRISC = 0xBF;
  5285   002044  0EBF               	movlw	191
  5286   002046  6E94               	movwf	148,c	;volatile
  5287   002048                     
  5288                           ;mcc_generated_files/pin_manager.c: 73:     TRISD = 0xFF;
  5289   002048  6895               	setf	149,c	;volatile
  5290   00204A                     
  5291                           ;mcc_generated_files/pin_manager.c: 78:     ANSEL = 0xFF;
  5292   00204A  687E               	setf	126,c	;volatile
  5293                           
  5294                           ;mcc_generated_files/pin_manager.c: 79:     ANSELH = 0x1F;
  5295   00204C  0E1F               	movlw	31
  5296   00204E  6E7F               	movwf	127,c	;volatile
  5297                           
  5298                           ;mcc_generated_files/pin_manager.c: 84:     WPUB = 0x00;
  5299   002050  0E00               	movlw	0
  5300   002052  6E7C               	movwf	124,c	;volatile
  5301   002054                     
  5302                           ;mcc_generated_files/pin_manager.c: 85:     INTCON2bits.nRBPU = 1;
  5303   002054  8EF1               	bsf	241,7,c	;volatile
  5304   002056  0012               	return		;funcret
  5305   002058                     __end_of_PIN_MANAGER_Initialize:
  5306                           	callstack 0
  5307                           
  5308 ;; *************** function _OSCILLATOR_Initialize *****************
  5309 ;; Defined at:
  5310 ;;		line 59 in file "mcc_generated_files/mcc.c"
  5311 ;; Parameters:    Size  Location     Type
  5312 ;;		None
  5313 ;; Auto vars:     Size  Location     Type
  5314 ;;		None
  5315 ;; Return value:  Size  Location     Type
  5316 ;;                  1    wreg      void 
  5317 ;; Registers used:
  5318 ;;		wreg, status,2
  5319 ;; Tracked objects:
  5320 ;;		On entry : 0/0
  5321 ;;		On exit  : 0/0
  5322 ;;		Unchanged: 0/0
  5323 ;; Data sizes:     COMRAM   BANK0   BANK1   BANK2   BANK3   BANK4   BANK5
  5324 ;;      Params:         0       0       0       0       0       0       0
  5325 ;;      Locals:         0       0       0       0       0       0       0
  5326 ;;      Temps:          0       0       0       0       0       0       0
  5327 ;;      Totals:         0       0       0       0       0       0       0
  5328 ;;Total ram usage:        0 bytes
  5329 ;; Hardware stack levels used: 1
  5330 ;; This function calls:
  5331 ;;		Nothing
  5332 ;; This function is called by:
  5333 ;;		_SYSTEM_Initialize
  5334 ;; This function uses a non-reentrant model
  5335 ;;
  5336                           
  5337                           	psect	text29
  5338   002138                     __ptext29:
  5339                           	callstack 0
  5340   002138                     _OSCILLATOR_Initialize:
  5341                           	callstack 29
  5342   002138                     
  5343                           ;mcc_generated_files/mcc.c: 62:     OSCCON = 0x60;
  5344   002138  0E60               	movlw	96
  5345   00213A  6ED3               	movwf	211,c	;volatile
  5346                           
  5347                           ;mcc_generated_files/mcc.c: 64:     OSCTUNE = 0x00;
  5348   00213C  0E00               	movlw	0
  5349   00213E  6E9B               	movwf	155,c	;volatile
  5350   002140  0012               	return		;funcret
  5351   002142                     __end_of_OSCILLATOR_Initialize:
  5352                           	callstack 0
  5353                           
  5354 ;; *************** function _EUSART_Initialize *****************
  5355 ;; Defined at:
  5356 ;;		line 66 in file "mcc_generated_files/eusart.c"
  5357 ;; Parameters:    Size  Location     Type
  5358 ;;		None
  5359 ;; Auto vars:     Size  Location     Type
  5360 ;;		None
  5361 ;; Return value:  Size  Location     Type
  5362 ;;                  1    wreg      void 
  5363 ;; Registers used:
  5364 ;;		wreg, status,2, status,0, cstack
  5365 ;; Tracked objects:
  5366 ;;		On entry : 0/0
  5367 ;;		On exit  : 0/0
  5368 ;;		Unchanged: 0/0
  5369 ;; Data sizes:     COMRAM   BANK0   BANK1   BANK2   BANK3   BANK4   BANK5
  5370 ;;      Params:         0       0       0       0       0       0       0
  5371 ;;      Locals:         0       0       0       0       0       0       0
  5372 ;;      Temps:          0       0       0       0       0       0       0
  5373 ;;      Totals:         0       0       0       0       0       0       0
  5374 ;;Total ram usage:        0 bytes
  5375 ;; Hardware stack levels used: 1
  5376 ;; Hardware stack levels required when called: 1
  5377 ;; This function calls:
  5378 ;;		_EUSART_SetErrorHandler
  5379 ;;		_EUSART_SetFramingErrorHandler
  5380 ;;		_EUSART_SetOverrunErrorHandler
  5381 ;; This function is called by:
  5382 ;;		_SYSTEM_Initialize
  5383 ;; This function uses a non-reentrant model
  5384 ;;
  5385                           
  5386                           	psect	text30
  5387   001FA8                     __ptext30:
  5388                           	callstack 0
  5389   001FA8                     _EUSART_Initialize:
  5390                           	callstack 28
  5391   001FA8                     
  5392                           ;mcc_generated_files/eusart.c: 71:     BAUDCON = 0x08;
  5393   001FA8  0E08               	movlw	8
  5394   001FAA  6EB8               	movwf	184,c	;volatile
  5395                           
  5396                           ;mcc_generated_files/eusart.c: 74:     RCSTA = 0x90;
  5397   001FAC  0E90               	movlw	144
  5398   001FAE  6EAB               	movwf	171,c	;volatile
  5399                           
  5400                           ;mcc_generated_files/eusart.c: 77:     TXSTA = 0x24;
  5401   001FB0  0E24               	movlw	36
  5402   001FB2  6EAC               	movwf	172,c	;volatile
  5403                           
  5404                           ;mcc_generated_files/eusart.c: 80:     SPBRG = 0x08;
  5405   001FB4  0E08               	movlw	8
  5406   001FB6  6EAF               	movwf	175,c	;volatile
  5407                           
  5408                           ;mcc_generated_files/eusart.c: 83:     SPBRGH = 0x02;
  5409   001FB8  0E02               	movlw	2
  5410   001FBA  6EB0               	movwf	176,c	;volatile
  5411   001FBC                     
  5412                           ;mcc_generated_files/eusart.c: 86:     EUSART_SetFramingErrorHandler(EUSART_DefaultFrami
      +                          ngErrorHandler);
  5413   001FBC  0E00               	movlw	0
  5414   001FBE  6E01               	movwf	EUSART_SetFramingErrorHandler@interruptHandler^0,c
  5415   001FC0  0E00               	movlw	0
  5416   001FC2  6E02               	movwf	(EUSART_SetFramingErrorHandler@interruptHandler+1)^0,c
  5417   001FC4  ECA6  F010         	call	_EUSART_SetFramingErrorHandler	;wreg free
  5418   001FC8                     
  5419                           ;mcc_generated_files/eusart.c: 87:     EUSART_SetOverrunErrorHandler(EUSART_DefaultOverr
      +                          unErrorHandler);
  5420   001FC8  0E00               	movlw	0
  5421   001FCA  6E01               	movwf	EUSART_SetOverrunErrorHandler@interruptHandler^0,c
  5422   001FCC  0E00               	movlw	0
  5423   001FCE  6E02               	movwf	(EUSART_SetOverrunErrorHandler@interruptHandler+1)^0,c
  5424   001FD0  ECA1  F010         	call	_EUSART_SetOverrunErrorHandler	;wreg free
  5425   001FD4                     
  5426                           ;mcc_generated_files/eusart.c: 88:     EUSART_SetErrorHandler(EUSART_DefaultErrorHandler
      +                          );
  5427   001FD4  0E00               	movlw	0
  5428   001FD6  6E01               	movwf	EUSART_SetErrorHandler@interruptHandler^0,c
  5429   001FD8  0E00               	movlw	0
  5430   001FDA  6E02               	movwf	(EUSART_SetErrorHandler@interruptHandler+1)^0,c
  5431   001FDC  ECAB  F010         	call	_EUSART_SetErrorHandler	;wreg free
  5432   001FE0                     
  5433                           ;mcc_generated_files/eusart.c: 90:     eusartRxLastError.status = 0;
  5434   001FE0  0E00               	movlw	0
  5435   001FE2  0100               	movlb	0	; () banked
  5436   001FE4  6F73               	movwf	_eusartRxLastError& (0+255),b	;volatile
  5437   001FE6                     
  5438                           ; BSR set to: 0
  5439   001FE6  0012               	return		;funcret
  5440   001FE8                     __end_of_EUSART_Initialize:
  5441                           	callstack 0
  5442                           
  5443 ;; *************** function _EUSART_SetOverrunErrorHandler *****************
  5444 ;; Defined at:
  5445 ;;		line 161 in file "mcc_generated_files/eusart.c"
  5446 ;; Parameters:    Size  Location     Type
  5447 ;;  interruptHan    2    0[COMRAM] PTR FTN()void 
  5448 ;;		 -> EUSART_DefaultOverrunErrorHandler(1), 
  5449 ;; Auto vars:     Size  Location     Type
  5450 ;;		None
  5451 ;; Return value:  Size  Location     Type
  5452 ;;                  1    wreg      void 
  5453 ;; Registers used:
  5454 ;;		wreg, status,2, status,0
  5455 ;; Tracked objects:
  5456 ;;		On entry : 0/0
  5457 ;;		On exit  : 0/0
  5458 ;;		Unchanged: 0/0
  5459 ;; Data sizes:     COMRAM   BANK0   BANK1   BANK2   BANK3   BANK4   BANK5
  5460 ;;      Params:         2       0       0       0       0       0       0
  5461 ;;      Locals:         0       0       0       0       0       0       0
  5462 ;;      Temps:          0       0       0       0       0       0       0
  5463 ;;      Totals:         2       0       0       0       0       0       0
  5464 ;;Total ram usage:        2 bytes
  5465 ;; Hardware stack levels used: 1
  5466 ;; This function calls:
  5467 ;;		Nothing
  5468 ;; This function is called by:
  5469 ;;		_EUSART_Initialize
  5470 ;; This function uses a non-reentrant model
  5471 ;;
  5472                           
  5473                           	psect	text31
  5474   002142                     __ptext31:
  5475                           	callstack 0
  5476   002142                     _EUSART_SetOverrunErrorHandler:
  5477                           	callstack 28
  5478   002142                     
  5479                           ;mcc_generated_files/eusart.c: 162:     EUSART_OverrunErrorHandler = interruptHandler;
  5480   002142  C001  F0CF         	movff	EUSART_SetOverrunErrorHandler@interruptHandler,_EUSART_OverrunErrorHandler
  5481   002146  C002  F0D0         	movff	EUSART_SetOverrunErrorHandler@interruptHandler+1,_EUSART_OverrunErrorHandler+1
  5482   00214A  0012               	return		;funcret
  5483   00214C                     __end_of_EUSART_SetOverrunErrorHandler:
  5484                           	callstack 0
  5485                           
  5486 ;; *************** function _EUSART_SetFramingErrorHandler *****************
  5487 ;; Defined at:
  5488 ;;		line 157 in file "mcc_generated_files/eusart.c"
  5489 ;; Parameters:    Size  Location     Type
  5490 ;;  interruptHan    2    0[COMRAM] PTR FTN()void 
  5491 ;;		 -> EUSART_DefaultFramingErrorHandler(1), 
  5492 ;; Auto vars:     Size  Location     Type
  5493 ;;		None
  5494 ;; Return value:  Size  Location     Type
  5495 ;;                  1    wreg      void 
  5496 ;; Registers used:
  5497 ;;		wreg, status,2, status,0
  5498 ;; Tracked objects:
  5499 ;;		On entry : 0/0
  5500 ;;		On exit  : 0/0
  5501 ;;		Unchanged: 0/0
  5502 ;; Data sizes:     COMRAM   BANK0   BANK1   BANK2   BANK3   BANK4   BANK5
  5503 ;;      Params:         2       0       0       0       0       0       0
  5504 ;;      Locals:         0       0       0       0       0       0       0
  5505 ;;      Temps:          0       0       0       0       0       0       0
  5506 ;;      Totals:         2       0       0       0       0       0       0
  5507 ;;Total ram usage:        2 bytes
  5508 ;; Hardware stack levels used: 1
  5509 ;; This function calls:
  5510 ;;		Nothing
  5511 ;; This function is called by:
  5512 ;;		_EUSART_Initialize
  5513 ;; This function uses a non-reentrant model
  5514 ;;
  5515                           
  5516                           	psect	text32
  5517   00214C                     __ptext32:
  5518                           	callstack 0
  5519   00214C                     _EUSART_SetFramingErrorHandler:
  5520                           	callstack 28
  5521   00214C                     
  5522                           ;mcc_generated_files/eusart.c: 158:     EUSART_FramingErrorHandler = interruptHandler;
  5523   00214C  C001  F0D1         	movff	EUSART_SetFramingErrorHandler@interruptHandler,_EUSART_FramingErrorHandler
  5524   002150  C002  F0D2         	movff	EUSART_SetFramingErrorHandler@interruptHandler+1,_EUSART_FramingErrorHandler+1
  5525   002154  0012               	return		;funcret
  5526   002156                     __end_of_EUSART_SetFramingErrorHandler:
  5527                           	callstack 0
  5528                           
  5529 ;; *************** function _EUSART_SetErrorHandler *****************
  5530 ;; Defined at:
  5531 ;;		line 165 in file "mcc_generated_files/eusart.c"
  5532 ;; Parameters:    Size  Location     Type
  5533 ;;  interruptHan    2    0[COMRAM] PTR FTN()void 
  5534 ;;		 -> EUSART_DefaultErrorHandler(1), 
  5535 ;; Auto vars:     Size  Location     Type
  5536 ;;		None
  5537 ;; Return value:  Size  Location     Type
  5538 ;;                  1    wreg      void 
  5539 ;; Registers used:
  5540 ;;		wreg, status,2, status,0
  5541 ;; Tracked objects:
  5542 ;;		On entry : 0/0
  5543 ;;		On exit  : 0/0
  5544 ;;		Unchanged: 0/0
  5545 ;; Data sizes:     COMRAM   BANK0   BANK1   BANK2   BANK3   BANK4   BANK5
  5546 ;;      Params:         2       0       0       0       0       0       0
  5547 ;;      Locals:         0       0       0       0       0       0       0
  5548 ;;      Temps:          0       0       0       0       0       0       0
  5549 ;;      Totals:         2       0       0       0       0       0       0
  5550 ;;Total ram usage:        2 bytes
  5551 ;; Hardware stack levels used: 1
  5552 ;; This function calls:
  5553 ;;		Nothing
  5554 ;; This function is called by:
  5555 ;;		_EUSART_Initialize
  5556 ;; This function uses a non-reentrant model
  5557 ;;
  5558                           
  5559                           	psect	text33
  5560   002156                     __ptext33:
  5561                           	callstack 0
  5562   002156                     _EUSART_SetErrorHandler:
  5563                           	callstack 28
  5564   002156                     
  5565                           ;mcc_generated_files/eusart.c: 166:     EUSART_ErrorHandler = interruptHandler;
  5566   002156  C001  F0CD         	movff	EUSART_SetErrorHandler@interruptHandler,_EUSART_ErrorHandler
  5567   00215A  C002  F0CE         	movff	EUSART_SetErrorHandler@interruptHandler+1,_EUSART_ErrorHandler+1
  5568   00215E  0012               	return		;funcret
  5569   002160                     __end_of_EUSART_SetErrorHandler:
  5570                           	callstack 0
  5571                           
  5572 ;; *************** function _ADC_Initialize *****************
  5573 ;; Defined at:
  5574 ;;		line 62 in file "mcc_generated_files/adc.c"
  5575 ;; Parameters:    Size  Location     Type
  5576 ;;		None
  5577 ;; Auto vars:     Size  Location     Type
  5578 ;;		None
  5579 ;; Return value:  Size  Location     Type
  5580 ;;                  1    wreg      void 
  5581 ;; Registers used:
  5582 ;;		wreg, status,2
  5583 ;; Tracked objects:
  5584 ;;		On entry : 0/0
  5585 ;;		On exit  : 0/0
  5586 ;;		Unchanged: 0/0
  5587 ;; Data sizes:     COMRAM   BANK0   BANK1   BANK2   BANK3   BANK4   BANK5
  5588 ;;      Params:         0       0       0       0       0       0       0
  5589 ;;      Locals:         0       0       0       0       0       0       0
  5590 ;;      Temps:          0       0       0       0       0       0       0
  5591 ;;      Totals:         0       0       0       0       0       0       0
  5592 ;;Total ram usage:        0 bytes
  5593 ;; Hardware stack levels used: 1
  5594 ;; This function calls:
  5595 ;;		Nothing
  5596 ;; This function is called by:
  5597 ;;		_SYSTEM_Initialize
  5598 ;; This function uses a non-reentrant model
  5599 ;;
  5600                           
  5601                           	psect	text34
  5602   0020D4                     __ptext34:
  5603                           	callstack 0
  5604   0020D4                     _ADC_Initialize:
  5605                           	callstack 29
  5606   0020D4                     
  5607                           ;mcc_generated_files/adc.c: 67:     ADCON1 = 0x00;
  5608   0020D4  0E00               	movlw	0
  5609   0020D6  6EC1               	movwf	193,c	;volatile
  5610                           
  5611                           ;mcc_generated_files/adc.c: 70:     ADCON2 = 0xBA;
  5612   0020D8  0EBA               	movlw	186
  5613   0020DA  6EC0               	movwf	192,c	;volatile
  5614                           
  5615                           ;mcc_generated_files/adc.c: 73:     ADRESL = 0x00;
  5616   0020DC  0E00               	movlw	0
  5617   0020DE  6EC3               	movwf	195,c	;volatile
  5618                           
  5619                           ;mcc_generated_files/adc.c: 76:     ADRESH = 0x00;
  5620   0020E0  0E00               	movlw	0
  5621   0020E2  6EC4               	movwf	196,c	;volatile
  5622                           
  5623                           ;mcc_generated_files/adc.c: 79:     ADCON0 = 0x01;
  5624   0020E4  0E01               	movlw	1
  5625   0020E6  6EC2               	movwf	194,c	;volatile
  5626   0020E8  0012               	return		;funcret
  5627   0020EA                     __end_of_ADC_Initialize:
  5628                           	callstack 0
  5629                           
  5630 ;; *************** function _ADC_StartConversion *****************
  5631 ;; Defined at:
  5632 ;;		line 91 in file "mcc_generated_files/adc.c"
  5633 ;; Parameters:    Size  Location     Type
  5634 ;;		None
  5635 ;; Auto vars:     Size  Location     Type
  5636 ;;		None
  5637 ;; Return value:  Size  Location     Type
  5638 ;;                  1    wreg      void 
  5639 ;; Registers used:
  5640 ;;		None
  5641 ;; Tracked objects:
  5642 ;;		On entry : 0/0
  5643 ;;		On exit  : 0/0
  5644 ;;		Unchanged: 0/0
  5645 ;; Data sizes:     COMRAM   BANK0   BANK1   BANK2   BANK3   BANK4   BANK5
  5646 ;;      Params:         0       0       0       0       0       0       0
  5647 ;;      Locals:         0       0       0       0       0       0       0
  5648 ;;      Temps:          0       0       0       0       0       0       0
  5649 ;;      Totals:         0       0       0       0       0       0       0
  5650 ;;Total ram usage:        0 bytes
  5651 ;; Hardware stack levels used: 1
  5652 ;; This function calls:
  5653 ;;		Nothing
  5654 ;; This function is called by:
  5655 ;;		_main
  5656 ;; This function uses a non-reentrant model
  5657 ;;
  5658                           
  5659                           	psect	text35
  5660   002168                     __ptext35:
  5661                           	callstack 0
  5662   002168                     _ADC_StartConversion:
  5663                           	callstack 30
  5664   002168                     
  5665                           ;mcc_generated_files/adc.c: 94:     ADCON0bits.GO_nDONE = 1;
  5666   002168  82C2               	bsf	194,1,c	;volatile
  5667   00216A  0012               	return		;funcret
  5668   00216C                     __end_of_ADC_StartConversion:
  5669                           	callstack 0
  5670                           
  5671 ;; *************** function _ADC_SelectChannel *****************
  5672 ;; Defined at:
  5673 ;;		line 83 in file "mcc_generated_files/adc.c"
  5674 ;; Parameters:    Size  Location     Type
  5675 ;;  channel         1    wreg     enum E2717
  5676 ;; Auto vars:     Size  Location     Type
  5677 ;;  channel         1    1[COMRAM] enum E2717
  5678 ;; Return value:  Size  Location     Type
  5679 ;;                  1    wreg      void 
  5680 ;; Registers used:
  5681 ;;		wreg, status,2, status,0
  5682 ;; Tracked objects:
  5683 ;;		On entry : 0/0
  5684 ;;		On exit  : 0/0
  5685 ;;		Unchanged: 0/0
  5686 ;; Data sizes:     COMRAM   BANK0   BANK1   BANK2   BANK3   BANK4   BANK5
  5687 ;;      Params:         0       0       0       0       0       0       0
  5688 ;;      Locals:         1       0       0       0       0       0       0
  5689 ;;      Temps:          1       0       0       0       0       0       0
  5690 ;;      Totals:         2       0       0       0       0       0       0
  5691 ;;Total ram usage:        2 bytes
  5692 ;; Hardware stack levels used: 1
  5693 ;; This function calls:
  5694 ;;		Nothing
  5695 ;; This function is called by:
  5696 ;;		_main
  5697 ;; This function uses a non-reentrant model
  5698 ;;
  5699                           
  5700                           	psect	text36
  5701   0020A6                     __ptext36:
  5702                           	callstack 0
  5703   0020A6                     _ADC_SelectChannel:
  5704                           	callstack 30
  5705                           
  5706                           ;incstack = 0
  5707                           ;ADC_SelectChannel@channel stored from wreg
  5708   0020A6  6E02               	movwf	ADC_SelectChannel@channel^0,c
  5709   0020A8                     
  5710                           ;mcc_generated_files/adc.c: 83: void ADC_SelectChannel(adc_channel_t channel);mcc_genera
      +                          ted_files/adc.c: 84: {;mcc_generated_files/adc.c: 86:     ADCON0bits.CHS = channel;
  5711   0020A8  C002  F001         	movff	ADC_SelectChannel@channel,??_ADC_SelectChannel
  5712   0020AC  4601               	rlncf	??_ADC_SelectChannel^0,f,c
  5713   0020AE  4601               	rlncf	??_ADC_SelectChannel^0,f,c
  5714   0020B0  50C2               	movf	194,w,c	;volatile
  5715   0020B2  1801               	xorwf	??_ADC_SelectChannel^0,w,c
  5716   0020B4  0BC3               	andlw	-61
  5717   0020B6  1801               	xorwf	??_ADC_SelectChannel^0,w,c
  5718   0020B8  6EC2               	movwf	194,c	;volatile
  5719   0020BA                     
  5720                           ;mcc_generated_files/adc.c: 88:     ADCON0bits.ADON = 1;
  5721   0020BA  80C2               	bsf	194,0,c	;volatile
  5722   0020BC  0012               	return		;funcret
  5723   0020BE                     __end_of_ADC_SelectChannel:
  5724                           	callstack 0
  5725                           
  5726 ;; *************** function _ADC_IsConversionDone *****************
  5727 ;; Defined at:
  5728 ;;		line 98 in file "mcc_generated_files/adc.c"
  5729 ;; Parameters:    Size  Location     Type
  5730 ;;		None
  5731 ;; Auto vars:     Size  Location     Type
  5732 ;;		None
  5733 ;; Return value:  Size  Location     Type
  5734 ;;                  1    wreg      _Bool 
  5735 ;; Registers used:
  5736 ;;		wreg
  5737 ;; Tracked objects:
  5738 ;;		On entry : 0/0
  5739 ;;		On exit  : 0/0
  5740 ;;		Unchanged: 0/0
  5741 ;; Data sizes:     COMRAM   BANK0   BANK1   BANK2   BANK3   BANK4   BANK5
  5742 ;;      Params:         0       0       0       0       0       0       0
  5743 ;;      Locals:         0       0       0       0       0       0       0
  5744 ;;      Temps:          0       0       0       0       0       0       0
  5745 ;;      Totals:         0       0       0       0       0       0       0
  5746 ;;Total ram usage:        0 bytes
  5747 ;; Hardware stack levels used: 1
  5748 ;; This function calls:
  5749 ;;		Nothing
  5750 ;; This function is called by:
  5751 ;;		_main
  5752 ;; This function uses a non-reentrant model
  5753 ;;
  5754                           
  5755                           	psect	text37
  5756   0020FE                     __ptext37:
  5757                           	callstack 0
  5758   0020FE                     _ADC_IsConversionDone:
  5759                           	callstack 30
  5760   0020FE                     
  5761                           ;mcc_generated_files/adc.c: 101:     return ((_Bool)(!ADCON0bits.GO_nDONE));
  5762   0020FE  A2C2               	btfss	194,1,c	;volatile
  5763   002100  EF84  F010         	goto	u2061
  5764   002104  EF87  F010         	goto	u2060
  5765   002108                     u2061:
  5766   002108  0E01               	movlw	1
  5767   00210A  EF88  F010         	goto	u2070
  5768   00210E                     u2060:
  5769   00210E  0E00               	movlw	0
  5770   002110                     u2070:
  5771   002110  0012               	return		;funcret
  5772   002112                     __end_of_ADC_IsConversionDone:
  5773                           	callstack 0
  5774                           
  5775 ;; *************** function _ADC_GetConversionResult *****************
  5776 ;; Defined at:
  5777 ;;		line 104 in file "mcc_generated_files/adc.c"
  5778 ;; Parameters:    Size  Location     Type
  5779 ;;		None
  5780 ;; Auto vars:     Size  Location     Type
  5781 ;;		None
  5782 ;; Return value:  Size  Location     Type
  5783 ;;                  2    0[COMRAM] unsigned short 
  5784 ;; Registers used:
  5785 ;;		wreg, status,2, status,0
  5786 ;; Tracked objects:
  5787 ;;		On entry : 0/0
  5788 ;;		On exit  : 0/0
  5789 ;;		Unchanged: 0/0
  5790 ;; Data sizes:     COMRAM   BANK0   BANK1   BANK2   BANK3   BANK4   BANK5
  5791 ;;      Params:         2       0       0       0       0       0       0
  5792 ;;      Locals:         0       0       0       0       0       0       0
  5793 ;;      Temps:          2       0       0       0       0       0       0
  5794 ;;      Totals:         4       0       0       0       0       0       0
  5795 ;;Total ram usage:        4 bytes
  5796 ;; Hardware stack levels used: 1
  5797 ;; This function calls:
  5798 ;;		Nothing
  5799 ;; This function is called by:
  5800 ;;		_main
  5801 ;; This function uses a non-reentrant model
  5802 ;;
  5803                           
  5804                           	psect	text38
  5805   002112                     __ptext38:
  5806                           	callstack 0
  5807   002112                     _ADC_GetConversionResult:
  5808                           	callstack 30
  5809   002112                     
  5810                           ;mcc_generated_files/adc.c: 107:      return ((adc_result_t)((ADRESH << 8) + ADRESL));
  5811   002112  50C4               	movf	196,w,c	;volatile
  5812   002114  6E04               	movwf	(??_ADC_GetConversionResult+1)^0,c
  5813   002116  6A03               	clrf	??_ADC_GetConversionResult^0,c
  5814   002118  50C3               	movf	195,w,c	;volatile
  5815   00211A  2403               	addwf	??_ADC_GetConversionResult^0,w,c
  5816   00211C  6E01               	movwf	?_ADC_GetConversionResult^0,c
  5817   00211E  0E00               	movlw	0
  5818   002120  2004               	addwfc	(??_ADC_GetConversionResult+1)^0,w,c
  5819   002122  6E02               	movwf	(?_ADC_GetConversionResult+1)^0,c
  5820   002124  0012               	return		;funcret
  5821   002126                     __end_of_ADC_GetConversionResult:
  5822                           	callstack 0
  5823                           
  5824                           	psect	rparam
  5825   000000                     
  5826                           	psect	idloc
  5827                           
  5828                           ;Config register IDLOC0 @ 0x200000
  5829                           ;	unspecified, using default values
  5830   200000                     	org	2097152
  5831   200000  FF                 	db	255
  5832                           
  5833                           ;Config register IDLOC1 @ 0x200001
  5834                           ;	unspecified, using default values
  5835   200001                     	org	2097153
  5836   200001  FF                 	db	255
  5837                           
  5838                           ;Config register IDLOC2 @ 0x200002
  5839                           ;	unspecified, using default values
  5840   200002                     	org	2097154
  5841   200002  FF                 	db	255
  5842                           
  5843                           ;Config register IDLOC3 @ 0x200003
  5844                           ;	unspecified, using default values
  5845   200003                     	org	2097155
  5846   200003  FF                 	db	255
  5847                           
  5848                           ;Config register IDLOC4 @ 0x200004
  5849                           ;	unspecified, using default values
  5850   200004                     	org	2097156
  5851   200004  FF                 	db	255
  5852                           
  5853                           ;Config register IDLOC5 @ 0x200005
  5854                           ;	unspecified, using default values
  5855   200005                     	org	2097157
  5856   200005  FF                 	db	255
  5857                           
  5858                           ;Config register IDLOC6 @ 0x200006
  5859                           ;	unspecified, using default values
  5860   200006                     	org	2097158
  5861   200006  FF                 	db	255
  5862                           
  5863                           ;Config register IDLOC7 @ 0x200007
  5864                           ;	unspecified, using default values
  5865   200007                     	org	2097159
  5866   200007  FF                 	db	255
  5867                           
  5868                           	psect	config
  5869                           
  5870                           ; Padding undefined space
  5871   300000                     	org	3145728
  5872   300000  FF                 	db	255
  5873                           
  5874                           ;Config register CONFIG1H @ 0x300001
  5875                           ;	Oscillator Selection bits
  5876                           ;	FOSC = HS, HS oscillator
  5877                           ;	Fail-Safe Clock Monitor Enable bit
  5878                           ;	FCMEN = OFF, Fail-Safe Clock Monitor disabled
  5879                           ;	Internal/External Oscillator Switchover bit
  5880                           ;	IESO = OFF, Oscillator Switchover mode disabled
  5881   300001                     	org	3145729
  5882   300001  02                 	db	2
  5883                           
  5884                           ;Config register CONFIG2L @ 0x300002
  5885                           ;	Power-up Timer Enable bit
  5886                           ;	PWRT = OFF, PWRT disabled
  5887                           ;	Brown-out Reset Enable bits
  5888                           ;	BOREN = SBORDIS, Brown-out Reset enabled in hardware only (SBOREN is disabled)
  5889                           ;	Brown Out Reset Voltage bits
  5890                           ;	BORV = 18, VBOR set to 1.8 V nominal
  5891   300002                     	org	3145730
  5892   300002  1F                 	db	31
  5893                           
  5894                           ;Config register CONFIG2H @ 0x300003
  5895                           ;	Watchdog Timer Enable bit
  5896                           ;	WDTEN = OFF, WDT is controlled by SWDTEN bit of the WDTCON register
  5897                           ;	Watchdog Timer Postscale Select bits
  5898                           ;	WDTPS = 32768, 1:32768
  5899   300003                     	org	3145731
  5900   300003  1E                 	db	30
  5901                           
  5902                           ; Padding undefined space
  5903   300004                     	org	3145732
  5904   300004  FF                 	db	255
  5905                           
  5906                           ;Config register CONFIG3H @ 0x300005
  5907                           ;	CCP2 MUX bit
  5908                           ;	CCP2MX = PORTC, CCP2 input/output is multiplexed with RC1
  5909                           ;	PORTB A/D Enable bit
  5910                           ;	PBADEN = ON, PORTB<4:0> pins are configured as analog input channels on Reset
  5911                           ;	Low-Power Timer1 Oscillator Enable bit
  5912                           ;	LPT1OSC = OFF, Timer1 configured for higher power operation
  5913                           ;	HFINTOSC Fast Start-up
  5914                           ;	HFOFST = ON, HFINTOSC starts clocking the CPU without waiting for the oscillator to st
      +                          ablize.
  5915                           ;	MCLR Pin Enable bit
  5916                           ;	MCLRE = ON, MCLR pin enabled; RE3 input pin disabled
  5917   300005                     	org	3145733
  5918   300005  8B                 	db	139
  5919                           
  5920                           ;Config register CONFIG4L @ 0x300006
  5921                           ;	Stack Full/Underflow Reset Enable bit
  5922                           ;	STVREN = ON, Stack full/underflow will cause Reset
  5923                           ;	Single-Supply ICSP Enable bit
  5924                           ;	LVP = OFF, Single-Supply ICSP disabled
  5925                           ;	Extended Instruction Set Enable bit
  5926                           ;	XINST = OFF, Instruction set extension and Indexed Addressing mode disabled (Legacy mo
      +                          de)
  5927                           ;	Background Debugger Enable bit
  5928                           ;	DEBUG = OFF, Background debugger disabled, RB6 and RB7 configured as general purpose I
      +                          /O pins
  5929   300006                     	org	3145734
  5930   300006  81                 	db	129
  5931                           
  5932                           ; Padding undefined space
  5933   300007                     	org	3145735
  5934   300007  FF                 	db	255
  5935                           
  5936                           ;Config register CONFIG5L @ 0x300008
  5937                           ;	Code Protection Block 0
  5938                           ;	CP0 = OFF, Block 0 (000800-001FFFh) not code-protected
  5939                           ;	Code Protection Block 1
  5940                           ;	CP1 = OFF, Block 1 (002000-003FFFh) not code-protected
  5941                           ;	Code Protection Block 2
  5942                           ;	CP2 = OFF, Block 2 (004000-005FFFh) not code-protected
  5943                           ;	Code Protection Block 3
  5944                           ;	CP3 = OFF, Block 3 (006000-007FFFh) not code-protected
  5945   300008                     	org	3145736
  5946   300008  0F                 	db	15
  5947                           
  5948                           ;Config register CONFIG5H @ 0x300009
  5949                           ;	Boot Block Code Protection bit
  5950                           ;	CPB = OFF, Boot block (000000-0007FFh) not code-protected
  5951                           ;	Data EEPROM Code Protection bit
  5952                           ;	CPD = OFF, Data EEPROM not code-protected
  5953   300009                     	org	3145737
  5954   300009  C0                 	db	192
  5955                           
  5956                           ;Config register CONFIG6L @ 0x30000A
  5957                           ;	Write Protection Block 0
  5958                           ;	WRT0 = OFF, Block 0 (000800-001FFFh) not write-protected
  5959                           ;	Write Protection Block 1
  5960                           ;	WRT1 = OFF, Block 1 (002000-003FFFh) not write-protected
  5961                           ;	Write Protection Block 2
  5962                           ;	WRT2 = OFF, Block 2 (004000-005FFFh) not write-protected
  5963                           ;	Write Protection Block 3
  5964                           ;	WRT3 = OFF, Block 3 (006000-007FFFh) not write-protected
  5965   30000A                     	org	3145738
  5966   30000A  0F                 	db	15
  5967                           
  5968                           ;Config register CONFIG6H @ 0x30000B
  5969                           ;	Configuration Register Write Protection bit
  5970                           ;	WRTC = OFF, Configuration registers (300000-3000FFh) not write-protected
  5971                           ;	Boot Block Write Protection bit
  5972                           ;	WRTB = OFF, Boot Block (000000-0007FFh) not write-protected
  5973                           ;	Data EEPROM Write Protection bit
  5974                           ;	WRTD = OFF, Data EEPROM not write-protected
  5975   30000B                     	org	3145739
  5976   30000B  E0                 	db	224
  5977                           
  5978                           ;Config register CONFIG7L @ 0x30000C
  5979                           ;	Table Read Protection Block 0
  5980                           ;	EBTR0 = OFF, Block 0 (000800-001FFFh) not protected from table reads executed in other
      +                           blocks
  5981                           ;	Table Read Protection Block 1
  5982                           ;	EBTR1 = OFF, Block 1 (002000-003FFFh) not protected from table reads executed in other
      +                           blocks
  5983                           ;	Table Read Protection Block 2
  5984                           ;	EBTR2 = OFF, Block 2 (004000-005FFFh) not protected from table reads executed in other
      +                           blocks
  5985                           ;	Table Read Protection Block 3
  5986                           ;	EBTR3 = OFF, Block 3 (006000-007FFFh) not protected from table reads executed in other
      +                           blocks
  5987   30000C                     	org	3145740
  5988   30000C  0F                 	db	15
  5989                           
  5990                           ;Config register CONFIG7H @ 0x30000D
  5991                           ;	Boot Block Table Read Protection bit
  5992                           ;	EBTRB = OFF, Boot Block (000000-0007FFh) not protected from table reads executed in ot
      +                          her blocks
  5993   30000D                     	org	3145741
  5994   30000D  40                 	db	64
  5995                           tosu	equ	0xFFF
  5996                           tosh	equ	0xFFE
  5997                           tosl	equ	0xFFD
  5998                           stkptr	equ	0xFFC
  5999                           pclatu	equ	0xFFB
  6000                           pclath	equ	0xFFA
  6001                           pcl	equ	0xFF9
  6002                           tblptru	equ	0xFF8
  6003                           tblptrh	equ	0xFF7
  6004                           tblptrl	equ	0xFF6
  6005                           tablat	equ	0xFF5
  6006                           prodh	equ	0xFF4
  6007                           prodl	equ	0xFF3
  6008                           indf0	equ	0xFEF
  6009                           postinc0	equ	0xFEE
  6010                           postdec0	equ	0xFED
  6011                           preinc0	equ	0xFEC
  6012                           plusw0	equ	0xFEB
  6013                           fsr0h	equ	0xFEA
  6014                           fsr0l	equ	0xFE9
  6015                           wreg	equ	0xFE8
  6016                           indf1	equ	0xFE7
  6017                           postinc1	equ	0xFE6
  6018                           postdec1	equ	0xFE5
  6019                           preinc1	equ	0xFE4
  6020                           plusw1	equ	0xFE3
  6021                           fsr1h	equ	0xFE2
  6022                           fsr1l	equ	0xFE1
  6023                           bsr	equ	0xFE0
  6024                           indf2	equ	0xFDF
  6025                           postinc2	equ	0xFDE
  6026                           postdec2	equ	0xFDD
  6027                           preinc2	equ	0xFDC
  6028                           plusw2	equ	0xFDB
  6029                           fsr2h	equ	0xFDA
  6030                           fsr2l	equ	0xFD9
  6031                           status	equ	0xFD8

Data Sizes:
    Strings     45
    Constant    0
    Data        7
    BSS         105
    Persistent  6
    Stack       0

Auto Spaces:
    Space          Size  Autos    Used
    COMRAM           95     92      95
    BANK0           160      0     115
    BANK1           256      0       0
    BANK2           256      0       0
    BANK3           256      0       0
    BANK4           256      0       0
    BANK5           256      0       0

Pointer List with Targets:

    ADC_InterruptHandler	PTR FTN()void  size(2) Largest target is 1
		 -> NULL(), 

    strncmp@_r	PTR const unsigned char  size(2) Largest target is 4
		 -> STR_6(CODE[4]), 

    strncmp@r	PTR const unsigned char  size(2) Largest target is 4
		 -> STR_6(CODE[4]), 

    strncmp@_l	PTR const unsigned char  size(2) Largest target is 13
		 -> STR_1(CODE[13]), 

    strncmp@l	PTR const unsigned char  size(2) Largest target is 13
		 -> STR_1(CODE[13]), 

    strlen@s	PTR const unsigned char  size(2) Largest target is 7
		 -> stoa@nuls(COMRAM[7]), ?_sprintf(COMRAM[2]), STR_3(CODE[13]), STR_2(CODE[15]), 

    strlen@a	PTR const unsigned char  size(2) Largest target is 7
		 -> stoa@nuls(COMRAM[7]), ?_sprintf(COMRAM[2]), STR_3(CODE[13]), STR_2(CODE[15]), 

    fputs@s	PTR const unsigned char  size(2) Largest target is 32
		 -> dbuf(BANK0[32]), 

    fputs@fp	PTR struct _IO_FILE size(2) Largest target is 12
		 -> sprintf@f(COMRAM[12]), 

    fputc@fp...source	PTR const unsigned char  size(2) Largest target is 0

    fputc@fp...buffer	PTR unsigned char  size(2) Largest target is 0

    fputc@fp	PTR struct _IO_FILE size(2) Largest target is 12
		 -> sprintf@f(COMRAM[12]), 

    vfprintf@ap	PTR PTR void  size(2) Largest target is 2
		 -> sprintf@ap(COMRAM[2]), 

    vfprintf@fp	PTR struct _IO_FILE size(2) Largest target is 12
		 -> sprintf@f(COMRAM[12]), 

    vfprintf@fmt	PTR const unsigned char  size(2) Largest target is 13
		 -> STR_1(CODE[13]), 

    vfprintf@cfmt	PTR unsigned char  size(2) Largest target is 13
		 -> STR_1(CODE[13]), 

    vfpfcnvrt@fp	PTR struct _IO_FILE size(2) Largest target is 12
		 -> sprintf@f(COMRAM[12]), 

    vfpfcnvrt@cp	PTR unsigned char  size(2) Largest target is 13
		 -> STR_1(CODE[13]), 

    vfpfcnvrt@ap	PTR PTR void  size(2) Largest target is 2
		 -> sprintf@ap(COMRAM[2]), 

    vfpfcnvrt@fmt	PTR PTR unsigned char  size(2) Largest target is 2
		 -> vfprintf@cfmt(COMRAM[2]), 

    S1148$vp	PTR void  size(2) Largest target is 0

    convarg.vp	PTR void  size(2) Largest target is 0

    read_prec_or_width@ap	PTR PTR void [1] size(2) Largest target is 2
		 -> sprintf@ap(COMRAM[2]), 

    read_prec_or_width@fmt	PTR PTR const unsigned char  size(2) Largest target is 2
		 -> vfprintf@cfmt(COMRAM[2]), 

    stoa@fp	PTR struct _IO_FILE size(2) Largest target is 12
		 -> sprintf@f(COMRAM[12]), 

    stoa@s	PTR unsigned char  size(2) Largest target is 2
		 -> ?_sprintf(COMRAM[2]), STR_3(CODE[13]), STR_2(CODE[15]), 

    stoa@cp	PTR unsigned char  size(2) Largest target is 7
		 -> stoa@nuls(COMRAM[7]), ?_sprintf(COMRAM[2]), STR_3(CODE[13]), STR_2(CODE[15]), 

    dtoa@fp	PTR struct _IO_FILE size(2) Largest target is 12
		 -> sprintf@f(COMRAM[12]), 

    pad@fp	PTR struct _IO_FILE size(2) Largest target is 12
		 -> sprintf@f(COMRAM[12]), 

    pad@buf	PTR unsigned char  size(2) Largest target is 32
		 -> dbuf(BANK0[32]), 

    sprintf@fmt	PTR const unsigned char  size(2) Largest target is 13
		 -> STR_1(CODE[13]), 

    sprintf@s	PTR unsigned char  size(2) Largest target is 50
		 -> xvalueASCII(BANK0[50]), 

    sprintf@ap	PTR void [1] size(2) Largest target is 2
		 -> ?_sprintf(COMRAM[2]), 

    S1084$source	PTR const unsigned char  size(2) Largest target is 0

    f...source	PTR const unsigned char  size(2) Largest target is 0

    S1084$buffer	PTR unsigned char  size(2) Largest target is 0

    f...buffer	PTR unsigned char  size(2) Largest target is 0

    USART_String_Transmit@string	PTR unsigned char  size(2) Largest target is 50
		 -> xvalueASCII(BANK0[50]), 

    EUSART_SetErrorHandler@interruptHandler	PTR FTN()void  size(2) Largest target is 1
		 -> EUSART_DefaultErrorHandler(), 

    EUSART_ErrorHandler	PTR FTN()void  size(2) Largest target is 1
		 -> NULL(), EUSART_DefaultErrorHandler(), 

    EUSART_SetOverrunErrorHandler@interruptHandler	PTR FTN()void  size(2) Largest target is 1
		 -> EUSART_DefaultOverrunErrorHandler(), 

    EUSART_OverrunErrorHandler	PTR FTN()void  size(2) Largest target is 1
		 -> NULL(), EUSART_DefaultOverrunErrorHandler(), 

    EUSART_SetFramingErrorHandler@interruptHandler	PTR FTN()void  size(2) Largest target is 1
		 -> EUSART_DefaultFramingErrorHandler(), 

    EUSART_FramingErrorHandler	PTR FTN()void  size(2) Largest target is 1
		 -> NULL(), EUSART_DefaultFramingErrorHandler(), 


Critical Paths under _main in COMRAM

    ___xxtofl->_ADC_GetConversionResult
    ___fltol->___fldiv
    ___fldiv->___flmul
    _UART_Positive_Negative_Tempreture_Output->_sprintf
    _sprintf->_vfprintf
    _vfprintf->_vfpfcnvrt
    _vfpfcnvrt->_dtoa
    _stoa->_fputc
    _read_prec_or_width->___wmul
    _dtoa->_pad
    _pad->_fputs
    _fputs->_fputc
    _abs->___awmod
    _USART_String_Transmit->_EUSART_Write
    _USART_String_Transmit->_EUSART_is_tx_ready
    _Seven_Segment_Positive_Tempreture_Output->___awdiv
    ___awdiv->___awmod
    _EUSART_Initialize->_EUSART_SetErrorHandler
    _EUSART_Initialize->_EUSART_SetFramingErrorHandler
    _EUSART_Initialize->_EUSART_SetOverrunErrorHandler

Critical Paths under _main in BANK0

    None.

Critical Paths under _main in BANK1

    None.

Critical Paths under _main in BANK2

    None.

Critical Paths under _main in BANK3

    None.

Critical Paths under _main in BANK4

    None.

Critical Paths under _main in BANK5

    None.

Call Graph Tables:

 ---------------------------------------------------------------------------------
 (Depth) Function   	        Calls       Base Space   Used Autos Params    Refs
 ---------------------------------------------------------------------------------
 (0) _main                                                 0     0      0   19947
            _ADC_GetConversionResult
               _ADC_IsConversionDone
                  _ADC_SelectChannel
                _ADC_StartConversion
                  _SYSTEM_Initialize
_Seven_Segment_Positive_Tempreture_O
_UART_Positive_Negative_Tempreture_O
                            ___awdiv
                            ___fldiv
                            ___flmul
                            ___fltol
                           ___xxtofl
 ---------------------------------------------------------------------------------
 (1) ___xxtofl                                            14    10      4     398
                                              4 COMRAM    14    10      4
            _ADC_GetConversionResult (ARG)
 ---------------------------------------------------------------------------------
 (1) ___fltol                                             10     6      4     305
                                             50 COMRAM    10     6      4
                            ___fldiv (ARG)
                            ___flmul (ARG)
 ---------------------------------------------------------------------------------
 (1) ___flmul                                             25    17      8    1744
                                              0 COMRAM    25    17      8
 ---------------------------------------------------------------------------------
 (1) ___fldiv                                             25    17      8    1399
                                             25 COMRAM    25    17      8
                            ___flmul (ARG)
 ---------------------------------------------------------------------------------
 (1) _UART_Positive_Negative_Tempreture_Output             0     0      0   12586
              _USART_String_Transmit
                             ___wmul
                            _sprintf
 ---------------------------------------------------------------------------------
 (2) _sprintf                                             28    16     12   11864
                                             66 COMRAM    26    14     12
                           _vfprintf
 ---------------------------------------------------------------------------------
 (3) _vfprintf                                             8     2      6   11509
                                             58 COMRAM     8     2      6
                          _vfpfcnvrt
 ---------------------------------------------------------------------------------
 (4) _vfpfcnvrt                                           21    15      6   11145
                                             40 COMRAM    18    12      6
                               _dtoa
                              _fputc
                 _read_prec_or_width
                               _stoa
                            _strncmp
 ---------------------------------------------------------------------------------
 (5) _strncmp                                             11     5      6     453
                                              0 COMRAM    11     5      6
 ---------------------------------------------------------------------------------
 (5) _stoa                                                22    18      4    1889
                                              9 COMRAM    22    18      4
                              _fputc
                             _strlen
 ---------------------------------------------------------------------------------
 (6) _strlen                                               4     2      2     166
                                              0 COMRAM     4     2      2
 ---------------------------------------------------------------------------------
 (5) _read_prec_or_width                                   9     5      4     887
                                              6 COMRAM     9     5      4
                             ___wmul
 ---------------------------------------------------------------------------------
 (6) ___wmul                                               6     2      4     555
                                              0 COMRAM     6     2      4
 ---------------------------------------------------------------------------------
 (5) _dtoa                                                13     9      4    5972
                                             27 COMRAM    13     9      4
                            ___awdiv
                            ___awmod
                                _abs
                                _pad
 ---------------------------------------------------------------------------------
 (6) _pad                                                 11     5      6    3107
                                             16 COMRAM    11     5      6
                              _fputc
                              _fputs
 ---------------------------------------------------------------------------------
 (7) _fputs                                                7     3      4    1539
                                              9 COMRAM     7     3      4
                              _fputc
 ---------------------------------------------------------------------------------
 (6) _fputc                                                9     5      4    1138
                                              0 COMRAM     9     5      4
                              _putch
 ---------------------------------------------------------------------------------
 (7) _putch                                                1     1      0       0
 ---------------------------------------------------------------------------------
 (6) _abs                                                  4     2      2     142
                                              6 COMRAM     4     2      2
                            ___awmod (ARG)
 ---------------------------------------------------------------------------------
 (2) _USART_String_Transmit                                2     0      2     167
                                              1 COMRAM     2     0      2
                       _EUSART_Write
                  _EUSART_is_tx_done
                 _EUSART_is_tx_ready
 ---------------------------------------------------------------------------------
 (3) _EUSART_is_tx_ready                                   1     1      0      24
                                              0 COMRAM     1     1      0
 ---------------------------------------------------------------------------------
 (3) _EUSART_is_tx_done                                    0     0      0       0
 ---------------------------------------------------------------------------------
 (3) _EUSART_Write                                         1     1      0      22
                                              0 COMRAM     1     1      0
 ---------------------------------------------------------------------------------
 (1) _Seven_Segment_Positive_Tempreture_Output             4     4      0    2139
                                             14 COMRAM     4     4      0
                            ___awdiv
                            ___awmod
 ---------------------------------------------------------------------------------
 (6) ___awmod                                              6     2      4    1056
                                              0 COMRAM     6     2      4
 ---------------------------------------------------------------------------------
 (1) ___awdiv                                              8     4      4    1060
                                              6 COMRAM     8     4      4
                            ___awmod (ARG)
 ---------------------------------------------------------------------------------
 (1) _SYSTEM_Initialize                                    0     0      0     294
                     _ADC_Initialize
                  _EUSART_Initialize
              _OSCILLATOR_Initialize
             _PIN_MANAGER_Initialize
 ---------------------------------------------------------------------------------
 (2) _PIN_MANAGER_Initialize                               0     0      0       0
 ---------------------------------------------------------------------------------
 (2) _OSCILLATOR_Initialize                                0     0      0       0
 ---------------------------------------------------------------------------------
 (2) _EUSART_Initialize                                    0     0      0     294
             _EUSART_SetErrorHandler
      _EUSART_SetFramingErrorHandler
      _EUSART_SetOverrunErrorHandler
 ---------------------------------------------------------------------------------
 (3) _EUSART_SetOverrunErrorHandler                        2     0      2      98
                                              0 COMRAM     2     0      2
 ---------------------------------------------------------------------------------
 (3) _EUSART_SetFramingErrorHandler                        2     0      2      98
                                              0 COMRAM     2     0      2
 ---------------------------------------------------------------------------------
 (3) _EUSART_SetErrorHandler                               2     0      2      98
                                              0 COMRAM     2     0      2
 ---------------------------------------------------------------------------------
 (2) _ADC_Initialize                                       0     0      0       0
 ---------------------------------------------------------------------------------
 (1) _ADC_StartConversion                                  0     0      0       0
 ---------------------------------------------------------------------------------
 (1) _ADC_SelectChannel                                    2     2      0      22
                                              0 COMRAM     2     2      0
 ---------------------------------------------------------------------------------
 (1) _ADC_IsConversionDone                                 0     0      0       0
 ---------------------------------------------------------------------------------
 (1) _ADC_GetConversionResult                              4     2      2       0
                                              0 COMRAM     4     2      2
 ---------------------------------------------------------------------------------
 Estimated maximum stack depth 7
 ---------------------------------------------------------------------------------

 Call Graph Graphs:

 _main (ROOT)
   _ADC_GetConversionResult
   _ADC_IsConversionDone
   _ADC_SelectChannel
   _ADC_StartConversion
   _SYSTEM_Initialize
     _ADC_Initialize
     _EUSART_Initialize
       _EUSART_SetErrorHandler
       _EUSART_SetFramingErrorHandler
       _EUSART_SetOverrunErrorHandler
     _OSCILLATOR_Initialize
     _PIN_MANAGER_Initialize
   _Seven_Segment_Positive_Tempreture_Output
     ___awdiv
       ___awmod (ARG)
     ___awmod
   _UART_Positive_Negative_Tempreture_Output
     _USART_String_Transmit
       _EUSART_Write
       _EUSART_is_tx_done
       _EUSART_is_tx_ready
     ___wmul
     _sprintf
       _vfprintf
         _vfpfcnvrt
           _dtoa
             ___awdiv
             ___awmod
             _abs
               ___awmod (ARG)
             _pad
               _fputc
                 _putch
               _fputs
                 _fputc
           _fputc
           _read_prec_or_width
             ___wmul
           _stoa
             _fputc
             _strlen
           _strncmp
   ___awdiv
   ___fldiv
     ___flmul (ARG)
   ___flmul
   ___fltol
     ___fldiv (ARG)
     ___flmul (ARG)
   ___xxtofl
     _ADC_GetConversionResult (ARG)

 Address spaces:
Name               Size   Autos  Total    Cost      Usage
BIGRAM             5FF      0       0      29        0.0%
EEDATA             100      0       0       0        0.0%
BITBANK5           100      0       0      14        0.0%
BANK5              100      0       0      15        0.0%
BITBANK4           100      0       0      12        0.0%
BANK4              100      0       0      13        0.0%
BITBANK3           100      0       0      10        0.0%
BANK3              100      0       0      11        0.0%
BITBANK2           100      0       0       8        0.0%
BANK2              100      0       0       9        0.0%
BITBANK1           100      0       0       6        0.0%
BANK1              100      0       0       7        0.0%
BITBANK0            A0      0       0       4        0.0%
BANK0               A0      0      73       5       71.9%
BITCOMRAM           5F      0       0       0        0.0%
COMRAM              5F     5C      5F       1      100.0%
BITBIGSFRhhhl       1D      0       0      17        0.0%
BITBIGSFRllllll     1C      0       0      27        0.0%
BITBIGSFRhhl         E      0       0      18        0.0%
BITBIGSFRhhhh        D      0       0      16        0.0%
BITBIGSFRlllh        C      0       0      21        0.0%
BITBIGSFRllllll      9      0       0      25        0.0%
BITBIGSFRllhh        7      0       0      20        0.0%
BITBIGSFRlh          7      0       0      19        0.0%
BITBIGSFRlllllh      4      0       0      23        0.0%
BITBIGSFRlllllh      4      0       0      24        0.0%
BITBIGSFRllllh       2      0       0      22        0.0%
BITBIGSFRllllll      1      0       0      26        0.0%
BIGSFR               0      0       0     200        0.0%
BITSFR               0      0       0     200        0.0%
SFR                  0      0       0     200        0.0%
STACK                0      0       0       2        0.0%
NULL                 0      0       0       0        0.0%
ABS                  0      0      D2      28        0.0%
DATA                 0      0      D2       3        0.0%
CODE                 0      0       0       0        0.0%


Microchip Technology PIC18 Macro Assembler V2.41 build 20230208172133 
Symbol Table                                                                                   Sun Jul 09 11:22:15 2023

                                    ___fldiv@aexp 0032                                      ___fldiv@bexp 0031  
                                    ___fldiv@sign 002A                                                l22 20BC  
                                              l31 2124                                                l25 216A  
                                              l19 20E8                                                l28 2110  
                                              l83 1FE6                                                l94 20FC  
                                              l87 207C                                                l88 207E  
                                    ___awdiv@sign 000C                               ___wmul@multiplicand 0003  
                                             l110 20D2                                               l122 2154  
                                             l107 20C0                                               l125 214A  
                                             l143 2136                                               l128 215E  
                                             l146 2140                                               l251 1DE2  
                                             l510 1CCC                                               l263 1E3A  
                                             l239 18F2                                               l248 1708  
                                             l266 20A4                                               l179 2056  
                                             l563 180E                                               l497 1C1C  
                                             l921 12BC                                               l850 0C52  
                                             l924 1418                                               l861 0D10  
                                             l853 0C16                                               l862 0CFE  
                                             l935 13B0                                               l944 1F22  
                                             l848 0DF2                                               l880 06F4  
                                             l928 1354                                               l890 0950  
                                             l971 1D12                                               l859 0C98  
                                             l884 0A58                                               l974 1D54  
                                             l982 10F2                                               l887 08EA  
                                             l976 1D76                                               l984 10FA  
                                             l985 1140                                               l897 0A1A  
                                             l889 0962                                               l998 1264  
                                             _RAM 006E                                               _abs 1F68  
                                             _pad 1CCE                    ?_EUSART_SetFramingErrorHandler 0001  
                                    ___awmod@sign 0006                                               wreg 0FE8  
                                    ___flmul@aexp 0012                                      ___flmul@bexp 0013  
                                    ___flmul@sign 000D                                      ___flmul@temp 0018  
                                    ___flmul@prod 0014                                      ___fltol@exp1 003C  
                                            l1021 15A8                                              l1005 149A  
                                            l1007 14A2                                              l1016 1560  
                                            l1025 1B50                                              ?_abs 0007  
                                            l2100 1C22                                              l1044 1098  
                                            l1061 1F9E                                              l1029 1B58  
                                            l2110 1C52                                              l2102 1C30  
                                            l2030 19EE                                              l2120 1C98  
                                            l2112 1C64                                              l2104 1C38  
                                            l1064 1FA6                                              l2032 19F8  
                                            l2040 1F24                                              l2200 118E  
                                            l1057 1E88                                              l2130 1CC4  
                                            l2122 1CA0                                              l2114 1C6C  
                                            l2106 1C3C                                              l2034 1A16  
                                            l2026 19CA                                              l2042 1F30  
                                            l2210 11F6                                              l2202 1194  
                                            l2050 209C                                              l2060 1B74  
                                            l2124 1CA6                                              l2116 1C74  
                                            l2108 1C4A                                              l2036 1A4C  
                                            l1076 1A92                                              l2028 19DC  
                                            l1084 1F66                                              l2044 1F42  
                                            l2140 1CFE                                              l2220 1244  
                                            l2212 1210                                              l2204 11B0  
                                            l2300 0E18                                              l1093 1ED6  
                                            l2070 1B9A                                              l2062 1B78  
                                            l2054 1B5A                                              l2118 1C82  
                                            l2126 1CAC                                              l2046 1F46  
                                            l2150 1D62                                              l2142 1D0A  
                                            l2134 1CCE                                              l2206 11CA  
                                            l2214 121E                                              l2230 1446  
                                            l2310 0E46                                              l2302 0E26  
                                            l1087 216C                                              l2080 1BD0  
                                            l2072 1BAC                                              l2064 1B86  
                                            l2056 1B5E                                              l2128 1CBC  
                                            l2152 1F68                                              l2144 1D1E  
                                            l2136 1CDC                                              l2216 122E  
                                            l2208 11DC                                              l2048 2080  
                                            l2160 1E9A                                              l2232 144E  
                                            l2224 141A                                              l2320 0EAA  
                                            l2312 0E58                                              l2304 0E34  
                                            l1097 18EC                                              l2402 20D4  
                                            l2410 1FD4                                              l2082 1BE6  
                                            l2074 1BB4                                              l2090 1BFC  
                                            l2066 1B8E                                              l2058 1B6C  
                                            l2154 1F82                                              l2146 1D32  
                                            l2138 1CF0                                              l2218 1234  
                                            l2170 10BE                                              l2162 1ECA  
                                            l2250 1506                                              l2242 14C4  
                                            l2234 1462                                              l2226 142C  
                                            l2330 0F0C                                              l2322 0EC6  
                                            l2306 0E38                                              l2412 1FE0  
                                            l2404 1FA8                                              l2420 2054  
                                            l2092 1C0C                                              l2084 1BEE  
                                            l2076 1BBC                                              l2068 1B92  
                                            l2500 164C                                              l2148 1D36  
                                            l2180 1102                                              l2172 10C6  
                                            l2156 1E8A                                              l2260 1572  
                                            l2252 153A                                              l2244 14D8  
                                            l2236 146A                                              l2228 1434  
                                            l2340 0FA8                                              l2332 0F28  
                                            l2324 0ED6                                              l2316 0E64  
                                            l2308 0E44                                              l2406 1FBC  
                                            l2422 2138                                              l2414 2024  
                                            l2094 1C14                                              l2086 1BF0  
                                            l2078 1BCA                                              l2510 169A  
                                            l2502 164E                                              l2190 113C  
                                            l2182 1112                                              l2174 10D6  
                                            l2166 109A                                              l2270 1AC0  
                                            l2158 1E96                                              l2262 1586  
                                            l2254 153E                                              l2246 14DC  
                                            l2238 1478                                              l2350 1026  
                                            l2342 0FDE                                              l2334 0F6C  
                                            l2326 0EE0                                              l2318 0E98  
                                            l2430 1EF8                                              l2408 1FC8  
                                            l2416 2048                                              l2088 1BF6  
                                            l2520 16AC                                              l2512 16A4  
                                            l2504 1650                                              l2440 1DFC  
                                            l2192 1148                                              l2184 1118  
                                            l2176 10D8                                              l2168 10AE  
                                            l2272 1AFA                                              l2264 158A  
                                            l2256 1542                                              l2248 14FA  
                                            l2280 183A                                              l2344 1002  
                                            l2328 0EF0                                              l2432 1F14  
                                            l2424 1ED8                                              l2600 0BCA  
                                            l2450 20BA                                              l2370 2142  
                                            l2418 204A                                              l2098 1C1E  
                                            l2530 16EE                                              l2522 16C2  
                                            l2514 16A6                                              l2506 1668  
                                            l2442 1E0A                                              l2194 1150  
                                            l2186 1128                                              l2178 10E6  
                                            l2274 1B1A                                              l2266 1A94  
                                            l2290 188C                                              l2346 100E  
                                            l2354 105E                                              l2338 0F84  
                                            l2426 1EE8                                              l2610 0C14  
                                            l2602 0BDA                                              l2452 2168  
                                            l2372 2156                                              l2532 16F0  
                                            l2524 16DC                                              l2516 16A8  
                                            l2508 1696                                              l2380 2078  
                                            l2444 1E0E                                              l2436 1DE4  
                                            l2196 1156                                              l2188 1134  
                                            l2276 1B28                                              l2268 1A9C  
                                            l2292 189E                                              l2284 1846  
                                            l2348 1016                                              l2428 1EF0  
                                            l2620 0C62                                              l2612 0C20  
                                            l2604 0BE2                                              l2540 0A74  
                                            l2700 06BE                                              l2454 20FE  
                                            l2462 2126                                              l2534 16F2  
                                            l2526 16EA                                              l2518 16AA  
                                            l2390 20CE                                              l2374 2058  
                                            l2446 1E26                                              l2438 1DE4  
                                            l2198 1188                                              l2294 18C8  
                                            l2286 1854                                              l2278 1810  
                                            l2358 1070                                              l2470 1DA2  
                                            l2622 0C78                                              l2630 0CA8  
                                            l2614 0C3E                                              l2606 0BF2  
                                            l2550 0AA8                                              l2542 0A76  
                                            l2710 0714                                              l2702 06CE  
                                            l2448 20A8                                              l2368 214C  
                                            l2464 2132                                              l2528 16EC  
                                            l2480 15E6                                              l2384 20EA  
                                            l2376 205C                                              l2288 1870  
                                            l2392 1E3C                                              l2472 1DD6  
                                            l2632 0CB6                                              l2624 0C7E  
                                            l2616 0C40                                              l2608 0C06  
                                            l2560 0ADA                                              l2544 0A86  
                                            l2552 0AB0                                              l2536 0A5A  
                                            l2800 0A48                                              l2720 0754  
                                            l2704 06DE                                              l2458 2112  
                                            l2490 15F8                                              l2482 15F0  
                                            l2474 15AA                                              l2378 206A  
                                            l2298 0DF4                                              l2394 1E48  
                                            l2466 1D78                                              l2642 0D20  
                                            l2650 0D68                                              l2634 0CBA  
                                            l2626 0C88                                              l2618 0C50  
                                            l2570 0B0E                                              l2562 0ADC  
                                            l2554 0AC0                                              l2546 0A96  
                                            l2538 0A66                                              l2730 079E  
                                            l2722 0760                                              l2714 0728  
                                            l2706 06E4                                              l2810 1734  
                                            l2492 160E                                              l2484 15F2  
                                            l2476 15AC                                              l2388 20C0  
                                            l2396 1E64                                              l2468 1D80  
                                            l2660 0DD2                                              l2652 0D82  
                                            l2644 0D2C                                              l2636 0CC8  
                                            l2628 0C96                                              l2580 0B54  
                                            l2564 0AEC                                              l2572 0B16  
                                            l2556 0AC6                                              l2548 0AA6  
                                            l2740 07F0                                              l2732 07AA  
                                            l2724 0778                                              l2716 0734  
                                            l2708 0704                                              l2820 1782  
                                            l2812 175E                                              l2804 170A  
                                            l2494 163C                                              l2486 15F4  
                                            l2478 15E2                                              l2398 1E80  
                                            l2662 0DE0                                              l2654 0D98  
                                            l2646 0D3A                                              l2638 0CF6  
                                            l2590 0B7C                                              l2582 0B58  
                                            l2574 0B26                                              l2566 0AFC  
                                            l2558 0ACC                                              l2750 086E  
                                            l2742 0800                                              l2734 07BA  
                                            l2726 0784                                              l2718 073E  
                                            l2830 17AE                                              l2814 1760  
                                            l2806 1720                                              l2910 18FC  
                                            l2496 1640                                              l2488 15F6  
                                            l2664 0DE6                                              l2656 0DB2  
                                            l2648 0D64                                              l2576 0B3C  
                                            l2568 0B0C                                              l2760 08E8  
                                            l2752 08A4                                              l2744 081C  
                                            l2736 07C6                                              l2728 0790  
                                            l2680 064C                                              l2840 17DE  
                                            l2816 1770                                              l2920 19BE  
                                            l2912 1910                                              l2498 164A  
                                            l2666 0DE8                                              l2658 0DCE  
                                            l2594 0B90                                              l2578 0B4C  
                                            l2586 0B6C                                              l2770 0948  
                                            l2762 08FA                                              l2754 08B2  
                                            l2746 0828                                              l2738 07D6  
                                            l2690 0692                                              l2682 065C  
                                            l2674 0630                                              l2842 17EE  
                                            l2826 179A                                              l2818 1774  
                                            l2850 1278                                              l2914 1936  
                                            l2906 18EE                                              l2596 0BAA  
                                            l2588 0B7C                                              l2780 09B6  
                                            l2764 0908                                              l2756 08D0  
                                            l2748 0844                                              l2692 0698  
                                            l2684 066C                                              l2676 063C  
                                            l2844 17FE                                              l2836 17C2  
                                            l2828 17A4                                              l2860 12F6  
                                            l2852 1286                                              l2916 199A  
                                            l2908 18F8                                              l2942 0E8A  
                                            l2598 0BBA                                              l2790 0A1E  
                                            l2774 0972                                              l2782 09BA  
                                            l2766 090C                                              l2758 08DA  
                                            l2694 069E                                              l2686 067C  
                                            l2678 064A                                              l2838 17CE  
                                            l2870 134A                                              l2862 12FE  
                                            l2854 12CC                                              l2918 19BA  
                                            ?_pad 0011                                              l2792 0A2E  
                                            l2784 09D4                                              l2776 097E  
                                            l2768 091A                                              l2696 06AC  
                                            l2688 0682                                              l2880 13C0  
                                            l2872 1386                                              l2864 130A  
                                            l2856 12E2                                              l2848 1268  
                                            l2794 0A3C                                              l2786 09E8  
                                            l2778 098C                                              l2698 06AE  
                                            l2890 1408                                              l2882 13C4  
                                            l2874 1392                                              l2866 133C  
                                            l2796 0A3E                                              l2788 0A02  
                                            l2884 13E8                                              l2876 13A0  
                                            l2868 133E                                              l2798 0A44  
                                            l2886 13F8                                              l2878 13BE  
                                            l2888 1406                                              STR_1 061D  
                                            STR_2 0601                                              STR_3 0610  
                                            STR_4 062A                                              STR_6 062A  
                                            u2000 20FA                                              u2001 20F4  
                                            u2010 20CE                                              u2011 20CA  
                                            u2020 1E80                                              u2100 0A96  
                                            u2021 1E7C                                              u2101 0A92  
                                            u2006 20FC                                              u2030 1DF8  
                                            u2110 0ADA                                              u2031 1DF4  
                                            u2111 0AD6                                              u2040 1E26  
                                            u1400 1F66                                              u2200 0C78  
                                            u2120 0AEC                                              u2041 1E22  
                                            u1401 1F62                                              u2201 0C74  
                                            u2121 0AE8                                              u1410 1B6C  
                                            u2050 1E3A                                              u2210 0C96  
                                            u2130 0AFC                                              u1411 1B68  
                                            u2051 1E36                                              u2211 0C92  
                                            u2131 0AF8                                              u2060 210E  
                                            u1420 1B86                                              u1500 1C82  
                                            u2300 0DE0                                              u2220 0CB6  
                                            u2140 0B3C                                              u2061 2108  
                                            u1421 1B82                                              u1501 1C7E  
                                            u2301 0DDC                                              u2221 0CB2  
                                            u2141 0B38                                              _LATA 0F89  
                                            u2070 2110                                              u1430 1BAC  
                                            u1510 1C98                                              u2230 0CC8  
                                            u2150 0B7C                                              u2310 064A  
                                            _LATB 0F8A                                              u1431 1BA8  
                                            u1511 1C94                                              u2231 0CC4  
                                            u2151 0B78                                              u2311 0646  
                                            _LATC 0F8B                                              u1440 1BCA  
                                            u1520 1CBC                                              u1360 19DC  
                                            u1600 10AA                                              u2240 0CF6  
                                            u2160 0BF2                                              u2080 0A74  
                                            u2400 08E8                                              u2320 065C  
                                            _LATD 0F8C                                              u1441 1BC6  
                                            u1521 1CB8                                              u1361 19D8  
                                            u1601 10A4                                              u2241 0CF2  
                                            u2161 0BEE                                              u2081 0A70  
                                            u2401 08E4                                              u2321 0658  
                                            _LATE 0F8D                                              u1450 1BE6  
                                            u1370 19EE                                              u1530 1CDC  
                                            u1610 10AC                                              u2250 0D0C  
                                            u2170 0C14                                              u2090 0A86  
                                            u2410 0908                                              u2330 066C  
                                            u1451 1BE2                                              u1371 19EA  
                                            u1531 1CD8                                              u2251 0D08  
                                            u2171 0C10                                              u2091 0A82  
                                            u2411 0904                                              u2331 0668  
                                            u1460 1C0C                                              u1380 1A16  
                                            u1540 1CFE                                              u1700 1210  
                                            u1620 10BE                                              u2260 0D20  
                                            u2180 0C3E                                              u2420 091A  
                                            u2340 06AC                                              u2500 1720  
                                            u1461 1C08                                              u1381 1A12  
                                            u1541 1CFA                                              u1701 120C  
                                            u1621 10BA                                              u2261 0D1C  
                                            u2181 0C3A                                              u2421 0916  
                                            u2341 06A8                                              u2501 171C  
                                            u1470 1C30                                              u1390 1A4C  
                                            u1550 1D54                                              u1710 121E  
                                            u1630 10D6                                              u2270 0D3A  
                                            u2190 0C62                                              u2430 0948  
                                            u2350 06BE                                              u2510 1754  
                                            u1471 1C2C                                              u1391 1A48  
                                            u1551 1D50                                              u1711 121A  
                                            u1631 10D2                                              u2271 0D36  
                                            u2191 0C5E                                              u2431 0944  
                                            u2351 06BA                                              u1480 1C4A  
                                            u1560 1D62                                              u1720 122E  
                                            u1640 10E6                                              u1800 1560  
                                            u2280 0D82                                              u2440 095E  
                                            u2360 06CE                                              u2520 1782  
                                            u2600 1338                                              u1481 1C46  
                                            u1561 1D5E                                              u1721 122A  
                                            u1641 10E2                                              u1801 155C  
                                            u2281 0D7E                                              u2441 095A  
                                            u2361 06CA                                              u2521 177E  
                                            u2601 1334                                              u1490 1C64  
                                            u1570 1F82                                              u1650 1112  
                                            u1810 156E                                              u2290 0DB2  
                                            u2450 0972                                              u2370 0704  
                                            u2530 1796                                              u2610 1382  
                                            u1491 1C60                                              u1571 1F7E  
                                            u1651 110E                                              u1811 156A  
                                            u1731 1424                                              u2291 0DAE  
                                            u2451 096E                                              u2371 0700  
                                            u2531 1792                                              u2515 174A  
                                            u2611 137E                                              u1660 1128  
                                            u1580 1EBA                                              u1820 15A8  
                                            u1740 1446                                              u1900 0E18  
                                            u2460 098C                                              u2380 0714  
                                            u2540 17BE                                              u2620 13A0  
                                            u1661 1124                                              u1821 15A4  
                                            u1741 1442                                              u1901 0E14  
                                            u2461 0988                                              u2381 0710  
                                            u2541 17BA                                              u2621 139C  
                                            u1670 11CA                                              u1830 1AC0  
                                            u1590 1ECA                                              u1750 1478  
                                            u1910 0EAA                                              u2470 09D4  
                                            u2390 088E                                              u2550 17DE  
                                            u2630 13B0                                              u1671 11C6  
                                            u1831 1ABC                                              u1591 1EC6  
                                            u1751 1474                                              u1911 0EA6  
                                            u2471 09D0                                              u2551 17DA  
                                            u2631 13AC                                              u1680 11DC  
                                            u1840 1B50                                              u1760 1496  
                                            u1920 0ED6                                              u2480 0A02  
                                            u2560 17EE                                              u2640 13BE  
                                            u1681 11D8                                              u1841 1B4C  
                                            u1761 1492                                              u1921 0ED2  
                                            u2481 09FE                                              u2561 17EA  
                                            u2641 13BA                                              u1690 11F6  
                                            u1770 14C0                                              u1850 183A  
                                            u1930 0F0C                                              u2490 0A3C  
                                            u2650 13F8                                              u2570 1278  
                                            u2707 1602                                              u1691 11F2  
                                            u1587 1EB0                                              u1771 14BC  
                                            u1851 1836                                              u1931 0F08  
                                            u2491 0A38                                              u2395 0884  
                                            u2651 13F4                                              u2571 1274  
                                            u1780 14FA                                              u1860 1870  
                                            u1940 0F28                                              u2660 1406  
                                            u2580 1286                                              u2717 165C  
                                            u1781 14F6                                              u1861 186C  
                                            u1941 0F24                                              u2661 1402  
                                            u2581 1282                                              u1790 1526  
                                            u1870 188C                                              u1950 0FA8  
                                            u2590 12E2                                              u2727 16B6  
                                            u1871 1888                                              u1951 0FA4  
                                            u2591 12DE                                              u1880 189E  
                                            u1960 0FDE                                              u2737 16FC  
                                            u1881 189A                                              u1961 0FDA  
                                            u1890 18C8                                              u1970 1002  
                                            u2690 1910                                              u1891 18C4  
                                            u1971 0FFE                                              u2691 190C  
                                            u1980 206A                                              u1981 2066  
                                            u1797 151C                                              u1990 2078  
                                            u1991 2074                                              _WPUB 0F7C  
                                            abs@a 0007                                              _dbuf 00A6  
                                            _main 18EE                                              _dtoa 109A  
                                            _prec 0066                                              pad@i 0018  
                                            pad@p 0015                                              fsr1h 0FE2  
                                            fsr2h 0FDA                                              indf1 0FE7  
                                            indf2 0FDF                                              fsr1l 0FE1  
                                            pad@w 001A                                              fsr2l 0FD9  
                                            _stoa 141A                                              prodh 0FF4  
                                            prodl 0FF3                                              start 0000  
                                 ___fldiv@new_exp 002B                                      ___param_bank 0000  
                                           ??_abs 0009                                             ??_pad 0017  
                                   ?_EUSART_Write 0001                     __end_of_OSCILLATOR_Initialize 2142  
                                   ___fltol@sign1 003B                                             ?_main 0001  
                                           ?_dtoa 001C                                   __end_of___fldiv 0DF4  
                                 __end_of___awdiv 1C1E                                   __end_of___awmod 1CCE  
                                 __end_of___flmul 0A5A                                   __end_of___fltol 1810  
                                           ?_stoa 000A                                             _ANSEL 0F7E  
                                 ___awdiv@divisor 0009                                   ___awdiv@counter 000B  
                                           _RCREG 0FAE                                             _RCSTA 0FAB  
                                    vfpfcnvrt@fmt 002B                                             _SPBRG 0FAF  
                                           _TRISA 0F92                                             _TRISB 0F93  
                                           _TRISC 0F94                                             _TRISD 0F95  
                                           _TRISE 0F96                                             _TXREG 0FAD  
                                           _TXSTA 0FAC                                       _xvalueASCII 0074  
                          ?_USART_String_Transmit 0002                                             _flags 005F  
                             read_prec_or_width@c 000D                               read_prec_or_width@n 000E  
                                           _fputc 19CA                                             _fputs 1F24  
                                           pad@fp 0011                                             _width 0064  
                                           _putch 216C                                             _whole 006A  
                                           dtoa@d 001E                                             dtoa@i 0026  
                                           dtoa@p 0022                                             dtoa@s 0028  
                                           dtoa@w 0024                                             tablat 0FF5  
                                           plusw1 0FE3                                             plusw2 0FDB  
                                           stoa@i 0016                                             stoa@l 001E  
                                           stoa@p 001C                                             stoa@s 000C  
                                           stoa@w 0018                                             status 0FD8  
                                 __end_of_sprintf 1F24                                   __end_of_strncmp 18EE  
                                 __initialization 1FE8                                      __end_of_main 19CA  
                                    __end_of_dtoa 1266                                      __end_of_stoa 15AA  
                                  ??_EUSART_Write 0001                                            ??_main 005D  
                                          ??_dtoa 0020                                            ??_stoa 000E  
                                   __activetblptr 0002                        __end_of_read_prec_or_width 1B5A  
               _EUSART_DefaultFramingErrorHandler 0000                                            _ADCON0 0FC2  
                                          _ADCON1 0FC1                                            _ADCON2 0FC0  
                      _EUSART_OverrunErrorHandler 00CF                                            ?_fputc 0001  
                                          ?_fputs 000A                                            _ADRESH 0FC4  
                                          _ADRESL 0FC3                                  ___awdiv@dividend 0007  
                                          ?_putch 0001                                            _ANSELH 0F7F  
                      __end_of_EUSART_is_tx_ready 2080                                            _OSCCON 0FD3  
                                   vfpfcnvrt@done 0035                                            _SPBRGH 0FB0  
                                __end_of___xxtofl 141A                                      vfprintf@cfmt 0041  
                                          ___wmul 2080                                         ??___fldiv 0022  
                                       ??___awdiv 000B                                         ??___awmod 0005  
                                       ??___flmul 0009                                         ??___fltol 0037  
                            read_prec_or_width@ap 0009                                            clear_0 200E  
                                ___awdiv@quotient 000D                                   ___awmod@divisor 0003  
                                          isa$std 0001                                   ___awmod@counter 0005  
                                          pad@buf 0013                                            dtoa@fp 001C  
                                          _strlen 1E8A                                            fputc@c 0001  
                                          fputs@c 000E                                            fputs@i 000F  
                                          fputs@s 000A                                      __mediumconst 0000  
                                          tblptrh 0FF7                                            tblptrl 0FF6  
                                          tblptru 0FF8                                       _First_Digit 0072  
                                          stoa@cp 001A                                            stoa@fp 000A  
                                          putch@c 0001                                  __end_of_vfprintf 1E8A  
                                       ??_sprintf 004F                                         ??_strncmp 0007  
                                    ___xxtofl@arg 000F                                      ___xxtofl@exp 000E  
                               _SYSTEM_Initialize 2126                                      ___xxtofl@val 0005  
                                      __accesstop 0060                           __end_of__initialization 201A  
                              ?_SYSTEM_Initialize 0001                                     ___rparam_used 0001  
                                      ___fltol@f1 0033                                    __pcstackCOMRAM 0001  
                                    __pidataBANK0 2160                               ??_SYSTEM_Initialize 0003  
                                   __end_of_fputc 1A94                                     __end_of_fputs 1F68  
                                   __end_of_putch 216E                           _ADC_GetConversionResult 2112  
                 ??_EUSART_SetOverrunErrorHandler 0003                                           ??_fputc 0005  
                       __end_of_SYSTEM_Initialize 2138                                           ??_fputs 000E  
                                         ??_putch 0001                                        __pbssBANK0 0060  
                            __end_of_EUSART_Write 20D4                                           ?___wmul 0001  
                                         _BAUDCON 0FB8                                           ?_strlen 0001  
                         ??_USART_String_Transmit 0004                                         ?___xxtofl 0005  
                                         _OSCTUNE 0F9B                          ??_EUSART_SetErrorHandler 0003  
                            _ADC_InterruptHandler 006C                                           __Hparam 0000  
                                         __Lparam 0000                                       _Third_Digit 0070  
                                         ___fldiv 0A5A                                           ___awdiv 1B5A  
                                         ___awmod 1C1E                                           ___flmul 0630  
                                         _Voltage 0060                                           ___fltol 170A  
                                       ?_vfprintf 003B                                      __psmallconst 0600  
                       ??_ADC_GetConversionResult 0003                                           _decimal 0068  
                                         __pcinit 1FE8                                           __ramtop 0600  
                                         __ptext0 18EE                                           __ptext1 1266  
                                         __ptext2 170A                                           __ptext3 0630  
                                         __ptext4 0A5A                                           __ptext5 1D78  
                                         __ptext6 1ED8                                           __ptext7 1E3C  
                                         __ptext8 0DF4                                           __ptext9 1810  
                           _OSCILLATOR_Initialize 2138                             read_prec_or_width@fmt 0007  
                                      ??___xxtofl 0009                                  ___awmod@dividend 0001  
                        ??_PIN_MANAGER_Initialize 0001                                           _sprintf 1ED8  
                                         _strncmp 1810                              end_of_initialization 201A  
           __end_of_EUSART_SetOverrunErrorHandler 214C                     _EUSART_SetOverrunErrorHandler 2142  
                                         fputc@fp 0003                                     __Lmediumconst 0000  
                                         fputs@fp 000C                                _read_prec_or_width 1A94  
                               _EUSART_Initialize 1FA8                      __end_of_ADC_IsConversionDone 2112  
                              ?_EUSART_Initialize 0001                                 __end_of_vfpfcnvrt 109A  
                                       _RCSTAbits 0FAB                                           postdec1 0FE5  
                                         postdec2 0FDD                               ?_read_prec_or_width 0007  
                                         postinc0 0FEE                                           postinc1 0FE6  
                                         postinc2 0FDE                                  vfpfcnvrt@convarg 0031  
                              _EUSART_is_tx_ready 2058                                        ??_vfprintf 0041  
                                         strlen@a 0003                                           strlen@s 0001  
                             ??_EUSART_Initialize 0003                               ?_EUSART_is_tx_ready 0001  
                                   ___xxtofl@sign 000D                               _ADC_StartConversion 2168  
                            ??_read_prec_or_width 000B                                       ___fldiv@grs 002D  
                                     ___fldiv@rem 0026                                       ___flmul@grs 000E  
                       __end_of_EUSART_Initialize 1FE8                              ??_EUSART_is_tx_ready 0001  
                                       _TXSTAbits 0FAC                              ?_ADC_StartConversion 0001  
                      _EUSART_DefaultErrorHandler 0000                                       vfpfcnvrt@ap 002D  
                                     vfpfcnvrt@cp 0039                                       vfpfcnvrt@fp 0029  
                                  __end_of___wmul 20A6                                      _EUSART_Write 20BE  
                                  _ADC_Initialize 20D4                            ?_OSCILLATOR_Initialize 0001  
                                  __end_of_strlen 1ED8                               start_initialization 1FE8  
                                   _TMP36_Reading 005D                                       __end_of_abs 1FA8  
                                     __end_of_pad 1D78                            _EUSART_is_tx_ready$333 0001  
                  ?_EUSART_SetOverrunErrorHandler 0001                             ??_ADC_StartConversion 0001  
                                     vfprintf@fmt 003D                        _EUSART_FramingErrorHandler 00D1  
                                    _Fourth_Digit 006F                                          ??___wmul 0005  
                          _EUSART_SetErrorHandler 2156                            __end_of_ADC_Initialize 20EA  
                                     __pdataBANK0 00C6                                          ??_strlen 0003  
                                       ___fldiv@a 001E                                         ___fldiv@b 001A  
                                       ___flmul@a 0005                                         ___flmul@b 0001  
                                     __pbssCOMRAM 005D                              _ADC_IsConversionDone 20FE  
                   __end_of_USART_String_Transmit 1E3C  __end_of_UART_Positive_Negative_Tempreture_Output 1DE4  
      ??_UART_Positive_Negative_Tempreture_Output 005D         ?_UART_Positive_Negative_Tempreture_Output 0001  
        _UART_Positive_Negative_Tempreture_Output 1D78                                         __pnvBANK0 00CD  
                          _PIN_MANAGER_Initialize 2024                                         _dtoa$1177 0020  
                               _ADC_SelectChannel 20A6                                          ?___fldiv 001A  
                                        ?___awdiv 0007                                          ?___awmod 0001  
                                        ?___flmul 0001                                          ?___fltol 0033  
                                 ?_ADC_Initialize 0001                                ?_ADC_SelectChannel 0001  
                                     __smallconst 0600     _Seven_Segment_Positive_Tempreture_Output$1498 0011  
                                    _Second_Digit 0071                               ??_ADC_SelectChannel 0001  
                           ?_ADC_IsConversionDone 0001                                          ?_sprintf 0043  
                                        ?_strncmp 0001                                    ___wmul@product 0005  
                                        _LATAbits 0F89            EUSART_SetErrorHandler@interruptHandler 0001  
                                        _LATBbits 0F8A                                 _eusartRxLastError 0073  
                       __end_of_ADC_SelectChannel 20BE                                          _PIR1bits 0F9E  
                 ??_EUSART_SetFramingErrorHandler 0003                                 _EUSART_is_tx_done 20EA  
               _EUSART_DefaultOverrunErrorHandler 0000                                ?_EUSART_is_tx_done 0001  
                                       _vfpfcnvrt 0DF4                                        _ADCON0bits 0FC2  
                               ___wmul@multiplier 0001                          ADC_SelectChannel@channel 0002  
                             ??_EUSART_is_tx_done 0001                                       _INTCON2bits 0FF1  
                                       copy_data0 1FFC                         __end_of_EUSART_is_tx_done 20FE  
                                        __Hrparam 0000                                        vfprintf@ap 003F  
                                        __Lrparam 0000                                        vfprintf@fp 003B  
                        ?_ADC_GetConversionResult 0001                           ??_OSCILLATOR_Initialize 0001  
                             _EUSART_ErrorHandler 00CD                                        ?_vfpfcnvrt 0029  
                          ??_ADC_IsConversionDone 0001                                        sprintf@fmt 0045  
                                        ___xxtofl 1266                                          __ptext10 141A  
                                        __ptext11 1E8A                                          __ptext20 1DE4  
                                        __ptext12 1A94                                          __ptext21 2058  
                                        __ptext13 2080                                          __ptext30 1FA8  
                                        __ptext22 20EA                                          __ptext14 109A  
                                        __ptext31 2142                                          __ptext23 20BE  
                                        __ptext15 1CCE                                          __ptext32 214C  
                                        __ptext24 15AA                                          __ptext16 1F24  
                                        __ptext33 2156                                          __ptext25 1C1E  
                                        __ptext17 19CA                                          __ptext34 20D4  
                                        __ptext26 1B5A                                          __ptext18 216C  
                                        __ptext35 2168                                          __ptext27 2126  
                                        __ptext19 1F68                                          __ptext36 20A6  
                                        __ptext28 2024                                          __ptext37 20FE  
                                        __ptext29 2138                                          __ptext38 2112  
                         ?_EUSART_SetErrorHandler 0001                                         stoa@F1156 00C6  
   EUSART_SetOverrunErrorHandler@interruptHandler 0001                                          isa$xinst 0000  
                                        _vfprintf 1E3C                       USART_String_Transmit@string 0002  
           __end_of_EUSART_SetFramingErrorHandler 2156                     _EUSART_SetFramingErrorHandler 214C  
                                  _vfpfcnvrt$1215 0037                                        _INTCONbits 0FF2  
                                       sprintf@ap 004F                       __end_of_ADC_StartConversion 216C  
                         ?_PIN_MANAGER_Initialize 0001                   __end_of_ADC_GetConversionResult 2126  
                  __end_of_EUSART_SetErrorHandler 2160                                         strncmp@_l 0001  
                                       strncmp@_r 0003                                  ??_ADC_Initialize 0001  
   EUSART_SetFramingErrorHandler@interruptHandler 0001                                       ??_vfpfcnvrt 002F  
                                        stoa@nuls 000F                                          sprintf@f 0051  
                                        sprintf@s 0043                                          strncmp@l 0008  
                                        strncmp@n 0005                                          strncmp@r 000A  
                           _USART_String_Transmit 1DE4                                EUSART_Write@txData 0001  
                  __end_of_PIN_MANAGER_Initialize 2058  __end_of_Seven_Segment_Positive_Tempreture_Output 170A  
      ??_Seven_Segment_Positive_Tempreture_Output 000F         ?_Seven_Segment_Positive_Tempreture_Output 0001  
        _Seven_Segment_Positive_Tempreture_Output 15AA  
