

Microchip MPLAB XC8 Assembler V2.36 build 20220127204148 
                                                                                               Thu Dec 22 15:09:36 2022

Microchip MPLAB XC8 C Compiler v2.36 (Free license) build 20220127204148 Og1 
     1                           	processor	18F45K20
     2                           	fnconf	rparam,??,?,0
     3                           	pagewidth 120
     4                           	opt	flic
     5                           	psect	idataBANK0,global,class=CODE,delta=1,noexec
     6                           	psect	nvBANK0,global,class=BANK0,space=1,delta=1,lowdata,noexec
     7                           	psect	smallconst,global,reloc=2,class=SMALLCONST,delta=1,noexec
     8                           	psect	cinit,global,reloc=2,class=CODE,delta=1
     9                           	psect	bssCOMRAM,global,class=COMRAM,space=1,delta=1,lowdata,noexec
    10                           	psect	bssBANK0,global,class=BANK0,space=1,delta=1,lowdata,noexec
    11                           	psect	dataBANK0,global,class=BANK0,space=1,delta=1,lowdata,noexec
    12                           	psect	cstackBANK0,global,class=BANK0,space=1,delta=1,lowdata,noexec
    13                           	psect	cstackCOMRAM,global,class=COMRAM,space=1,delta=1,lowdata,noexec
    14                           	psect	text0,global,reloc=2,class=CODE,delta=1
    15                           	psect	text1,global,reloc=2,class=CODE,delta=1,group=3
    16                           	psect	text2,global,reloc=2,class=CODE,delta=1,group=1
    17                           	psect	text3,global,reloc=2,class=CODE,delta=1,group=1
    18                           	psect	text4,global,reloc=2,class=CODE,delta=1,group=3
    19                           	psect	text5,global,reloc=2,class=CODE,delta=1,group=1
    20                           	psect	text6,global,reloc=2,class=CODE,delta=1,group=1
    21                           	psect	text7,global,reloc=2,class=CODE,delta=1,group=1
    22                           	psect	text8,global,reloc=2,class=CODE,delta=1,group=3
    23                           	psect	text9,global,reloc=2,class=CODE,delta=1,group=3
    24                           	psect	text10,global,reloc=2,class=CODE,delta=1,group=3
    25                           	psect	text11,global,reloc=2,class=CODE,delta=1,group=3
    26                           	psect	text12,global,reloc=2,class=CODE,delta=1,group=3
    27                           	psect	text13,global,reloc=2,class=CODE,delta=1,group=2
    28                           	psect	text14,global,reloc=2,class=CODE,delta=1,group=2
    29                           	psect	text15,global,reloc=2,class=CODE,delta=1,group=3
    30                           	psect	text16,global,reloc=2,class=CODE,delta=1,group=3
    31                           	psect	text17,global,reloc=2,class=CODE,delta=1,group=3
    32                           	psect	text18,global,reloc=2,class=CODE,delta=1,group=2
    33                           	psect	text19,global,reloc=2,class=CODE,delta=1
    34                           	psect	text20,global,reloc=2,class=CODE,delta=1,group=2
    35                           	psect	text21,global,reloc=2,class=CODE,delta=1,group=2
    36                           	psect	text22,global,reloc=2,class=CODE,delta=1,group=2
    37                           	psect	text23,global,reloc=2,class=CODE,delta=1,group=2
    38                           	psect	text24,global,reloc=2,class=CODE,delta=1,group=2
    39                           	psect	text25,global,reloc=2,class=CODE,delta=1,group=2
    40                           	psect	text26,global,reloc=2,class=CODE,delta=1
    41                           	psect	text27,global,reloc=2,class=CODE,delta=1
    42                           	psect	text28,global,reloc=2,class=CODE,delta=1
    43                           	psect	text29,global,reloc=2,class=CODE,delta=1
    44                           	psect	text30,global,reloc=2,class=CODE,delta=1
    45                           	psect	text31,global,reloc=2,class=CODE,delta=1
    46                           	psect	text32,global,reloc=2,class=CODE,delta=1
    47                           	psect	text33,global,reloc=2,class=CODE,delta=1
    48                           	psect	text34,global,reloc=2,class=CODE,delta=1
    49                           	psect	text35,global,reloc=2,class=CODE,delta=1
    50                           	psect	text36,global,reloc=2,class=CODE,delta=1
    51                           	psect	text37,global,reloc=2,class=CODE,delta=1
    52                           	psect	text38,global,reloc=2,class=CODE,delta=1
    53                           	psect	text39,global,reloc=2,class=CODE,delta=1
    54                           	psect	intsave_regs,global,class=BIGRAM,space=1,delta=1,noexec
    55                           	psect	rparam,global,class=COMRAM,space=1,delta=1,noexec
    56                           	psect	idloc,global,abs,ovrld,class=IDLOC,space=5,delta=1,noexec
    57                           	psect	config,global,abs,ovrld,class=CONFIG,space=4,delta=1,noexec
    58  0000                     
    59                           ; Version 2.36
    60                           ; Generated 28/01/2022 GMT
    61                           ; 
    62                           ; Copyright © 2022, Microchip Technology Inc. and its subsidiaries ("Microchip")
    63                           ; All rights reserved.
    64                           ; 
    65                           ; This software is developed by Microchip Technology Inc. and its subsidiaries ("Microch
      +                          ip").
    66                           ; 
    67                           ; Redistribution and use in source and binary forms, with or without modification, are
    68                           ; permitted provided that the following conditions are met:
    69                           ; 
    70                           ;     1. Redistributions of source code must retain the above copyright notice, this lis
      +                          t of
    71                           ;        conditions and the following disclaimer.
    72                           ; 
    73                           ;     2. Redistributions in binary form must reproduce the above copyright notice, this 
      +                          list
    74                           ;        of conditions and the following disclaimer in the documentation and/or other
    75                           ;        materials provided with the distribution. Publication is not required when
    76                           ;        this file is used in an embedded application.
    77                           ; 
    78                           ;     3. Microchip's name may not be used to endorse or promote products derived from th
      +                          is
    79                           ;        software without specific prior written permission.
    80                           ; 
    81                           ; THIS SOFTWARE IS PROVIDED BY MICROCHIP "AS IS" AND ANY EXPRESS OR IMPLIED WARRANTIES,
    82                           ; INCLUDING, BUT NOT LIMITED TO, THE IMPLIED WARRANTIES OF MERCHANTABILITY AND FITNESS F
      +                          OR
    83                           ; PURPOSE ARE DISCLAIMED.  IN NO EVENT SHALL MICROCHIP BE LIABLE FOR ANY DIRECT, INDIREC
      +                          T,
    84                           ; INCIDENTAL, SPECIAL, EXEMPLARY, OR CONSEQUENTIAL DAMAGES (INCLUDING BUT NOT LIMITED TO
    85                           ; PROCUREMENT OF SUBSTITUTE GOODS OR SERVICES; LOSS OF USE, DATA OR PROFITS; OR BUSINESS
    86                           ; INTERRUPTION) HOWSOEVER CAUSED AND ON ANY THEORY OF LIABILITY, WHETHER IN CONTRACT, ST
      +                          RICT
    87                           ; LIABILITY, OR TORT (INCLUDING NEGLIGENCE OR OTHERWISE) ARISING IN ANY WAY OUT OF THE U
      +                          SE OF
    88                           ; THIS SOFTWARE, EVEN IF ADVISED OF THE POSSIBILITY OF SUCH DAMAGE.
    89                           ; 
    90                           ; 
    91                           ; Code-generator required, PIC18F45K20 Definitions
    92                           ; 
    93                           ; SFR Addresses
    94  0000                     
    95 ;; Function _EUSART_DefaultFramingErrorHandler is unused but had its address taken
    96  0000                     
    97 ;; Function _EUSART_DefaultOverrunErrorHandler is unused but had its address taken
    98  0000                     
    99 ;; Function _EUSART_DefaultErrorHandler is unused but had its address taken
   100  0000                     
   101                           	psect	idataBANK0
   102  0026E8                     __pidataBANK0:
   103                           	callstack 0
   104                           
   105                           ;initializer for stoa@F1150
   106  0026E8  28                 	db	40
   107  0026E9  6E                 	db	110
   108  0026EA  75                 	db	117
   109  0026EB  6C                 	db	108
   110  0026EC  6C                 	db	108
   111  0026ED  29                 	db	41
   112  0026EE  00                 	db	0
   113  0000                     _TRISD	set	3989
   114  0000                     _TRISC	set	3988
   115  0000                     _TRISB	set	3987
   116  0000                     _LATC	set	3979
   117  0000                     _LATB	set	3978
   118  0000                     _TXREG	set	4013
   119  0000                     _RCREG	set	4014
   120  0000                     _SPBRG	set	4015
   121  0000                     _TXSTA	set	4012
   122  0000                     _ADCON0	set	4034
   123  0000                     _ADRESL	set	4035
   124                           
   125                           	psect	nvBANK0
   126  0000DA                     __pnvBANK0:
   127                           	callstack 0
   128  0000DA                     _Voltage:
   129                           	callstack 0
   130  0000DA                     	ds	4
   131  0000DE                     _LM35_Reading:
   132                           	callstack 0
   133  0000DE                     	ds	2
   134  0000E0                     _EUSART_ErrorHandler:
   135                           	callstack 0
   136  0000E0                     	ds	2
   137  0000E2                     _EUSART_OverrunErrorHandler:
   138                           	callstack 0
   139  0000E2                     	ds	2
   140  0000E4                     _EUSART_FramingErrorHandler:
   141                           	callstack 0
   142  0000E4                     	ds	2
   143  0000                     _T2CONbits	set	4042
   144  0000                     _LATCbits	set	3979
   145  0000                     _RCSTAbits	set	4011
   146  0000                     _TXSTAbits	set	4012
   147  0000                     _ADCON0bits	set	4034
   148  0000                     _WPUB	set	3964
   149  0000                     _ANSEL	set	3966
   150  0000                     _LATA	set	3977
   151  0000                     _LATD	set	3980
   152  0000                     _LATE	set	3981
   153  0000                     _OSCTUNE	set	3995
   154  0000                     _PIR1bits	set	3998
   155  0000                     _RCSTA	set	4011
   156  0000                     _BAUDCON	set	4024
   157  0000                     _ADCON2	set	4032
   158  0000                     _ADCON1	set	4033
   159  0000                     _T2CON	set	4042
   160  0000                     _PR2	set	4043
   161  0000                     _OSCCON	set	4051
   162  0000                     _ADRESH	set	4036
   163  0000                     _CCP2CON	set	4026
   164  0000                     _SPBRGH	set	4016
   165  0000                     _INTCON2bits	set	4081
   166  0000                     _TRISA	set	3986
   167  0000                     _TRISE	set	3990
   168  0000                     _ANSELH	set	3967
   169  0000                     _INTCONbits	set	4082
   170  0000                     _CCPR2H	set	4028
   171  0000                     _CCPR2L	set	4027
   172  0000                     _TMR2	set	4044
   173                           
   174                           	psect	smallconst
   175  000600                     __psmallconst:
   176                           	callstack 0
   177  000600  00                 	db	0
   178  000601                     STR_2:
   179  000601  54                 	db	84	;'T'
   180  000602  65                 	db	101	;'e'
   181  000603  6D                 	db	109	;'m'
   182  000604  70                 	db	112	;'p'
   183  000605  65                 	db	101	;'e'
   184  000606  72                 	db	114	;'r'
   185  000607  61                 	db	97	;'a'
   186  000608  74                 	db	116	;'t'
   187  000609  75                 	db	117	;'u'
   188  00060A  72                 	db	114	;'r'
   189  00060B  65                 	db	101	;'e'
   190  00060C  20                 	db	32
   191  00060D  3A                 	db	58	;':'
   192  00060E  00                 	db	0
   193  00060F                     STR_3:
   194  00060F  20                 	db	32
   195  000610  44                 	db	68	;'D'
   196  000611  65                 	db	101	;'e'
   197  000612  67                 	db	103	;'g'
   198  000613  72                 	db	114	;'r'
   199  000614  65                 	db	101	;'e'
   200  000615  65                 	db	101	;'e'
   201  000616  73                 	db	115	;'s'
   202  000617  20                 	db	32
   203  000618  0A                 	db	10
   204  000619  0D                 	db	13
   205  00061A  20                 	db	32
   206  00061B  00                 	db	0
   207  00061C                     STR_1:
   208  00061C  25                 	db	37
   209  00061D  73                 	db	115	;'s'
   210  00061E  20                 	db	32
   211  00061F  25                 	db	37
   212  000620  33                 	db	51	;'3'
   213  000621  64                 	db	100	;'d'
   214  000622  20                 	db	32
   215  000623  25                 	db	37
   216  000624  73                 	db	115	;'s'
   217  000625  00                 	db	0
   218  000626                     STR_4:
   219  000626  6C                 	db	108	;'l'
   220  000627  6C                 	db	108	;'l'
   221  000628  73                 	db	115	;'s'
   222  000629  00                 	db	0
   223  00062A  00                 	db	0	; dummy byte at the end
   224  0000                     
   225                           ; #config settings
   226                           
   227                           	psect	cinit
   228  0024FA                     __pcinit:
   229                           	callstack 0
   230  0024FA                     start_initialization:
   231                           	callstack 0
   232  0024FA                     __initialization:
   233                           	callstack 0
   234                           
   235                           ; Initialize objects allocated to BANK0 (7 bytes)
   236                           ; load TBLPTR registers with __pidataBANK0
   237  0024FA  0EE8               	movlw	low __pidataBANK0
   238  0024FC  6EF6               	movwf	tblptrl,c
   239  0024FE  0E26               	movlw	high __pidataBANK0
   240  002500  6EF7               	movwf	tblptrh,c
   241  002502  0E00               	movlw	low (__pidataBANK0 shr (0+16))
   242  002504  6EF8               	movwf	tblptru,c
   243  002506  EE00  F0E6         	lfsr	0,__pdataBANK0
   244  00250A  EE10 F007          	lfsr	1,7
   245  00250E                     copy_data0:
   246  00250E  0009               	tblrd		*+
   247  002510  CFF5 FFEE          	movff	tablat,postinc0
   248  002514  50E5               	movf	postdec1,w,c
   249  002516  50E1               	movf	fsr1l,w,c
   250  002518  E1FA               	bnz	copy_data0
   251                           
   252                           ; Clear objects allocated to BANK0 (95 bytes)
   253  00251A  EE00  F060         	lfsr	0,__pbssBANK0
   254  00251E  0E5F               	movlw	95
   255  002520                     clear_0:
   256  002520  6AEE               	clrf	postinc0,c
   257  002522  06E8               	decf	wreg,f,c
   258  002524  E1FD               	bnz	clear_0
   259                           
   260                           ; Clear objects allocated to COMRAM (2 bytes)
   261  002526  6A5F               	clrf	(__pbssCOMRAM+1)& (0+255),c
   262  002528  6A5E               	clrf	__pbssCOMRAM& (0+255),c
   263  00252A                     end_of_initialization:
   264                           	callstack 0
   265  00252A                     __end_of__initialization:
   266                           	callstack 0
   267  00252A  0E00               	movlw	low (__Lmediumconst shr (0+16))
   268  00252C  6EF8               	movwf	tblptru,c
   269  00252E  0100               	movlb	0
   270  002530  EF01  F00B         	goto	_main	;jump to C main() function
   271                           
   272                           	psect	bssCOMRAM
   273  00005E                     __pbssCOMRAM:
   274                           	callstack 0
   275  00005E                     _flags:
   276                           	callstack 0
   277  00005E                     	ds	2
   278                           
   279                           	psect	bssBANK0
   280  000060                     __pbssBANK0:
   281                           	callstack 0
   282  000060                     _DC_Fan_Speed:
   283                           	callstack 0
   284  000060                     	ds	4
   285  000064                     _nout:
   286                           	callstack 0
   287  000064                     	ds	2
   288  000066                     _width:
   289                           	callstack 0
   290  000066                     	ds	2
   291  000068                     _prec:
   292                           	callstack 0
   293  000068                     	ds	2
   294  00006A                     _ADC_InterruptHandler:
   295                           	callstack 0
   296  00006A                     	ds	2
   297  00006C                     _eusartRxLastError:
   298                           	callstack 0
   299  00006C                     	ds	1
   300  00006D                     _xvalueASCII:
   301                           	callstack 0
   302  00006D                     	ds	50
   303  00009F                     _dbuf:
   304                           	callstack 0
   305  00009F                     	ds	32
   306                           
   307                           	psect	dataBANK0
   308  0000E6                     __pdataBANK0:
   309                           	callstack 0
   310  0000E6                     stoa@F1150:
   311                           	callstack 0
   312  0000E6                     	ds	7
   313                           
   314                           	psect	cstackBANK0
   315  0000BF                     __pcstackBANK0:
   316                           	callstack 0
   317  0000BF                     ?_sprintf:
   318                           	callstack 0
   319  0000BF                     sprintf@s:
   320                           	callstack 0
   321                           
   322                           ; 2 bytes @ 0x0
   323  0000BF                     	ds	2
   324  0000C1                     sprintf@fmt:
   325                           	callstack 0
   326                           
   327                           ; 2 bytes @ 0x2
   328  0000C1                     	ds	8
   329  0000C9                     sprintf@ap:
   330                           	callstack 0
   331                           
   332                           ; 2 bytes @ 0xA
   333  0000C9                     	ds	2
   334  0000CB                     sprintf@f:
   335                           	callstack 0
   336                           
   337                           ; 11 bytes @ 0xC
   338  0000CB                     	ds	11
   339  0000D6                     _main$1579:
   340                           	callstack 0
   341                           
   342                           ; 4 bytes @ 0x17
   343  0000D6                     	ds	4
   344                           
   345                           	psect	cstackCOMRAM
   346  000001                     __pcstackCOMRAM:
   347                           	callstack 0
   348  000001                     ?_strlen:
   349                           	callstack 0
   350  000001                     ?_isdigit:
   351                           	callstack 0
   352  000001                     ?_strncmp:
   353                           	callstack 0
   354  000001                     ?_isspace:
   355                           	callstack 0
   356  000001                     ?_ADC_GetConversion:
   357                           	callstack 0
   358  000001                     ?___wmul:
   359                           	callstack 0
   360  000001                     ?___flmul:
   361                           	callstack 0
   362  000001                     ?___lmul:
   363                           	callstack 0
   364  000001                     ?___aodiv:
   365                           	callstack 0
   366  000001                     ?___aomod:
   367                           	callstack 0
   368  000001                     EUSART_Write@txData:
   369                           	callstack 0
   370  000001                     EUSART_SetFramingErrorHandler@interruptHandler:
   371                           	callstack 0
   372  000001                     EUSART_SetOverrunErrorHandler@interruptHandler:
   373                           	callstack 0
   374  000001                     EUSART_SetErrorHandler@interruptHandler:
   375                           	callstack 0
   376  000001                     PWM2_LoadDutyValue@dutyValue:
   377                           	callstack 0
   378  000001                     ___wmul@multiplier:
   379                           	callstack 0
   380  000001                     isdigit@c:
   381                           	callstack 0
   382  000001                     isspace@c:
   383                           	callstack 0
   384  000001                     fputc@c:
   385                           	callstack 0
   386  000001                     strlen@s:
   387                           	callstack 0
   388  000001                     strncmp@_l:
   389                           	callstack 0
   390  000001                     ___lmul@multiplier:
   391                           	callstack 0
   392  000001                     ___flmul@b:
   393                           	callstack 0
   394  000001                     ___aodiv@dividend:
   395                           	callstack 0
   396  000001                     ___aomod@dividend:
   397                           	callstack 0
   398                           
   399                           ; 8 bytes @ 0x0
   400  000001                     	ds	1
   401  000002                     SendUsartString@str:
   402                           	callstack 0
   403                           
   404                           ; 2 bytes @ 0x1
   405  000002                     	ds	1
   406  000003                     ??_PWM2_LoadDutyValue:
   407  000003                     ??_isdigit:
   408  000003                     ??_isspace:
   409  000003                     ??_ADC_GetConversion:
   410  000003                     ___wmul@multiplicand:
   411                           	callstack 0
   412  000003                     fputc@fp:
   413                           	callstack 0
   414  000003                     strlen@a:
   415                           	callstack 0
   416  000003                     strncmp@_r:
   417                           	callstack 0
   418                           
   419                           ; 2 bytes @ 0x2
   420  000003                     	ds	1
   421  000004                     
   422                           ; 1 bytes @ 0x3
   423  000004                     	ds	1
   424  000005                     ??_fputc:
   425  000005                     ADC_GetConversion@channel:
   426                           	callstack 0
   427  000005                     ___wmul@product:
   428                           	callstack 0
   429  000005                     strncmp@n:
   430                           	callstack 0
   431  000005                     ___lmul@multiplicand:
   432                           	callstack 0
   433  000005                     ___flmul@a:
   434                           	callstack 0
   435                           
   436                           ; 4 bytes @ 0x4
   437  000005                     	ds	1
   438  000006                     ?___xxtofl:
   439                           	callstack 0
   440  000006                     ___xxtofl@val:
   441                           	callstack 0
   442                           
   443                           ; 4 bytes @ 0x5
   444  000006                     	ds	1
   445  000007                     ??_strncmp:
   446  000007                     _isspace$1277:
   447                           	callstack 0
   448                           
   449                           ; 1 bytes @ 0x6
   450  000007                     	ds	1
   451  000008                     ?_atoi:
   452                           	callstack 0
   453  000008                     atoi@s:
   454                           	callstack 0
   455  000008                     strncmp@l:
   456                           	callstack 0
   457                           
   458                           ; 2 bytes @ 0x7
   459  000008                     	ds	1
   460  000009                     ??___flmul:
   461  000009                     ___lmul@product:
   462                           	callstack 0
   463  000009                     ___aodiv@divisor:
   464                           	callstack 0
   465  000009                     ___aomod@divisor:
   466                           	callstack 0
   467                           
   468                           ; 8 bytes @ 0x8
   469  000009                     	ds	1
   470  00000A                     ??_atoi:
   471  00000A                     ??___xxtofl:
   472  00000A                     ?_stoa:
   473                           	callstack 0
   474  00000A                     stoa@fp:
   475                           	callstack 0
   476  00000A                     fputs@s:
   477                           	callstack 0
   478  00000A                     strncmp@r:
   479                           	callstack 0
   480                           
   481                           ; 2 bytes @ 0x9
   482  00000A                     	ds	2
   483  00000C                     stoa@s:
   484                           	callstack 0
   485  00000C                     fputs@fp:
   486                           	callstack 0
   487                           
   488                           ; 2 bytes @ 0xB
   489  00000C                     	ds	1
   490  00000D                     ?___aldiv:
   491                           	callstack 0
   492  00000D                     ___flmul@sign:
   493                           	callstack 0
   494  00000D                     ___aldiv@dividend:
   495                           	callstack 0
   496                           
   497                           ; 4 bytes @ 0xC
   498  00000D                     	ds	1
   499  00000E                     ??_stoa:
   500  00000E                     ___xxtofl@sign:
   501                           	callstack 0
   502  00000E                     fputs@c:
   503                           	callstack 0
   504  00000E                     atoi@neg:
   505                           	callstack 0
   506  00000E                     ___flmul@grs:
   507                           	callstack 0
   508                           
   509                           ; 4 bytes @ 0xD
   510  00000E                     	ds	1
   511  00000F                     ___xxtofl@exp:
   512                           	callstack 0
   513  00000F                     fputs@i:
   514                           	callstack 0
   515  00000F                     stoa@nuls:
   516                           	callstack 0
   517                           
   518                           ; 7 bytes @ 0xE
   519  00000F                     	ds	1
   520  000010                     atoi@n:
   521                           	callstack 0
   522  000010                     ___xxtofl@arg:
   523                           	callstack 0
   524                           
   525                           ; 4 bytes @ 0xF
   526  000010                     	ds	1
   527  000011                     ?_pad:
   528                           	callstack 0
   529  000011                     ___aodiv@counter:
   530                           	callstack 0
   531  000011                     ___aomod@counter:
   532                           	callstack 0
   533  000011                     pad@fp:
   534                           	callstack 0
   535  000011                     ___aldiv@divisor:
   536                           	callstack 0
   537                           
   538                           ; 4 bytes @ 0x10
   539  000011                     	ds	1
   540  000012                     ___aodiv@sign:
   541                           	callstack 0
   542  000012                     ___aomod@sign:
   543                           	callstack 0
   544  000012                     ___flmul@aexp:
   545                           	callstack 0
   546                           
   547                           ; 1 bytes @ 0x11
   548  000012                     	ds	1
   549  000013                     ?_abs:
   550                           	callstack 0
   551  000013                     ___flmul@bexp:
   552                           	callstack 0
   553  000013                     pad@buf:
   554                           	callstack 0
   555  000013                     abs@a:
   556                           	callstack 0
   557  000013                     ___aodiv@quotient:
   558                           	callstack 0
   559                           
   560                           ; 8 bytes @ 0x12
   561  000013                     	ds	1
   562  000014                     ___flmul@prod:
   563                           	callstack 0
   564                           
   565                           ; 4 bytes @ 0x13
   566  000014                     	ds	1
   567  000015                     ??_abs:
   568  000015                     ___aldiv@counter:
   569                           	callstack 0
   570  000015                     pad@p:
   571                           	callstack 0
   572                           
   573                           ; 2 bytes @ 0x14
   574  000015                     	ds	1
   575  000016                     ___aldiv@sign:
   576                           	callstack 0
   577  000016                     stoa@i:
   578                           	callstack 0
   579                           
   580                           ; 2 bytes @ 0x15
   581  000016                     	ds	1
   582  000017                     ??_pad:
   583  000017                     ___aldiv@quotient:
   584                           	callstack 0
   585                           
   586                           ; 4 bytes @ 0x16
   587  000017                     	ds	1
   588  000018                     ___flmul@temp:
   589                           	callstack 0
   590  000018                     pad@i:
   591                           	callstack 0
   592  000018                     stoa@w:
   593                           	callstack 0
   594                           
   595                           ; 2 bytes @ 0x17
   596  000018                     	ds	2
   597  00001A                     ?___fldiv:
   598                           	callstack 0
   599  00001A                     pad@w:
   600                           	callstack 0
   601  00001A                     stoa@cp:
   602                           	callstack 0
   603  00001A                     ___fldiv@b:
   604                           	callstack 0
   605                           
   606                           ; 4 bytes @ 0x19
   607  00001A                     	ds	1
   608  00001B                     ?_map:
   609                           	callstack 0
   610  00001B                     map@x:
   611                           	callstack 0
   612                           
   613                           ; 4 bytes @ 0x1A
   614  00001B                     	ds	1
   615  00001C                     ?_dtoa:
   616                           	callstack 0
   617  00001C                     dtoa@fp:
   618                           	callstack 0
   619  00001C                     stoa@p:
   620                           	callstack 0
   621                           
   622                           ; 2 bytes @ 0x1B
   623  00001C                     	ds	2
   624  00001E                     stoa@l:
   625                           	callstack 0
   626  00001E                     ___fldiv@a:
   627                           	callstack 0
   628  00001E                     dtoa@d:
   629                           	callstack 0
   630                           
   631                           ; 8 bytes @ 0x1D
   632  00001E                     	ds	1
   633  00001F                     map@in_min:
   634                           	callstack 0
   635                           
   636                           ; 4 bytes @ 0x1E
   637  00001F                     	ds	3
   638  000022                     ??___fldiv:
   639                           
   640                           ; 1 bytes @ 0x21
   641  000022                     	ds	1
   642  000023                     map@in_max:
   643                           	callstack 0
   644                           
   645                           ; 4 bytes @ 0x22
   646  000023                     	ds	3
   647  000026                     ??_dtoa:
   648  000026                     ___fldiv@rem:
   649                           	callstack 0
   650                           
   651                           ; 4 bytes @ 0x25
   652  000026                     	ds	1
   653  000027                     map@out_min:
   654                           	callstack 0
   655                           
   656                           ; 4 bytes @ 0x26
   657  000027                     	ds	3
   658  00002A                     ___fldiv@sign:
   659                           	callstack 0
   660                           
   661                           ; 1 bytes @ 0x29
   662  00002A                     	ds	1
   663  00002B                     ___fldiv@new_exp:
   664                           	callstack 0
   665  00002B                     map@out_max:
   666                           	callstack 0
   667                           
   668                           ; 4 bytes @ 0x2A
   669  00002B                     	ds	2
   670  00002D                     ___fldiv@grs:
   671                           	callstack 0
   672                           
   673                           ; 4 bytes @ 0x2C
   674  00002D                     	ds	1
   675  00002E                     _dtoa$1210:
   676                           	callstack 0
   677                           
   678                           ; 2 bytes @ 0x2D
   679  00002E                     	ds	1
   680  00002F                     
   681                           ; 1 bytes @ 0x2E
   682  00002F                     	ds	1
   683  000030                     dtoa@p:
   684                           	callstack 0
   685                           
   686                           ; 2 bytes @ 0x2F
   687  000030                     	ds	1
   688  000031                     ___fldiv@bexp:
   689                           	callstack 0
   690                           
   691                           ; 1 bytes @ 0x30
   692  000031                     	ds	1
   693  000032                     ___fldiv@aexp:
   694                           	callstack 0
   695  000032                     dtoa@w:
   696                           	callstack 0
   697                           
   698                           ; 2 bytes @ 0x31
   699  000032                     	ds	1
   700  000033                     ?___fltol:
   701                           	callstack 0
   702  000033                     ___fltol@f1:
   703                           	callstack 0
   704                           
   705                           ; 4 bytes @ 0x32
   706  000033                     	ds	1
   707  000034                     dtoa@s:
   708                           	callstack 0
   709                           
   710                           ; 2 bytes @ 0x33
   711  000034                     	ds	2
   712  000036                     dtoa@n:
   713                           	callstack 0
   714                           
   715                           ; 8 bytes @ 0x35
   716  000036                     	ds	1
   717  000037                     ??___fltol:
   718                           
   719                           ; 1 bytes @ 0x36
   720  000037                     	ds	4
   721  00003B                     ___fltol@sign1:
   722                           	callstack 0
   723                           
   724                           ; 1 bytes @ 0x3A
   725  00003B                     	ds	1
   726  00003C                     ___fltol@exp1:
   727                           	callstack 0
   728                           
   729                           ; 1 bytes @ 0x3B
   730  00003C                     	ds	2
   731  00003E                     dtoa@i:
   732                           	callstack 0
   733                           
   734                           ; 2 bytes @ 0x3D
   735  00003E                     	ds	2
   736  000040                     ?_vfpfcnvrt:
   737                           	callstack 0
   738  000040                     vfpfcnvrt@fp:
   739                           	callstack 0
   740                           
   741                           ; 2 bytes @ 0x3F
   742  000040                     	ds	2
   743  000042                     vfpfcnvrt@fmt:
   744                           	callstack 0
   745                           
   746                           ; 2 bytes @ 0x41
   747  000042                     	ds	2
   748  000044                     vfpfcnvrt@ap:
   749                           	callstack 0
   750                           
   751                           ; 2 bytes @ 0x43
   752  000044                     	ds	2
   753  000046                     ??_vfpfcnvrt:
   754                           
   755                           ; 1 bytes @ 0x45
   756  000046                     	ds	4
   757  00004A                     vfpfcnvrt@ll:
   758                           	callstack 0
   759                           
   760                           ; 8 bytes @ 0x49
   761  00004A                     	ds	8
   762  000052                     vfpfcnvrt@cp:
   763                           	callstack 0
   764                           
   765                           ; 2 bytes @ 0x51
   766  000052                     	ds	2
   767  000054                     _vfpfcnvrt$1240:
   768                           	callstack 0
   769                           
   770                           ; 2 bytes @ 0x53
   771  000054                     	ds	2
   772  000056                     ?_vfprintf:
   773                           	callstack 0
   774  000056                     vfprintf@fp:
   775                           	callstack 0
   776                           
   777                           ; 2 bytes @ 0x55
   778  000056                     	ds	2
   779  000058                     vfprintf@fmt:
   780                           	callstack 0
   781                           
   782                           ; 2 bytes @ 0x57
   783  000058                     	ds	2
   784  00005A                     vfprintf@ap:
   785                           	callstack 0
   786                           
   787                           ; 2 bytes @ 0x59
   788  00005A                     	ds	2
   789  00005C                     vfprintf@cfmt:
   790                           	callstack 0
   791                           
   792                           ; 2 bytes @ 0x5B
   793  00005C                     	ds	2
   794  00005E                     
   795                           ; 1 bytes @ 0x5D
   796 ;;
   797 ;;Main: autosize = 0, tempsize = 0, incstack = 0, save=0
   798 ;;
   799 ;; *************** function _main *****************
   800 ;; Defined at:
   801 ;;		line 24 in file "main.c"
   802 ;; Parameters:    Size  Location     Type
   803 ;;		None
   804 ;; Auto vars:     Size  Location     Type
   805 ;;		None
   806 ;; Return value:  Size  Location     Type
   807 ;;                  1    wreg      void 
   808 ;; Registers used:
   809 ;;		wreg, fsr1l, fsr1h, fsr2l, fsr2h, status,2, status,0, tblptrl, tblptrh, tblptru, prodl, prodh, cstack
   810 ;; Tracked objects:
   811 ;;		On entry : 0/0
   812 ;;		On exit  : 0/0
   813 ;;		Unchanged: 0/0
   814 ;; Data sizes:     COMRAM   BANK0   BANK1   BANK2   BANK3   BANK4   BANK5
   815 ;;      Params:         0       0       0       0       0       0       0
   816 ;;      Locals:         0       4       0       0       0       0       0
   817 ;;      Temps:          0       0       0       0       0       0       0
   818 ;;      Totals:         0       4       0       0       0       0       0
   819 ;;Total ram usage:        4 bytes
   820 ;; Hardware stack levels required when called: 8
   821 ;; This function calls:
   822 ;;		_ADC_GetConversion
   823 ;;		_PWM2_LoadDutyValue
   824 ;;		_SYSTEM_Initialize
   825 ;;		_SendUsartString
   826 ;;		___fldiv
   827 ;;		___flmul
   828 ;;		___fltol
   829 ;;		___xxtofl
   830 ;;		_map
   831 ;;		_sprintf
   832 ;; This function is called by:
   833 ;;		Startup code after reset
   834 ;; This function uses a non-reentrant model
   835 ;;
   836                           
   837                           	psect	text0
   838  001602                     __ptext0:
   839                           	callstack 0
   840  001602                     _main:
   841                           	callstack 23
   842  001602                     
   843                           ;main.c: 27:     SYSTEM_Initialize();
   844  001602  EC2E  F013         	call	_SYSTEM_Initialize	;wreg free
   845  001606                     
   846                           ;main.c: 29:     LATCbits.LATC0=1;
   847  001606  808B               	bsf	139,0,c	;volatile
   848  001608                     
   849                           ;main.c: 30:     LATCbits.LATC2=0;
   850  001608  948B               	bcf	139,2,c	;volatile
   851  00160A                     l215:
   852                           
   853                           ;main.c: 33:     {;main.c: 34:         Voltage = ADC_GetConversion(0);
   854  00160A  0E00               	movlw	0
   855  00160C  EC9A  F012         	call	_ADC_GetConversion
   856  001610  C001  F006         	movff	?_ADC_GetConversion,___xxtofl@val
   857  001614  C002  F007         	movff	?_ADC_GetConversion+1,___xxtofl@val+1
   858  001618  6A08               	clrf	(___xxtofl@val+2)^0,c
   859  00161A  6A09               	clrf	(___xxtofl@val+3)^0,c
   860  00161C  0E00               	movlw	0
   861  00161E  EC27  F00A         	call	___xxtofl
   862  001622  C006  F0DA         	movff	?___xxtofl,_Voltage
   863  001626  C007  F0DB         	movff	?___xxtofl+1,_Voltage+1
   864  00162A  C008  F0DC         	movff	?___xxtofl+2,_Voltage+2
   865  00162E  C009  F0DD         	movff	?___xxtofl+3,_Voltage+3
   866  001632                     
   867                           ;main.c: 35:         LM35_Reading = ((((Voltage*5000)/1023)))/10;
   868  001632  0E00               	movlw	0
   869  001634  6E1E               	movwf	___fldiv@a^0,c
   870  001636  0EC0               	movlw	192
   871  001638  6E1F               	movwf	(___fldiv@a+1)^0,c
   872  00163A  0E7F               	movlw	127
   873  00163C  6E20               	movwf	(___fldiv@a+2)^0,c
   874  00163E  0E44               	movlw	68
   875  001640  6E21               	movwf	(___fldiv@a+3)^0,c
   876  001642  0E00               	movlw	0
   877  001644  6E05               	movwf	___flmul@a^0,c
   878  001646  0E40               	movlw	64
   879  001648  6E06               	movwf	(___flmul@a+1)^0,c
   880  00164A  0E9C               	movlw	156
   881  00164C  6E07               	movwf	(___flmul@a+2)^0,c
   882  00164E  0E45               	movlw	69
   883  001650  6E08               	movwf	(___flmul@a+3)^0,c
   884  001652  C0DA  F001         	movff	_Voltage,___flmul@b
   885  001656  C0DB  F002         	movff	_Voltage+1,___flmul@b+1
   886  00165A  C0DC  F003         	movff	_Voltage+2,___flmul@b+2
   887  00165E  C0DD  F004         	movff	_Voltage+3,___flmul@b+3
   888  001662  EC16  F003         	call	___flmul	;wreg free
   889  001666  C001  F01A         	movff	?___flmul,___fldiv@b
   890  00166A  C002  F01B         	movff	?___flmul+1,___fldiv@b+1
   891  00166E  C003  F01C         	movff	?___flmul+2,___fldiv@b+2
   892  001672  C004  F01D         	movff	?___flmul+3,___fldiv@b+3
   893  001676  EC2B  F005         	call	___fldiv	;wreg free
   894  00167A  C01A  F0D6         	movff	?___fldiv,_main$1579
   895  00167E  C01B  F0D7         	movff	?___fldiv+1,_main$1579+1
   896  001682  C01C  F0D8         	movff	?___fldiv+2,_main$1579+2
   897  001686  C01D  F0D9         	movff	?___fldiv+3,_main$1579+3
   898  00168A                     
   899                           ;main.c: 35:         LM35_Reading = ((((Voltage*5000)/1023)))/10;
   900  00168A  0E00               	movlw	0
   901  00168C  6E1E               	movwf	___fldiv@a^0,c
   902  00168E  0E00               	movlw	0
   903  001690  6E1F               	movwf	(___fldiv@a+1)^0,c
   904  001692  0E20               	movlw	32
   905  001694  6E20               	movwf	(___fldiv@a+2)^0,c
   906  001696  0E41               	movlw	65
   907  001698  6E21               	movwf	(___fldiv@a+3)^0,c
   908  00169A  C0D6  F01A         	movff	_main$1579,___fldiv@b
   909  00169E  C0D7  F01B         	movff	_main$1579+1,___fldiv@b+1
   910  0016A2  C0D8  F01C         	movff	_main$1579+2,___fldiv@b+2
   911  0016A6  C0D9  F01D         	movff	_main$1579+3,___fldiv@b+3
   912  0016AA  EC2B  F005         	call	___fldiv	;wreg free
   913  0016AE  C01A  F033         	movff	?___fldiv,___fltol@f1
   914  0016B2  C01B  F034         	movff	?___fldiv+1,___fltol@f1+1
   915  0016B6  C01C  F035         	movff	?___fldiv+2,___fltol@f1+2
   916  0016BA  C01D  F036         	movff	?___fldiv+3,___fltol@f1+3
   917  0016BE  EC47  F00F         	call	___fltol	;wreg free
   918  0016C2  C033  F0DE         	movff	?___fltol,_LM35_Reading
   919  0016C6  C034  F0DF         	movff	?___fltol+1,_LM35_Reading+1
   920  0016CA                     
   921                           ;main.c: 36:         sprintf(xvalueASCII,"%s %3d %s","Temperature :",LM35_Reading ," Deg
      +                          rees \n\r ");
   922  0016CA  0E6D               	movlw	low _xvalueASCII
   923  0016CC  0100               	movlb	0	; () banked
   924  0016CE  6FBF               	movwf	sprintf@s& (0+255),b
   925  0016D0  0E00               	movlw	high _xvalueASCII
   926  0016D2  6FC0               	movwf	(sprintf@s+1)& (0+255),b
   927  0016D4  0E1C               	movlw	low STR_1
   928  0016D6  6FC1               	movwf	sprintf@fmt& (0+255),b
   929  0016D8  0E06               	movlw	high STR_1
   930  0016DA  6FC2               	movwf	(sprintf@fmt+1)& (0+255),b
   931  0016DC  0E01               	movlw	low STR_2
   932  0016DE  6FC3               	movwf	(?_sprintf+4)& (0+255),b
   933  0016E0  0E06               	movlw	high STR_2
   934  0016E2  6FC4               	movwf	(?_sprintf+5)& (0+255),b
   935  0016E4  C0DE  F0C5         	movff	_LM35_Reading,?_sprintf+6
   936  0016E8  C0DF  F0C6         	movff	_LM35_Reading+1,?_sprintf+7
   937  0016EC  0E0F               	movlw	low STR_3
   938  0016EE  6FC7               	movwf	(?_sprintf+8)& (0+255),b
   939  0016F0  0E06               	movlw	high STR_3
   940  0016F2  6FC8               	movwf	(?_sprintf+9)& (0+255),b
   941  0016F4  ECA2  F011         	call	_sprintf	;wreg free
   942  0016F8                     
   943                           ;main.c: 37:         SendUsartString(xvalueASCII);
   944  0016F8  0E6D               	movlw	low _xvalueASCII
   945  0016FA  6E02               	movwf	SendUsartString@str^0,c
   946  0016FC  0E00               	movlw	high _xvalueASCII
   947  0016FE  6E03               	movwf	(SendUsartString@str+1)^0,c
   948  001700  ECD3  F012         	call	_SendUsartString	;wreg free
   949  001704                     
   950                           ;main.c: 38:         DC_Fan_Speed = map(LM35_Reading, 35, 150, 0, 1023);
   951  001704  C0DE  F01B         	movff	_LM35_Reading,map@x
   952  001708  C0DF  F01C         	movff	_LM35_Reading+1,map@x+1
   953  00170C  0E00               	movlw	0
   954  00170E  BE1C               	btfsc	(map@x+1)^0,7,c
   955  001710  0EFF               	movlw	-1
   956  001712  6E1D               	movwf	(map@x+2)^0,c
   957  001714  6E1E               	movwf	(map@x+3)^0,c
   958  001716  0E23               	movlw	35
   959  001718  6E1F               	movwf	map@in_min^0,c
   960  00171A  0E00               	movlw	0
   961  00171C  6E20               	movwf	(map@in_min+1)^0,c
   962  00171E  0E00               	movlw	0
   963  001720  6E21               	movwf	(map@in_min+2)^0,c
   964  001722  0E00               	movlw	0
   965  001724  6E22               	movwf	(map@in_min+3)^0,c
   966  001726  0E96               	movlw	150
   967  001728  6E23               	movwf	map@in_max^0,c
   968  00172A  0E00               	movlw	0
   969  00172C  6E24               	movwf	(map@in_max+1)^0,c
   970  00172E  0E00               	movlw	0
   971  001730  6E25               	movwf	(map@in_max+2)^0,c
   972  001732  0E00               	movlw	0
   973  001734  6E26               	movwf	(map@in_max+3)^0,c
   974  001736  0E00               	movlw	0
   975  001738  6E27               	movwf	map@out_min^0,c
   976  00173A  0E00               	movlw	0
   977  00173C  6E28               	movwf	(map@out_min+1)^0,c
   978  00173E  0E00               	movlw	0
   979  001740  6E29               	movwf	(map@out_min+2)^0,c
   980  001742  0E00               	movlw	0
   981  001744  6E2A               	movwf	(map@out_min+3)^0,c
   982  001746  0EFF               	movlw	255
   983  001748  6E2B               	movwf	map@out_max^0,c
   984  00174A  0E03               	movlw	3
   985  00174C  6E2C               	movwf	(map@out_max+1)^0,c
   986  00174E  0E00               	movlw	0
   987  001750  6E2D               	movwf	(map@out_max+2)^0,c
   988  001752  0E00               	movlw	0
   989  001754  6E2E               	movwf	(map@out_max+3)^0,c
   990  001756  ECFF  F010         	call	_map	;wreg free
   991  00175A  C01B  F060         	movff	?_map,_DC_Fan_Speed
   992  00175E  C01C  F061         	movff	?_map+1,_DC_Fan_Speed+1
   993  001762  C01D  F062         	movff	?_map+2,_DC_Fan_Speed+2
   994  001766  C01E  F063         	movff	?_map+3,_DC_Fan_Speed+3
   995  00176A                     
   996                           ;main.c: 39:         PWM2_LoadDutyValue( DC_Fan_Speed );
   997  00176A  C060  F001         	movff	_DC_Fan_Speed,PWM2_LoadDutyValue@dutyValue
   998  00176E  C061  F002         	movff	_DC_Fan_Speed+1,PWM2_LoadDutyValue@dutyValue+1
   999  001772  EC03  F013         	call	_PWM2_LoadDutyValue	;wreg free
  1000  001776                     
  1001                           ;main.c: 40:         if (LM35_Reading < 35){
  1002  001776  0100               	movlb	0	; () banked
  1003  001778  BFDF               	btfsc	(_LM35_Reading+1)& (0+255),7,b
  1004  00177A  EFCA  F00B         	goto	u2980
  1005  00177E  51DF               	movf	(_LM35_Reading+1)& (0+255),w,b
  1006  001780  E107               	bnz	u2981
  1007  001782  0E23               	movlw	35
  1008  001784  5DDE               	subwf	_LM35_Reading& (0+255),w,b
  1009  001786  B0D8               	btfsc	status,0,c
  1010  001788  EFC8  F00B         	goto	u2981
  1011  00178C  EFCA  F00B         	goto	u2980
  1012  001790                     u2981:
  1013  001790  EF05  F00B         	goto	l215
  1014  001794                     u2980:
  1015  001794                     
  1016                           ; BSR set to: 0
  1017                           ;main.c: 41:             PWM2_LoadDutyValue( 0 );
  1018  001794  0E00               	movlw	0
  1019  001796  6E02               	movwf	(PWM2_LoadDutyValue@dutyValue+1)^0,c
  1020  001798  0E00               	movlw	0
  1021  00179A  6E01               	movwf	PWM2_LoadDutyValue@dutyValue^0,c
  1022  00179C  EC03  F013         	call	_PWM2_LoadDutyValue	;wreg free
  1023  0017A0  EF05  F00B         	goto	l215
  1024  0017A4  EF00  F000         	goto	start
  1025  0017A8                     __end_of_main:
  1026                           	callstack 0
  1027                           
  1028 ;; *************** function _sprintf *****************
  1029 ;; Defined at:
  1030 ;;		line 9 in file "C:\Program Files\Microchip\xc8\v2.36\pic\sources\c99\common\nf_sprintf.c"
  1031 ;; Parameters:    Size  Location     Type
  1032 ;;  s               2    0[BANK0 ] PTR unsigned char 
  1033 ;;		 -> xvalueASCII(50), 
  1034 ;;  fmt             2    2[BANK0 ] PTR const unsigned char 
  1035 ;;		 -> STR_1(10), 
  1036 ;; Auto vars:     Size  Location     Type
  1037 ;;  f              11   12[BANK0 ] struct _IO_FILE
  1038 ;;  ap              2   10[BANK0 ] PTR void [1]
  1039 ;;		 -> ?_sprintf(2), 
  1040 ;;  ret             2    0        int 
  1041 ;; Return value:  Size  Location     Type
  1042 ;;                  2    0[BANK0 ] int 
  1043 ;; Registers used:
  1044 ;;		wreg, fsr1l, fsr1h, fsr2l, fsr2h, status,2, status,0, tblptrl, tblptrh, tblptru, prodl, prodh, cstack
  1045 ;; Tracked objects:
  1046 ;;		On entry : 0/0
  1047 ;;		On exit  : 0/0
  1048 ;;		Unchanged: 0/0
  1049 ;; Data sizes:     COMRAM   BANK0   BANK1   BANK2   BANK3   BANK4   BANK5
  1050 ;;      Params:         0      10       0       0       0       0       0
  1051 ;;      Locals:         0      13       0       0       0       0       0
  1052 ;;      Temps:          0       0       0       0       0       0       0
  1053 ;;      Totals:         0      23       0       0       0       0       0
  1054 ;;Total ram usage:       23 bytes
  1055 ;; Hardware stack levels used: 1
  1056 ;; Hardware stack levels required when called: 7
  1057 ;; This function calls:
  1058 ;;		_vfprintf
  1059 ;; This function is called by:
  1060 ;;		_main
  1061 ;; This function uses a non-reentrant model
  1062 ;;
  1063                           
  1064                           	psect	text1
  1065  002344                     __ptext1:
  1066                           	callstack 0
  1067  002344                     _sprintf:
  1068                           	callstack 23
  1069  002344  0EC3               	movlw	low (?_sprintf+4)
  1070  002346  0100               	movlb	0	; () banked
  1071  002348  6FC9               	movwf	sprintf@ap& (0+255),b
  1072  00234A  0E00               	movlw	high (?_sprintf+4)
  1073  00234C  6FCA               	movwf	(sprintf@ap+1)& (0+255),b
  1074  00234E  C0BF  F0CB         	movff	sprintf@s,sprintf@f
  1075  002352  C0C0  F0CC         	movff	sprintf@s+1,sprintf@f+1
  1076  002356                     
  1077                           ; BSR set to: 0
  1078  002356  0E00               	movlw	0
  1079  002358  6FCF               	movwf	(sprintf@f+4)& (0+255),b
  1080  00235A  0E00               	movlw	0
  1081  00235C  6FCE               	movwf	(sprintf@f+3)& (0+255),b
  1082  00235E                     
  1083                           ; BSR set to: 0
  1084  00235E  0E00               	movlw	0
  1085  002360  6FD5               	movwf	(sprintf@f+10)& (0+255),b
  1086  002362  0E00               	movlw	0
  1087  002364  6FD4               	movwf	(sprintf@f+9)& (0+255),b
  1088  002366                     
  1089                           ; BSR set to: 0
  1090  002366  0ECB               	movlw	low sprintf@f
  1091  002368  6E56               	movwf	vfprintf@fp^0,c
  1092  00236A  0E00               	movlw	high sprintf@f
  1093  00236C  6E57               	movwf	(vfprintf@fp+1)^0,c
  1094  00236E  C0C1  F058         	movff	sprintf@fmt,vfprintf@fmt
  1095  002372  C0C2  F059         	movff	sprintf@fmt+1,vfprintf@fmt+1
  1096  002376  0EC9               	movlw	low sprintf@ap
  1097  002378  6E5A               	movwf	vfprintf@ap^0,c
  1098  00237A  0E00               	movlw	high sprintf@ap
  1099  00237C  6E5B               	movwf	(vfprintf@ap+1)^0,c
  1100  00237E  EC71  F011         	call	_vfprintf	;wreg free
  1101  002382  0100               	movlb	0	; () banked
  1102  002384  51CE               	movf	(sprintf@f+3)& (0+255),w,b
  1103  002386  25BF               	addwf	sprintf@s& (0+255),w,b
  1104  002388  6ED9               	movwf	fsr2l,c
  1105  00238A  51CF               	movf	(sprintf@f+4)& (0+255),w,b
  1106  00238C  21C0               	addwfc	(sprintf@s+1)& (0+255),w,b
  1107  00238E  6EDA               	movwf	fsr2h,c
  1108  002390  0E00               	movlw	0
  1109  002392  6EDF               	movwf	indf2,c
  1110  002394                     
  1111                           ; BSR set to: 0
  1112  002394  0012               	return		;funcret
  1113  002396                     __end_of_sprintf:
  1114                           	callstack 0
  1115                           
  1116 ;; *************** function _vfprintf *****************
  1117 ;; Defined at:
  1118 ;;		line 1390 in file "C:\Program Files\Microchip\xc8\v2.36\pic\sources\c99\common\doprnt.c"
  1119 ;; Parameters:    Size  Location     Type
  1120 ;;  fp              2   85[COMRAM] PTR struct _IO_FILE
  1121 ;;		 -> sprintf@f(11), 
  1122 ;;  fmt             2   87[COMRAM] PTR const unsigned char 
  1123 ;;		 -> STR_1(10), 
  1124 ;;  ap              2   89[COMRAM] PTR PTR void 
  1125 ;;		 -> sprintf@ap(2), 
  1126 ;; Auto vars:     Size  Location     Type
  1127 ;;  cfmt            2   91[COMRAM] PTR unsigned char 
  1128 ;;		 -> STR_1(10), 
  1129 ;; Return value:  Size  Location     Type
  1130 ;;                  2   85[COMRAM] int 
  1131 ;; Registers used:
  1132 ;;		wreg, fsr1l, fsr1h, fsr2l, fsr2h, status,2, status,0, tblptrl, tblptrh, tblptru, prodl, prodh, cstack
  1133 ;; Tracked objects:
  1134 ;;		On entry : 0/0
  1135 ;;		On exit  : 0/0
  1136 ;;		Unchanged: 0/0
  1137 ;; Data sizes:     COMRAM   BANK0   BANK1   BANK2   BANK3   BANK4   BANK5
  1138 ;;      Params:         6       0       0       0       0       0       0
  1139 ;;      Locals:         2       0       0       0       0       0       0
  1140 ;;      Temps:          0       0       0       0       0       0       0
  1141 ;;      Totals:         8       0       0       0       0       0       0
  1142 ;;Total ram usage:        8 bytes
  1143 ;; Hardware stack levels used: 1
  1144 ;; Hardware stack levels required when called: 6
  1145 ;; This function calls:
  1146 ;;		_vfpfcnvrt
  1147 ;; This function is called by:
  1148 ;;		_sprintf
  1149 ;; This function uses a non-reentrant model
  1150 ;;
  1151                           
  1152                           	psect	text2
  1153  0022E2                     __ptext2:
  1154                           	callstack 0
  1155  0022E2                     _vfprintf:
  1156                           	callstack 23
  1157  0022E2                     
  1158                           ;C:\Program Files\Microchip\xc8\v2.36\pic\sources\c99\common\doprnt.c: 1390: int vfprint
      +                          f(FILE *fp, const char *fmt, va_list ap);C:\Program Files\Microchip\xc8\v2.36\pic\source
      +                          s\c99\common\doprnt.c: 1391: {;C:\Program Files\Microchip\xc8\v2.36\pic\sources\c99\comm
      +                          on\doprnt.c: 1393:     char *cfmt;;C:\Program Files\Microchip\xc8\v2.36\pic\sources\c99\
      +                          common\doprnt.c: 1395:     cfmt = (char *)fmt;
  1159  0022E2  C058  F05C         	movff	vfprintf@fmt,vfprintf@cfmt
  1160  0022E6  C059  F05D         	movff	vfprintf@fmt+1,vfprintf@cfmt+1
  1161  0022EA                     
  1162                           ;C:\Program Files\Microchip\xc8\v2.36\pic\sources\c99\common\doprnt.c: 1396:     nout = 
      +                          0;
  1163  0022EA  0E00               	movlw	0
  1164  0022EC  0100               	movlb	0	; () banked
  1165  0022EE  6F65               	movwf	(_nout+1)& (0+255),b
  1166  0022F0  0E00               	movlw	0
  1167  0022F2  6F64               	movwf	_nout& (0+255),b
  1168                           
  1169                           ;C:\Program Files\Microchip\xc8\v2.36\pic\sources\c99\common\doprnt.c: 1397:     while (
      +                          *cfmt) {
  1170  0022F4  EF8F  F011         	goto	l2647
  1171  0022F8                     l2645:
  1172                           
  1173                           ; BSR set to: 0
  1174                           ;C:\Program Files\Microchip\xc8\v2.36\pic\sources\c99\common\doprnt.c: 1398:         nou
      +                          t += vfpfcnvrt(fp, &cfmt, ap);
  1175  0022F8  C056  F040         	movff	vfprintf@fp,vfpfcnvrt@fp
  1176  0022FC  C057  F041         	movff	vfprintf@fp+1,vfpfcnvrt@fp+1
  1177  002300  0E5C               	movlw	low vfprintf@cfmt
  1178  002302  6E42               	movwf	vfpfcnvrt@fmt^0,c
  1179  002304  0E00               	movlw	high vfprintf@cfmt
  1180  002306  6E43               	movwf	(vfpfcnvrt@fmt+1)^0,c
  1181  002308  C05A  F044         	movff	vfprintf@ap,vfpfcnvrt@ap
  1182  00230C  C05B  F045         	movff	vfprintf@ap+1,vfpfcnvrt@ap+1
  1183  002310  ECF8  F006         	call	_vfpfcnvrt	;wreg free
  1184  002314  5040               	movf	?_vfpfcnvrt^0,w,c
  1185  002316  0100               	movlb	0	; () banked
  1186  002318  2764               	addwf	_nout& (0+255),f,b
  1187  00231A  5041               	movf	(?_vfpfcnvrt+1)^0,w,c
  1188  00231C  2365               	addwfc	(_nout+1)& (0+255),f,b
  1189  00231E                     l2647:
  1190                           
  1191                           ; BSR set to: 0
  1192                           ;C:\Program Files\Microchip\xc8\v2.36\pic\sources\c99\common\doprnt.c: 1397:     while (
      +                          *cfmt) {
  1193  00231E  C05C  FFF6         	movff	vfprintf@cfmt,tblptrl
  1194  002322  C05D  FFF7         	movff	vfprintf@cfmt+1,tblptrh
  1195  002326                     	if	0	;tblptru may be non-zero
  1196  002326                     	endif
  1197  002326                     	if	0	;tblptru may be non-zero
  1198  002326                     	endif
  1199  002326  0008               	tblrd		*
  1200  002328  50F5               	movf	tablat,w,c
  1201  00232A  0900               	iorlw	0
  1202  00232C  A4D8               	btfss	status,2,c
  1203  00232E  EF9B  F011         	goto	u2341
  1204  002332  EF9D  F011         	goto	u2340
  1205  002336                     u2341:
  1206  002336  EF7C  F011         	goto	l2645
  1207  00233A                     u2340:
  1208  00233A                     
  1209                           ; BSR set to: 0
  1210                           ;C:\Program Files\Microchip\xc8\v2.36\pic\sources\c99\common\doprnt.c: 1400:     return 
      +                          nout;
  1211  00233A  C064  F056         	movff	_nout,?_vfprintf
  1212  00233E  C065  F057         	movff	_nout+1,?_vfprintf+1
  1213  002342                     
  1214                           ; BSR set to: 0
  1215  002342  0012               	return		;funcret
  1216  002344                     __end_of_vfprintf:
  1217                           	callstack 0
  1218                           
  1219 ;; *************** function _vfpfcnvrt *****************
  1220 ;; Defined at:
  1221 ;;		line 692 in file "C:\Program Files\Microchip\xc8\v2.36\pic\sources\c99\common\doprnt.c"
  1222 ;; Parameters:    Size  Location     Type
  1223 ;;  fp              2   63[COMRAM] PTR struct _IO_FILE
  1224 ;;		 -> sprintf@f(11), 
  1225 ;;  fmt             2   65[COMRAM] PTR PTR unsigned char 
  1226 ;;		 -> vfprintf@cfmt(2), 
  1227 ;;  ap              2   67[COMRAM] PTR PTR void 
  1228 ;;		 -> sprintf@ap(2), 
  1229 ;; Auto vars:     Size  Location     Type
  1230 ;;  ll              8   73[COMRAM] long long 
  1231 ;;  llu             8    0        unsigned long long 
  1232 ;;  f               4    0        unsigned long long 
  1233 ;;  vp              3    0        PTR void 
  1234 ;;  ct              3    0        unsigned char [3]
  1235 ;;  cp              2   81[COMRAM] PTR unsigned char 
  1236 ;;		 -> ?_sprintf(2), STR_3(13), STR_2(14), 
  1237 ;;  i               2    0        int 
  1238 ;;  done            2    0        int 
  1239 ;;  c               1    0        unsigned char 
  1240 ;; Return value:  Size  Location     Type
  1241 ;;                  2   63[COMRAM] int 
  1242 ;; Registers used:
  1243 ;;		wreg, fsr1l, fsr1h, fsr2l, fsr2h, status,2, status,0, tblptrl, tblptrh, tblptru, prodl, prodh, cstack
  1244 ;; Tracked objects:
  1245 ;;		On entry : 0/0
  1246 ;;		On exit  : 0/0
  1247 ;;		Unchanged: 0/0
  1248 ;; Data sizes:     COMRAM   BANK0   BANK1   BANK2   BANK3   BANK4   BANK5
  1249 ;;      Params:         6       0       0       0       0       0       0
  1250 ;;      Locals:        12       0       0       0       0       0       0
  1251 ;;      Temps:          4       0       0       0       0       0       0
  1252 ;;      Totals:        22       0       0       0       0       0       0
  1253 ;;Total ram usage:       22 bytes
  1254 ;; Hardware stack levels used: 1
  1255 ;; Hardware stack levels required when called: 5
  1256 ;; This function calls:
  1257 ;;		_atoi
  1258 ;;		_dtoa
  1259 ;;		_fputc
  1260 ;;		_isdigit
  1261 ;;		_stoa
  1262 ;;		_strncmp
  1263 ;; This function is called by:
  1264 ;;		_vfprintf
  1265 ;; This function uses a non-reentrant model
  1266 ;;
  1267                           
  1268                           	psect	text3
  1269  000DF0                     __ptext3:
  1270                           	callstack 0
  1271  000DF0                     _vfpfcnvrt:
  1272                           	callstack 23
  1273  000DF0                     
  1274                           ;C:\Program Files\Microchip\xc8\v2.36\pic\sources\c99\common\doprnt.c: 692: static int v
      +                          fpfcnvrt(FILE *fp, char *fmt[], va_list ap);C:\Program Files\Microchip\xc8\v2.36\pic\sou
      +                          rces\c99\common\doprnt.c: 693: {;C:\Program Files\Microchip\xc8\v2.36\pic\sources\c99\co
      +                          mmon\doprnt.c: 694:     char c, *cp, ct[3];;C:\Program Files\Microchip\xc8\v2.36\pic\sou
      +                          rces\c99\common\doprnt.c: 695:     int done, i;;C:\Program Files\Microchip\xc8\v2.36\pic
      +                          \sources\c99\common\doprnt.c: 696:     long long ll;;C:\Program Files\Microchip\xc8\v2.3
      +                          6\pic\sources\c99\common\doprnt.c: 697:     unsigned long long llu;
  1275  000DF0  C042  FFD9         	movff	vfpfcnvrt@fmt,fsr2l
  1276  000DF4  C043  FFDA         	movff	vfpfcnvrt@fmt+1,fsr2h
  1277  000DF8  CFDE FFF6          	movff	postinc2,tblptrl
  1278  000DFC  CFDD FFF7          	movff	postdec2,tblptrh
  1279  000E00                     	if	0	;tblptru may be non-zero
  1280  000E00                     	endif
  1281  000E00                     	if	0	;tblptru may be non-zero
  1282  000E00                     	endif
  1283  000E00  0008               	tblrd		*
  1284  000E02  50F5               	movf	tablat,w,c
  1285  000E04  0A25               	xorlw	37
  1286  000E06  A4D8               	btfss	status,2,c
  1287  000E08  EF08  F007         	goto	u2151
  1288  000E0C  EF0A  F007         	goto	u2150
  1289  000E10                     u2151:
  1290  000E10  EF9C  F008         	goto	l2543
  1291  000E14                     u2150:
  1292  000E14                     
  1293                           ;C:\Program Files\Microchip\xc8\v2.36\pic\sources\c99\common\doprnt.c: 703:         ++*f
      +                          mt;
  1294  000E14  C042  FFD9         	movff	vfpfcnvrt@fmt,fsr2l
  1295  000E18  C043  FFDA         	movff	vfpfcnvrt@fmt+1,fsr2h
  1296  000E1C  2ADE               	incf	postinc2,f,c
  1297  000E1E  0E00               	movlw	0
  1298  000E20  22DD               	addwfc	postdec2,f,c
  1299  000E22                     
  1300                           ;C:\Program Files\Microchip\xc8\v2.36\pic\sources\c99\common\doprnt.c: 705:         flag
      +                          s = width = 0;
  1301  000E22  0E00               	movlw	0
  1302  000E24  0100               	movlb	0	; () banked
  1303  000E26  6F67               	movwf	(_width+1)& (0+255),b
  1304  000E28  0E00               	movlw	0
  1305  000E2A  6F66               	movwf	_width& (0+255),b
  1306  000E2C  C066  F05E         	movff	_width,_flags
  1307  000E30  C067  F05F         	movff	_width+1,_flags+1
  1308  000E34                     
  1309                           ; BSR set to: 0
  1310                           ;C:\Program Files\Microchip\xc8\v2.36\pic\sources\c99\common\doprnt.c: 706:         prec
      +                           = -1;
  1311  000E34  6968               	setf	_prec& (0+255),b
  1312  000E36  6969               	setf	(_prec+1)& (0+255),b
  1313  000E38                     
  1314                           ; BSR set to: 0
  1315                           ;C:\Program Files\Microchip\xc8\v2.36\pic\sources\c99\common\doprnt.c: 745:         if (
      +                          (*fmt)[0] == '*') {
  1316  000E38  C042  FFD9         	movff	vfpfcnvrt@fmt,fsr2l
  1317  000E3C  C043  FFDA         	movff	vfpfcnvrt@fmt+1,fsr2h
  1318  000E40  CFDE FFF6          	movff	postinc2,tblptrl
  1319  000E44  CFDD FFF7          	movff	postdec2,tblptrh
  1320  000E48                     	if	0	;tblptru may be non-zero
  1321  000E48                     	endif
  1322  000E48                     	if	0	;tblptru may be non-zero
  1323  000E48                     	endif
  1324  000E48  0008               	tblrd		*
  1325  000E4A  50F5               	movf	tablat,w,c
  1326  000E4C  0A2A               	xorlw	42
  1327  000E4E  A4D8               	btfss	status,2,c
  1328  000E50  EF2C  F007         	goto	u2161
  1329  000E54  EF2E  F007         	goto	u2160
  1330  000E58                     u2161:
  1331  000E58  EF57  F007         	goto	l2491
  1332  000E5C                     u2160:
  1333  000E5C                     
  1334                           ; BSR set to: 0
  1335                           ;C:\Program Files\Microchip\xc8\v2.36\pic\sources\c99\common\doprnt.c: 746:             
      +                          ++*fmt;
  1336  000E5C  C042  FFD9         	movff	vfpfcnvrt@fmt,fsr2l
  1337  000E60  C043  FFDA         	movff	vfpfcnvrt@fmt+1,fsr2h
  1338  000E64  2ADE               	incf	postinc2,f,c
  1339  000E66  0E00               	movlw	0
  1340  000E68  22DD               	addwfc	postdec2,f,c
  1341                           
  1342                           ;C:\Program Files\Microchip\xc8\v2.36\pic\sources\c99\common\doprnt.c: 747:             
      +                          width = (*(int *)__va_arg(*(int **)ap, (int)0));
  1343  000E6A  C044  FFD9         	movff	vfpfcnvrt@ap,fsr2l
  1344  000E6E  C045  FFDA         	movff	vfpfcnvrt@ap+1,fsr2h
  1345  000E72  CFDF F046          	movff	indf2,??_vfpfcnvrt
  1346  000E76  0E02               	movlw	2
  1347  000E78  26DE               	addwf	postinc2,f,c
  1348  000E7A  CFDF F047          	movff	indf2,??_vfpfcnvrt+1
  1349  000E7E  0E00               	movlw	0
  1350  000E80  22DD               	addwfc	postdec2,f,c
  1351  000E82  C046  FFD9         	movff	??_vfpfcnvrt,fsr2l
  1352  000E86  C047  FFDA         	movff	??_vfpfcnvrt+1,fsr2h
  1353  000E8A  CFDE F066          	movff	postinc2,_width
  1354  000E8E  CFDD F067          	movff	postdec2,_width+1
  1355  000E92                     
  1356                           ; BSR set to: 0
  1357                           ;C:\Program Files\Microchip\xc8\v2.36\pic\sources\c99\common\doprnt.c: 748:             
      +                          if (width < 0) {
  1358  000E92  BF67               	btfsc	(_width+1)& (0+255),7,b
  1359  000E94  EF50  F007         	goto	u2170
  1360  000E98  EF4E  F007         	goto	u2171
  1361  000E9C                     u2171:
  1362  000E9C  EF8D  F007         	goto	l2499
  1363  000EA0                     u2170:
  1364  000EA0                     
  1365                           ; BSR set to: 0
  1366                           ;C:\Program Files\Microchip\xc8\v2.36\pic\sources\c99\common\doprnt.c: 749:             
      +                              flags |= (1 << 0);
  1367  000EA0  805E               	bsf	_flags^0,0,c
  1368                           
  1369                           ;C:\Program Files\Microchip\xc8\v2.36\pic\sources\c99\common\doprnt.c: 750:             
      +                              width = -width;
  1370  000EA2  6D66               	negf	_width& (0+255),b
  1371  000EA4  1F67               	comf	(_width+1)& (0+255),f,b
  1372  000EA6  B0D8               	btfsc	status,0,c
  1373  000EA8  2B67               	incf	(_width+1)& (0+255),f,b
  1374  000EAA  EF8D  F007         	goto	l2499
  1375  000EAE                     l2491:
  1376                           
  1377                           ; BSR set to: 0
  1378                           ;C:\Program Files\Microchip\xc8\v2.36\pic\sources\c99\common\doprnt.c: 753:             
      +                          width = atoi(*fmt);
  1379  000EAE  C042  FFD9         	movff	vfpfcnvrt@fmt,fsr2l
  1380  000EB2  C043  FFDA         	movff	vfpfcnvrt@fmt+1,fsr2h
  1381  000EB6  CFDE F008          	movff	postinc2,atoi@s
  1382  000EBA  CFDD F009          	movff	postdec2,atoi@s+1
  1383  000EBE  EC16  F00E         	call	_atoi	;wreg free
  1384  000EC2  C008  F066         	movff	?_atoi,_width
  1385  000EC6  C009  F067         	movff	?_atoi+1,_width+1
  1386                           
  1387                           ;C:\Program Files\Microchip\xc8\v2.36\pic\sources\c99\common\doprnt.c: 754:             
      +                          while ((0 && isdigit((*fmt)[0]), ((unsigned)((*fmt)[0])-'0') < 10)) {
  1388  000ECA  EF6E  F007         	goto	l2497
  1389  000ECE                     l2493:
  1390                           
  1391                           ;C:\Program Files\Microchip\xc8\v2.36\pic\sources\c99\common\doprnt.c: 755:             
      +                              ++*fmt;
  1392  000ECE  C042  FFD9         	movff	vfpfcnvrt@fmt,fsr2l
  1393  000ED2  C043  FFDA         	movff	vfpfcnvrt@fmt+1,fsr2h
  1394  000ED6  2ADE               	incf	postinc2,f,c
  1395  000ED8  0E00               	movlw	0
  1396  000EDA  22DD               	addwfc	postdec2,f,c
  1397  000EDC                     l2497:
  1398  000EDC  0ED0               	movlw	208
  1399  000EDE  6E46               	movwf	??_vfpfcnvrt^0,c
  1400  000EE0  0EFF               	movlw	255
  1401  000EE2  6E47               	movwf	(??_vfpfcnvrt+1)^0,c
  1402  000EE4  C042  FFD9         	movff	vfpfcnvrt@fmt,fsr2l
  1403  000EE8  C043  FFDA         	movff	vfpfcnvrt@fmt+1,fsr2h
  1404  000EEC  CFDE FFF6          	movff	postinc2,tblptrl
  1405  000EF0  CFDD FFF7          	movff	postdec2,tblptrh
  1406  000EF4                     	if	0	;tblptru may be non-zero
  1407  000EF4                     	endif
  1408  000EF4                     	if	0	;tblptru may be non-zero
  1409  000EF4                     	endif
  1410  000EF4  0008               	tblrd		*
  1411  000EF6  50F5               	movf	tablat,w,c
  1412  000EF8  6E48               	movwf	(??_vfpfcnvrt+2)^0,c
  1413  000EFA  6A49               	clrf	(??_vfpfcnvrt+3)^0,c
  1414  000EFC  5046               	movf	??_vfpfcnvrt^0,w,c
  1415  000EFE  2648               	addwf	(??_vfpfcnvrt+2)^0,f,c
  1416  000F00  5047               	movf	(??_vfpfcnvrt+1)^0,w,c
  1417  000F02  2249               	addwfc	(??_vfpfcnvrt+3)^0,f,c
  1418  000F04  5049               	movf	(??_vfpfcnvrt+3)^0,w,c
  1419  000F06  E109               	bnz	u2180
  1420  000F08  0E0A               	movlw	10
  1421  000F0A  5C48               	subwf	(??_vfpfcnvrt+2)^0,w,c
  1422  000F0C  A0D8               	btfss	status,0,c
  1423  000F0E  EF8B  F007         	goto	u2181
  1424  000F12  EF8D  F007         	goto	u2180
  1425  000F16                     u2181:
  1426  000F16  EF67  F007         	goto	l2493
  1427  000F1A                     u2180:
  1428  000F1A                     l2499:
  1429                           
  1430                           ;C:\Program Files\Microchip\xc8\v2.36\pic\sources\c99\common\doprnt.c: 847:         if (
      +                          (*fmt[0] == 'd') || (*fmt[0] == 'i')) {
  1431  000F1A  C042  FFD9         	movff	vfpfcnvrt@fmt,fsr2l
  1432  000F1E  C043  FFDA         	movff	vfpfcnvrt@fmt+1,fsr2h
  1433  000F22  CFDE FFF6          	movff	postinc2,tblptrl
  1434  000F26  CFDD FFF7          	movff	postdec2,tblptrh
  1435  000F2A                     	if	0	;tblptru may be non-zero
  1436  000F2A                     	endif
  1437  000F2A                     	if	0	;tblptru may be non-zero
  1438  000F2A                     	endif
  1439  000F2A  0008               	tblrd		*
  1440  000F2C  50F5               	movf	tablat,w,c
  1441  000F2E  0A64               	xorlw	100
  1442  000F30  B4D8               	btfsc	status,2,c
  1443  000F32  EF9D  F007         	goto	u2191
  1444  000F36  EF9F  F007         	goto	u2190
  1445  000F3A                     u2191:
  1446  000F3A  EFB1  F007         	goto	l2503
  1447  000F3E                     u2190:
  1448  000F3E  C042  FFD9         	movff	vfpfcnvrt@fmt,fsr2l
  1449  000F42  C043  FFDA         	movff	vfpfcnvrt@fmt+1,fsr2h
  1450  000F46  CFDE FFF6          	movff	postinc2,tblptrl
  1451  000F4A  CFDD FFF7          	movff	postdec2,tblptrh
  1452  000F4E                     	if	0	;tblptru may be non-zero
  1453  000F4E                     	endif
  1454  000F4E                     	if	0	;tblptru may be non-zero
  1455  000F4E                     	endif
  1456  000F4E  0008               	tblrd		*
  1457  000F50  50F5               	movf	tablat,w,c
  1458  000F52  0A69               	xorlw	105
  1459  000F54  A4D8               	btfss	status,2,c
  1460  000F56  EFAF  F007         	goto	u2201
  1461  000F5A  EFB1  F007         	goto	u2200
  1462  000F5E                     u2201:
  1463  000F5E  EFF1  F007         	goto	l2509
  1464  000F62                     u2200:
  1465  000F62                     l2503:
  1466                           
  1467                           ;C:\Program Files\Microchip\xc8\v2.36\pic\sources\c99\common\doprnt.c: 849:             
      +                          ++*fmt;
  1468  000F62  C042  FFD9         	movff	vfpfcnvrt@fmt,fsr2l
  1469  000F66  C043  FFDA         	movff	vfpfcnvrt@fmt+1,fsr2h
  1470  000F6A  2ADE               	incf	postinc2,f,c
  1471  000F6C  0E00               	movlw	0
  1472  000F6E  22DD               	addwfc	postdec2,f,c
  1473                           
  1474                           ;C:\Program Files\Microchip\xc8\v2.36\pic\sources\c99\common\doprnt.c: 850:             
      +                          ll = (long long)(*(int *)__va_arg(*(int **)ap, (int)0));
  1475  000F70  C044  FFD9         	movff	vfpfcnvrt@ap,fsr2l
  1476  000F74  C045  FFDA         	movff	vfpfcnvrt@ap+1,fsr2h
  1477  000F78  CFDF F046          	movff	indf2,??_vfpfcnvrt
  1478  000F7C  0E02               	movlw	2
  1479  000F7E  26DE               	addwf	postinc2,f,c
  1480  000F80  CFDF F047          	movff	indf2,??_vfpfcnvrt+1
  1481  000F84  0E00               	movlw	0
  1482  000F86  22DD               	addwfc	postdec2,f,c
  1483  000F88  C046  FFD9         	movff	??_vfpfcnvrt,fsr2l
  1484  000F8C  C047  FFDA         	movff	??_vfpfcnvrt+1,fsr2h
  1485  000F90  CFDE F04A          	movff	postinc2,vfpfcnvrt@ll
  1486  000F94  CFDD F04B          	movff	postdec2,vfpfcnvrt@ll+1
  1487  000F98  0E00               	movlw	0
  1488  000F9A  BE4B               	btfsc	(vfpfcnvrt@ll+1)^0,7,c
  1489  000F9C  0EFF               	movlw	-1
  1490  000F9E  6E4C               	movwf	(vfpfcnvrt@ll+2)^0,c
  1491  000FA0  6E4D               	movwf	(vfpfcnvrt@ll+3)^0,c
  1492  000FA2  6E4E               	movwf	(vfpfcnvrt@ll+4)^0,c
  1493  000FA4  6E4F               	movwf	(vfpfcnvrt@ll+5)^0,c
  1494  000FA6  6E50               	movwf	(vfpfcnvrt@ll+6)^0,c
  1495  000FA8  6E51               	movwf	(vfpfcnvrt@ll+7)^0,c
  1496  000FAA                     
  1497                           ;C:\Program Files\Microchip\xc8\v2.36\pic\sources\c99\common\doprnt.c: 852:             
      +                          return dtoa(fp, ll);
  1498  000FAA  C040  F01C         	movff	vfpfcnvrt@fp,dtoa@fp
  1499  000FAE  C041  F01D         	movff	vfpfcnvrt@fp+1,dtoa@fp+1
  1500  000FB2  C04A  F01E         	movff	vfpfcnvrt@ll,dtoa@d
  1501  000FB6  C04B  F01F         	movff	vfpfcnvrt@ll+1,dtoa@d+1
  1502  000FBA  C04C  F020         	movff	vfpfcnvrt@ll+2,dtoa@d+2
  1503  000FBE  C04D  F021         	movff	vfpfcnvrt@ll+3,dtoa@d+3
  1504  000FC2  C04E  F022         	movff	vfpfcnvrt@ll+4,dtoa@d+4
  1505  000FC6  C04F  F023         	movff	vfpfcnvrt@ll+5,dtoa@d+5
  1506  000FCA  C050  F024         	movff	vfpfcnvrt@ll+6,dtoa@d+6
  1507  000FCE  C051  F025         	movff	vfpfcnvrt@ll+7,dtoa@d+7
  1508  000FD2  ECB8  F008         	call	_dtoa	;wreg free
  1509  000FD6  C01C  F040         	movff	?_dtoa,?_vfpfcnvrt
  1510  000FDA  C01D  F041         	movff	?_dtoa+1,?_vfpfcnvrt+1
  1511  000FDE  EFB7  F008         	goto	l1055
  1512  000FE2                     l2509:
  1513                           
  1514                           ;C:\Program Files\Microchip\xc8\v2.36\pic\sources\c99\common\doprnt.c: 1171:         if 
      +                          (*fmt[0] == 's' || !strncmp(*fmt, "lls", ((sizeof("lls")/sizeof("lls"[0]))-1))) {
  1515  000FE2  C042  FFD9         	movff	vfpfcnvrt@fmt,fsr2l
  1516  000FE6  C043  FFDA         	movff	vfpfcnvrt@fmt+1,fsr2h
  1517  000FEA  CFDE FFF6          	movff	postinc2,tblptrl
  1518  000FEE  CFDD FFF7          	movff	postdec2,tblptrh
  1519  000FF2                     	if	0	;tblptru may be non-zero
  1520  000FF2                     	endif
  1521  000FF2                     	if	0	;tblptru may be non-zero
  1522  000FF2                     	endif
  1523  000FF2  0008               	tblrd		*
  1524  000FF4  50F5               	movf	tablat,w,c
  1525  000FF6  0A73               	xorlw	115
  1526  000FF8  B4D8               	btfsc	status,2,c
  1527  000FFA  EF01  F008         	goto	u2211
  1528  000FFE  EF03  F008         	goto	u2210
  1529  001002                     u2211:
  1530  001002  EF1E  F008         	goto	l2513
  1531  001006                     u2210:
  1532  001006  C042  FFD9         	movff	vfpfcnvrt@fmt,fsr2l
  1533  00100A  C043  FFDA         	movff	vfpfcnvrt@fmt+1,fsr2h
  1534  00100E  CFDE F001          	movff	postinc2,strncmp@_l
  1535  001012  CFDD F002          	movff	postdec2,strncmp@_l+1
  1536  001016  0E26               	movlw	low STR_4
  1537  001018  6E03               	movwf	strncmp@_r^0,c
  1538  00101A  0E06               	movlw	high STR_4
  1539  00101C  6E04               	movwf	(strncmp@_r+1)^0,c
  1540  00101E  0E00               	movlw	0
  1541  001020  6E06               	movwf	(strncmp@n+1)^0,c
  1542  001022  0E03               	movlw	3
  1543  001024  6E05               	movwf	strncmp@n^0,c
  1544  001026  ECCA  F00F         	call	_strncmp	;wreg free
  1545  00102A  5001               	movf	?_strncmp^0,w,c
  1546  00102C  1002               	iorwf	(?_strncmp+1)^0,w,c
  1547  00102E  A4D8               	btfss	status,2,c
  1548  001030  EF1C  F008         	goto	u2221
  1549  001034  EF1E  F008         	goto	u2220
  1550  001038                     u2221:
  1551  001038  EF66  F008         	goto	l2527
  1552  00103C                     u2220:
  1553  00103C                     l2513:
  1554                           
  1555                           ;C:\Program Files\Microchip\xc8\v2.36\pic\sources\c99\common\doprnt.c: 1173:    *fmt += 
      +                          *fmt[0] == 's' ? 1 : ((sizeof("lls")/sizeof("lls"[0]))-1);
  1556  00103C  C042  FFD9         	movff	vfpfcnvrt@fmt,fsr2l
  1557  001040  C043  FFDA         	movff	vfpfcnvrt@fmt+1,fsr2h
  1558  001044  CFDE FFF6          	movff	postinc2,tblptrl
  1559  001048  CFDD FFF7          	movff	postdec2,tblptrh
  1560  00104C                     	if	0	;tblptru may be non-zero
  1561  00104C                     	endif
  1562  00104C                     	if	0	;tblptru may be non-zero
  1563  00104C                     	endif
  1564  00104C  0008               	tblrd		*
  1565  00104E  50F5               	movf	tablat,w,c
  1566  001050  0A73               	xorlw	115
  1567  001052  B4D8               	btfsc	status,2,c
  1568  001054  EF2E  F008         	goto	u2231
  1569  001058  EF30  F008         	goto	u2230
  1570  00105C                     u2231:
  1571  00105C  EF36  F008         	goto	l2517
  1572  001060                     u2230:
  1573  001060  0E00               	movlw	0
  1574  001062  6E55               	movwf	(_vfpfcnvrt$1240+1)^0,c
  1575  001064  0E03               	movlw	3
  1576  001066  6E54               	movwf	_vfpfcnvrt$1240^0,c
  1577  001068  EF3A  F008         	goto	l2519
  1578  00106C                     l2517:
  1579  00106C  0E00               	movlw	0
  1580  00106E  6E55               	movwf	(_vfpfcnvrt$1240+1)^0,c
  1581  001070  0E01               	movlw	1
  1582  001072  6E54               	movwf	_vfpfcnvrt$1240^0,c
  1583  001074                     l2519:
  1584  001074  C042  FFD9         	movff	vfpfcnvrt@fmt,fsr2l
  1585  001078  C043  FFDA         	movff	vfpfcnvrt@fmt+1,fsr2h
  1586  00107C  5054               	movf	_vfpfcnvrt$1240^0,w,c
  1587  00107E  26DE               	addwf	postinc2,f,c
  1588  001080  5055               	movf	(_vfpfcnvrt$1240+1)^0,w,c
  1589  001082  22DD               	addwfc	postdec2,f,c
  1590  001084                     
  1591                           ;C:\Program Files\Microchip\xc8\v2.36\pic\sources\c99\common\doprnt.c: 1174:            
      +                           cp = (*(char * *)__va_arg(*(char * **)ap, (char *)0));
  1592  001084  C044  FFD9         	movff	vfpfcnvrt@ap,fsr2l
  1593  001088  C045  FFDA         	movff	vfpfcnvrt@ap+1,fsr2h
  1594  00108C  CFDF F046          	movff	indf2,??_vfpfcnvrt
  1595  001090  0E02               	movlw	2
  1596  001092  26DE               	addwf	postinc2,f,c
  1597  001094  CFDF F047          	movff	indf2,??_vfpfcnvrt+1
  1598  001098  0E00               	movlw	0
  1599  00109A  22DD               	addwfc	postdec2,f,c
  1600  00109C  C046  FFD9         	movff	??_vfpfcnvrt,fsr2l
  1601  0010A0  C047  FFDA         	movff	??_vfpfcnvrt+1,fsr2h
  1602  0010A4  CFDE F052          	movff	postinc2,vfpfcnvrt@cp
  1603  0010A8  CFDD F053          	movff	postdec2,vfpfcnvrt@cp+1
  1604  0010AC                     
  1605                           ;C:\Program Files\Microchip\xc8\v2.36\pic\sources\c99\common\doprnt.c: 1176:            
      +                           return stoa(fp, cp);
  1606  0010AC  C040  F00A         	movff	vfpfcnvrt@fp,stoa@fp
  1607  0010B0  C041  F00B         	movff	vfpfcnvrt@fp+1,stoa@fp+1
  1608  0010B4  C052  F00C         	movff	vfpfcnvrt@cp,stoa@s
  1609  0010B8  C053  F00D         	movff	vfpfcnvrt@cp+1,stoa@s+1
  1610  0010BC  ECD4  F00B         	call	_stoa	;wreg free
  1611  0010C0  C00A  F040         	movff	?_stoa,?_vfpfcnvrt
  1612  0010C4  C00B  F041         	movff	?_stoa+1,?_vfpfcnvrt+1
  1613  0010C8  EFB7  F008         	goto	l1055
  1614  0010CC                     l2527:
  1615                           
  1616                           ;C:\Program Files\Microchip\xc8\v2.36\pic\sources\c99\common\doprnt.c: 1372:         if 
      +                          ((*fmt)[0] == '%') {
  1617  0010CC  C042  FFD9         	movff	vfpfcnvrt@fmt,fsr2l
  1618  0010D0  C043  FFDA         	movff	vfpfcnvrt@fmt+1,fsr2h
  1619  0010D4  CFDE FFF6          	movff	postinc2,tblptrl
  1620  0010D8  CFDD FFF7          	movff	postdec2,tblptrh
  1621  0010DC                     	if	0	;tblptru may be non-zero
  1622  0010DC                     	endif
  1623  0010DC                     	if	0	;tblptru may be non-zero
  1624  0010DC                     	endif
  1625  0010DC  0008               	tblrd		*
  1626  0010DE  50F5               	movf	tablat,w,c
  1627  0010E0  0A25               	xorlw	37
  1628  0010E2  A4D8               	btfss	status,2,c
  1629  0010E4  EF76  F008         	goto	u2241
  1630  0010E8  EF78  F008         	goto	u2240
  1631  0010EC                     u2241:
  1632  0010EC  EF8F  F008         	goto	l2537
  1633  0010F0                     u2240:
  1634  0010F0                     
  1635                           ;C:\Program Files\Microchip\xc8\v2.36\pic\sources\c99\common\doprnt.c: 1373:            
      +                           ++*fmt;
  1636  0010F0  C042  FFD9         	movff	vfpfcnvrt@fmt,fsr2l
  1637  0010F4  C043  FFDA         	movff	vfpfcnvrt@fmt+1,fsr2h
  1638  0010F8  2ADE               	incf	postinc2,f,c
  1639  0010FA  0E00               	movlw	0
  1640  0010FC  22DD               	addwfc	postdec2,f,c
  1641  0010FE                     
  1642                           ;C:\Program Files\Microchip\xc8\v2.36\pic\sources\c99\common\doprnt.c: 1374:            
      +                           fputc((int)'%', fp);
  1643  0010FE  0E00               	movlw	0
  1644  001100  6E02               	movwf	(fputc@c+1)^0,c
  1645  001102  0E25               	movlw	37
  1646  001104  6E01               	movwf	fputc@c^0,c
  1647  001106  C040  F003         	movff	vfpfcnvrt@fp,fputc@fp
  1648  00110A  C041  F004         	movff	vfpfcnvrt@fp+1,fputc@fp+1
  1649  00110E  EC39  F010         	call	_fputc	;wreg free
  1650  001112                     l2533:
  1651                           
  1652                           ;C:\Program Files\Microchip\xc8\v2.36\pic\sources\c99\common\doprnt.c: 1375:            
      +                           return 1;
  1653  001112  0E00               	movlw	0
  1654  001114  6E41               	movwf	(?_vfpfcnvrt+1)^0,c
  1655  001116  0E01               	movlw	1
  1656  001118  6E40               	movwf	?_vfpfcnvrt^0,c
  1657  00111A  EFB7  F008         	goto	l1055
  1658  00111E                     l2537:
  1659                           
  1660                           ;C:\Program Files\Microchip\xc8\v2.36\pic\sources\c99\common\doprnt.c: 1379:         ++*
      +                          fmt;
  1661  00111E  C042  FFD9         	movff	vfpfcnvrt@fmt,fsr2l
  1662  001122  C043  FFDA         	movff	vfpfcnvrt@fmt+1,fsr2h
  1663  001126  2ADE               	incf	postinc2,f,c
  1664  001128  0E00               	movlw	0
  1665  00112A  22DD               	addwfc	postdec2,f,c
  1666  00112C                     
  1667                           ;C:\Program Files\Microchip\xc8\v2.36\pic\sources\c99\common\doprnt.c: 1380:         ret
      +                          urn 0;
  1668  00112C  0E00               	movlw	0
  1669  00112E  6E41               	movwf	(?_vfpfcnvrt+1)^0,c
  1670  001130  0E00               	movlw	0
  1671  001132  6E40               	movwf	?_vfpfcnvrt^0,c
  1672  001134  EFB7  F008         	goto	l1055
  1673  001138                     l2543:
  1674                           
  1675                           ;C:\Program Files\Microchip\xc8\v2.36\pic\sources\c99\common\doprnt.c: 1384:     fputc((
      +                          int)(*fmt)[0], fp);
  1676  001138  C042  FFD9         	movff	vfpfcnvrt@fmt,fsr2l
  1677  00113C  C043  FFDA         	movff	vfpfcnvrt@fmt+1,fsr2h
  1678  001140  CFDE FFF6          	movff	postinc2,tblptrl
  1679  001144  CFDD FFF7          	movff	postdec2,tblptrh
  1680  001148                     	if	0	;tblptru may be non-zero
  1681  001148                     	endif
  1682  001148                     	if	0	;tblptru may be non-zero
  1683  001148                     	endif
  1684  001148  0008               	tblrd		*
  1685  00114A  50F5               	movf	tablat,w,c
  1686  00114C  6E01               	movwf	fputc@c^0,c
  1687  00114E  6A02               	clrf	(fputc@c+1)^0,c
  1688  001150  C040  F003         	movff	vfpfcnvrt@fp,fputc@fp
  1689  001154  C041  F004         	movff	vfpfcnvrt@fp+1,fputc@fp+1
  1690  001158  EC39  F010         	call	_fputc	;wreg free
  1691  00115C                     
  1692                           ;C:\Program Files\Microchip\xc8\v2.36\pic\sources\c99\common\doprnt.c: 1385:     ++*fmt;
  1693  00115C  C042  FFD9         	movff	vfpfcnvrt@fmt,fsr2l
  1694  001160  C043  FFDA         	movff	vfpfcnvrt@fmt+1,fsr2h
  1695  001164  2ADE               	incf	postinc2,f,c
  1696  001166  0E00               	movlw	0
  1697  001168  22DD               	addwfc	postdec2,f,c
  1698  00116A  EF89  F008         	goto	l2533
  1699  00116E                     l1055:
  1700  00116E  0012               	return		;funcret
  1701  001170                     __end_of_vfpfcnvrt:
  1702                           	callstack 0
  1703                           
  1704 ;; *************** function _strncmp *****************
  1705 ;; Defined at:
  1706 ;;		line 3 in file "C:\Program Files\Microchip\xc8\v2.36\pic\sources\c99\common\strncmp.c"
  1707 ;; Parameters:    Size  Location     Type
  1708 ;;  _l              2    0[COMRAM] PTR const unsigned char 
  1709 ;;		 -> STR_1(10), 
  1710 ;;  _r              2    2[COMRAM] PTR const unsigned char 
  1711 ;;		 -> STR_6(4), 
  1712 ;;  n               2    4[COMRAM] unsigned int 
  1713 ;; Auto vars:     Size  Location     Type
  1714 ;;  r               2    9[COMRAM] PTR const unsigned char 
  1715 ;;		 -> STR_6(4), 
  1716 ;;  l               2    7[COMRAM] PTR const unsigned char 
  1717 ;;		 -> STR_1(10), 
  1718 ;; Return value:  Size  Location     Type
  1719 ;;                  2    0[COMRAM] int 
  1720 ;; Registers used:
  1721 ;;		wreg, status,2, status,0, tblptrl, tblptrh, tblptru
  1722 ;; Tracked objects:
  1723 ;;		On entry : 0/0
  1724 ;;		On exit  : 0/0
  1725 ;;		Unchanged: 0/0
  1726 ;; Data sizes:     COMRAM   BANK0   BANK1   BANK2   BANK3   BANK4   BANK5
  1727 ;;      Params:         6       0       0       0       0       0       0
  1728 ;;      Locals:         4       0       0       0       0       0       0
  1729 ;;      Temps:          1       0       0       0       0       0       0
  1730 ;;      Totals:        11       0       0       0       0       0       0
  1731 ;;Total ram usage:       11 bytes
  1732 ;; Hardware stack levels used: 1
  1733 ;; This function calls:
  1734 ;;		Nothing
  1735 ;; This function is called by:
  1736 ;;		_vfpfcnvrt
  1737 ;; This function uses a non-reentrant model
  1738 ;;
  1739                           
  1740                           	psect	text4
  1741  001F94                     __ptext4:
  1742                           	callstack 0
  1743  001F94                     _strncmp:
  1744                           	callstack 27
  1745  001F94  C001  F008         	movff	strncmp@_l,strncmp@l
  1746  001F98  C002  F009         	movff	strncmp@_l+1,strncmp@l+1
  1747  001F9C  C003  F00A         	movff	strncmp@_r,strncmp@r
  1748  001FA0  C004  F00B         	movff	strncmp@_r+1,strncmp@r+1
  1749  001FA4  0605               	decf	strncmp@n^0,f,c
  1750  001FA6  A0D8               	btfss	status,0,c
  1751  001FA8  0606               	decf	(strncmp@n+1)^0,f,c
  1752  001FAA  2805               	incf	strncmp@n^0,w,c
  1753  001FAC  E106               	bnz	u2101
  1754  001FAE  2806               	incf	(strncmp@n+1)^0,w,c
  1755  001FB0  A4D8               	btfss	status,2,c
  1756  001FB2  EFDD  F00F         	goto	u2101
  1757  001FB6  EFDF  F00F         	goto	u2100
  1758  001FBA                     u2101:
  1759  001FBA  EFEC  F00F         	goto	l2457
  1760  001FBE                     u2100:
  1761  001FBE  0E00               	movlw	0
  1762  001FC0  6E02               	movwf	(?_strncmp+1)^0,c
  1763  001FC2  0E00               	movlw	0
  1764  001FC4  6E01               	movwf	?_strncmp^0,c
  1765  001FC6  EF38  F010         	goto	l1148
  1766  001FCA                     l2455:
  1767  001FCA  4A08               	infsnz	strncmp@l^0,f,c
  1768  001FCC  2A09               	incf	(strncmp@l+1)^0,f,c
  1769  001FCE  4A0A               	infsnz	strncmp@r^0,f,c
  1770  001FD0  2A0B               	incf	(strncmp@r+1)^0,f,c
  1771  001FD2  0605               	decf	strncmp@n^0,f,c
  1772  001FD4  A0D8               	btfss	status,0,c
  1773  001FD6  0606               	decf	(strncmp@n+1)^0,f,c
  1774  001FD8                     l2457:
  1775  001FD8  C008  FFF6         	movff	strncmp@l,tblptrl
  1776  001FDC  C009  FFF7         	movff	strncmp@l+1,tblptrh
  1777  001FE0                     	if	0	;tblptru may be non-zero
  1778  001FE0                     	endif
  1779  001FE0                     	if	0	;tblptru may be non-zero
  1780  001FE0                     	endif
  1781  001FE0  0008               	tblrd		*
  1782  001FE2  50F5               	movf	tablat,w,c
  1783  001FE4  0900               	iorlw	0
  1784  001FE6  B4D8               	btfsc	status,2,c
  1785  001FE8  EFF8  F00F         	goto	u2111
  1786  001FEC  EFFA  F00F         	goto	u2110
  1787  001FF0                     u2111:
  1788  001FF0  EF26  F010         	goto	l2465
  1789  001FF4                     u2110:
  1790  001FF4  C00A  FFF6         	movff	strncmp@r,tblptrl
  1791  001FF8  C00B  FFF7         	movff	strncmp@r+1,tblptrh
  1792  001FFC                     	if	0	;tblptru may be non-zero
  1793  001FFC                     	endif
  1794  001FFC                     	if	0	;tblptru may be non-zero
  1795  001FFC                     	endif
  1796  001FFC  0008               	tblrd		*
  1797  001FFE  50F5               	movf	tablat,w,c
  1798  002000  0900               	iorlw	0
  1799  002002  B4D8               	btfsc	status,2,c
  1800  002004  EF06  F010         	goto	u2121
  1801  002008  EF08  F010         	goto	u2120
  1802  00200C                     u2121:
  1803  00200C  EF26  F010         	goto	l2465
  1804  002010                     u2120:
  1805  002010  5005               	movf	strncmp@n^0,w,c
  1806  002012  1006               	iorwf	(strncmp@n+1)^0,w,c
  1807  002014  B4D8               	btfsc	status,2,c
  1808  002016  EF0F  F010         	goto	u2131
  1809  00201A  EF11  F010         	goto	u2130
  1810  00201E                     u2131:
  1811  00201E  EF26  F010         	goto	l2465
  1812  002022                     u2130:
  1813  002022  C008  FFF6         	movff	strncmp@l,tblptrl
  1814  002026  C009  FFF7         	movff	strncmp@l+1,tblptrh
  1815  00202A                     	if	0	;tblptru may be non-zero
  1816  00202A                     	endif
  1817  00202A                     	if	0	;tblptru may be non-zero
  1818  00202A                     	endif
  1819  00202A  0008               	tblrd		*
  1820  00202C  CFF5 F007          	movff	tablat,??_strncmp
  1821  002030  C00A  FFF6         	movff	strncmp@r,tblptrl
  1822  002034  C00B  FFF7         	movff	strncmp@r+1,tblptrh
  1823  002038                     	if	0	;tblptru may be non-zero
  1824  002038                     	endif
  1825  002038                     	if	0	;tblptru may be non-zero
  1826  002038                     	endif
  1827  002038  0008               	tblrd		*
  1828  00203A  50F5               	movf	tablat,w,c
  1829  00203C  1807               	xorwf	??_strncmp^0,w,c
  1830  00203E  B4D8               	btfsc	status,2,c
  1831  002040  EF24  F010         	goto	u2141
  1832  002044  EF26  F010         	goto	u2140
  1833  002048                     u2141:
  1834  002048  EFE5  F00F         	goto	l2455
  1835  00204C                     u2140:
  1836  00204C                     l2465:
  1837  00204C  C008  FFF6         	movff	strncmp@l,tblptrl
  1838  002050  C009  FFF7         	movff	strncmp@l+1,tblptrh
  1839  002054                     	if	0	;tblptru may be non-zero
  1840  002054                     	endif
  1841  002054                     	if	0	;tblptru may be non-zero
  1842  002054                     	endif
  1843  002054  0008               	tblrd		*
  1844  002056  CFF5 F007          	movff	tablat,??_strncmp
  1845  00205A  C00A  FFF6         	movff	strncmp@r,tblptrl
  1846  00205E  C00B  FFF7         	movff	strncmp@r+1,tblptrh
  1847  002062                     	if	0	;tblptru may be non-zero
  1848  002062                     	endif
  1849  002062                     	if	0	;tblptru may be non-zero
  1850  002062                     	endif
  1851  002062  0008               	tblrd		*
  1852  002064  50F5               	movf	tablat,w,c
  1853  002066  5C07               	subwf	??_strncmp^0,w,c
  1854  002068  6E01               	movwf	?_strncmp^0,c
  1855  00206A  6A02               	clrf	(?_strncmp+1)^0,c
  1856  00206C  A0D8               	btfss	status,0,c
  1857  00206E  0602               	decf	(?_strncmp+1)^0,f,c
  1858  002070                     l1148:
  1859  002070  0012               	return		;funcret
  1860  002072                     __end_of_strncmp:
  1861                           	callstack 0
  1862                           
  1863 ;; *************** function _stoa *****************
  1864 ;; Defined at:
  1865 ;;		line 568 in file "C:\Program Files\Microchip\xc8\v2.36\pic\sources\c99\common\doprnt.c"
  1866 ;; Parameters:    Size  Location     Type
  1867 ;;  fp              2    9[COMRAM] PTR struct _IO_FILE
  1868 ;;		 -> sprintf@f(11), 
  1869 ;;  s               2   11[COMRAM] PTR unsigned char 
  1870 ;;		 -> ?_sprintf(2), STR_3(13), STR_2(14), 
  1871 ;; Auto vars:     Size  Location     Type
  1872 ;;  nuls            7   14[COMRAM] unsigned char [7]
  1873 ;;  l               2   29[COMRAM] int 
  1874 ;;  p               2   27[COMRAM] int 
  1875 ;;  cp              2   25[COMRAM] PTR unsigned char 
  1876 ;;		 -> stoa@nuls(7), ?_sprintf(2), STR_3(13), STR_2(14), 
  1877 ;;  w               2   23[COMRAM] int 
  1878 ;;  i               2   21[COMRAM] int 
  1879 ;; Return value:  Size  Location     Type
  1880 ;;                  2    9[COMRAM] int 
  1881 ;; Registers used:
  1882 ;;		wreg, fsr1l, fsr1h, fsr2l, fsr2h, status,2, status,0, tblptrl, tblptrh, tblptru, cstack
  1883 ;; Tracked objects:
  1884 ;;		On entry : 0/0
  1885 ;;		On exit  : 0/0
  1886 ;;		Unchanged: 0/0
  1887 ;; Data sizes:     COMRAM   BANK0   BANK1   BANK2   BANK3   BANK4   BANK5
  1888 ;;      Params:         4       0       0       0       0       0       0
  1889 ;;      Locals:        17       0       0       0       0       0       0
  1890 ;;      Temps:          1       0       0       0       0       0       0
  1891 ;;      Totals:        22       0       0       0       0       0       0
  1892 ;;Total ram usage:       22 bytes
  1893 ;; Hardware stack levels used: 1
  1894 ;; Hardware stack levels required when called: 2
  1895 ;; This function calls:
  1896 ;;		_fputc
  1897 ;;		_strlen
  1898 ;; This function is called by:
  1899 ;;		_vfpfcnvrt
  1900 ;; This function uses a non-reentrant model
  1901 ;;
  1902                           
  1903                           	psect	text5
  1904  0017A8                     __ptext5:
  1905                           	callstack 0
  1906  0017A8                     _stoa:
  1907                           	callstack 25
  1908  0017A8                     
  1909                           ;C:\Program Files\Microchip\xc8\v2.36\pic\sources\c99\common\doprnt.c: 568: static int s
      +                          toa(FILE *fp, char *s);C:\Program Files\Microchip\xc8\v2.36\pic\sources\c99\common\doprn
      +                          t.c: 569: {;C:\Program Files\Microchip\xc8\v2.36\pic\sources\c99\common\doprnt.c: 570:  
      +                             char *cp, nuls[] = "(null)";
  1910  0017A8  EE20  F0E6         	lfsr	2,stoa@F1150
  1911  0017AC  EE10  F00F         	lfsr	1,stoa@nuls
  1912  0017B0  0E06               	movlw	6
  1913  0017B2                     u1961:
  1914  0017B2  CFDB FFE3          	movff	plusw2,plusw1
  1915  0017B6  06E8               	decf	wreg,f,c
  1916  0017B8  E2FC               	bc	u1961
  1917  0017BA                     
  1918                           ;C:\Program Files\Microchip\xc8\v2.36\pic\sources\c99\common\doprnt.c: 571:     int i, l
      +                          , p, w;;C:\Program Files\Microchip\xc8\v2.36\pic\sources\c99\common\doprnt.c: 574:     c
      +                          p = s;
  1919  0017BA  C00C  F01A         	movff	stoa@s,stoa@cp
  1920  0017BE  C00D  F01B         	movff	stoa@s+1,stoa@cp+1
  1921  0017C2                     
  1922                           ;C:\Program Files\Microchip\xc8\v2.36\pic\sources\c99\common\doprnt.c: 575:     if (!cp)
      +                           {
  1923  0017C2  501A               	movf	stoa@cp^0,w,c
  1924  0017C4  101B               	iorwf	(stoa@cp+1)^0,w,c
  1925  0017C6  A4D8               	btfss	status,2,c
  1926  0017C8  EFE8  F00B         	goto	u1971
  1927  0017CC  EFEA  F00B         	goto	u1970
  1928  0017D0                     u1971:
  1929  0017D0  EFEE  F00B         	goto	l2383
  1930  0017D4                     u1970:
  1931  0017D4                     
  1932                           ;C:\Program Files\Microchip\xc8\v2.36\pic\sources\c99\common\doprnt.c: 576:         cp =
      +                           nuls;
  1933  0017D4  0E0F               	movlw	low stoa@nuls
  1934  0017D6  6E1A               	movwf	stoa@cp^0,c
  1935  0017D8  0E00               	movlw	high stoa@nuls
  1936  0017DA  6E1B               	movwf	(stoa@cp+1)^0,c
  1937  0017DC                     l2383:
  1938                           
  1939                           ;C:\Program Files\Microchip\xc8\v2.36\pic\sources\c99\common\doprnt.c: 580:     l = (int
      +                          )strlen(cp);
  1940  0017DC  C01A  F001         	movff	stoa@cp,strlen@s
  1941  0017E0  C01B  F002         	movff	stoa@cp+1,strlen@s+1
  1942  0017E4  ECF4  F011         	call	_strlen	;wreg free
  1943  0017E8  C001  F01E         	movff	?_strlen,stoa@l
  1944  0017EC  C002  F01F         	movff	?_strlen+1,stoa@l+1
  1945  0017F0                     
  1946                           ;C:\Program Files\Microchip\xc8\v2.36\pic\sources\c99\common\doprnt.c: 581:     p = prec
      +                          ;
  1947  0017F0  C068  F01C         	movff	_prec,stoa@p
  1948  0017F4  C069  F01D         	movff	_prec+1,stoa@p+1
  1949  0017F8                     
  1950                           ;C:\Program Files\Microchip\xc8\v2.36\pic\sources\c99\common\doprnt.c: 582:     l = (!(p
      +                           < 0) && (p < l)) ? p : l;
  1951  0017F8  BE1D               	btfsc	(stoa@p+1)^0,7,c
  1952  0017FA  EF01  F00C         	goto	u1981
  1953  0017FE  EF03  F00C         	goto	u1980
  1954  001802                     u1981:
  1955  001802  EF18  F00C         	goto	l1026
  1956  001806                     u1980:
  1957  001806  501E               	movf	stoa@l^0,w,c
  1958  001808  5C1C               	subwf	stoa@p^0,w,c
  1959  00180A  501D               	movf	(stoa@p+1)^0,w,c
  1960  00180C  0A80               	xorlw	128
  1961  00180E  6E0E               	movwf	??_stoa^0,c
  1962  001810  501F               	movf	(stoa@l+1)^0,w,c
  1963  001812  0A80               	xorlw	128
  1964  001814  580E               	subwfb	??_stoa^0,w,c
  1965  001816  A0D8               	btfss	status,0,c
  1966  001818  EF10  F00C         	goto	u1991
  1967  00181C  EF12  F00C         	goto	u1990
  1968  001820                     u1991:
  1969  001820  EF14  F00C         	goto	l1024
  1970  001824                     u1990:
  1971  001824  EF18  F00C         	goto	l1026
  1972  001828                     l1024:
  1973  001828  C01C  F01E         	movff	stoa@p,stoa@l
  1974  00182C  C01D  F01F         	movff	stoa@p+1,stoa@l+1
  1975  001830                     l1026:
  1976                           
  1977                           ;C:\Program Files\Microchip\xc8\v2.36\pic\sources\c99\common\doprnt.c: 583:     p = l;
  1978  001830  C01E  F01C         	movff	stoa@l,stoa@p
  1979  001834  C01F  F01D         	movff	stoa@l+1,stoa@p+1
  1980                           
  1981                           ;C:\Program Files\Microchip\xc8\v2.36\pic\sources\c99\common\doprnt.c: 584:     w = widt
      +                          h;
  1982  001838  C066  F018         	movff	_width,stoa@w
  1983  00183C  C067  F019         	movff	_width+1,stoa@w+1
  1984                           
  1985                           ;C:\Program Files\Microchip\xc8\v2.36\pic\sources\c99\common\doprnt.c: 587:     if (!(fl
      +                          ags & (1 << 0))) {
  1986  001840  B05E               	btfsc	_flags^0,0,c
  1987  001842  EF25  F00C         	goto	u2001
  1988  001846  EF27  F00C         	goto	u2000
  1989  00184A                     u2001:
  1990  00184A  EF44  F00C         	goto	l2399
  1991  00184E                     u2000:
  1992  00184E  EF35  F00C         	goto	l2397
  1993  001852                     l2393:
  1994                           
  1995                           ;C:\Program Files\Microchip\xc8\v2.36\pic\sources\c99\common\doprnt.c: 589:             
      +                          fputc(' ', fp);
  1996  001852  0E00               	movlw	0
  1997  001854  6E02               	movwf	(fputc@c+1)^0,c
  1998  001856  0E20               	movlw	32
  1999  001858  6E01               	movwf	fputc@c^0,c
  2000  00185A  C00A  F003         	movff	stoa@fp,fputc@fp
  2001  00185E  C00B  F004         	movff	stoa@fp+1,fputc@fp+1
  2002  001862  EC39  F010         	call	_fputc	;wreg free
  2003  001866                     
  2004                           ;C:\Program Files\Microchip\xc8\v2.36\pic\sources\c99\common\doprnt.c: 590:             
      +                          ++l;
  2005  001866  4A1E               	infsnz	stoa@l^0,f,c
  2006  001868  2A1F               	incf	(stoa@l+1)^0,f,c
  2007  00186A                     l2397:
  2008                           
  2009                           ;C:\Program Files\Microchip\xc8\v2.36\pic\sources\c99\common\doprnt.c: 588:         whil
      +                          e (l < w) {
  2010  00186A  5018               	movf	stoa@w^0,w,c
  2011  00186C  5C1E               	subwf	stoa@l^0,w,c
  2012  00186E  501F               	movf	(stoa@l+1)^0,w,c
  2013  001870  0A80               	xorlw	128
  2014  001872  6E0E               	movwf	??_stoa^0,c
  2015  001874  5019               	movf	(stoa@w+1)^0,w,c
  2016  001876  0A80               	xorlw	128
  2017  001878  580E               	subwfb	??_stoa^0,w,c
  2018  00187A  A0D8               	btfss	status,0,c
  2019  00187C  EF42  F00C         	goto	u2011
  2020  001880  EF44  F00C         	goto	u2010
  2021  001884                     u2011:
  2022  001884  EF29  F00C         	goto	l2393
  2023  001888                     u2010:
  2024  001888                     l2399:
  2025                           
  2026                           ;C:\Program Files\Microchip\xc8\v2.36\pic\sources\c99\common\doprnt.c: 595:     i = 0;
  2027  001888  0E00               	movlw	0
  2028  00188A  6E17               	movwf	(stoa@i+1)^0,c
  2029  00188C  0E00               	movlw	0
  2030  00188E  6E16               	movwf	stoa@i^0,c
  2031                           
  2032                           ;C:\Program Files\Microchip\xc8\v2.36\pic\sources\c99\common\doprnt.c: 596:     while (i
      +                           < p) {
  2033  001890  EF68  F00C         	goto	l2407
  2034  001894                     l2401:
  2035                           
  2036                           ;C:\Program Files\Microchip\xc8\v2.36\pic\sources\c99\common\doprnt.c: 597:         fput
      +                          c(*cp, fp);
  2037  001894  C01A  FFF6         	movff	stoa@cp,tblptrl
  2038  001898  C01B  FFF7         	movff	stoa@cp+1,tblptrh
  2039  00189C  6AF8               	clrf	tblptru,c
  2040  00189E  0E05               	movlw	(high __ramtop+-1)
  2041  0018A0  64F7               	cpfsgt	tblptrh,c
  2042  0018A2  D003               	bra	u2027
  2043  0018A4  0008               	tblrd		*
  2044  0018A6  50F5               	movf	tablat,w,c
  2045  0018A8  D005               	bra	u2020
  2046  0018AA                     u2027:
  2047  0018AA  CFF6 FFE1          	movff	tblptrl,fsr1l
  2048  0018AE  CFF7 FFE2          	movff	tblptrh,fsr1h
  2049  0018B2  50E7               	movf	indf1,w,c
  2050  0018B4                     u2020:
  2051  0018B4  6E0E               	movwf	??_stoa^0,c
  2052  0018B6  500E               	movf	??_stoa^0,w,c
  2053  0018B8  6E01               	movwf	fputc@c^0,c
  2054  0018BA  6A02               	clrf	(fputc@c+1)^0,c
  2055  0018BC  C00A  F003         	movff	stoa@fp,fputc@fp
  2056  0018C0  C00B  F004         	movff	stoa@fp+1,fputc@fp+1
  2057  0018C4  EC39  F010         	call	_fputc	;wreg free
  2058  0018C8                     
  2059                           ;C:\Program Files\Microchip\xc8\v2.36\pic\sources\c99\common\doprnt.c: 598:         ++cp
      +                          ;
  2060  0018C8  4A1A               	infsnz	stoa@cp^0,f,c
  2061  0018CA  2A1B               	incf	(stoa@cp+1)^0,f,c
  2062  0018CC                     
  2063                           ;C:\Program Files\Microchip\xc8\v2.36\pic\sources\c99\common\doprnt.c: 599:         ++i;
  2064  0018CC  4A16               	infsnz	stoa@i^0,f,c
  2065  0018CE  2A17               	incf	(stoa@i+1)^0,f,c
  2066  0018D0                     l2407:
  2067                           
  2068                           ;C:\Program Files\Microchip\xc8\v2.36\pic\sources\c99\common\doprnt.c: 596:     while (i
      +                           < p) {
  2069  0018D0  501C               	movf	stoa@p^0,w,c
  2070  0018D2  5C16               	subwf	stoa@i^0,w,c
  2071  0018D4  5017               	movf	(stoa@i+1)^0,w,c
  2072  0018D6  0A80               	xorlw	128
  2073  0018D8  6E0E               	movwf	??_stoa^0,c
  2074  0018DA  501D               	movf	(stoa@p+1)^0,w,c
  2075  0018DC  0A80               	xorlw	128
  2076  0018DE  580E               	subwfb	??_stoa^0,w,c
  2077  0018E0  A0D8               	btfss	status,0,c
  2078  0018E2  EF75  F00C         	goto	u2031
  2079  0018E6  EF77  F00C         	goto	u2030
  2080  0018EA                     u2031:
  2081  0018EA  EF4A  F00C         	goto	l2401
  2082  0018EE                     u2030:
  2083  0018EE                     
  2084                           ;C:\Program Files\Microchip\xc8\v2.36\pic\sources\c99\common\doprnt.c: 603:     if (flag
      +                          s & (1 << 0)) {
  2085  0018EE  A05E               	btfss	_flags^0,0,c
  2086  0018F0  EF7C  F00C         	goto	u2041
  2087  0018F4  EF7E  F00C         	goto	u2040
  2088  0018F8                     u2041:
  2089  0018F8  EF9B  F00C         	goto	l1036
  2090  0018FC                     u2040:
  2091  0018FC  EF8C  F00C         	goto	l2415
  2092  001900                     l2411:
  2093                           
  2094                           ;C:\Program Files\Microchip\xc8\v2.36\pic\sources\c99\common\doprnt.c: 605:             
      +                          fputc(' ', fp);
  2095  001900  0E00               	movlw	0
  2096  001902  6E02               	movwf	(fputc@c+1)^0,c
  2097  001904  0E20               	movlw	32
  2098  001906  6E01               	movwf	fputc@c^0,c
  2099  001908  C00A  F003         	movff	stoa@fp,fputc@fp
  2100  00190C  C00B  F004         	movff	stoa@fp+1,fputc@fp+1
  2101  001910  EC39  F010         	call	_fputc	;wreg free
  2102  001914                     
  2103                           ;C:\Program Files\Microchip\xc8\v2.36\pic\sources\c99\common\doprnt.c: 606:             
      +                          ++l;
  2104  001914  4A1E               	infsnz	stoa@l^0,f,c
  2105  001916  2A1F               	incf	(stoa@l+1)^0,f,c
  2106  001918                     l2415:
  2107                           
  2108                           ;C:\Program Files\Microchip\xc8\v2.36\pic\sources\c99\common\doprnt.c: 604:         whil
      +                          e (l < w) {
  2109  001918  5018               	movf	stoa@w^0,w,c
  2110  00191A  5C1E               	subwf	stoa@l^0,w,c
  2111  00191C  501F               	movf	(stoa@l+1)^0,w,c
  2112  00191E  0A80               	xorlw	128
  2113  001920  6E0E               	movwf	??_stoa^0,c
  2114  001922  5019               	movf	(stoa@w+1)^0,w,c
  2115  001924  0A80               	xorlw	128
  2116  001926  580E               	subwfb	??_stoa^0,w,c
  2117  001928  A0D8               	btfss	status,0,c
  2118  00192A  EF99  F00C         	goto	u2051
  2119  00192E  EF9B  F00C         	goto	u2050
  2120  001932                     u2051:
  2121  001932  EF80  F00C         	goto	l2411
  2122  001936                     u2050:
  2123  001936                     l1036:
  2124                           
  2125                           ;C:\Program Files\Microchip\xc8\v2.36\pic\sources\c99\common\doprnt.c: 610:     return l
      +                          ;
  2126  001936  C01E  F00A         	movff	stoa@l,?_stoa
  2127  00193A  C01F  F00B         	movff	stoa@l+1,?_stoa+1
  2128  00193E  0012               	return		;funcret
  2129  001940                     __end_of_stoa:
  2130                           	callstack 0
  2131                           
  2132 ;; *************** function _dtoa *****************
  2133 ;; Defined at:
  2134 ;;		line 287 in file "C:\Program Files\Microchip\xc8\v2.36\pic\sources\c99\common\doprnt.c"
  2135 ;; Parameters:    Size  Location     Type
  2136 ;;  fp              2   27[COMRAM] PTR struct _IO_FILE
  2137 ;;		 -> sprintf@f(11), 
  2138 ;;  d               8   29[COMRAM] long long 
  2139 ;; Auto vars:     Size  Location     Type
  2140 ;;  n               8   53[COMRAM] long long 
  2141 ;;  i               2   61[COMRAM] int 
  2142 ;;  s               2   51[COMRAM] int 
  2143 ;;  w               2   49[COMRAM] int 
  2144 ;;  p               2   47[COMRAM] int 
  2145 ;; Return value:  Size  Location     Type
  2146 ;;                  2   27[COMRAM] int 
  2147 ;; Registers used:
  2148 ;;		wreg, fsr1l, fsr1h, fsr2l, fsr2h, status,2, status,0, tblptrl, tblptrh, tblptru, cstack
  2149 ;; Tracked objects:
  2150 ;;		On entry : 0/0
  2151 ;;		On exit  : 0/0
  2152 ;;		Unchanged: 0/0
  2153 ;; Data sizes:     COMRAM   BANK0   BANK1   BANK2   BANK3   BANK4   BANK5
  2154 ;;      Params:        10       0       0       0       0       0       0
  2155 ;;      Locals:        18       0       0       0       0       0       0
  2156 ;;      Temps:          8       0       0       0       0       0       0
  2157 ;;      Totals:        36       0       0       0       0       0       0
  2158 ;;Total ram usage:       36 bytes
  2159 ;; Hardware stack levels used: 1
  2160 ;; Hardware stack levels required when called: 4
  2161 ;; This function calls:
  2162 ;;		___aodiv
  2163 ;;		___aomod
  2164 ;;		_abs
  2165 ;;		_pad
  2166 ;; This function is called by:
  2167 ;;		_vfpfcnvrt
  2168 ;; This function uses a non-reentrant model
  2169 ;;
  2170                           
  2171                           	psect	text6
  2172  001170                     __ptext6:
  2173                           	callstack 0
  2174  001170                     _dtoa:
  2175                           	callstack 23
  2176  001170                     
  2177                           ;C:\Program Files\Microchip\xc8\v2.36\pic\sources\c99\common\doprnt.c: 287: static int d
      +                          toa(FILE *fp, long long d);C:\Program Files\Microchip\xc8\v2.36\pic\sources\c99\common\d
      +                          oprnt.c: 288: {;C:\Program Files\Microchip\xc8\v2.36\pic\sources\c99\common\doprnt.c: 28
      +                          9:     int i, p, s, w;;C:\Program Files\Microchip\xc8\v2.36\pic\sources\c99\common\doprn
      +                          t.c: 290:     long long n;;C:\Program Files\Microchip\xc8\v2.36\pic\sources\c99\common\d
      +                          oprnt.c: 293:     n = d;
  2178  001170  C01E  F036         	movff	dtoa@d,dtoa@n
  2179  001174  C01F  F037         	movff	dtoa@d+1,dtoa@n+1
  2180  001178  C020  F038         	movff	dtoa@d+2,dtoa@n+2
  2181  00117C  C021  F039         	movff	dtoa@d+3,dtoa@n+3
  2182  001180  C022  F03A         	movff	dtoa@d+4,dtoa@n+4
  2183  001184  C023  F03B         	movff	dtoa@d+5,dtoa@n+5
  2184  001188  C024  F03C         	movff	dtoa@d+6,dtoa@n+6
  2185  00118C  C025  F03D         	movff	dtoa@d+7,dtoa@n+7
  2186  001190                     
  2187                           ;C:\Program Files\Microchip\xc8\v2.36\pic\sources\c99\common\doprnt.c: 294:     s = n < 
      +                          0 ? 1 : 0;
  2188  001190  BE3D               	btfsc	(dtoa@n+7)^0,7,c
  2189  001192  EFCD  F008         	goto	u1811
  2190  001196  EFD0  F008         	goto	u1810
  2191  00119A                     u1811:
  2192  00119A  0E01               	movlw	1
  2193  00119C  EFD1  F008         	goto	u1820
  2194  0011A0                     u1810:
  2195  0011A0  0E00               	movlw	0
  2196  0011A2                     u1820:
  2197  0011A2  6E34               	movwf	dtoa@s^0,c
  2198  0011A4  6A35               	clrf	(dtoa@s+1)^0,c
  2199                           
  2200                           ;C:\Program Files\Microchip\xc8\v2.36\pic\sources\c99\common\doprnt.c: 295:     if (s) {
  2201  0011A6  5034               	movf	dtoa@s^0,w,c
  2202  0011A8  1035               	iorwf	(dtoa@s+1)^0,w,c
  2203  0011AA  B4D8               	btfsc	status,2,c
  2204  0011AC  EFDA  F008         	goto	u1831
  2205  0011B0  EFDC  F008         	goto	u1830
  2206  0011B4                     u1831:
  2207  0011B4  EFEC  F008         	goto	l2319
  2208  0011B8                     u1830:
  2209  0011B8                     
  2210                           ;C:\Program Files\Microchip\xc8\v2.36\pic\sources\c99\common\doprnt.c: 296:         n = 
      +                          -n;
  2211  0011B8  1E3D               	comf	(dtoa@n+7)^0,f,c
  2212  0011BA  1E3C               	comf	(dtoa@n+6)^0,f,c
  2213  0011BC  1E3B               	comf	(dtoa@n+5)^0,f,c
  2214  0011BE  1E3A               	comf	(dtoa@n+4)^0,f,c
  2215  0011C0  1E39               	comf	(dtoa@n+3)^0,f,c
  2216  0011C2  1E38               	comf	(dtoa@n+2)^0,f,c
  2217  0011C4  1E37               	comf	(dtoa@n+1)^0,f,c
  2218  0011C6  6C36               	negf	dtoa@n^0,c
  2219  0011C8  0E00               	movlw	0
  2220  0011CA  2237               	addwfc	(dtoa@n+1)^0,f,c
  2221  0011CC  2238               	addwfc	(dtoa@n+2)^0,f,c
  2222  0011CE  2239               	addwfc	(dtoa@n+3)^0,f,c
  2223  0011D0  223A               	addwfc	(dtoa@n+4)^0,f,c
  2224  0011D2  223B               	addwfc	(dtoa@n+5)^0,f,c
  2225  0011D4  223C               	addwfc	(dtoa@n+6)^0,f,c
  2226  0011D6  223D               	addwfc	(dtoa@n+7)^0,f,c
  2227  0011D8                     l2319:
  2228                           
  2229                           ;C:\Program Files\Microchip\xc8\v2.36\pic\sources\c99\common\doprnt.c: 300:     if (!(pr
      +                          ec < 0)) {
  2230  0011D8  0100               	movlb	0	; () banked
  2231  0011DA  BF69               	btfsc	(_prec+1)& (0+255),7,b
  2232  0011DC  EFF2  F008         	goto	u1841
  2233  0011E0  EFF4  F008         	goto	u1840
  2234  0011E4                     u1841:
  2235  0011E4  EFF5  F008         	goto	l2323
  2236  0011E8                     u1840:
  2237  0011E8                     
  2238                           ; BSR set to: 0
  2239                           ;C:\Program Files\Microchip\xc8\v2.36\pic\sources\c99\common\doprnt.c: 301:         flag
      +                          s &= ~(1 << 1);
  2240  0011E8  925E               	bcf	_flags^0,1,c
  2241  0011EA                     l2323:
  2242                           
  2243                           ; BSR set to: 0
  2244                           ;C:\Program Files\Microchip\xc8\v2.36\pic\sources\c99\common\doprnt.c: 303:     p = (0 <
      +                           prec) ? prec : 1;
  2245  0011EA  BF69               	btfsc	(_prec+1)& (0+255),7,b
  2246  0011EC  EF02  F009         	goto	u1850
  2247  0011F0  5169               	movf	(_prec+1)& (0+255),w,b
  2248  0011F2  E106               	bnz	u1851
  2249  0011F4  0568               	decf	_prec& (0+255),w,b
  2250  0011F6  B0D8               	btfsc	status,0,c
  2251  0011F8  EF00  F009         	goto	u1851
  2252  0011FC  EF02  F009         	goto	u1850
  2253  001200                     u1851:
  2254  001200  EF08  F009         	goto	l997
  2255  001204                     u1850:
  2256  001204                     
  2257                           ; BSR set to: 0
  2258  001204  0E00               	movlw	0
  2259  001206  6E31               	movwf	(dtoa@p+1)^0,c
  2260  001208  0E01               	movlw	1
  2261  00120A  6E30               	movwf	dtoa@p^0,c
  2262  00120C  EF0C  F009         	goto	l999
  2263  001210                     l997:
  2264                           
  2265                           ; BSR set to: 0
  2266  001210  C068  F030         	movff	_prec,dtoa@p
  2267  001214  C069  F031         	movff	_prec+1,dtoa@p+1
  2268  001218                     l999:
  2269                           
  2270                           ; BSR set to: 0
  2271                           ;C:\Program Files\Microchip\xc8\v2.36\pic\sources\c99\common\doprnt.c: 304:     w = widt
      +                          h;
  2272  001218  C066  F032         	movff	_width,dtoa@w
  2273  00121C  C067  F033         	movff	_width+1,dtoa@w+1
  2274  001220                     
  2275                           ; BSR set to: 0
  2276                           ;C:\Program Files\Microchip\xc8\v2.36\pic\sources\c99\common\doprnt.c: 305:     if (s ||
      +                           (flags & (1 << 2))) {
  2277  001220  5034               	movf	dtoa@s^0,w,c
  2278  001222  1035               	iorwf	(dtoa@s+1)^0,w,c
  2279  001224  A4D8               	btfss	status,2,c
  2280  001226  EF17  F009         	goto	u1861
  2281  00122A  EF19  F009         	goto	u1860
  2282  00122E                     u1861:
  2283  00122E  EF20  F009         	goto	l2331
  2284  001232                     u1860:
  2285  001232                     
  2286                           ; BSR set to: 0
  2287  001232  A45E               	btfss	_flags^0,2,c
  2288  001234  EF1E  F009         	goto	u1871
  2289  001238  EF20  F009         	goto	u1870
  2290  00123C                     u1871:
  2291  00123C  EF23  F009         	goto	l2333
  2292  001240                     u1870:
  2293  001240                     l2331:
  2294                           
  2295                           ; BSR set to: 0
  2296                           ;C:\Program Files\Microchip\xc8\v2.36\pic\sources\c99\common\doprnt.c: 306:         --w;
  2297  001240  0632               	decf	dtoa@w^0,f,c
  2298  001242  A0D8               	btfss	status,0,c
  2299  001244  0633               	decf	(dtoa@w+1)^0,f,c
  2300  001246                     l2333:
  2301                           
  2302                           ; BSR set to: 0
  2303                           ;C:\Program Files\Microchip\xc8\v2.36\pic\sources\c99\common\doprnt.c: 310:     i = size
      +                          of(dbuf) - 1;
  2304  001246  0E00               	movlw	0
  2305  001248  6E3F               	movwf	(dtoa@i+1)^0,c
  2306  00124A  0E1F               	movlw	31
  2307  00124C  6E3E               	movwf	dtoa@i^0,c
  2308  00124E                     
  2309                           ; BSR set to: 0
  2310                           ;C:\Program Files\Microchip\xc8\v2.36\pic\sources\c99\common\doprnt.c: 311:     dbuf[i] 
      +                          = '\0';
  2311  00124E  0E00               	movlw	0
  2312  001250  6FBE               	movwf	(_dbuf+31)& (0+255),b
  2313                           
  2314                           ;C:\Program Files\Microchip\xc8\v2.36\pic\sources\c99\common\doprnt.c: 312:     while (!
      +                          (i < 1) && (n || (0 < p) || ((0 < w) && (flags & (1 << 1))))) {
  2315  001252  EFA7  F009         	goto	l2347
  2316  001256                     l2337:
  2317                           
  2318                           ;C:\Program Files\Microchip\xc8\v2.36\pic\sources\c99\common\doprnt.c: 313:         --i;
  2319  001256  063E               	decf	dtoa@i^0,f,c
  2320  001258  A0D8               	btfss	status,0,c
  2321  00125A  063F               	decf	(dtoa@i+1)^0,f,c
  2322  00125C                     
  2323                           ;C:\Program Files\Microchip\xc8\v2.36\pic\sources\c99\common\doprnt.c: 314:         dbuf
      +                          [i] = (char)((int)'0' + abs(n % 10));
  2324  00125C  0E9F               	movlw	low _dbuf
  2325  00125E  243E               	addwf	dtoa@i^0,w,c
  2326  001260  6ED9               	movwf	fsr2l,c
  2327  001262  0E00               	movlw	high _dbuf
  2328  001264  203F               	addwfc	(dtoa@i+1)^0,w,c
  2329  001266  6EDA               	movwf	fsr2h,c
  2330  001268  C036  F001         	movff	dtoa@n,___aomod@dividend
  2331  00126C  C037  F002         	movff	dtoa@n+1,___aomod@dividend+1
  2332  001270  C038  F003         	movff	dtoa@n+2,___aomod@dividend+2
  2333  001274  C039  F004         	movff	dtoa@n+3,___aomod@dividend+3
  2334  001278  C03A  F005         	movff	dtoa@n+4,___aomod@dividend+4
  2335  00127C  C03B  F006         	movff	dtoa@n+5,___aomod@dividend+5
  2336  001280  C03C  F007         	movff	dtoa@n+6,___aomod@dividend+6
  2337  001284  C03D  F008         	movff	dtoa@n+7,___aomod@dividend+7
  2338  001288  0E0A               	movlw	10
  2339  00128A  6E09               	movwf	___aomod@divisor^0,c
  2340  00128C  0E00               	movlw	0
  2341  00128E  6E0A               	movwf	(___aomod@divisor+1)^0,c
  2342  001290  0E00               	movlw	0
  2343  001292  6E0B               	movwf	(___aomod@divisor+2)^0,c
  2344  001294  0E00               	movlw	0
  2345  001296  6E0C               	movwf	(___aomod@divisor+3)^0,c
  2346  001298  0E00               	movlw	0
  2347  00129A  6E0D               	movwf	(___aomod@divisor+4)^0,c
  2348  00129C  0E00               	movlw	0
  2349  00129E  6E0E               	movwf	(___aomod@divisor+5)^0,c
  2350  0012A0  0E00               	movlw	0
  2351  0012A2  6E0F               	movwf	(___aomod@divisor+6)^0,c
  2352  0012A4  0E00               	movlw	0
  2353  0012A6  6E10               	movwf	(___aomod@divisor+7)^0,c
  2354  0012A8  EC64  F00D         	call	___aomod	;wreg free
  2355  0012AC  C001  F026         	movff	?___aomod,??_dtoa
  2356  0012B0  C002  F027         	movff	?___aomod+1,??_dtoa+1
  2357  0012B4  C003  F028         	movff	?___aomod+2,??_dtoa+2
  2358  0012B8  C004  F029         	movff	?___aomod+3,??_dtoa+3
  2359  0012BC  C005  F02A         	movff	?___aomod+4,??_dtoa+4
  2360  0012C0  C006  F02B         	movff	?___aomod+5,??_dtoa+5
  2361  0012C4  C007  F02C         	movff	?___aomod+6,??_dtoa+6
  2362  0012C8  C008  F02D         	movff	?___aomod+7,??_dtoa+7
  2363  0012CC  C026  F013         	movff	??_dtoa,abs@a
  2364  0012D0  C028  F014         	movff	??_dtoa+2,abs@a+1
  2365  0012D4  EC3D  F012         	call	_abs	;wreg free
  2366  0012D8  5013               	movf	?_abs^0,w,c
  2367  0012DA  0F30               	addlw	48
  2368  0012DC  6EDF               	movwf	indf2,c
  2369  0012DE                     
  2370                           ;C:\Program Files\Microchip\xc8\v2.36\pic\sources\c99\common\doprnt.c: 315:         --p;
  2371  0012DE  0630               	decf	dtoa@p^0,f,c
  2372  0012E0  A0D8               	btfss	status,0,c
  2373  0012E2  0631               	decf	(dtoa@p+1)^0,f,c
  2374  0012E4                     
  2375                           ;C:\Program Files\Microchip\xc8\v2.36\pic\sources\c99\common\doprnt.c: 316:         --w;
  2376  0012E4  0632               	decf	dtoa@w^0,f,c
  2377  0012E6  A0D8               	btfss	status,0,c
  2378  0012E8  0633               	decf	(dtoa@w+1)^0,f,c
  2379  0012EA                     
  2380                           ;C:\Program Files\Microchip\xc8\v2.36\pic\sources\c99\common\doprnt.c: 317:         n = 
      +                          n / 10;
  2381  0012EA  C036  F001         	movff	dtoa@n,___aodiv@dividend
  2382  0012EE  C037  F002         	movff	dtoa@n+1,___aodiv@dividend+1
  2383  0012F2  C038  F003         	movff	dtoa@n+2,___aodiv@dividend+2
  2384  0012F6  C039  F004         	movff	dtoa@n+3,___aodiv@dividend+3
  2385  0012FA  C03A  F005         	movff	dtoa@n+4,___aodiv@dividend+4
  2386  0012FE  C03B  F006         	movff	dtoa@n+5,___aodiv@dividend+5
  2387  001302  C03C  F007         	movff	dtoa@n+6,___aodiv@dividend+6
  2388  001306  C03D  F008         	movff	dtoa@n+7,___aodiv@dividend+7
  2389  00130A  0E0A               	movlw	10
  2390  00130C  6E09               	movwf	___aodiv@divisor^0,c
  2391  00130E  0E00               	movlw	0
  2392  001310  6E0A               	movwf	(___aodiv@divisor+1)^0,c
  2393  001312  0E00               	movlw	0
  2394  001314  6E0B               	movwf	(___aodiv@divisor+2)^0,c
  2395  001316  0E00               	movlw	0
  2396  001318  6E0C               	movwf	(___aodiv@divisor+3)^0,c
  2397  00131A  0E00               	movlw	0
  2398  00131C  6E0D               	movwf	(___aodiv@divisor+4)^0,c
  2399  00131E  0E00               	movlw	0
  2400  001320  6E0E               	movwf	(___aodiv@divisor+5)^0,c
  2401  001322  0E00               	movlw	0
  2402  001324  6E0F               	movwf	(___aodiv@divisor+6)^0,c
  2403  001326  0E00               	movlw	0
  2404  001328  6E10               	movwf	(___aodiv@divisor+7)^0,c
  2405  00132A  ECA0  F00C         	call	___aodiv	;wreg free
  2406  00132E  C001  F036         	movff	?___aodiv,dtoa@n
  2407  001332  C002  F037         	movff	?___aodiv+1,dtoa@n+1
  2408  001336  C003  F038         	movff	?___aodiv+2,dtoa@n+2
  2409  00133A  C004  F039         	movff	?___aodiv+3,dtoa@n+3
  2410  00133E  C005  F03A         	movff	?___aodiv+4,dtoa@n+4
  2411  001342  C006  F03B         	movff	?___aodiv+5,dtoa@n+5
  2412  001346  C007  F03C         	movff	?___aodiv+6,dtoa@n+6
  2413  00134A  C008  F03D         	movff	?___aodiv+7,dtoa@n+7
  2414  00134E                     l2347:
  2415                           
  2416                           ;C:\Program Files\Microchip\xc8\v2.36\pic\sources\c99\common\doprnt.c: 312:     while (!
      +                          (i < 1) && (n || (0 < p) || ((0 < w) && (flags & (1 << 1))))) {
  2417  00134E  BE3F               	btfsc	(dtoa@i+1)^0,7,c
  2418  001350  EFB2  F009         	goto	u1881
  2419  001354  503F               	movf	(dtoa@i+1)^0,w,c
  2420  001356  E108               	bnz	u1880
  2421  001358  043E               	decf	dtoa@i^0,w,c
  2422  00135A  A0D8               	btfss	status,0,c
  2423  00135C  EFB2  F009         	goto	u1881
  2424  001360  EFB4  F009         	goto	u1880
  2425  001364                     u1881:
  2426  001364  EFE4  F009         	goto	l2357
  2427  001368                     u1880:
  2428  001368  5036               	movf	dtoa@n^0,w,c
  2429  00136A  1037               	iorwf	(dtoa@n+1)^0,w,c
  2430  00136C  1038               	iorwf	(dtoa@n+2)^0,w,c
  2431  00136E  1039               	iorwf	(dtoa@n+3)^0,w,c
  2432  001370  103A               	iorwf	(dtoa@n+4)^0,w,c
  2433  001372  103B               	iorwf	(dtoa@n+5)^0,w,c
  2434  001374  103C               	iorwf	(dtoa@n+6)^0,w,c
  2435  001376  103D               	iorwf	(dtoa@n+7)^0,w,c
  2436  001378  A4D8               	btfss	status,2,c
  2437  00137A  EFC1  F009         	goto	u1891
  2438  00137E  EFC3  F009         	goto	u1890
  2439  001382                     u1891:
  2440  001382  EF2B  F009         	goto	l2337
  2441  001386                     u1890:
  2442  001386  BE31               	btfsc	(dtoa@p+1)^0,7,c
  2443  001388  EFD0  F009         	goto	u1900
  2444  00138C  5031               	movf	(dtoa@p+1)^0,w,c
  2445  00138E  E106               	bnz	u1901
  2446  001390  0430               	decf	dtoa@p^0,w,c
  2447  001392  B0D8               	btfsc	status,0,c
  2448  001394  EFCE  F009         	goto	u1901
  2449  001398  EFD0  F009         	goto	u1900
  2450  00139C                     u1901:
  2451  00139C  EF2B  F009         	goto	l2337
  2452  0013A0                     u1900:
  2453  0013A0  BE33               	btfsc	(dtoa@w+1)^0,7,c
  2454  0013A2  EFDB  F009         	goto	u1911
  2455  0013A6  5033               	movf	(dtoa@w+1)^0,w,c
  2456  0013A8  E108               	bnz	u1910
  2457  0013AA  0432               	decf	dtoa@w^0,w,c
  2458  0013AC  A0D8               	btfss	status,0,c
  2459  0013AE  EFDB  F009         	goto	u1911
  2460  0013B2  EFDD  F009         	goto	u1910
  2461  0013B6                     u1911:
  2462  0013B6  EFE4  F009         	goto	l2357
  2463  0013BA                     u1910:
  2464  0013BA  B25E               	btfsc	_flags^0,1,c
  2465  0013BC  EFE2  F009         	goto	u1921
  2466  0013C0  EFE4  F009         	goto	u1920
  2467  0013C4                     u1921:
  2468  0013C4  EF2B  F009         	goto	l2337
  2469  0013C8                     u1920:
  2470  0013C8                     l2357:
  2471                           
  2472                           ;C:\Program Files\Microchip\xc8\v2.36\pic\sources\c99\common\doprnt.c: 321:     if (s ||
      +                           (flags & (1 << 2))) {
  2473  0013C8  5034               	movf	dtoa@s^0,w,c
  2474  0013CA  1035               	iorwf	(dtoa@s+1)^0,w,c
  2475  0013CC  A4D8               	btfss	status,2,c
  2476  0013CE  EFEB  F009         	goto	u1931
  2477  0013D2  EFED  F009         	goto	u1930
  2478  0013D6                     u1931:
  2479  0013D6  EFF4  F009         	goto	l2361
  2480  0013DA                     u1930:
  2481  0013DA  A45E               	btfss	_flags^0,2,c
  2482  0013DC  EFF2  F009         	goto	u1941
  2483  0013E0  EFF4  F009         	goto	u1940
  2484  0013E4                     u1941:
  2485  0013E4  EF12  F00A         	goto	l2371
  2486  0013E8                     u1940:
  2487  0013E8                     l2361:
  2488                           
  2489                           ;C:\Program Files\Microchip\xc8\v2.36\pic\sources\c99\common\doprnt.c: 322:         --i;
  2490  0013E8  063E               	decf	dtoa@i^0,f,c
  2491  0013EA  A0D8               	btfss	status,0,c
  2492  0013EC  063F               	decf	(dtoa@i+1)^0,f,c
  2493  0013EE                     
  2494                           ;C:\Program Files\Microchip\xc8\v2.36\pic\sources\c99\common\doprnt.c: 323:         dbuf
      +                          [i] = s ? '-' : '+';
  2495  0013EE  5034               	movf	dtoa@s^0,w,c
  2496  0013F0  1035               	iorwf	(dtoa@s+1)^0,w,c
  2497  0013F2  A4D8               	btfss	status,2,c
  2498  0013F4  EFFE  F009         	goto	u1951
  2499  0013F8  EF00  F00A         	goto	u1950
  2500  0013FC                     u1951:
  2501  0013FC  EF06  F00A         	goto	l2367
  2502  001400                     u1950:
  2503  001400  0E00               	movlw	0
  2504  001402  6E2F               	movwf	(_dtoa$1210+1)^0,c
  2505  001404  0E2B               	movlw	43
  2506  001406  6E2E               	movwf	_dtoa$1210^0,c
  2507  001408  EF0A  F00A         	goto	l2369
  2508  00140C                     l2367:
  2509  00140C  0E00               	movlw	0
  2510  00140E  6E2F               	movwf	(_dtoa$1210+1)^0,c
  2511  001410  0E2D               	movlw	45
  2512  001412  6E2E               	movwf	_dtoa$1210^0,c
  2513  001414                     l2369:
  2514  001414  0E9F               	movlw	low _dbuf
  2515  001416  243E               	addwf	dtoa@i^0,w,c
  2516  001418  6ED9               	movwf	fsr2l,c
  2517  00141A  0E00               	movlw	high _dbuf
  2518  00141C  203F               	addwfc	(dtoa@i+1)^0,w,c
  2519  00141E  6EDA               	movwf	fsr2h,c
  2520  001420  C02E  FFDF         	movff	_dtoa$1210,indf2
  2521  001424                     l2371:
  2522                           
  2523                           ;C:\Program Files\Microchip\xc8\v2.36\pic\sources\c99\common\doprnt.c: 327:     return p
      +                          ad(fp, &dbuf[i], w);
  2524  001424  C01C  F011         	movff	dtoa@fp,pad@fp
  2525  001428  C01D  F012         	movff	dtoa@fp+1,pad@fp+1
  2526  00142C  0E9F               	movlw	low _dbuf
  2527  00142E  243E               	addwf	dtoa@i^0,w,c
  2528  001430  6E13               	movwf	pad@buf^0,c
  2529  001432  0E00               	movlw	high _dbuf
  2530  001434  203F               	addwfc	(dtoa@i+1)^0,w,c
  2531  001436  6E14               	movwf	(pad@buf+1)^0,c
  2532  001438  C032  F015         	movff	dtoa@w,pad@p
  2533  00143C  C033  F016         	movff	dtoa@w+1,pad@p+1
  2534  001440  EC9E  F010         	call	_pad	;wreg free
  2535  001444  C011  F01C         	movff	?_pad,?_dtoa
  2536  001448  C012  F01D         	movff	?_pad+1,?_dtoa+1
  2537  00144C  0012               	return		;funcret
  2538  00144E                     __end_of_dtoa:
  2539                           	callstack 0
  2540                           
  2541 ;; *************** function _pad *****************
  2542 ;; Defined at:
  2543 ;;		line 72 in file "C:\Program Files\Microchip\xc8\v2.36\pic\sources\c99\common\doprnt.c"
  2544 ;; Parameters:    Size  Location     Type
  2545 ;;  fp              2   16[COMRAM] PTR struct _IO_FILE
  2546 ;;		 -> sprintf@f(11), 
  2547 ;;  buf             2   18[COMRAM] PTR unsigned char 
  2548 ;;		 -> dbuf(32), 
  2549 ;;  p               2   20[COMRAM] int 
  2550 ;; Auto vars:     Size  Location     Type
  2551 ;;  w               2   25[COMRAM] int 
  2552 ;;  i               2   23[COMRAM] int 
  2553 ;; Return value:  Size  Location     Type
  2554 ;;                  2   16[COMRAM] int 
  2555 ;; Registers used:
  2556 ;;		wreg, fsr1l, fsr1h, fsr2l, fsr2h, status,2, status,0, tblptrl, tblptrh, tblptru, cstack
  2557 ;; Tracked objects:
  2558 ;;		On entry : 0/0
  2559 ;;		On exit  : 0/0
  2560 ;;		Unchanged: 0/0
  2561 ;; Data sizes:     COMRAM   BANK0   BANK1   BANK2   BANK3   BANK4   BANK5
  2562 ;;      Params:         6       0       0       0       0       0       0
  2563 ;;      Locals:         4       0       0       0       0       0       0
  2564 ;;      Temps:          1       0       0       0       0       0       0
  2565 ;;      Totals:        11       0       0       0       0       0       0
  2566 ;;Total ram usage:       11 bytes
  2567 ;; Hardware stack levels used: 1
  2568 ;; Hardware stack levels required when called: 3
  2569 ;; This function calls:
  2570 ;;		_fputc
  2571 ;;		_fputs
  2572 ;;		_strlen
  2573 ;; This function is called by:
  2574 ;;		_dtoa
  2575 ;; This function uses a non-reentrant model
  2576 ;;
  2577                           
  2578                           	psect	text7
  2579  00213C                     __ptext7:
  2580                           	callstack 0
  2581  00213C                     _pad:
  2582                           	callstack 23
  2583  00213C                     
  2584                           ;C:\Program Files\Microchip\xc8\v2.36\pic\sources\c99\common\doprnt.c: 72: static int pa
      +                          d(FILE *fp, char *buf, int p);C:\Program Files\Microchip\xc8\v2.36\pic\sources\c99\commo
      +                          n\doprnt.c: 73: {;C:\Program Files\Microchip\xc8\v2.36\pic\sources\c99\common\doprnt.c: 
      +                          74:     int i, w;;C:\Program Files\Microchip\xc8\v2.36\pic\sources\c99\common\doprnt.c: 
      +                          77:     if (flags & (1 << 0)) {
  2585  00213C  A05E               	btfss	_flags^0,0,c
  2586  00213E  EFA3  F010         	goto	u1721
  2587  002142  EFA5  F010         	goto	u1720
  2588  002146                     u1721:
  2589  002146  EFAF  F010         	goto	l2275
  2590  00214A                     u1720:
  2591  00214A                     
  2592                           ;C:\Program Files\Microchip\xc8\v2.36\pic\sources\c99\common\doprnt.c: 78:         fputs
      +                          ((const char *)buf, fp);
  2593  00214A  C013  F00A         	movff	pad@buf,fputs@s
  2594  00214E  C014  F00B         	movff	pad@buf+1,fputs@s+1
  2595  002152  C011  F00C         	movff	pad@fp,fputs@fp
  2596  002156  C012  F00D         	movff	pad@fp+1,fputs@fp+1
  2597  00215A  EC1B  F012         	call	_fputs	;wreg free
  2598  00215E                     l2275:
  2599                           
  2600                           ;C:\Program Files\Microchip\xc8\v2.36\pic\sources\c99\common\doprnt.c: 82:     w = (p < 
      +                          0) ? 0 : p;
  2601  00215E  BE16               	btfsc	(pad@p+1)^0,7,c
  2602  002160  EFB4  F010         	goto	u1731
  2603  002164  EFB6  F010         	goto	u1730
  2604  002168                     u1731:
  2605  002168  EFBC  F010         	goto	l2279
  2606  00216C                     u1730:
  2607  00216C  C015  F01A         	movff	pad@p,pad@w
  2608  002170  C016  F01B         	movff	pad@p+1,pad@w+1
  2609  002174  EFC0  F010         	goto	l986
  2610  002178                     l2279:
  2611  002178  0E00               	movlw	0
  2612  00217A  6E1B               	movwf	(pad@w+1)^0,c
  2613  00217C  0E00               	movlw	0
  2614  00217E  6E1A               	movwf	pad@w^0,c
  2615  002180                     l986:
  2616                           
  2617                           ;C:\Program Files\Microchip\xc8\v2.36\pic\sources\c99\common\doprnt.c: 83:     i = 0;
  2618  002180  0E00               	movlw	0
  2619  002182  6E19               	movwf	(pad@i+1)^0,c
  2620  002184  0E00               	movlw	0
  2621  002186  6E18               	movwf	pad@i^0,c
  2622                           
  2623                           ;C:\Program Files\Microchip\xc8\v2.36\pic\sources\c99\common\doprnt.c: 84:     while (i 
      +                          < w) {
  2624  002188  EFD2  F010         	goto	l2285
  2625  00218C                     l2281:
  2626                           
  2627                           ;C:\Program Files\Microchip\xc8\v2.36\pic\sources\c99\common\doprnt.c: 85:         fputc
      +                          (' ', fp);
  2628  00218C  0E00               	movlw	0
  2629  00218E  6E02               	movwf	(fputc@c+1)^0,c
  2630  002190  0E20               	movlw	32
  2631  002192  6E01               	movwf	fputc@c^0,c
  2632  002194  C011  F003         	movff	pad@fp,fputc@fp
  2633  002198  C012  F004         	movff	pad@fp+1,fputc@fp+1
  2634  00219C  EC39  F010         	call	_fputc	;wreg free
  2635  0021A0                     
  2636                           ;C:\Program Files\Microchip\xc8\v2.36\pic\sources\c99\common\doprnt.c: 86:         ++i;
  2637  0021A0  4A18               	infsnz	pad@i^0,f,c
  2638  0021A2  2A19               	incf	(pad@i+1)^0,f,c
  2639  0021A4                     l2285:
  2640                           
  2641                           ;C:\Program Files\Microchip\xc8\v2.36\pic\sources\c99\common\doprnt.c: 84:     while (i 
      +                          < w) {
  2642  0021A4  501A               	movf	pad@w^0,w,c
  2643  0021A6  5C18               	subwf	pad@i^0,w,c
  2644  0021A8  5019               	movf	(pad@i+1)^0,w,c
  2645  0021AA  0A80               	xorlw	128
  2646  0021AC  6E17               	movwf	??_pad^0,c
  2647  0021AE  501B               	movf	(pad@w+1)^0,w,c
  2648  0021B0  0A80               	xorlw	128
  2649  0021B2  5817               	subwfb	??_pad^0,w,c
  2650  0021B4  A0D8               	btfss	status,0,c
  2651  0021B6  EFDF  F010         	goto	u1741
  2652  0021BA  EFE1  F010         	goto	u1740
  2653  0021BE                     u1741:
  2654  0021BE  EFC6  F010         	goto	l2281
  2655  0021C2                     u1740:
  2656  0021C2                     
  2657                           ;C:\Program Files\Microchip\xc8\v2.36\pic\sources\c99\common\doprnt.c: 90:     if (!(fla
      +                          gs & (1 << 0))) {
  2658  0021C2  B05E               	btfsc	_flags^0,0,c
  2659  0021C4  EFE6  F010         	goto	u1751
  2660  0021C8  EFE8  F010         	goto	u1750
  2661  0021CC                     u1751:
  2662  0021CC  EFF2  F010         	goto	l2289
  2663  0021D0                     u1750:
  2664  0021D0                     
  2665                           ;C:\Program Files\Microchip\xc8\v2.36\pic\sources\c99\common\doprnt.c: 91:         fputs
      +                          ((const char *)buf, fp);
  2666  0021D0  C013  F00A         	movff	pad@buf,fputs@s
  2667  0021D4  C014  F00B         	movff	pad@buf+1,fputs@s+1
  2668  0021D8  C011  F00C         	movff	pad@fp,fputs@fp
  2669  0021DC  C012  F00D         	movff	pad@fp+1,fputs@fp+1
  2670  0021E0  EC1B  F012         	call	_fputs	;wreg free
  2671  0021E4                     l2289:
  2672                           
  2673                           ;C:\Program Files\Microchip\xc8\v2.36\pic\sources\c99\common\doprnt.c: 94:     return (i
      +                          nt)(strlen(buf) + (size_t)w);
  2674  0021E4  C013  F001         	movff	pad@buf,strlen@s
  2675  0021E8  C014  F002         	movff	pad@buf+1,strlen@s+1
  2676  0021EC  ECF4  F011         	call	_strlen	;wreg free
  2677  0021F0  501A               	movf	pad@w^0,w,c
  2678  0021F2  2401               	addwf	?_strlen^0,w,c
  2679  0021F4  6E11               	movwf	?_pad^0,c
  2680  0021F6  501B               	movf	(pad@w+1)^0,w,c
  2681  0021F8  2002               	addwfc	(?_strlen+1)^0,w,c
  2682  0021FA  6E12               	movwf	(?_pad+1)^0,c
  2683  0021FC  0012               	return		;funcret
  2684  0021FE                     __end_of_pad:
  2685                           	callstack 0
  2686                           
  2687 ;; *************** function _strlen *****************
  2688 ;; Defined at:
  2689 ;;		line 5 in file "C:\Program Files\Microchip\xc8\v2.36\pic\sources\c99\common\strlen.c"
  2690 ;; Parameters:    Size  Location     Type
  2691 ;;  s               2    0[COMRAM] PTR const unsigned char 
  2692 ;;		 -> stoa@nuls(7), dbuf(32), ?_sprintf(2), STR_3(13), 
  2693 ;;		 -> STR_2(14), 
  2694 ;; Auto vars:     Size  Location     Type
  2695 ;;  a               2    2[COMRAM] PTR const unsigned char 
  2696 ;;		 -> stoa@nuls(7), dbuf(32), ?_sprintf(2), STR_3(13), 
  2697 ;;		 -> STR_2(14), 
  2698 ;; Return value:  Size  Location     Type
  2699 ;;                  2    0[COMRAM] unsigned int 
  2700 ;; Registers used:
  2701 ;;		wreg, fsr1l, fsr1h, status,2, status,0, tblptrl, tblptrh, tblptru
  2702 ;; Tracked objects:
  2703 ;;		On entry : 0/0
  2704 ;;		On exit  : 0/0
  2705 ;;		Unchanged: 0/0
  2706 ;; Data sizes:     COMRAM   BANK0   BANK1   BANK2   BANK3   BANK4   BANK5
  2707 ;;      Params:         2       0       0       0       0       0       0
  2708 ;;      Locals:         2       0       0       0       0       0       0
  2709 ;;      Temps:          0       0       0       0       0       0       0
  2710 ;;      Totals:         4       0       0       0       0       0       0
  2711 ;;Total ram usage:        4 bytes
  2712 ;; Hardware stack levels used: 1
  2713 ;; This function calls:
  2714 ;;		Nothing
  2715 ;; This function is called by:
  2716 ;;		_pad
  2717 ;;		_stoa
  2718 ;; This function uses a non-reentrant model
  2719 ;;
  2720                           
  2721                           	psect	text8
  2722  0023E8                     __ptext8:
  2723                           	callstack 0
  2724  0023E8                     _strlen:
  2725                           	callstack 26
  2726  0023E8  C001  F003         	movff	strlen@s,strlen@a
  2727  0023EC  C002  F004         	movff	strlen@s+1,strlen@a+1
  2728  0023F0  EFFC  F011         	goto	l2179
  2729  0023F4                     l2177:
  2730  0023F4  4A01               	infsnz	strlen@s^0,f,c
  2731  0023F6  2A02               	incf	(strlen@s+1)^0,f,c
  2732  0023F8                     l2179:
  2733  0023F8  C001  FFF6         	movff	strlen@s,tblptrl
  2734  0023FC  C002  FFF7         	movff	strlen@s+1,tblptrh
  2735  002400  6AF8               	clrf	tblptru,c
  2736  002402  0E05               	movlw	(high __ramtop+-1)
  2737  002404  64F7               	cpfsgt	tblptrh,c
  2738  002406  D003               	bra	u1577
  2739  002408  0008               	tblrd		*
  2740  00240A  50F5               	movf	tablat,w,c
  2741  00240C  D005               	bra	u1570
  2742  00240E                     u1577:
  2743  00240E  CFF6 FFE1          	movff	tblptrl,fsr1l
  2744  002412  CFF7 FFE2          	movff	tblptrh,fsr1h
  2745  002416  50E7               	movf	indf1,w,c
  2746  002418                     u1570:
  2747  002418  0900               	iorlw	0
  2748  00241A  A4D8               	btfss	status,2,c
  2749  00241C  EF12  F012         	goto	u1581
  2750  002420  EF14  F012         	goto	u1580
  2751  002424                     u1581:
  2752  002424  EFFA  F011         	goto	l2177
  2753  002428                     u1580:
  2754  002428  5003               	movf	strlen@a^0,w,c
  2755  00242A  5C01               	subwf	strlen@s^0,w,c
  2756  00242C  6E01               	movwf	?_strlen^0,c
  2757  00242E  5004               	movf	(strlen@a+1)^0,w,c
  2758  002430  5802               	subwfb	(strlen@s+1)^0,w,c
  2759  002432  6E02               	movwf	(?_strlen+1)^0,c
  2760  002434  0012               	return		;funcret
  2761  002436                     __end_of_strlen:
  2762                           	callstack 0
  2763                           
  2764 ;; *************** function _fputs *****************
  2765 ;; Defined at:
  2766 ;;		line 8 in file "C:\Program Files\Microchip\xc8\v2.36\pic\sources\c99\common\nf_fputs.c"
  2767 ;; Parameters:    Size  Location     Type
  2768 ;;  s               2    9[COMRAM] PTR const unsigned char 
  2769 ;;		 -> dbuf(32), 
  2770 ;;  fp              2   11[COMRAM] PTR struct _IO_FILE
  2771 ;;		 -> sprintf@f(11), 
  2772 ;; Auto vars:     Size  Location     Type
  2773 ;;  i               2   14[COMRAM] int 
  2774 ;;  c               1   13[COMRAM] unsigned char 
  2775 ;; Return value:  Size  Location     Type
  2776 ;;                  2    9[COMRAM] int 
  2777 ;; Registers used:
  2778 ;;		wreg, fsr1l, fsr1h, fsr2l, fsr2h, status,2, status,0, cstack
  2779 ;; Tracked objects:
  2780 ;;		On entry : 0/0
  2781 ;;		On exit  : 0/0
  2782 ;;		Unchanged: 0/0
  2783 ;; Data sizes:     COMRAM   BANK0   BANK1   BANK2   BANK3   BANK4   BANK5
  2784 ;;      Params:         4       0       0       0       0       0       0
  2785 ;;      Locals:         3       0       0       0       0       0       0
  2786 ;;      Temps:          0       0       0       0       0       0       0
  2787 ;;      Totals:         7       0       0       0       0       0       0
  2788 ;;Total ram usage:        7 bytes
  2789 ;; Hardware stack levels used: 1
  2790 ;; Hardware stack levels required when called: 2
  2791 ;; This function calls:
  2792 ;;		_fputc
  2793 ;; This function is called by:
  2794 ;;		_pad
  2795 ;; This function uses a non-reentrant model
  2796 ;;
  2797                           
  2798                           	psect	text9
  2799  002436                     __ptext9:
  2800                           	callstack 0
  2801  002436                     _fputs:
  2802                           	callstack 23
  2803  002436  0E00               	movlw	0
  2804  002438  6E10               	movwf	(fputs@i+1)^0,c
  2805  00243A  0E00               	movlw	0
  2806  00243C  6E0F               	movwf	fputs@i^0,c
  2807  00243E  EF2C  F012         	goto	l2173
  2808  002442                     l2169:
  2809  002442  C00E  F001         	movff	fputs@c,fputc@c
  2810  002446  6A02               	clrf	(fputc@c+1)^0,c
  2811  002448  C00C  F003         	movff	fputs@fp,fputc@fp
  2812  00244C  C00D  F004         	movff	fputs@fp+1,fputc@fp+1
  2813  002450  EC39  F010         	call	_fputc	;wreg free
  2814  002454  4A0F               	infsnz	fputs@i^0,f,c
  2815  002456  2A10               	incf	(fputs@i+1)^0,f,c
  2816  002458                     l2173:
  2817  002458  500F               	movf	fputs@i^0,w,c
  2818  00245A  240A               	addwf	fputs@s^0,w,c
  2819  00245C  6ED9               	movwf	fsr2l,c
  2820  00245E  5010               	movf	(fputs@i+1)^0,w,c
  2821  002460  200B               	addwfc	(fputs@s+1)^0,w,c
  2822  002462  6EDA               	movwf	fsr2h,c
  2823  002464  50DF               	movf	indf2,w,c
  2824  002466  6E0E               	movwf	fputs@c^0,c
  2825  002468  500E               	movf	fputs@c^0,w,c
  2826  00246A  A4D8               	btfss	status,2,c
  2827  00246C  EF3A  F012         	goto	u1561
  2828  002470  EF3C  F012         	goto	u1560
  2829  002474                     u1561:
  2830  002474  EF21  F012         	goto	l2169
  2831  002478                     u1560:
  2832  002478  0012               	return		;funcret
  2833  00247A                     __end_of_fputs:
  2834                           	callstack 0
  2835                           
  2836 ;; *************** function _fputc *****************
  2837 ;; Defined at:
  2838 ;;		line 8 in file "C:\Program Files\Microchip\xc8\v2.36\pic\sources\c99\common\nf_fputc.c"
  2839 ;; Parameters:    Size  Location     Type
  2840 ;;  c               2    0[COMRAM] int 
  2841 ;;  fp              2    2[COMRAM] PTR struct _IO_FILE
  2842 ;;		 -> sprintf@f(11), 
  2843 ;; Auto vars:     Size  Location     Type
  2844 ;;		None
  2845 ;; Return value:  Size  Location     Type
  2846 ;;                  2    0[COMRAM] int 
  2847 ;; Registers used:
  2848 ;;		wreg, fsr1l, fsr1h, fsr2l, fsr2h, status,2, status,0, cstack
  2849 ;; Tracked objects:
  2850 ;;		On entry : 0/0
  2851 ;;		On exit  : 0/0
  2852 ;;		Unchanged: 0/0
  2853 ;; Data sizes:     COMRAM   BANK0   BANK1   BANK2   BANK3   BANK4   BANK5
  2854 ;;      Params:         4       0       0       0       0       0       0
  2855 ;;      Locals:         0       0       0       0       0       0       0
  2856 ;;      Temps:          5       0       0       0       0       0       0
  2857 ;;      Totals:         9       0       0       0       0       0       0
  2858 ;;Total ram usage:        9 bytes
  2859 ;; Hardware stack levels used: 1
  2860 ;; Hardware stack levels required when called: 1
  2861 ;; This function calls:
  2862 ;;		_putch
  2863 ;; This function is called by:
  2864 ;;		_pad
  2865 ;;		_stoa
  2866 ;;		_vfpfcnvrt
  2867 ;;		_fputs
  2868 ;; This function uses a non-reentrant model
  2869 ;;
  2870                           
  2871                           	psect	text10
  2872  002072                     __ptext10:
  2873                           	callstack 0
  2874  002072                     _fputc:
  2875                           	callstack 25
  2876  002072  5003               	movf	fputc@fp^0,w,c
  2877  002074  1004               	iorwf	(fputc@fp+1)^0,w,c
  2878  002076  B4D8               	btfsc	status,2,c
  2879  002078  EF40  F010         	goto	u1521
  2880  00207C  EF42  F010         	goto	u1520
  2881  002080                     u1521:
  2882  002080  EF4B  F010         	goto	l2157
  2883  002084                     u1520:
  2884  002084  5003               	movf	fputc@fp^0,w,c
  2885  002086  1004               	iorwf	(fputc@fp+1)^0,w,c
  2886  002088  A4D8               	btfss	status,2,c
  2887  00208A  EF49  F010         	goto	u1531
  2888  00208E  EF4B  F010         	goto	u1530
  2889  002092                     u1531:
  2890  002092  EF50  F010         	goto	l2159
  2891  002096                     u1530:
  2892  002096                     l2157:
  2893  002096  5001               	movf	fputc@c^0,w,c
  2894  002098  EC78  F013         	call	_putch
  2895  00209C  EF9D  F010         	goto	l1127
  2896  0020A0                     l2159:
  2897  0020A0  EE20 F009          	lfsr	2,9
  2898  0020A4  5003               	movf	fputc@fp^0,w,c
  2899  0020A6  26D9               	addwf	fsr2l,f,c
  2900  0020A8  5004               	movf	(fputc@fp+1)^0,w,c
  2901  0020AA  22DA               	addwfc	fsr2h,f,c
  2902  0020AC  50DE               	movf	postinc2,w,c
  2903  0020AE  10DE               	iorwf	postinc2,w,c
  2904  0020B0  B4D8               	btfsc	status,2,c
  2905  0020B2  EF5D  F010         	goto	u1541
  2906  0020B6  EF5F  F010         	goto	u1540
  2907  0020BA                     u1541:
  2908  0020BA  EF7A  F010         	goto	l2163
  2909  0020BE                     u1540:
  2910  0020BE  EE20 F009          	lfsr	2,9
  2911  0020C2  5003               	movf	fputc@fp^0,w,c
  2912  0020C4  26D9               	addwf	fsr2l,f,c
  2913  0020C6  5004               	movf	(fputc@fp+1)^0,w,c
  2914  0020C8  22DA               	addwfc	fsr2h,f,c
  2915  0020CA  EE10 F003          	lfsr	1,3
  2916  0020CE  5003               	movf	fputc@fp^0,w,c
  2917  0020D0  26E1               	addwf	fsr1l,f,c
  2918  0020D2  5004               	movf	(fputc@fp+1)^0,w,c
  2919  0020D4  22E2               	addwfc	fsr1h,f,c
  2920  0020D6  50DE               	movf	postinc2,w,c
  2921  0020D8  5CE6               	subwf	postinc1,w,c
  2922  0020DA  50E6               	movf	postinc1,w,c
  2923  0020DC  0A80               	xorlw	128
  2924  0020DE  6E09               	movwf	(??_fputc+4)^0,c
  2925  0020E0  50DE               	movf	postinc2,w,c
  2926  0020E2  0A80               	xorlw	128
  2927  0020E4  5809               	subwfb	(??_fputc+4)^0,w,c
  2928  0020E6  B0D8               	btfsc	status,0,c
  2929  0020E8  EF78  F010         	goto	u1551
  2930  0020EC  EF7A  F010         	goto	u1550
  2931  0020F0                     u1551:
  2932  0020F0  EF9D  F010         	goto	l1127
  2933  0020F4                     u1550:
  2934  0020F4                     l2163:
  2935  0020F4  EE20 F003          	lfsr	2,3
  2936  0020F8  5003               	movf	fputc@fp^0,w,c
  2937  0020FA  26D9               	addwf	fsr2l,f,c
  2938  0020FC  5004               	movf	(fputc@fp+1)^0,w,c
  2939  0020FE  22DA               	addwfc	fsr2h,f,c
  2940  002100  CFDE F005          	movff	postinc2,??_fputc
  2941  002104  CFDD F006          	movff	postdec2,??_fputc+1
  2942  002108  C003  FFD9         	movff	fputc@fp,fsr2l
  2943  00210C  C004  FFDA         	movff	fputc@fp+1,fsr2h
  2944  002110  CFDE F007          	movff	postinc2,??_fputc+2
  2945  002114  CFDD F008          	movff	postdec2,??_fputc+3
  2946  002118  5005               	movf	??_fputc^0,w,c
  2947  00211A  2407               	addwf	(??_fputc+2)^0,w,c
  2948  00211C  6ED9               	movwf	fsr2l,c
  2949  00211E  5006               	movf	(??_fputc+1)^0,w,c
  2950  002120  2008               	addwfc	(??_fputc+3)^0,w,c
  2951  002122  6EDA               	movwf	fsr2h,c
  2952  002124  C001  FFDF         	movff	fputc@c,indf2
  2953  002128  EE20 F003          	lfsr	2,3
  2954  00212C  5003               	movf	fputc@fp^0,w,c
  2955  00212E  26D9               	addwf	fsr2l,f,c
  2956  002130  5004               	movf	(fputc@fp+1)^0,w,c
  2957  002132  22DA               	addwfc	fsr2h,f,c
  2958  002134  2ADE               	incf	postinc2,f,c
  2959  002136  0E00               	movlw	0
  2960  002138  22DD               	addwfc	postdec2,f,c
  2961  00213A                     l1127:
  2962  00213A  0012               	return		;funcret
  2963  00213C                     __end_of_fputc:
  2964                           	callstack 0
  2965                           
  2966 ;; *************** function _putch *****************
  2967 ;; Defined at:
  2968 ;;		line 7 in file "C:\Program Files\Microchip\xc8\v2.36\pic\sources\c99\common\putch.c"
  2969 ;; Parameters:    Size  Location     Type
  2970 ;;  c               1    wreg     unsigned char 
  2971 ;; Auto vars:     Size  Location     Type
  2972 ;;  c               1    0[COMRAM] unsigned char 
  2973 ;; Return value:  Size  Location     Type
  2974 ;;                  1    wreg      void 
  2975 ;; Registers used:
  2976 ;;		wreg
  2977 ;; Tracked objects:
  2978 ;;		On entry : 0/0
  2979 ;;		On exit  : 0/0
  2980 ;;		Unchanged: 0/0
  2981 ;; Data sizes:     COMRAM   BANK0   BANK1   BANK2   BANK3   BANK4   BANK5
  2982 ;;      Params:         0       0       0       0       0       0       0
  2983 ;;      Locals:         0       0       0       0       0       0       0
  2984 ;;      Temps:          0       0       0       0       0       0       0
  2985 ;;      Totals:         0       0       0       0       0       0       0
  2986 ;;Total ram usage:        0 bytes
  2987 ;; Hardware stack levels used: 1
  2988 ;; This function calls:
  2989 ;;		Nothing
  2990 ;; This function is called by:
  2991 ;;		_fputc
  2992 ;; This function uses a non-reentrant model
  2993 ;;
  2994                           
  2995                           	psect	text11
  2996  0026F0                     __ptext11:
  2997                           	callstack 0
  2998  0026F0                     _putch:
  2999                           	callstack 25
  3000  0026F0  0012               	return		;funcret
  3001  0026F2                     __end_of_putch:
  3002                           	callstack 0
  3003                           
  3004 ;; *************** function _abs *****************
  3005 ;; Defined at:
  3006 ;;		line 1 in file "C:\Program Files\Microchip\xc8\v2.36\pic\sources\c99\common\abs.c"
  3007 ;; Parameters:    Size  Location     Type
  3008 ;;  a               2   18[COMRAM] int 
  3009 ;; Auto vars:     Size  Location     Type
  3010 ;;		None
  3011 ;; Return value:  Size  Location     Type
  3012 ;;                  2   18[COMRAM] int 
  3013 ;; Registers used:
  3014 ;;		wreg, status,2, status,0
  3015 ;; Tracked objects:
  3016 ;;		On entry : 0/0
  3017 ;;		On exit  : 0/0
  3018 ;;		Unchanged: 0/0
  3019 ;; Data sizes:     COMRAM   BANK0   BANK1   BANK2   BANK3   BANK4   BANK5
  3020 ;;      Params:         2       0       0       0       0       0       0
  3021 ;;      Locals:         0       0       0       0       0       0       0
  3022 ;;      Temps:          2       0       0       0       0       0       0
  3023 ;;      Totals:         4       0       0       0       0       0       0
  3024 ;;Total ram usage:        4 bytes
  3025 ;; Hardware stack levels used: 1
  3026 ;; This function calls:
  3027 ;;		Nothing
  3028 ;; This function is called by:
  3029 ;;		_dtoa
  3030 ;; This function uses a non-reentrant model
  3031 ;;
  3032                           
  3033                           	psect	text12
  3034  00247A                     __ptext12:
  3035                           	callstack 0
  3036  00247A                     _abs:
  3037                           	callstack 26
  3038  00247A  BE14               	btfsc	(abs@a+1)^0,7,c
  3039  00247C  EF4A  F012         	goto	u1760
  3040  002480  5014               	movf	(abs@a+1)^0,w,c
  3041  002482  E106               	bnz	u1761
  3042  002484  0413               	decf	abs@a^0,w,c
  3043  002486  B0D8               	btfsc	status,0,c
  3044  002488  EF48  F012         	goto	u1761
  3045  00248C  EF4A  F012         	goto	u1760
  3046  002490                     u1761:
  3047  002490  EF58  F012         	goto	l1073
  3048  002494                     u1760:
  3049  002494  C013  F015         	movff	abs@a,??_abs
  3050  002498  C014  F016         	movff	abs@a+1,??_abs+1
  3051  00249C  1E15               	comf	??_abs^0,f,c
  3052  00249E  1E16               	comf	(??_abs+1)^0,f,c
  3053  0024A0  4A15               	infsnz	??_abs^0,f,c
  3054  0024A2  2A16               	incf	(??_abs+1)^0,f,c
  3055  0024A4  C015  F013         	movff	??_abs,?_abs
  3056  0024A8  C016  F014         	movff	??_abs+1,?_abs+1
  3057  0024AC  EF5C  F012         	goto	l1076
  3058  0024B0                     l1073:
  3059  0024B0  C013  F013         	movff	abs@a,?_abs
  3060  0024B4  C014  F014         	movff	abs@a+1,?_abs+1
  3061  0024B8                     l1076:
  3062  0024B8  0012               	return		;funcret
  3063  0024BA                     __end_of_abs:
  3064                           	callstack 0
  3065                           
  3066 ;; *************** function ___aomod *****************
  3067 ;; Defined at:
  3068 ;;		line 9 in file "C:\Program Files\Microchip\xc8\v2.36\pic\sources\c99\common\aomod.c"
  3069 ;; Parameters:    Size  Location     Type
  3070 ;;  dividend        8    0[COMRAM] long long 
  3071 ;;  divisor         8    8[COMRAM] long long 
  3072 ;; Auto vars:     Size  Location     Type
  3073 ;;  sign            1   17[COMRAM] unsigned char 
  3074 ;;  counter         1   16[COMRAM] unsigned char 
  3075 ;; Return value:  Size  Location     Type
  3076 ;;                  8    0[COMRAM] long long 
  3077 ;; Registers used:
  3078 ;;		wreg, status,2, status,0
  3079 ;; Tracked objects:
  3080 ;;		On entry : 0/0
  3081 ;;		On exit  : 0/0
  3082 ;;		Unchanged: 0/0
  3083 ;; Data sizes:     COMRAM   BANK0   BANK1   BANK2   BANK3   BANK4   BANK5
  3084 ;;      Params:        16       0       0       0       0       0       0
  3085 ;;      Locals:         2       0       0       0       0       0       0
  3086 ;;      Temps:          0       0       0       0       0       0       0
  3087 ;;      Totals:        18       0       0       0       0       0       0
  3088 ;;Total ram usage:       18 bytes
  3089 ;; Hardware stack levels used: 1
  3090 ;; This function calls:
  3091 ;;		Nothing
  3092 ;; This function is called by:
  3093 ;;		_dtoa
  3094 ;; This function uses a non-reentrant model
  3095 ;;
  3096                           
  3097                           	psect	text13
  3098  001AC8                     __ptext13:
  3099                           	callstack 0
  3100  001AC8                     ___aomod:
  3101                           	callstack 26
  3102  001AC8  0E00               	movlw	0
  3103  001ACA  6E12               	movwf	___aomod@sign^0,c
  3104  001ACC  BE08               	btfsc	(___aomod@dividend+7)^0,7,c
  3105  001ACE  EF6D  F00D         	goto	u1660
  3106  001AD2  EF6B  F00D         	goto	u1661
  3107  001AD6                     u1661:
  3108  001AD6  EF7F  F00D         	goto	l2243
  3109  001ADA                     u1660:
  3110  001ADA  1E08               	comf	(___aomod@dividend+7)^0,f,c
  3111  001ADC  1E07               	comf	(___aomod@dividend+6)^0,f,c
  3112  001ADE  1E06               	comf	(___aomod@dividend+5)^0,f,c
  3113  001AE0  1E05               	comf	(___aomod@dividend+4)^0,f,c
  3114  001AE2  1E04               	comf	(___aomod@dividend+3)^0,f,c
  3115  001AE4  1E03               	comf	(___aomod@dividend+2)^0,f,c
  3116  001AE6  1E02               	comf	(___aomod@dividend+1)^0,f,c
  3117  001AE8  6C01               	negf	___aomod@dividend^0,c
  3118  001AEA  0E00               	movlw	0
  3119  001AEC  2202               	addwfc	(___aomod@dividend+1)^0,f,c
  3120  001AEE  2203               	addwfc	(___aomod@dividend+2)^0,f,c
  3121  001AF0  2204               	addwfc	(___aomod@dividend+3)^0,f,c
  3122  001AF2  2205               	addwfc	(___aomod@dividend+4)^0,f,c
  3123  001AF4  2206               	addwfc	(___aomod@dividend+5)^0,f,c
  3124  001AF6  2207               	addwfc	(___aomod@dividend+6)^0,f,c
  3125  001AF8  2208               	addwfc	(___aomod@dividend+7)^0,f,c
  3126  001AFA  0E01               	movlw	1
  3127  001AFC  6E12               	movwf	___aomod@sign^0,c
  3128  001AFE                     l2243:
  3129  001AFE  BE10               	btfsc	(___aomod@divisor+7)^0,7,c
  3130  001B00  EF86  F00D         	goto	u1670
  3131  001B04  EF84  F00D         	goto	u1671
  3132  001B08                     u1671:
  3133  001B08  EF96  F00D         	goto	l2247
  3134  001B0C                     u1670:
  3135  001B0C  1E10               	comf	(___aomod@divisor+7)^0,f,c
  3136  001B0E  1E0F               	comf	(___aomod@divisor+6)^0,f,c
  3137  001B10  1E0E               	comf	(___aomod@divisor+5)^0,f,c
  3138  001B12  1E0D               	comf	(___aomod@divisor+4)^0,f,c
  3139  001B14  1E0C               	comf	(___aomod@divisor+3)^0,f,c
  3140  001B16  1E0B               	comf	(___aomod@divisor+2)^0,f,c
  3141  001B18  1E0A               	comf	(___aomod@divisor+1)^0,f,c
  3142  001B1A  6C09               	negf	___aomod@divisor^0,c
  3143  001B1C  0E00               	movlw	0
  3144  001B1E  220A               	addwfc	(___aomod@divisor+1)^0,f,c
  3145  001B20  220B               	addwfc	(___aomod@divisor+2)^0,f,c
  3146  001B22  220C               	addwfc	(___aomod@divisor+3)^0,f,c
  3147  001B24  220D               	addwfc	(___aomod@divisor+4)^0,f,c
  3148  001B26  220E               	addwfc	(___aomod@divisor+5)^0,f,c
  3149  001B28  220F               	addwfc	(___aomod@divisor+6)^0,f,c
  3150  001B2A  2210               	addwfc	(___aomod@divisor+7)^0,f,c
  3151  001B2C                     l2247:
  3152  001B2C  5009               	movf	___aomod@divisor^0,w,c
  3153  001B2E  100A               	iorwf	(___aomod@divisor+1)^0,w,c
  3154  001B30  100B               	iorwf	(___aomod@divisor+2)^0,w,c
  3155  001B32  100C               	iorwf	(___aomod@divisor+3)^0,w,c
  3156  001B34  100D               	iorwf	(___aomod@divisor+4)^0,w,c
  3157  001B36  100E               	iorwf	(___aomod@divisor+5)^0,w,c
  3158  001B38  100F               	iorwf	(___aomod@divisor+6)^0,w,c
  3159  001B3A  1010               	iorwf	(___aomod@divisor+7)^0,w,c
  3160  001B3C  B4D8               	btfsc	status,2,c
  3161  001B3E  EFA3  F00D         	goto	u1681
  3162  001B42  EFA5  F00D         	goto	u1680
  3163  001B46                     u1681:
  3164  001B46  EFED  F00D         	goto	l2263
  3165  001B4A                     u1680:
  3166  001B4A  0E01               	movlw	1
  3167  001B4C  6E11               	movwf	___aomod@counter^0,c
  3168  001B4E  EFB3  F00D         	goto	l2253
  3169  001B52                     l2251:
  3170  001B52  90D8               	bcf	status,0,c
  3171  001B54  3609               	rlcf	___aomod@divisor^0,f,c
  3172  001B56  360A               	rlcf	(___aomod@divisor+1)^0,f,c
  3173  001B58  360B               	rlcf	(___aomod@divisor+2)^0,f,c
  3174  001B5A  360C               	rlcf	(___aomod@divisor+3)^0,f,c
  3175  001B5C  360D               	rlcf	(___aomod@divisor+4)^0,f,c
  3176  001B5E  360E               	rlcf	(___aomod@divisor+5)^0,f,c
  3177  001B60  360F               	rlcf	(___aomod@divisor+6)^0,f,c
  3178  001B62  3610               	rlcf	(___aomod@divisor+7)^0,f,c
  3179  001B64  2A11               	incf	___aomod@counter^0,f,c
  3180  001B66                     l2253:
  3181  001B66  AE10               	btfss	(___aomod@divisor+7)^0,7,c
  3182  001B68  EFB8  F00D         	goto	u1691
  3183  001B6C  EFBA  F00D         	goto	u1690
  3184  001B70                     u1691:
  3185  001B70  EFA9  F00D         	goto	l2251
  3186  001B74                     u1690:
  3187  001B74                     l2255:
  3188  001B74  5009               	movf	___aomod@divisor^0,w,c
  3189  001B76  5C01               	subwf	___aomod@dividend^0,w,c
  3190  001B78  500A               	movf	(___aomod@divisor+1)^0,w,c
  3191  001B7A  5802               	subwfb	(___aomod@dividend+1)^0,w,c
  3192  001B7C  500B               	movf	(___aomod@divisor+2)^0,w,c
  3193  001B7E  5803               	subwfb	(___aomod@dividend+2)^0,w,c
  3194  001B80  500C               	movf	(___aomod@divisor+3)^0,w,c
  3195  001B82  5804               	subwfb	(___aomod@dividend+3)^0,w,c
  3196  001B84  500D               	movf	(___aomod@divisor+4)^0,w,c
  3197  001B86  5805               	subwfb	(___aomod@dividend+4)^0,w,c
  3198  001B88  500E               	movf	(___aomod@divisor+5)^0,w,c
  3199  001B8A  5806               	subwfb	(___aomod@dividend+5)^0,w,c
  3200  001B8C  500F               	movf	(___aomod@divisor+6)^0,w,c
  3201  001B8E  5807               	subwfb	(___aomod@dividend+6)^0,w,c
  3202  001B90  5010               	movf	(___aomod@divisor+7)^0,w,c
  3203  001B92  5808               	subwfb	(___aomod@dividend+7)^0,w,c
  3204  001B94  A0D8               	btfss	status,0,c
  3205  001B96  EFCF  F00D         	goto	u1701
  3206  001B9A  EFD1  F00D         	goto	u1700
  3207  001B9E                     u1701:
  3208  001B9E  EFE1  F00D         	goto	l2259
  3209  001BA2                     u1700:
  3210  001BA2  5009               	movf	___aomod@divisor^0,w,c
  3211  001BA4  5E01               	subwf	___aomod@dividend^0,f,c
  3212  001BA6  500A               	movf	(___aomod@divisor+1)^0,w,c
  3213  001BA8  5A02               	subwfb	(___aomod@dividend+1)^0,f,c
  3214  001BAA  500B               	movf	(___aomod@divisor+2)^0,w,c
  3215  001BAC  5A03               	subwfb	(___aomod@dividend+2)^0,f,c
  3216  001BAE  500C               	movf	(___aomod@divisor+3)^0,w,c
  3217  001BB0  5A04               	subwfb	(___aomod@dividend+3)^0,f,c
  3218  001BB2  500D               	movf	(___aomod@divisor+4)^0,w,c
  3219  001BB4  5A05               	subwfb	(___aomod@dividend+4)^0,f,c
  3220  001BB6  500E               	movf	(___aomod@divisor+5)^0,w,c
  3221  001BB8  5A06               	subwfb	(___aomod@dividend+5)^0,f,c
  3222  001BBA  500F               	movf	(___aomod@divisor+6)^0,w,c
  3223  001BBC  5A07               	subwfb	(___aomod@dividend+6)^0,f,c
  3224  001BBE  5010               	movf	(___aomod@divisor+7)^0,w,c
  3225  001BC0  5A08               	subwfb	(___aomod@dividend+7)^0,f,c
  3226  001BC2                     l2259:
  3227  001BC2  90D8               	bcf	status,0,c
  3228  001BC4  3210               	rrcf	(___aomod@divisor+7)^0,f,c
  3229  001BC6  320F               	rrcf	(___aomod@divisor+6)^0,f,c
  3230  001BC8  320E               	rrcf	(___aomod@divisor+5)^0,f,c
  3231  001BCA  320D               	rrcf	(___aomod@divisor+4)^0,f,c
  3232  001BCC  320C               	rrcf	(___aomod@divisor+3)^0,f,c
  3233  001BCE  320B               	rrcf	(___aomod@divisor+2)^0,f,c
  3234  001BD0  320A               	rrcf	(___aomod@divisor+1)^0,f,c
  3235  001BD2  3209               	rrcf	___aomod@divisor^0,f,c
  3236  001BD4  2E11               	decfsz	___aomod@counter^0,f,c
  3237  001BD6  EFBA  F00D         	goto	l2255
  3238  001BDA                     l2263:
  3239  001BDA  5012               	movf	___aomod@sign^0,w,c
  3240  001BDC  B4D8               	btfsc	status,2,c
  3241  001BDE  EFF3  F00D         	goto	u1711
  3242  001BE2  EFF5  F00D         	goto	u1710
  3243  001BE6                     u1711:
  3244  001BE6  EF05  F00E         	goto	l2267
  3245  001BEA                     u1710:
  3246  001BEA  1E08               	comf	(___aomod@dividend+7)^0,f,c
  3247  001BEC  1E07               	comf	(___aomod@dividend+6)^0,f,c
  3248  001BEE  1E06               	comf	(___aomod@dividend+5)^0,f,c
  3249  001BF0  1E05               	comf	(___aomod@dividend+4)^0,f,c
  3250  001BF2  1E04               	comf	(___aomod@dividend+3)^0,f,c
  3251  001BF4  1E03               	comf	(___aomod@dividend+2)^0,f,c
  3252  001BF6  1E02               	comf	(___aomod@dividend+1)^0,f,c
  3253  001BF8  6C01               	negf	___aomod@dividend^0,c
  3254  001BFA  0E00               	movlw	0
  3255  001BFC  2202               	addwfc	(___aomod@dividend+1)^0,f,c
  3256  001BFE  2203               	addwfc	(___aomod@dividend+2)^0,f,c
  3257  001C00  2204               	addwfc	(___aomod@dividend+3)^0,f,c
  3258  001C02  2205               	addwfc	(___aomod@dividend+4)^0,f,c
  3259  001C04  2206               	addwfc	(___aomod@dividend+5)^0,f,c
  3260  001C06  2207               	addwfc	(___aomod@dividend+6)^0,f,c
  3261  001C08  2208               	addwfc	(___aomod@dividend+7)^0,f,c
  3262  001C0A                     l2267:
  3263  001C0A  C001  F001         	movff	___aomod@dividend,?___aomod
  3264  001C0E  C002  F002         	movff	___aomod@dividend+1,?___aomod+1
  3265  001C12  C003  F003         	movff	___aomod@dividend+2,?___aomod+2
  3266  001C16  C004  F004         	movff	___aomod@dividend+3,?___aomod+3
  3267  001C1A  C005  F005         	movff	___aomod@dividend+4,?___aomod+4
  3268  001C1E  C006  F006         	movff	___aomod@dividend+5,?___aomod+5
  3269  001C22  C007  F007         	movff	___aomod@dividend+6,?___aomod+6
  3270  001C26  C008  F008         	movff	___aomod@dividend+7,?___aomod+7
  3271  001C2A  0012               	return		;funcret
  3272  001C2C                     __end_of___aomod:
  3273                           	callstack 0
  3274                           
  3275 ;; *************** function ___aodiv *****************
  3276 ;; Defined at:
  3277 ;;		line 9 in file "C:\Program Files\Microchip\xc8\v2.36\pic\sources\c99\common\aodiv.c"
  3278 ;; Parameters:    Size  Location     Type
  3279 ;;  dividend        8    0[COMRAM] long long 
  3280 ;;  divisor         8    8[COMRAM] long long 
  3281 ;; Auto vars:     Size  Location     Type
  3282 ;;  quotient        8   18[COMRAM] long long 
  3283 ;;  sign            1   17[COMRAM] unsigned char 
  3284 ;;  counter         1   16[COMRAM] unsigned char 
  3285 ;; Return value:  Size  Location     Type
  3286 ;;                  8    0[COMRAM] long long 
  3287 ;; Registers used:
  3288 ;;		wreg, fsr2l, fsr2h, status,2, status,0
  3289 ;; Tracked objects:
  3290 ;;		On entry : 0/0
  3291 ;;		On exit  : 0/0
  3292 ;;		Unchanged: 0/0
  3293 ;; Data sizes:     COMRAM   BANK0   BANK1   BANK2   BANK3   BANK4   BANK5
  3294 ;;      Params:        16       0       0       0       0       0       0
  3295 ;;      Locals:        10       0       0       0       0       0       0
  3296 ;;      Temps:          0       0       0       0       0       0       0
  3297 ;;      Totals:        26       0       0       0       0       0       0
  3298 ;;Total ram usage:       26 bytes
  3299 ;; Hardware stack levels used: 1
  3300 ;; This function calls:
  3301 ;;		Nothing
  3302 ;; This function is called by:
  3303 ;;		_dtoa
  3304 ;; This function uses a non-reentrant model
  3305 ;;
  3306                           
  3307                           	psect	text14
  3308  001940                     __ptext14:
  3309                           	callstack 0
  3310  001940                     ___aodiv:
  3311                           	callstack 26
  3312  001940  0E00               	movlw	0
  3313  001942  6E12               	movwf	___aodiv@sign^0,c
  3314  001944  BE10               	btfsc	(___aodiv@divisor+7)^0,7,c
  3315  001946  EFA9  F00C         	goto	u1590
  3316  00194A  EFA7  F00C         	goto	u1591
  3317  00194E                     u1591:
  3318  00194E  EFBB  F00C         	goto	l2199
  3319  001952                     u1590:
  3320  001952  1E10               	comf	(___aodiv@divisor+7)^0,f,c
  3321  001954  1E0F               	comf	(___aodiv@divisor+6)^0,f,c
  3322  001956  1E0E               	comf	(___aodiv@divisor+5)^0,f,c
  3323  001958  1E0D               	comf	(___aodiv@divisor+4)^0,f,c
  3324  00195A  1E0C               	comf	(___aodiv@divisor+3)^0,f,c
  3325  00195C  1E0B               	comf	(___aodiv@divisor+2)^0,f,c
  3326  00195E  1E0A               	comf	(___aodiv@divisor+1)^0,f,c
  3327  001960  6C09               	negf	___aodiv@divisor^0,c
  3328  001962  0E00               	movlw	0
  3329  001964  220A               	addwfc	(___aodiv@divisor+1)^0,f,c
  3330  001966  220B               	addwfc	(___aodiv@divisor+2)^0,f,c
  3331  001968  220C               	addwfc	(___aodiv@divisor+3)^0,f,c
  3332  00196A  220D               	addwfc	(___aodiv@divisor+4)^0,f,c
  3333  00196C  220E               	addwfc	(___aodiv@divisor+5)^0,f,c
  3334  00196E  220F               	addwfc	(___aodiv@divisor+6)^0,f,c
  3335  001970  2210               	addwfc	(___aodiv@divisor+7)^0,f,c
  3336  001972  0E01               	movlw	1
  3337  001974  6E12               	movwf	___aodiv@sign^0,c
  3338  001976                     l2199:
  3339  001976  BE08               	btfsc	(___aodiv@dividend+7)^0,7,c
  3340  001978  EFC2  F00C         	goto	u1600
  3341  00197C  EFC0  F00C         	goto	u1601
  3342  001980                     u1601:
  3343  001980  EFD4  F00C         	goto	l2205
  3344  001984                     u1600:
  3345  001984  1E08               	comf	(___aodiv@dividend+7)^0,f,c
  3346  001986  1E07               	comf	(___aodiv@dividend+6)^0,f,c
  3347  001988  1E06               	comf	(___aodiv@dividend+5)^0,f,c
  3348  00198A  1E05               	comf	(___aodiv@dividend+4)^0,f,c
  3349  00198C  1E04               	comf	(___aodiv@dividend+3)^0,f,c
  3350  00198E  1E03               	comf	(___aodiv@dividend+2)^0,f,c
  3351  001990  1E02               	comf	(___aodiv@dividend+1)^0,f,c
  3352  001992  6C01               	negf	___aodiv@dividend^0,c
  3353  001994  0E00               	movlw	0
  3354  001996  2202               	addwfc	(___aodiv@dividend+1)^0,f,c
  3355  001998  2203               	addwfc	(___aodiv@dividend+2)^0,f,c
  3356  00199A  2204               	addwfc	(___aodiv@dividend+3)^0,f,c
  3357  00199C  2205               	addwfc	(___aodiv@dividend+4)^0,f,c
  3358  00199E  2206               	addwfc	(___aodiv@dividend+5)^0,f,c
  3359  0019A0  2207               	addwfc	(___aodiv@dividend+6)^0,f,c
  3360  0019A2  2208               	addwfc	(___aodiv@dividend+7)^0,f,c
  3361  0019A4  0E01               	movlw	1
  3362  0019A6  1A12               	xorwf	___aodiv@sign^0,f,c
  3363  0019A8                     l2205:
  3364  0019A8  EE20  F013         	lfsr	2,___aodiv@quotient
  3365  0019AC  0E07               	movlw	7
  3366  0019AE                     u1611:
  3367  0019AE  6ADE               	clrf	postinc2,c
  3368  0019B0  06E8               	decf	wreg,f,c
  3369  0019B2  E2FD               	bc	u1611
  3370  0019B4  5009               	movf	___aodiv@divisor^0,w,c
  3371  0019B6  100A               	iorwf	(___aodiv@divisor+1)^0,w,c
  3372  0019B8  100B               	iorwf	(___aodiv@divisor+2)^0,w,c
  3373  0019BA  100C               	iorwf	(___aodiv@divisor+3)^0,w,c
  3374  0019BC  100D               	iorwf	(___aodiv@divisor+4)^0,w,c
  3375  0019BE  100E               	iorwf	(___aodiv@divisor+5)^0,w,c
  3376  0019C0  100F               	iorwf	(___aodiv@divisor+6)^0,w,c
  3377  0019C2  1010               	iorwf	(___aodiv@divisor+7)^0,w,c
  3378  0019C4  B4D8               	btfsc	status,2,c
  3379  0019C6  EFE7  F00C         	goto	u1621
  3380  0019CA  EFE9  F00C         	goto	u1620
  3381  0019CE                     u1621:
  3382  0019CE  EF3B  F00D         	goto	l2227
  3383  0019D2                     u1620:
  3384  0019D2  0E01               	movlw	1
  3385  0019D4  6E11               	movwf	___aodiv@counter^0,c
  3386  0019D6  EFF7  F00C         	goto	l2213
  3387  0019DA                     l2211:
  3388  0019DA  90D8               	bcf	status,0,c
  3389  0019DC  3609               	rlcf	___aodiv@divisor^0,f,c
  3390  0019DE  360A               	rlcf	(___aodiv@divisor+1)^0,f,c
  3391  0019E0  360B               	rlcf	(___aodiv@divisor+2)^0,f,c
  3392  0019E2  360C               	rlcf	(___aodiv@divisor+3)^0,f,c
  3393  0019E4  360D               	rlcf	(___aodiv@divisor+4)^0,f,c
  3394  0019E6  360E               	rlcf	(___aodiv@divisor+5)^0,f,c
  3395  0019E8  360F               	rlcf	(___aodiv@divisor+6)^0,f,c
  3396  0019EA  3610               	rlcf	(___aodiv@divisor+7)^0,f,c
  3397  0019EC  2A11               	incf	___aodiv@counter^0,f,c
  3398  0019EE                     l2213:
  3399  0019EE  AE10               	btfss	(___aodiv@divisor+7)^0,7,c
  3400  0019F0  EFFC  F00C         	goto	u1631
  3401  0019F4  EFFE  F00C         	goto	u1630
  3402  0019F8                     u1631:
  3403  0019F8  EFED  F00C         	goto	l2211
  3404  0019FC                     u1630:
  3405  0019FC                     l2215:
  3406  0019FC  90D8               	bcf	status,0,c
  3407  0019FE  3613               	rlcf	___aodiv@quotient^0,f,c
  3408  001A00  3614               	rlcf	(___aodiv@quotient+1)^0,f,c
  3409  001A02  3615               	rlcf	(___aodiv@quotient+2)^0,f,c
  3410  001A04  3616               	rlcf	(___aodiv@quotient+3)^0,f,c
  3411  001A06  3617               	rlcf	(___aodiv@quotient+4)^0,f,c
  3412  001A08  3618               	rlcf	(___aodiv@quotient+5)^0,f,c
  3413  001A0A  3619               	rlcf	(___aodiv@quotient+6)^0,f,c
  3414  001A0C  361A               	rlcf	(___aodiv@quotient+7)^0,f,c
  3415  001A0E  5009               	movf	___aodiv@divisor^0,w,c
  3416  001A10  5C01               	subwf	___aodiv@dividend^0,w,c
  3417  001A12  500A               	movf	(___aodiv@divisor+1)^0,w,c
  3418  001A14  5802               	subwfb	(___aodiv@dividend+1)^0,w,c
  3419  001A16  500B               	movf	(___aodiv@divisor+2)^0,w,c
  3420  001A18  5803               	subwfb	(___aodiv@dividend+2)^0,w,c
  3421  001A1A  500C               	movf	(___aodiv@divisor+3)^0,w,c
  3422  001A1C  5804               	subwfb	(___aodiv@dividend+3)^0,w,c
  3423  001A1E  500D               	movf	(___aodiv@divisor+4)^0,w,c
  3424  001A20  5805               	subwfb	(___aodiv@dividend+4)^0,w,c
  3425  001A22  500E               	movf	(___aodiv@divisor+5)^0,w,c
  3426  001A24  5806               	subwfb	(___aodiv@dividend+5)^0,w,c
  3427  001A26  500F               	movf	(___aodiv@divisor+6)^0,w,c
  3428  001A28  5807               	subwfb	(___aodiv@dividend+6)^0,w,c
  3429  001A2A  5010               	movf	(___aodiv@divisor+7)^0,w,c
  3430  001A2C  5808               	subwfb	(___aodiv@dividend+7)^0,w,c
  3431  001A2E  A0D8               	btfss	status,0,c
  3432  001A30  EF1C  F00D         	goto	u1641
  3433  001A34  EF1E  F00D         	goto	u1640
  3434  001A38                     u1641:
  3435  001A38  EF2F  F00D         	goto	l2223
  3436  001A3C                     u1640:
  3437  001A3C  5009               	movf	___aodiv@divisor^0,w,c
  3438  001A3E  5E01               	subwf	___aodiv@dividend^0,f,c
  3439  001A40  500A               	movf	(___aodiv@divisor+1)^0,w,c
  3440  001A42  5A02               	subwfb	(___aodiv@dividend+1)^0,f,c
  3441  001A44  500B               	movf	(___aodiv@divisor+2)^0,w,c
  3442  001A46  5A03               	subwfb	(___aodiv@dividend+2)^0,f,c
  3443  001A48  500C               	movf	(___aodiv@divisor+3)^0,w,c
  3444  001A4A  5A04               	subwfb	(___aodiv@dividend+3)^0,f,c
  3445  001A4C  500D               	movf	(___aodiv@divisor+4)^0,w,c
  3446  001A4E  5A05               	subwfb	(___aodiv@dividend+4)^0,f,c
  3447  001A50  500E               	movf	(___aodiv@divisor+5)^0,w,c
  3448  001A52  5A06               	subwfb	(___aodiv@dividend+5)^0,f,c
  3449  001A54  500F               	movf	(___aodiv@divisor+6)^0,w,c
  3450  001A56  5A07               	subwfb	(___aodiv@dividend+6)^0,f,c
  3451  001A58  5010               	movf	(___aodiv@divisor+7)^0,w,c
  3452  001A5A  5A08               	subwfb	(___aodiv@dividend+7)^0,f,c
  3453  001A5C  8013               	bsf	___aodiv@quotient^0,0,c
  3454  001A5E                     l2223:
  3455  001A5E  90D8               	bcf	status,0,c
  3456  001A60  3210               	rrcf	(___aodiv@divisor+7)^0,f,c
  3457  001A62  320F               	rrcf	(___aodiv@divisor+6)^0,f,c
  3458  001A64  320E               	rrcf	(___aodiv@divisor+5)^0,f,c
  3459  001A66  320D               	rrcf	(___aodiv@divisor+4)^0,f,c
  3460  001A68  320C               	rrcf	(___aodiv@divisor+3)^0,f,c
  3461  001A6A  320B               	rrcf	(___aodiv@divisor+2)^0,f,c
  3462  001A6C  320A               	rrcf	(___aodiv@divisor+1)^0,f,c
  3463  001A6E  3209               	rrcf	___aodiv@divisor^0,f,c
  3464  001A70  2E11               	decfsz	___aodiv@counter^0,f,c
  3465  001A72  EFFE  F00C         	goto	l2215
  3466  001A76                     l2227:
  3467  001A76  5012               	movf	___aodiv@sign^0,w,c
  3468  001A78  B4D8               	btfsc	status,2,c
  3469  001A7A  EF41  F00D         	goto	u1651
  3470  001A7E  EF43  F00D         	goto	u1650
  3471  001A82                     u1651:
  3472  001A82  EF53  F00D         	goto	l2231
  3473  001A86                     u1650:
  3474  001A86  1E1A               	comf	(___aodiv@quotient+7)^0,f,c
  3475  001A88  1E19               	comf	(___aodiv@quotient+6)^0,f,c
  3476  001A8A  1E18               	comf	(___aodiv@quotient+5)^0,f,c
  3477  001A8C  1E17               	comf	(___aodiv@quotient+4)^0,f,c
  3478  001A8E  1E16               	comf	(___aodiv@quotient+3)^0,f,c
  3479  001A90  1E15               	comf	(___aodiv@quotient+2)^0,f,c
  3480  001A92  1E14               	comf	(___aodiv@quotient+1)^0,f,c
  3481  001A94  6C13               	negf	___aodiv@quotient^0,c
  3482  001A96  0E00               	movlw	0
  3483  001A98  2214               	addwfc	(___aodiv@quotient+1)^0,f,c
  3484  001A9A  2215               	addwfc	(___aodiv@quotient+2)^0,f,c
  3485  001A9C  2216               	addwfc	(___aodiv@quotient+3)^0,f,c
  3486  001A9E  2217               	addwfc	(___aodiv@quotient+4)^0,f,c
  3487  001AA0  2218               	addwfc	(___aodiv@quotient+5)^0,f,c
  3488  001AA2  2219               	addwfc	(___aodiv@quotient+6)^0,f,c
  3489  001AA4  221A               	addwfc	(___aodiv@quotient+7)^0,f,c
  3490  001AA6                     l2231:
  3491  001AA6  C013  F001         	movff	___aodiv@quotient,?___aodiv
  3492  001AAA  C014  F002         	movff	___aodiv@quotient+1,?___aodiv+1
  3493  001AAE  C015  F003         	movff	___aodiv@quotient+2,?___aodiv+2
  3494  001AB2  C016  F004         	movff	___aodiv@quotient+3,?___aodiv+3
  3495  001AB6  C017  F005         	movff	___aodiv@quotient+4,?___aodiv+4
  3496  001ABA  C018  F006         	movff	___aodiv@quotient+5,?___aodiv+5
  3497  001ABE  C019  F007         	movff	___aodiv@quotient+6,?___aodiv+6
  3498  001AC2  C01A  F008         	movff	___aodiv@quotient+7,?___aodiv+7
  3499  001AC6  0012               	return		;funcret
  3500  001AC8                     __end_of___aodiv:
  3501                           	callstack 0
  3502                           
  3503 ;; *************** function _atoi *****************
  3504 ;; Defined at:
  3505 ;;		line 4 in file "C:\Program Files\Microchip\xc8\v2.36\pic\sources\c99\common\atoi.c"
  3506 ;; Parameters:    Size  Location     Type
  3507 ;;  s               2    7[COMRAM] PTR const unsigned char 
  3508 ;;		 -> STR_1(10), 
  3509 ;; Auto vars:     Size  Location     Type
  3510 ;;  n               2   15[COMRAM] int 
  3511 ;;  neg             2   13[COMRAM] int 
  3512 ;; Return value:  Size  Location     Type
  3513 ;;                  2    7[COMRAM] int 
  3514 ;; Registers used:
  3515 ;;		wreg, status,2, status,0, tblptrl, tblptrh, tblptru, prodl, prodh, cstack
  3516 ;; Tracked objects:
  3517 ;;		On entry : 0/0
  3518 ;;		On exit  : 0/0
  3519 ;;		Unchanged: 0/0
  3520 ;; Data sizes:     COMRAM   BANK0   BANK1   BANK2   BANK3   BANK4   BANK5
  3521 ;;      Params:         2       0       0       0       0       0       0
  3522 ;;      Locals:         4       0       0       0       0       0       0
  3523 ;;      Temps:          4       0       0       0       0       0       0
  3524 ;;      Totals:        10       0       0       0       0       0       0
  3525 ;;Total ram usage:       10 bytes
  3526 ;; Hardware stack levels used: 1
  3527 ;; Hardware stack levels required when called: 1
  3528 ;; This function calls:
  3529 ;;		___wmul
  3530 ;;		_isdigit
  3531 ;;		_isspace
  3532 ;; This function is called by:
  3533 ;;		_vfpfcnvrt
  3534 ;; This function uses a non-reentrant model
  3535 ;;
  3536                           
  3537                           	psect	text15
  3538  001C2C                     __ptext15:
  3539                           	callstack 0
  3540  001C2C                     _atoi:
  3541                           	callstack 26
  3542  001C2C  0E00               	movlw	0
  3543  001C2E  6E11               	movwf	(atoi@n+1)^0,c
  3544  001C30  0E00               	movlw	0
  3545  001C32  6E10               	movwf	atoi@n^0,c
  3546  001C34  0E00               	movlw	0
  3547  001C36  6E0F               	movwf	(atoi@neg+1)^0,c
  3548  001C38  0E00               	movlw	0
  3549  001C3A  6E0E               	movwf	atoi@neg^0,c
  3550  001C3C  EF22  F00E         	goto	l2423
  3551  001C40                     l2419:
  3552  001C40  4A08               	infsnz	atoi@s^0,f,c
  3553  001C42  2A09               	incf	(atoi@s+1)^0,f,c
  3554  001C44                     l2423:
  3555  001C44  C008  FFF6         	movff	atoi@s,tblptrl
  3556  001C48  C009  FFF7         	movff	atoi@s+1,tblptrh
  3557  001C4C                     	if	0	;tblptru may be non-zero
  3558  001C4C                     	endif
  3559  001C4C                     	if	0	;tblptru may be non-zero
  3560  001C4C                     	endif
  3561  001C4C  0008               	tblrd		*
  3562  001C4E  50F5               	movf	tablat,w,c
  3563  001C50  0A20               	xorlw	32
  3564  001C52  B4D8               	btfsc	status,2,c
  3565  001C54  EF2E  F00E         	goto	u2061
  3566  001C58  EF30  F00E         	goto	u2060
  3567  001C5C                     u2061:
  3568  001C5C  EF20  F00E         	goto	l2419
  3569  001C60                     u2060:
  3570  001C60  0EF7               	movlw	247
  3571  001C62  6E0A               	movwf	??_atoi^0,c
  3572  001C64  0EFF               	movlw	255
  3573  001C66  6E0B               	movwf	(??_atoi+1)^0,c
  3574  001C68  C008  FFF6         	movff	atoi@s,tblptrl
  3575  001C6C  C009  FFF7         	movff	atoi@s+1,tblptrh
  3576  001C70                     	if	0	;tblptru may be non-zero
  3577  001C70                     	endif
  3578  001C70                     	if	0	;tblptru may be non-zero
  3579  001C70                     	endif
  3580  001C70  0008               	tblrd		*
  3581  001C72  50F5               	movf	tablat,w,c
  3582  001C74  6E0C               	movwf	(??_atoi+2)^0,c
  3583  001C76  6A0D               	clrf	(??_atoi+3)^0,c
  3584  001C78  500A               	movf	??_atoi^0,w,c
  3585  001C7A  260C               	addwf	(??_atoi+2)^0,f,c
  3586  001C7C  500B               	movf	(??_atoi+1)^0,w,c
  3587  001C7E  220D               	addwfc	(??_atoi+3)^0,f,c
  3588  001C80  500D               	movf	(??_atoi+3)^0,w,c
  3589  001C82  E109               	bnz	u2070
  3590  001C84  0E05               	movlw	5
  3591  001C86  5C0C               	subwf	(??_atoi+2)^0,w,c
  3592  001C88  A0D8               	btfss	status,0,c
  3593  001C8A  EF49  F00E         	goto	u2071
  3594  001C8E  EF4B  F00E         	goto	u2070
  3595  001C92                     u2071:
  3596  001C92  EF20  F00E         	goto	l2419
  3597  001C96                     u2070:
  3598  001C96  EF55  F00E         	goto	l2431
  3599  001C9A                     l2427:
  3600  001C9A  0E00               	movlw	0
  3601  001C9C  6E0F               	movwf	(atoi@neg+1)^0,c
  3602  001C9E  0E01               	movlw	1
  3603  001CA0  6E0E               	movwf	atoi@neg^0,c
  3604  001CA2                     l2429:
  3605  001CA2  4A08               	infsnz	atoi@s^0,f,c
  3606  001CA4  2A09               	incf	(atoi@s+1)^0,f,c
  3607  001CA6  EF8A  F00E         	goto	l2439
  3608  001CAA                     l2431:
  3609  001CAA  C008  FFF6         	movff	atoi@s,tblptrl
  3610  001CAE  C009  FFF7         	movff	atoi@s+1,tblptrh
  3611  001CB2                     	if	0	;tblptru may be non-zero
  3612  001CB2                     	endif
  3613  001CB2                     	if	0	;tblptru may be non-zero
  3614  001CB2                     	endif
  3615  001CB2  0008               	tblrd		*
  3616  001CB4  50F5               	movf	tablat,w,c
  3617  001CB6  6E0A               	movwf	??_atoi^0,c
  3618  001CB8  6A0B               	clrf	(??_atoi+1)^0,c
  3619                           
  3620                           ; Switch on 2 bytes has been partitioned into a top level switch of size 1, and 1 sub-sw
      +                          itches
  3621                           ; Switch size 1, requested type "simple"
  3622                           ; Number of cases is 1, Range of values is 0 to 0
  3623                           ; switch strategies available:
  3624                           ; Name         Instructions Cycles
  3625                           ; simple_byte            4     3 (average)
  3626                           ;	Chosen strategy is simple_byte
  3627  001CBA  500B               	movf	(??_atoi+1)^0,w,c
  3628  001CBC  0A00               	xorlw	0	; case 0
  3629  001CBE  B4D8               	btfsc	status,2,c
  3630  001CC0  EF64  F00E         	goto	l3101
  3631  001CC4  EF8A  F00E         	goto	l2439
  3632  001CC8                     l3101:
  3633                           
  3634                           ; Switch size 1, requested type "simple"
  3635                           ; Number of cases is 2, Range of values is 43 to 45
  3636                           ; switch strategies available:
  3637                           ; Name         Instructions Cycles
  3638                           ; simple_byte            7     4 (average)
  3639                           ;	Chosen strategy is simple_byte
  3640  001CC8  500A               	movf	??_atoi^0,w,c
  3641  001CCA  0A2B               	xorlw	43	; case 43
  3642  001CCC  B4D8               	btfsc	status,2,c
  3643  001CCE  EF51  F00E         	goto	l2429
  3644  001CD2  0A06               	xorlw	6	; case 45
  3645  001CD4  B4D8               	btfsc	status,2,c
  3646  001CD6  EF4D  F00E         	goto	l2427
  3647  001CDA  EF8A  F00E         	goto	l2439
  3648  001CDE                     l2433:
  3649  001CDE  C010  F001         	movff	atoi@n,___wmul@multiplier
  3650  001CE2  C011  F002         	movff	atoi@n+1,___wmul@multiplier+1
  3651  001CE6  0E00               	movlw	0
  3652  001CE8  6E04               	movwf	(___wmul@multiplicand+1)^0,c
  3653  001CEA  0E0A               	movlw	10
  3654  001CEC  6E03               	movwf	___wmul@multiplicand^0,c
  3655  001CEE  EC1B  F013         	call	___wmul	;wreg free
  3656  001CF2  C008  FFF6         	movff	atoi@s,tblptrl
  3657  001CF6  C009  FFF7         	movff	atoi@s+1,tblptrh
  3658  001CFA                     	if	0	;tblptru may be non-zero
  3659  001CFA                     	endif
  3660  001CFA                     	if	0	;tblptru may be non-zero
  3661  001CFA                     	endif
  3662  001CFA  0008               	tblrd		*
  3663  001CFC  50F5               	movf	tablat,w,c
  3664  001CFE  5E01               	subwf	?___wmul^0,f,c
  3665  001D00  0E00               	movlw	0
  3666  001D02  5A02               	subwfb	(?___wmul+1)^0,f,c
  3667  001D04  0E30               	movlw	48
  3668  001D06  2401               	addwf	?___wmul^0,w,c
  3669  001D08  6E10               	movwf	atoi@n^0,c
  3670  001D0A  0E00               	movlw	0
  3671  001D0C  2002               	addwfc	(?___wmul+1)^0,w,c
  3672  001D0E  6E11               	movwf	(atoi@n+1)^0,c
  3673  001D10  EF51  F00E         	goto	l2429
  3674  001D14                     l2439:
  3675  001D14  0ED0               	movlw	208
  3676  001D16  6E0A               	movwf	??_atoi^0,c
  3677  001D18  0EFF               	movlw	255
  3678  001D1A  6E0B               	movwf	(??_atoi+1)^0,c
  3679  001D1C  C008  FFF6         	movff	atoi@s,tblptrl
  3680  001D20  C009  FFF7         	movff	atoi@s+1,tblptrh
  3681  001D24                     	if	0	;tblptru may be non-zero
  3682  001D24                     	endif
  3683  001D24                     	if	0	;tblptru may be non-zero
  3684  001D24                     	endif
  3685  001D24  0008               	tblrd		*
  3686  001D26  50F5               	movf	tablat,w,c
  3687  001D28  6E0C               	movwf	(??_atoi+2)^0,c
  3688  001D2A  6A0D               	clrf	(??_atoi+3)^0,c
  3689  001D2C  500A               	movf	??_atoi^0,w,c
  3690  001D2E  260C               	addwf	(??_atoi+2)^0,f,c
  3691  001D30  500B               	movf	(??_atoi+1)^0,w,c
  3692  001D32  220D               	addwfc	(??_atoi+3)^0,f,c
  3693  001D34  500D               	movf	(??_atoi+3)^0,w,c
  3694  001D36  E109               	bnz	u2080
  3695  001D38  0E0A               	movlw	10
  3696  001D3A  5C0C               	subwf	(??_atoi+2)^0,w,c
  3697  001D3C  A0D8               	btfss	status,0,c
  3698  001D3E  EFA3  F00E         	goto	u2081
  3699  001D42  EFA5  F00E         	goto	u2080
  3700  001D46                     u2081:
  3701  001D46  EF6F  F00E         	goto	l2433
  3702  001D4A                     u2080:
  3703  001D4A  500E               	movf	atoi@neg^0,w,c
  3704  001D4C  100F               	iorwf	(atoi@neg+1)^0,w,c
  3705  001D4E  A4D8               	btfss	status,2,c
  3706  001D50  EFAC  F00E         	goto	u2091
  3707  001D54  EFAE  F00E         	goto	u2090
  3708  001D58                     u2091:
  3709  001D58  EFBC  F00E         	goto	l1098
  3710  001D5C                     u2090:
  3711  001D5C  C010  F00A         	movff	atoi@n,??_atoi
  3712  001D60  C011  F00B         	movff	atoi@n+1,??_atoi+1
  3713  001D64  1E0A               	comf	??_atoi^0,f,c
  3714  001D66  1E0B               	comf	(??_atoi+1)^0,f,c
  3715  001D68  4A0A               	infsnz	??_atoi^0,f,c
  3716  001D6A  2A0B               	incf	(??_atoi+1)^0,f,c
  3717  001D6C  C00A  F008         	movff	??_atoi,?_atoi
  3718  001D70  C00B  F009         	movff	??_atoi+1,?_atoi+1
  3719  001D74  EFC0  F00E         	goto	l1101
  3720  001D78                     l1098:
  3721  001D78  C010  F008         	movff	atoi@n,?_atoi
  3722  001D7C  C011  F009         	movff	atoi@n+1,?_atoi+1
  3723  001D80                     l1101:
  3724  001D80  0012               	return		;funcret
  3725  001D82                     __end_of_atoi:
  3726                           	callstack 0
  3727                           
  3728 ;; *************** function _isspace *****************
  3729 ;; Defined at:
  3730 ;;		line 5 in file "C:\Program Files\Microchip\xc8\v2.36\pic\sources\c99\common\isspace.c"
  3731 ;; Parameters:    Size  Location     Type
  3732 ;;  c               2    0[COMRAM] int 
  3733 ;; Auto vars:     Size  Location     Type
  3734 ;;		None
  3735 ;; Return value:  Size  Location     Type
  3736 ;;                  2    0[COMRAM] int 
  3737 ;; Registers used:
  3738 ;;		wreg, status,2, status,0
  3739 ;; Tracked objects:
  3740 ;;		On entry : 0/0
  3741 ;;		On exit  : 0/0
  3742 ;;		Unchanged: 0/0
  3743 ;; Data sizes:     COMRAM   BANK0   BANK1   BANK2   BANK3   BANK4   BANK5
  3744 ;;      Params:         2       0       0       0       0       0       0
  3745 ;;      Locals:         1       0       0       0       0       0       0
  3746 ;;      Temps:          4       0       0       0       0       0       0
  3747 ;;      Totals:         7       0       0       0       0       0       0
  3748 ;;Total ram usage:        7 bytes
  3749 ;; Hardware stack levels used: 1
  3750 ;; This function calls:
  3751 ;;		Nothing
  3752 ;; This function is called by:
  3753 ;;		_atoi
  3754 ;; This function uses a non-reentrant model
  3755 ;;
  3756                           
  3757                           	psect	text16
  3758  002396                     __ptext16:
  3759                           	callstack 0
  3760  002396                     _isspace:
  3761                           	callstack 26
  3762  002396  0E01               	movlw	1
  3763  002398  6E07               	movwf	_isspace$1277^0,c
  3764  00239A  0E20               	movlw	32
  3765  00239C  1801               	xorwf	isspace@c^0,w,c
  3766  00239E  1002               	iorwf	(isspace@c+1)^0,w,c
  3767  0023A0  B4D8               	btfsc	status,2,c
  3768  0023A2  EFD5  F011         	goto	u1791
  3769  0023A6  EFD7  F011         	goto	u1790
  3770  0023AA                     u1791:
  3771  0023AA  EFF0  F011         	goto	l2309
  3772  0023AE                     u1790:
  3773  0023AE  0EF7               	movlw	247
  3774  0023B0  6E03               	movwf	??_isspace^0,c
  3775  0023B2  0EFF               	movlw	255
  3776  0023B4  6E04               	movwf	(??_isspace+1)^0,c
  3777  0023B6  C001  F005         	movff	isspace@c,??_isspace+2
  3778  0023BA  C002  F006         	movff	isspace@c+1,??_isspace+3
  3779  0023BE  5003               	movf	??_isspace^0,w,c
  3780  0023C0  2605               	addwf	(??_isspace+2)^0,f,c
  3781  0023C2  5004               	movf	(??_isspace+1)^0,w,c
  3782  0023C4  2206               	addwfc	(??_isspace+3)^0,f,c
  3783  0023C6  5006               	movf	(??_isspace+3)^0,w,c
  3784  0023C8  E109               	bnz	u1800
  3785  0023CA  0E05               	movlw	5
  3786  0023CC  5C05               	subwf	(??_isspace+2)^0,w,c
  3787  0023CE  A0D8               	btfss	status,0,c
  3788  0023D0  EFEC  F011         	goto	u1801
  3789  0023D4  EFEE  F011         	goto	u1800
  3790  0023D8                     u1801:
  3791  0023D8  EFF0  F011         	goto	l2309
  3792  0023DC                     u1800:
  3793  0023DC  0E00               	movlw	0
  3794  0023DE  6E07               	movwf	_isspace$1277^0,c
  3795  0023E0                     l2309:
  3796  0023E0  C007  F001         	movff	_isspace$1277,?_isspace
  3797  0023E4  6A02               	clrf	(?_isspace+1)^0,c
  3798  0023E6  0012               	return		;funcret
  3799  0023E8                     __end_of_isspace:
  3800                           	callstack 0
  3801                           
  3802 ;; *************** function _isdigit *****************
  3803 ;; Defined at:
  3804 ;;		line 5 in file "C:\Program Files\Microchip\xc8\v2.36\pic\sources\c99\common\isdigit.c"
  3805 ;; Parameters:    Size  Location     Type
  3806 ;;  c               2    0[COMRAM] int 
  3807 ;; Auto vars:     Size  Location     Type
  3808 ;;		None
  3809 ;; Return value:  Size  Location     Type
  3810 ;;                  2    0[COMRAM] int 
  3811 ;; Registers used:
  3812 ;;		wreg, status,2, status,0
  3813 ;; Tracked objects:
  3814 ;;		On entry : 0/0
  3815 ;;		On exit  : 0/0
  3816 ;;		Unchanged: 0/0
  3817 ;; Data sizes:     COMRAM   BANK0   BANK1   BANK2   BANK3   BANK4   BANK5
  3818 ;;      Params:         2       0       0       0       0       0       0
  3819 ;;      Locals:         0       0       0       0       0       0       0
  3820 ;;      Temps:          4       0       0       0       0       0       0
  3821 ;;      Totals:         6       0       0       0       0       0       0
  3822 ;;Total ram usage:        6 bytes
  3823 ;; Hardware stack levels used: 1
  3824 ;; This function calls:
  3825 ;;		Nothing
  3826 ;; This function is called by:
  3827 ;;		_vfpfcnvrt
  3828 ;;		_atoi
  3829 ;; This function uses a non-reentrant model
  3830 ;;
  3831                           
  3832                           	psect	text17
  3833  00256E                     __ptext17:
  3834                           	callstack 0
  3835  00256E                     _isdigit:
  3836                           	callstack 27
  3837  00256E  0ED0               	movlw	208
  3838  002570  6E03               	movwf	??_isdigit^0,c
  3839  002572  0EFF               	movlw	255
  3840  002574  6E04               	movwf	(??_isdigit+1)^0,c
  3841  002576  C001  F005         	movff	isdigit@c,??_isdigit+2
  3842  00257A  C002  F006         	movff	isdigit@c+1,??_isdigit+3
  3843  00257E  5003               	movf	??_isdigit^0,w,c
  3844  002580  2605               	addwf	(??_isdigit+2)^0,f,c
  3845  002582  5004               	movf	(??_isdigit+1)^0,w,c
  3846  002584  2206               	addwfc	(??_isdigit+3)^0,f,c
  3847  002586  5006               	movf	(??_isdigit+3)^0,w,c
  3848  002588  E10A               	bnz	u1770
  3849  00258A  0E0A               	movlw	10
  3850  00258C  5C05               	subwf	(??_isdigit+2)^0,w,c
  3851  00258E  A0D8               	btfss	status,0,c
  3852  002590  EFCC  F012         	goto	u1771
  3853  002594  EFCF  F012         	goto	u1770
  3854  002598                     u1771:
  3855  002598  0E01               	movlw	1
  3856  00259A  EFD0  F012         	goto	u1780
  3857  00259E                     u1770:
  3858  00259E  0E00               	movlw	0
  3859  0025A0                     u1780:
  3860  0025A0  6E01               	movwf	?_isdigit^0,c
  3861  0025A2  6A02               	clrf	(?_isdigit+1)^0,c
  3862  0025A4  0012               	return		;funcret
  3863  0025A6                     __end_of_isdigit:
  3864                           	callstack 0
  3865                           
  3866 ;; *************** function ___wmul *****************
  3867 ;; Defined at:
  3868 ;;		line 15 in file "C:\Program Files\Microchip\xc8\v2.36\pic\sources\c99\common\Umul16.c"
  3869 ;; Parameters:    Size  Location     Type
  3870 ;;  multiplier      2    0[COMRAM] unsigned int 
  3871 ;;  multiplicand    2    2[COMRAM] unsigned int 
  3872 ;; Auto vars:     Size  Location     Type
  3873 ;;  product         2    4[COMRAM] unsigned int 
  3874 ;; Return value:  Size  Location     Type
  3875 ;;                  2    0[COMRAM] unsigned int 
  3876 ;; Registers used:
  3877 ;;		wreg, status,2, status,0, prodl, prodh
  3878 ;; Tracked objects:
  3879 ;;		On entry : 0/0
  3880 ;;		On exit  : 0/0
  3881 ;;		Unchanged: 0/0
  3882 ;; Data sizes:     COMRAM   BANK0   BANK1   BANK2   BANK3   BANK4   BANK5
  3883 ;;      Params:         4       0       0       0       0       0       0
  3884 ;;      Locals:         2       0       0       0       0       0       0
  3885 ;;      Temps:          0       0       0       0       0       0       0
  3886 ;;      Totals:         6       0       0       0       0       0       0
  3887 ;;Total ram usage:        6 bytes
  3888 ;; Hardware stack levels used: 1
  3889 ;; This function calls:
  3890 ;;		Nothing
  3891 ;; This function is called by:
  3892 ;;		_atoi
  3893 ;; This function uses a non-reentrant model
  3894 ;;
  3895                           
  3896                           	psect	text18
  3897  002636                     __ptext18:
  3898                           	callstack 0
  3899  002636                     ___wmul:
  3900                           	callstack 26
  3901  002636  5001               	movf	___wmul@multiplier^0,w,c
  3902  002638  0203               	mulwf	___wmul@multiplicand^0,c
  3903  00263A  CFF3 F005          	movff	prodl,___wmul@product
  3904  00263E  CFF4 F006          	movff	prodh,___wmul@product+1
  3905  002642  5001               	movf	___wmul@multiplier^0,w,c
  3906  002644  0204               	mulwf	(___wmul@multiplicand+1)^0,c
  3907  002646  50F3               	movf	243,w,c
  3908  002648  2606               	addwf	(___wmul@product+1)^0,f,c
  3909  00264A  5002               	movf	(___wmul@multiplier+1)^0,w,c
  3910  00264C  0203               	mulwf	___wmul@multiplicand^0,c
  3911  00264E  50F3               	movf	243,w,c
  3912  002650  2606               	addwf	(___wmul@product+1)^0,f,c
  3913  002652  C005  F001         	movff	___wmul@product,?___wmul
  3914  002656  C006  F002         	movff	___wmul@product+1,?___wmul+1
  3915  00265A  0012               	return		;funcret
  3916  00265C                     __end_of___wmul:
  3917                           	callstack 0
  3918                           
  3919 ;; *************** function _map *****************
  3920 ;; Defined at:
  3921 ;;		line 52 in file "main.c"
  3922 ;; Parameters:    Size  Location     Type
  3923 ;;  x               4   26[COMRAM] long 
  3924 ;;  in_min          4   30[COMRAM] long 
  3925 ;;  in_max          4   34[COMRAM] long 
  3926 ;;  out_min         4   38[COMRAM] long 
  3927 ;;  out_max         4   42[COMRAM] long 
  3928 ;; Auto vars:     Size  Location     Type
  3929 ;;		None
  3930 ;; Return value:  Size  Location     Type
  3931 ;;                  4   26[COMRAM] long 
  3932 ;; Registers used:
  3933 ;;		wreg, status,2, status,0, cstack
  3934 ;; Tracked objects:
  3935 ;;		On entry : 0/0
  3936 ;;		On exit  : 0/0
  3937 ;;		Unchanged: 0/0
  3938 ;; Data sizes:     COMRAM   BANK0   BANK1   BANK2   BANK3   BANK4   BANK5
  3939 ;;      Params:        20       0       0       0       0       0       0
  3940 ;;      Locals:         0       0       0       0       0       0       0
  3941 ;;      Temps:          0       0       0       0       0       0       0
  3942 ;;      Totals:        20       0       0       0       0       0       0
  3943 ;;Total ram usage:       20 bytes
  3944 ;; Hardware stack levels used: 1
  3945 ;; Hardware stack levels required when called: 1
  3946 ;; This function calls:
  3947 ;;		___aldiv
  3948 ;;		___lmul
  3949 ;; This function is called by:
  3950 ;;		_main
  3951 ;; This function uses a non-reentrant model
  3952 ;;
  3953                           
  3954                           	psect	text19
  3955  0021FE                     __ptext19:
  3956                           	callstack 0
  3957  0021FE                     _map:
  3958                           	callstack 29
  3959  0021FE                     
  3960                           ;main.c: 52:  long map(long x, long in_min, long in_max, long out_min, long out_max);mai
      +                          n.c: 53: {;main.c: 54:   return (x - in_min) * (out_max - out_min) / (in_max - in_min) +
      +                           out_min;
  3961  0021FE  501F               	movf	map@in_min^0,w,c
  3962  002200  5C1B               	subwf	map@x^0,w,c
  3963  002202  6E01               	movwf	___lmul@multiplier^0,c
  3964  002204  5020               	movf	(map@in_min+1)^0,w,c
  3965  002206  581C               	subwfb	(map@x+1)^0,w,c
  3966  002208  6E02               	movwf	(___lmul@multiplier+1)^0,c
  3967  00220A  5021               	movf	(map@in_min+2)^0,w,c
  3968  00220C  581D               	subwfb	(map@x+2)^0,w,c
  3969  00220E  6E03               	movwf	(___lmul@multiplier+2)^0,c
  3970  002210  5022               	movf	(map@in_min+3)^0,w,c
  3971  002212  581E               	subwfb	(map@x+3)^0,w,c
  3972  002214  6E04               	movwf	(___lmul@multiplier+3)^0,c
  3973  002216  5027               	movf	map@out_min^0,w,c
  3974  002218  5C2B               	subwf	map@out_max^0,w,c
  3975  00221A  6E05               	movwf	___lmul@multiplicand^0,c
  3976  00221C  5028               	movf	(map@out_min+1)^0,w,c
  3977  00221E  582C               	subwfb	(map@out_max+1)^0,w,c
  3978  002220  6E06               	movwf	(___lmul@multiplicand+1)^0,c
  3979  002222  5029               	movf	(map@out_min+2)^0,w,c
  3980  002224  582D               	subwfb	(map@out_max+2)^0,w,c
  3981  002226  6E07               	movwf	(___lmul@multiplicand+2)^0,c
  3982  002228  502A               	movf	(map@out_min+3)^0,w,c
  3983  00222A  582E               	subwfb	(map@out_max+3)^0,w,c
  3984  00222C  6E08               	movwf	(___lmul@multiplicand+3)^0,c
  3985  00222E  EC3C  F011         	call	___lmul	;wreg free
  3986  002232  C001  F00D         	movff	?___lmul,___aldiv@dividend
  3987  002236  C002  F00E         	movff	?___lmul+1,___aldiv@dividend+1
  3988  00223A  C003  F00F         	movff	?___lmul+2,___aldiv@dividend+2
  3989  00223E  C004  F010         	movff	?___lmul+3,___aldiv@dividend+3
  3990  002242  501F               	movf	map@in_min^0,w,c
  3991  002244  5C23               	subwf	map@in_max^0,w,c
  3992  002246  6E11               	movwf	___aldiv@divisor^0,c
  3993  002248  5020               	movf	(map@in_min+1)^0,w,c
  3994  00224A  5824               	subwfb	(map@in_max+1)^0,w,c
  3995  00224C  6E12               	movwf	(___aldiv@divisor+1)^0,c
  3996  00224E  5021               	movf	(map@in_min+2)^0,w,c
  3997  002250  5825               	subwfb	(map@in_max+2)^0,w,c
  3998  002252  6E13               	movwf	(___aldiv@divisor+2)^0,c
  3999  002254  5022               	movf	(map@in_min+3)^0,w,c
  4000  002256  5826               	subwfb	(map@in_max+3)^0,w,c
  4001  002258  6E14               	movwf	(___aldiv@divisor+3)^0,c
  4002  00225A  ECC1  F00E         	call	___aldiv	;wreg free
  4003  00225E  5027               	movf	map@out_min^0,w,c
  4004  002260  240D               	addwf	?___aldiv^0,w,c
  4005  002262  6E1B               	movwf	?_map^0,c
  4006  002264  5028               	movf	(map@out_min+1)^0,w,c
  4007  002266  200E               	addwfc	(?___aldiv+1)^0,w,c
  4008  002268  6E1C               	movwf	(?_map+1)^0,c
  4009  00226A  5029               	movf	(map@out_min+2)^0,w,c
  4010  00226C  200F               	addwfc	(?___aldiv+2)^0,w,c
  4011  00226E  6E1D               	movwf	(?_map+2)^0,c
  4012  002270  502A               	movf	(map@out_min+3)^0,w,c
  4013  002272  2010               	addwfc	(?___aldiv+3)^0,w,c
  4014  002274  6E1E               	movwf	(?_map+3)^0,c
  4015  002276  0012               	return		;funcret
  4016  002278                     __end_of_map:
  4017                           	callstack 0
  4018                           
  4019 ;; *************** function ___lmul *****************
  4020 ;; Defined at:
  4021 ;;		line 15 in file "C:\Program Files\Microchip\xc8\v2.36\pic\sources\c99\common\Umul32.c"
  4022 ;; Parameters:    Size  Location     Type
  4023 ;;  multiplier      4    0[COMRAM] unsigned long 
  4024 ;;  multiplicand    4    4[COMRAM] unsigned long 
  4025 ;; Auto vars:     Size  Location     Type
  4026 ;;  product         4    8[COMRAM] unsigned long 
  4027 ;; Return value:  Size  Location     Type
  4028 ;;                  4    0[COMRAM] unsigned long 
  4029 ;; Registers used:
  4030 ;;		wreg, status,2, status,0
  4031 ;; Tracked objects:
  4032 ;;		On entry : 0/0
  4033 ;;		On exit  : 0/0
  4034 ;;		Unchanged: 0/0
  4035 ;; Data sizes:     COMRAM   BANK0   BANK1   BANK2   BANK3   BANK4   BANK5
  4036 ;;      Params:         8       0       0       0       0       0       0
  4037 ;;      Locals:         4       0       0       0       0       0       0
  4038 ;;      Temps:          0       0       0       0       0       0       0
  4039 ;;      Totals:        12       0       0       0       0       0       0
  4040 ;;Total ram usage:       12 bytes
  4041 ;; Hardware stack levels used: 1
  4042 ;; This function calls:
  4043 ;;		Nothing
  4044 ;; This function is called by:
  4045 ;;		_map
  4046 ;; This function uses a non-reentrant model
  4047 ;;
  4048                           
  4049                           	psect	text20
  4050  002278                     __ptext20:
  4051                           	callstack 0
  4052  002278                     ___lmul:
  4053                           	callstack 29
  4054  002278  0E00               	movlw	0
  4055  00227A  6E09               	movwf	___lmul@product^0,c
  4056  00227C  0E00               	movlw	0
  4057  00227E  6E0A               	movwf	(___lmul@product+1)^0,c
  4058  002280  0E00               	movlw	0
  4059  002282  6E0B               	movwf	(___lmul@product+2)^0,c
  4060  002284  0E00               	movlw	0
  4061  002286  6E0C               	movwf	(___lmul@product+3)^0,c
  4062  002288                     l2589:
  4063  002288  A001               	btfss	___lmul@multiplier^0,0,c
  4064  00228A  EF49  F011         	goto	u2261
  4065  00228E  EF4B  F011         	goto	u2260
  4066  002292                     u2261:
  4067  002292  EF53  F011         	goto	l2593
  4068  002296                     u2260:
  4069  002296  5005               	movf	___lmul@multiplicand^0,w,c
  4070  002298  2609               	addwf	___lmul@product^0,f,c
  4071  00229A  5006               	movf	(___lmul@multiplicand+1)^0,w,c
  4072  00229C  220A               	addwfc	(___lmul@product+1)^0,f,c
  4073  00229E  5007               	movf	(___lmul@multiplicand+2)^0,w,c
  4074  0022A0  220B               	addwfc	(___lmul@product+2)^0,f,c
  4075  0022A2  5008               	movf	(___lmul@multiplicand+3)^0,w,c
  4076  0022A4  220C               	addwfc	(___lmul@product+3)^0,f,c
  4077  0022A6                     l2593:
  4078  0022A6  90D8               	bcf	status,0,c
  4079  0022A8  3605               	rlcf	___lmul@multiplicand^0,f,c
  4080  0022AA  3606               	rlcf	(___lmul@multiplicand+1)^0,f,c
  4081  0022AC  3607               	rlcf	(___lmul@multiplicand+2)^0,f,c
  4082  0022AE  3608               	rlcf	(___lmul@multiplicand+3)^0,f,c
  4083  0022B0  90D8               	bcf	status,0,c
  4084  0022B2  3204               	rrcf	(___lmul@multiplier+3)^0,f,c
  4085  0022B4  3203               	rrcf	(___lmul@multiplier+2)^0,f,c
  4086  0022B6  3202               	rrcf	(___lmul@multiplier+1)^0,f,c
  4087  0022B8  3201               	rrcf	___lmul@multiplier^0,f,c
  4088  0022BA  5001               	movf	___lmul@multiplier^0,w,c
  4089  0022BC  1002               	iorwf	(___lmul@multiplier+1)^0,w,c
  4090  0022BE  1003               	iorwf	(___lmul@multiplier+2)^0,w,c
  4091  0022C0  1004               	iorwf	(___lmul@multiplier+3)^0,w,c
  4092  0022C2  A4D8               	btfss	status,2,c
  4093  0022C4  EF66  F011         	goto	u2271
  4094  0022C8  EF68  F011         	goto	u2270
  4095  0022CC                     u2271:
  4096  0022CC  EF44  F011         	goto	l2589
  4097  0022D0                     u2270:
  4098  0022D0  C009  F001         	movff	___lmul@product,?___lmul
  4099  0022D4  C00A  F002         	movff	___lmul@product+1,?___lmul+1
  4100  0022D8  C00B  F003         	movff	___lmul@product+2,?___lmul+2
  4101  0022DC  C00C  F004         	movff	___lmul@product+3,?___lmul+3
  4102  0022E0  0012               	return		;funcret
  4103  0022E2                     __end_of___lmul:
  4104                           	callstack 0
  4105                           
  4106 ;; *************** function ___aldiv *****************
  4107 ;; Defined at:
  4108 ;;		line 7 in file "C:\Program Files\Microchip\xc8\v2.36\pic\sources\c99\common\aldiv.c"
  4109 ;; Parameters:    Size  Location     Type
  4110 ;;  dividend        4   12[COMRAM] long 
  4111 ;;  divisor         4   16[COMRAM] long 
  4112 ;; Auto vars:     Size  Location     Type
  4113 ;;  quotient        4   22[COMRAM] long 
  4114 ;;  sign            1   21[COMRAM] unsigned char 
  4115 ;;  counter         1   20[COMRAM] unsigned char 
  4116 ;; Return value:  Size  Location     Type
  4117 ;;                  4   12[COMRAM] long 
  4118 ;; Registers used:
  4119 ;;		wreg, status,2, status,0
  4120 ;; Tracked objects:
  4121 ;;		On entry : 0/0
  4122 ;;		On exit  : 0/0
  4123 ;;		Unchanged: 0/0
  4124 ;; Data sizes:     COMRAM   BANK0   BANK1   BANK2   BANK3   BANK4   BANK5
  4125 ;;      Params:         8       0       0       0       0       0       0
  4126 ;;      Locals:         6       0       0       0       0       0       0
  4127 ;;      Temps:          0       0       0       0       0       0       0
  4128 ;;      Totals:        14       0       0       0       0       0       0
  4129 ;;Total ram usage:       14 bytes
  4130 ;; Hardware stack levels used: 1
  4131 ;; This function calls:
  4132 ;;		Nothing
  4133 ;; This function is called by:
  4134 ;;		_map
  4135 ;; This function uses a non-reentrant model
  4136 ;;
  4137                           
  4138                           	psect	text21
  4139  001D82                     __ptext21:
  4140                           	callstack 0
  4141  001D82                     ___aldiv:
  4142                           	callstack 29
  4143  001D82  0E00               	movlw	0
  4144  001D84  6E16               	movwf	___aldiv@sign^0,c
  4145  001D86  BE14               	btfsc	(___aldiv@divisor+3)^0,7,c
  4146  001D88  EFCA  F00E         	goto	u2280
  4147  001D8C  EFC8  F00E         	goto	u2281
  4148  001D90                     u2281:
  4149  001D90  EFD4  F00E         	goto	l2605
  4150  001D94                     u2280:
  4151  001D94  1E14               	comf	(___aldiv@divisor+3)^0,f,c
  4152  001D96  1E13               	comf	(___aldiv@divisor+2)^0,f,c
  4153  001D98  1E12               	comf	(___aldiv@divisor+1)^0,f,c
  4154  001D9A  6C11               	negf	___aldiv@divisor^0,c
  4155  001D9C  0E00               	movlw	0
  4156  001D9E  2212               	addwfc	(___aldiv@divisor+1)^0,f,c
  4157  001DA0  2213               	addwfc	(___aldiv@divisor+2)^0,f,c
  4158  001DA2  2214               	addwfc	(___aldiv@divisor+3)^0,f,c
  4159  001DA4  0E01               	movlw	1
  4160  001DA6  6E16               	movwf	___aldiv@sign^0,c
  4161  001DA8                     l2605:
  4162  001DA8  BE10               	btfsc	(___aldiv@dividend+3)^0,7,c
  4163  001DAA  EFDB  F00E         	goto	u2290
  4164  001DAE  EFD9  F00E         	goto	u2291
  4165  001DB2                     u2291:
  4166  001DB2  EFE5  F00E         	goto	l2611
  4167  001DB6                     u2290:
  4168  001DB6  1E10               	comf	(___aldiv@dividend+3)^0,f,c
  4169  001DB8  1E0F               	comf	(___aldiv@dividend+2)^0,f,c
  4170  001DBA  1E0E               	comf	(___aldiv@dividend+1)^0,f,c
  4171  001DBC  6C0D               	negf	___aldiv@dividend^0,c
  4172  001DBE  0E00               	movlw	0
  4173  001DC0  220E               	addwfc	(___aldiv@dividend+1)^0,f,c
  4174  001DC2  220F               	addwfc	(___aldiv@dividend+2)^0,f,c
  4175  001DC4  2210               	addwfc	(___aldiv@dividend+3)^0,f,c
  4176  001DC6  0E01               	movlw	1
  4177  001DC8  1A16               	xorwf	___aldiv@sign^0,f,c
  4178  001DCA                     l2611:
  4179  001DCA  0E00               	movlw	0
  4180  001DCC  6E17               	movwf	___aldiv@quotient^0,c
  4181  001DCE  0E00               	movlw	0
  4182  001DD0  6E18               	movwf	(___aldiv@quotient+1)^0,c
  4183  001DD2  0E00               	movlw	0
  4184  001DD4  6E19               	movwf	(___aldiv@quotient+2)^0,c
  4185  001DD6  0E00               	movlw	0
  4186  001DD8  6E1A               	movwf	(___aldiv@quotient+3)^0,c
  4187  001DDA  5011               	movf	___aldiv@divisor^0,w,c
  4188  001DDC  1012               	iorwf	(___aldiv@divisor+1)^0,w,c
  4189  001DDE  1013               	iorwf	(___aldiv@divisor+2)^0,w,c
  4190  001DE0  1014               	iorwf	(___aldiv@divisor+3)^0,w,c
  4191  001DE2  B4D8               	btfsc	status,2,c
  4192  001DE4  EFF6  F00E         	goto	u2301
  4193  001DE8  EFF8  F00E         	goto	u2300
  4194  001DEC                     u2301:
  4195  001DEC  EF2E  F00F         	goto	l2633
  4196  001DF0                     u2300:
  4197  001DF0  0E01               	movlw	1
  4198  001DF2  6E15               	movwf	___aldiv@counter^0,c
  4199  001DF4  EF02  F00F         	goto	l2619
  4200  001DF8                     l2617:
  4201  001DF8  90D8               	bcf	status,0,c
  4202  001DFA  3611               	rlcf	___aldiv@divisor^0,f,c
  4203  001DFC  3612               	rlcf	(___aldiv@divisor+1)^0,f,c
  4204  001DFE  3613               	rlcf	(___aldiv@divisor+2)^0,f,c
  4205  001E00  3614               	rlcf	(___aldiv@divisor+3)^0,f,c
  4206  001E02  2A15               	incf	___aldiv@counter^0,f,c
  4207  001E04                     l2619:
  4208  001E04  AE14               	btfss	(___aldiv@divisor+3)^0,7,c
  4209  001E06  EF07  F00F         	goto	u2311
  4210  001E0A  EF09  F00F         	goto	u2310
  4211  001E0E                     u2311:
  4212  001E0E  EFFC  F00E         	goto	l2617
  4213  001E12                     u2310:
  4214  001E12                     l2621:
  4215  001E12  90D8               	bcf	status,0,c
  4216  001E14  3617               	rlcf	___aldiv@quotient^0,f,c
  4217  001E16  3618               	rlcf	(___aldiv@quotient+1)^0,f,c
  4218  001E18  3619               	rlcf	(___aldiv@quotient+2)^0,f,c
  4219  001E1A  361A               	rlcf	(___aldiv@quotient+3)^0,f,c
  4220  001E1C  5011               	movf	___aldiv@divisor^0,w,c
  4221  001E1E  5C0D               	subwf	___aldiv@dividend^0,w,c
  4222  001E20  5012               	movf	(___aldiv@divisor+1)^0,w,c
  4223  001E22  580E               	subwfb	(___aldiv@dividend+1)^0,w,c
  4224  001E24  5013               	movf	(___aldiv@divisor+2)^0,w,c
  4225  001E26  580F               	subwfb	(___aldiv@dividend+2)^0,w,c
  4226  001E28  5014               	movf	(___aldiv@divisor+3)^0,w,c
  4227  001E2A  5810               	subwfb	(___aldiv@dividend+3)^0,w,c
  4228  001E2C  A0D8               	btfss	status,0,c
  4229  001E2E  EF1B  F00F         	goto	u2321
  4230  001E32  EF1D  F00F         	goto	u2320
  4231  001E36                     u2321:
  4232  001E36  EF26  F00F         	goto	l2629
  4233  001E3A                     u2320:
  4234  001E3A  5011               	movf	___aldiv@divisor^0,w,c
  4235  001E3C  5E0D               	subwf	___aldiv@dividend^0,f,c
  4236  001E3E  5012               	movf	(___aldiv@divisor+1)^0,w,c
  4237  001E40  5A0E               	subwfb	(___aldiv@dividend+1)^0,f,c
  4238  001E42  5013               	movf	(___aldiv@divisor+2)^0,w,c
  4239  001E44  5A0F               	subwfb	(___aldiv@dividend+2)^0,f,c
  4240  001E46  5014               	movf	(___aldiv@divisor+3)^0,w,c
  4241  001E48  5A10               	subwfb	(___aldiv@dividend+3)^0,f,c
  4242  001E4A  8017               	bsf	___aldiv@quotient^0,0,c
  4243  001E4C                     l2629:
  4244  001E4C  90D8               	bcf	status,0,c
  4245  001E4E  3214               	rrcf	(___aldiv@divisor+3)^0,f,c
  4246  001E50  3213               	rrcf	(___aldiv@divisor+2)^0,f,c
  4247  001E52  3212               	rrcf	(___aldiv@divisor+1)^0,f,c
  4248  001E54  3211               	rrcf	___aldiv@divisor^0,f,c
  4249  001E56  2E15               	decfsz	___aldiv@counter^0,f,c
  4250  001E58  EF09  F00F         	goto	l2621
  4251  001E5C                     l2633:
  4252  001E5C  5016               	movf	___aldiv@sign^0,w,c
  4253  001E5E  B4D8               	btfsc	status,2,c
  4254  001E60  EF34  F00F         	goto	u2331
  4255  001E64  EF36  F00F         	goto	u2330
  4256  001E68                     u2331:
  4257  001E68  EF3E  F00F         	goto	l2637
  4258  001E6C                     u2330:
  4259  001E6C  1E1A               	comf	(___aldiv@quotient+3)^0,f,c
  4260  001E6E  1E19               	comf	(___aldiv@quotient+2)^0,f,c
  4261  001E70  1E18               	comf	(___aldiv@quotient+1)^0,f,c
  4262  001E72  6C17               	negf	___aldiv@quotient^0,c
  4263  001E74  0E00               	movlw	0
  4264  001E76  2218               	addwfc	(___aldiv@quotient+1)^0,f,c
  4265  001E78  2219               	addwfc	(___aldiv@quotient+2)^0,f,c
  4266  001E7A  221A               	addwfc	(___aldiv@quotient+3)^0,f,c
  4267  001E7C                     l2637:
  4268  001E7C  C017  F00D         	movff	___aldiv@quotient,?___aldiv
  4269  001E80  C018  F00E         	movff	___aldiv@quotient+1,?___aldiv+1
  4270  001E84  C019  F00F         	movff	___aldiv@quotient+2,?___aldiv+2
  4271  001E88  C01A  F010         	movff	___aldiv@quotient+3,?___aldiv+3
  4272  001E8C  0012               	return		;funcret
  4273  001E8E                     __end_of___aldiv:
  4274                           	callstack 0
  4275                           
  4276 ;; *************** function ___xxtofl *****************
  4277 ;; Defined at:
  4278 ;;		line 10 in file "C:\Program Files\Microchip\xc8\v2.36\pic\sources\c99\common\xxtofl.c"
  4279 ;; Parameters:    Size  Location     Type
  4280 ;;  sign            1    wreg     unsigned char 
  4281 ;;  val             4    5[COMRAM] long 
  4282 ;; Auto vars:     Size  Location     Type
  4283 ;;  sign            1   13[COMRAM] unsigned char 
  4284 ;;  arg             4   15[COMRAM] unsigned long 
  4285 ;;  exp             1   14[COMRAM] unsigned char 
  4286 ;; Return value:  Size  Location     Type
  4287 ;;                  4    5[COMRAM] unsigned char 
  4288 ;; Registers used:
  4289 ;;		wreg, status,2, status,0
  4290 ;; Tracked objects:
  4291 ;;		On entry : 0/0
  4292 ;;		On exit  : 0/0
  4293 ;;		Unchanged: 0/0
  4294 ;; Data sizes:     COMRAM   BANK0   BANK1   BANK2   BANK3   BANK4   BANK5
  4295 ;;      Params:         4       0       0       0       0       0       0
  4296 ;;      Locals:         6       0       0       0       0       0       0
  4297 ;;      Temps:          4       0       0       0       0       0       0
  4298 ;;      Totals:        14       0       0       0       0       0       0
  4299 ;;Total ram usage:       14 bytes
  4300 ;; Hardware stack levels used: 1
  4301 ;; This function calls:
  4302 ;;		Nothing
  4303 ;; This function is called by:
  4304 ;;		_main
  4305 ;; This function uses a non-reentrant model
  4306 ;;
  4307                           
  4308                           	psect	text22
  4309  00144E                     __ptext22:
  4310                           	callstack 0
  4311  00144E                     ___xxtofl:
  4312                           	callstack 30
  4313                           
  4314                           ;incstack = 0
  4315                           ;___xxtofl@sign stored from wreg
  4316  00144E  6E0E               	movwf	___xxtofl@sign^0,c
  4317  001450  500E               	movf	___xxtofl@sign^0,w,c
  4318  001452  B4D8               	btfsc	status,2,c
  4319  001454  EF2E  F00A         	goto	u2861
  4320  001458  EF30  F00A         	goto	u2860
  4321  00145C                     u2861:
  4322  00145C  EF52  F00A         	goto	l930
  4323  001460                     u2860:
  4324  001460  BE09               	btfsc	(___xxtofl@val+3)^0,7,c
  4325  001462  EF37  F00A         	goto	u2870
  4326  001466  EF35  F00A         	goto	u2871
  4327  00146A                     u2871:
  4328  00146A  EF52  F00A         	goto	l930
  4329  00146E                     u2870:
  4330  00146E  C006  F00A         	movff	___xxtofl@val,??___xxtofl
  4331  001472  C007  F00B         	movff	___xxtofl@val+1,??___xxtofl+1
  4332  001476  C008  F00C         	movff	___xxtofl@val+2,??___xxtofl+2
  4333  00147A  C009  F00D         	movff	___xxtofl@val+3,??___xxtofl+3
  4334  00147E  1E0A               	comf	??___xxtofl^0,f,c
  4335  001480  1E0B               	comf	(??___xxtofl+1)^0,f,c
  4336  001482  1E0C               	comf	(??___xxtofl+2)^0,f,c
  4337  001484  1E0D               	comf	(??___xxtofl+3)^0,f,c
  4338  001486  2A0A               	incf	??___xxtofl^0,f,c
  4339  001488  0E00               	movlw	0
  4340  00148A  220B               	addwfc	(??___xxtofl+1)^0,f,c
  4341  00148C  220C               	addwfc	(??___xxtofl+2)^0,f,c
  4342  00148E  220D               	addwfc	(??___xxtofl+3)^0,f,c
  4343  001490  C00A  F010         	movff	??___xxtofl,___xxtofl@arg
  4344  001494  C00B  F011         	movff	??___xxtofl+1,___xxtofl@arg+1
  4345  001498  C00C  F012         	movff	??___xxtofl+2,___xxtofl@arg+2
  4346  00149C  C00D  F013         	movff	??___xxtofl+3,___xxtofl@arg+3
  4347  0014A0  EF5A  F00A         	goto	l3007
  4348  0014A4                     l930:
  4349  0014A4  C006  F010         	movff	___xxtofl@val,___xxtofl@arg
  4350  0014A8  C007  F011         	movff	___xxtofl@val+1,___xxtofl@arg+1
  4351  0014AC  C008  F012         	movff	___xxtofl@val+2,___xxtofl@arg+2
  4352  0014B0  C009  F013         	movff	___xxtofl@val+3,___xxtofl@arg+3
  4353  0014B4                     l3007:
  4354  0014B4  5006               	movf	___xxtofl@val^0,w,c
  4355  0014B6  1007               	iorwf	(___xxtofl@val+1)^0,w,c
  4356  0014B8  1008               	iorwf	(___xxtofl@val+2)^0,w,c
  4357  0014BA  1009               	iorwf	(___xxtofl@val+3)^0,w,c
  4358  0014BC  A4D8               	btfss	status,2,c
  4359  0014BE  EF63  F00A         	goto	u2881
  4360  0014C2  EF65  F00A         	goto	u2880
  4361  0014C6                     u2881:
  4362  0014C6  EF6F  F00A         	goto	l3013
  4363  0014CA                     u2880:
  4364  0014CA  0E00               	movlw	0
  4365  0014CC  6E06               	movwf	?___xxtofl^0,c
  4366  0014CE  0E00               	movlw	0
  4367  0014D0  6E07               	movwf	(?___xxtofl+1)^0,c
  4368  0014D2  0E00               	movlw	0
  4369  0014D4  6E08               	movwf	(?___xxtofl+2)^0,c
  4370  0014D6  0E00               	movlw	0
  4371  0014D8  6E09               	movwf	(?___xxtofl+3)^0,c
  4372  0014DA  EF00  F00B         	goto	l933
  4373  0014DE                     l3013:
  4374  0014DE  0E96               	movlw	150
  4375  0014E0  6E0F               	movwf	___xxtofl@exp^0,c
  4376  0014E2  EF79  F00A         	goto	l3017
  4377  0014E6                     l3015:
  4378  0014E6  2A0F               	incf	___xxtofl@exp^0,f,c
  4379  0014E8  90D8               	bcf	status,0,c
  4380  0014EA  3213               	rrcf	(___xxtofl@arg+3)^0,f,c
  4381  0014EC  3212               	rrcf	(___xxtofl@arg+2)^0,f,c
  4382  0014EE  3211               	rrcf	(___xxtofl@arg+1)^0,f,c
  4383  0014F0  3210               	rrcf	___xxtofl@arg^0,f,c
  4384  0014F2                     l3017:
  4385  0014F2  0E00               	movlw	0
  4386  0014F4  1410               	andwf	___xxtofl@arg^0,w,c
  4387  0014F6  6E0A               	movwf	??___xxtofl^0,c
  4388  0014F8  0E00               	movlw	0
  4389  0014FA  1411               	andwf	(___xxtofl@arg+1)^0,w,c
  4390  0014FC  6E0B               	movwf	(??___xxtofl+1)^0,c
  4391  0014FE  0E00               	movlw	0
  4392  001500  1412               	andwf	(___xxtofl@arg+2)^0,w,c
  4393  001502  6E0C               	movwf	(??___xxtofl+2)^0,c
  4394  001504  0EFE               	movlw	254
  4395  001506  1413               	andwf	(___xxtofl@arg+3)^0,w,c
  4396  001508  6E0D               	movwf	(??___xxtofl+3)^0,c
  4397  00150A  500A               	movf	??___xxtofl^0,w,c
  4398  00150C  100B               	iorwf	(??___xxtofl+1)^0,w,c
  4399  00150E  100C               	iorwf	(??___xxtofl+2)^0,w,c
  4400  001510  100D               	iorwf	(??___xxtofl+3)^0,w,c
  4401  001512  A4D8               	btfss	status,2,c
  4402  001514  EF8E  F00A         	goto	u2891
  4403  001518  EF90  F00A         	goto	u2890
  4404  00151C                     u2891:
  4405  00151C  EF73  F00A         	goto	l3015
  4406  001520                     u2890:
  4407  001520  EF9E  F00A         	goto	l937
  4408  001524                     l3019:
  4409  001524  2A0F               	incf	___xxtofl@exp^0,f,c
  4410  001526  0E01               	movlw	1
  4411  001528  2610               	addwf	___xxtofl@arg^0,f,c
  4412  00152A  0E00               	movlw	0
  4413  00152C  2211               	addwfc	(___xxtofl@arg+1)^0,f,c
  4414  00152E  2212               	addwfc	(___xxtofl@arg+2)^0,f,c
  4415  001530  2213               	addwfc	(___xxtofl@arg+3)^0,f,c
  4416  001532  90D8               	bcf	status,0,c
  4417  001534  3213               	rrcf	(___xxtofl@arg+3)^0,f,c
  4418  001536  3212               	rrcf	(___xxtofl@arg+2)^0,f,c
  4419  001538  3211               	rrcf	(___xxtofl@arg+1)^0,f,c
  4420  00153A  3210               	rrcf	___xxtofl@arg^0,f,c
  4421  00153C                     l937:
  4422  00153C  0E00               	movlw	0
  4423  00153E  1410               	andwf	___xxtofl@arg^0,w,c
  4424  001540  6E0A               	movwf	??___xxtofl^0,c
  4425  001542  0E00               	movlw	0
  4426  001544  1411               	andwf	(___xxtofl@arg+1)^0,w,c
  4427  001546  6E0B               	movwf	(??___xxtofl+1)^0,c
  4428  001548  0E00               	movlw	0
  4429  00154A  1412               	andwf	(___xxtofl@arg+2)^0,w,c
  4430  00154C  6E0C               	movwf	(??___xxtofl+2)^0,c
  4431  00154E  0EFF               	movlw	255
  4432  001550  1413               	andwf	(___xxtofl@arg+3)^0,w,c
  4433  001552  6E0D               	movwf	(??___xxtofl+3)^0,c
  4434  001554  500A               	movf	??___xxtofl^0,w,c
  4435  001556  100B               	iorwf	(??___xxtofl+1)^0,w,c
  4436  001558  100C               	iorwf	(??___xxtofl+2)^0,w,c
  4437  00155A  100D               	iorwf	(??___xxtofl+3)^0,w,c
  4438  00155C  A4D8               	btfss	status,2,c
  4439  00155E  EFB3  F00A         	goto	u2901
  4440  001562  EFB5  F00A         	goto	u2900
  4441  001566                     u2901:
  4442  001566  EF92  F00A         	goto	l3019
  4443  00156A                     u2900:
  4444  00156A  EFBD  F00A         	goto	l3027
  4445  00156E                     l3025:
  4446  00156E  060F               	decf	___xxtofl@exp^0,f,c
  4447  001570  90D8               	bcf	status,0,c
  4448  001572  3610               	rlcf	___xxtofl@arg^0,f,c
  4449  001574  3611               	rlcf	(___xxtofl@arg+1)^0,f,c
  4450  001576  3612               	rlcf	(___xxtofl@arg+2)^0,f,c
  4451  001578  3613               	rlcf	(___xxtofl@arg+3)^0,f,c
  4452  00157A                     l3027:
  4453  00157A  BE12               	btfsc	(___xxtofl@arg+2)^0,7,c
  4454  00157C  EFC2  F00A         	goto	u2911
  4455  001580  EFC4  F00A         	goto	u2910
  4456  001584                     u2911:
  4457  001584  EFCC  F00A         	goto	l944
  4458  001588                     u2910:
  4459  001588  0E02               	movlw	2
  4460  00158A  600F               	cpfslt	___xxtofl@exp^0,c
  4461  00158C  EFCA  F00A         	goto	u2921
  4462  001590  EFCC  F00A         	goto	u2920
  4463  001594                     u2921:
  4464  001594  EFB7  F00A         	goto	l3025
  4465  001598                     u2920:
  4466  001598                     l944:
  4467  001598  B00F               	btfsc	___xxtofl@exp^0,0,c
  4468  00159A  EFD1  F00A         	goto	u2931
  4469  00159E  EFD3  F00A         	goto	u2930
  4470  0015A2                     u2931:
  4471  0015A2  EFD4  F00A         	goto	l3033
  4472  0015A6                     u2930:
  4473  0015A6  9E12               	bcf	(___xxtofl@arg+2)^0,7,c
  4474  0015A8                     l3033:
  4475  0015A8  90D8               	bcf	status,0,c
  4476  0015AA  320F               	rrcf	___xxtofl@exp^0,f,c
  4477  0015AC  C00F  F00A         	movff	___xxtofl@exp,??___xxtofl
  4478  0015B0  6A0B               	clrf	(??___xxtofl+1)^0,c
  4479  0015B2  6A0C               	clrf	(??___xxtofl+2)^0,c
  4480  0015B4  6A0D               	clrf	(??___xxtofl+3)^0,c
  4481  0015B6  C00A  F00D         	movff	??___xxtofl,??___xxtofl+3
  4482  0015BA  6A0C               	clrf	(??___xxtofl+2)^0,c
  4483  0015BC  6A0B               	clrf	(??___xxtofl+1)^0,c
  4484  0015BE  6A0A               	clrf	??___xxtofl^0,c
  4485  0015C0  500A               	movf	??___xxtofl^0,w,c
  4486  0015C2  1210               	iorwf	___xxtofl@arg^0,f,c
  4487  0015C4  500B               	movf	(??___xxtofl+1)^0,w,c
  4488  0015C6  1211               	iorwf	(___xxtofl@arg+1)^0,f,c
  4489  0015C8  500C               	movf	(??___xxtofl+2)^0,w,c
  4490  0015CA  1212               	iorwf	(___xxtofl@arg+2)^0,f,c
  4491  0015CC  500D               	movf	(??___xxtofl+3)^0,w,c
  4492  0015CE  1213               	iorwf	(___xxtofl@arg+3)^0,f,c
  4493  0015D0  500E               	movf	___xxtofl@sign^0,w,c
  4494  0015D2  B4D8               	btfsc	status,2,c
  4495  0015D4  EFEE  F00A         	goto	u2941
  4496  0015D8  EFF0  F00A         	goto	u2940
  4497  0015DC                     u2941:
  4498  0015DC  EFF8  F00A         	goto	l3043
  4499  0015E0                     u2940:
  4500  0015E0  BE09               	btfsc	(___xxtofl@val+3)^0,7,c
  4501  0015E2  EFF7  F00A         	goto	u2950
  4502  0015E6  EFF5  F00A         	goto	u2951
  4503  0015EA                     u2951:
  4504  0015EA  EFF8  F00A         	goto	l3043
  4505  0015EE                     u2950:
  4506  0015EE  8E13               	bsf	(___xxtofl@arg+3)^0,7,c
  4507  0015F0                     l3043:
  4508  0015F0  C010  F006         	movff	___xxtofl@arg,?___xxtofl
  4509  0015F4  C011  F007         	movff	___xxtofl@arg+1,?___xxtofl+1
  4510  0015F8  C012  F008         	movff	___xxtofl@arg+2,?___xxtofl+2
  4511  0015FC  C013  F009         	movff	___xxtofl@arg+3,?___xxtofl+3
  4512  001600                     l933:
  4513  001600  0012               	return		;funcret
  4514  001602                     __end_of___xxtofl:
  4515                           	callstack 0
  4516                           
  4517 ;; *************** function ___fltol *****************
  4518 ;; Defined at:
  4519 ;;		line 43 in file "C:\Program Files\Microchip\xc8\v2.36\pic\sources\c99\common\fltol.c"
  4520 ;; Parameters:    Size  Location     Type
  4521 ;;  f1              4   50[COMRAM] unsigned char 
  4522 ;; Auto vars:     Size  Location     Type
  4523 ;;  exp1            1   59[COMRAM] unsigned char 
  4524 ;;  sign1           1   58[COMRAM] unsigned char 
  4525 ;; Return value:  Size  Location     Type
  4526 ;;                  4   50[COMRAM] long 
  4527 ;; Registers used:
  4528 ;;		wreg, status,2, status,0
  4529 ;; Tracked objects:
  4530 ;;		On entry : 0/0
  4531 ;;		On exit  : 0/0
  4532 ;;		Unchanged: 0/0
  4533 ;; Data sizes:     COMRAM   BANK0   BANK1   BANK2   BANK3   BANK4   BANK5
  4534 ;;      Params:         4       0       0       0       0       0       0
  4535 ;;      Locals:         2       0       0       0       0       0       0
  4536 ;;      Temps:          4       0       0       0       0       0       0
  4537 ;;      Totals:        10       0       0       0       0       0       0
  4538 ;;Total ram usage:       10 bytes
  4539 ;; Hardware stack levels used: 1
  4540 ;; This function calls:
  4541 ;;		Nothing
  4542 ;; This function is called by:
  4543 ;;		_main
  4544 ;; This function uses a non-reentrant model
  4545 ;;
  4546                           
  4547                           	psect	text23
  4548  001E8E                     __ptext23:
  4549                           	callstack 0
  4550  001E8E                     ___fltol:
  4551                           	callstack 30
  4552  001E8E  3435               	rlcf	(___fltol@f1+2)^0,w,c
  4553  001E90  3436               	rlcf	(___fltol@f1+3)^0,w,c
  4554  001E92  6E3C               	movwf	___fltol@exp1^0,c
  4555  001E94  503C               	movf	___fltol@exp1^0,w,c
  4556  001E96  A4D8               	btfss	status,2,c
  4557  001E98  EF50  F00F         	goto	u2791
  4558  001E9C  EF52  F00F         	goto	u2790
  4559  001EA0                     u2791:
  4560  001EA0  EF5C  F00F         	goto	l2963
  4561  001EA4                     u2790:
  4562  001EA4                     l2959:
  4563  001EA4  0E00               	movlw	0
  4564  001EA6  6E33               	movwf	?___fltol^0,c
  4565  001EA8  0E00               	movlw	0
  4566  001EAA  6E34               	movwf	(?___fltol+1)^0,c
  4567  001EAC  0E00               	movlw	0
  4568  001EAE  6E35               	movwf	(?___fltol+2)^0,c
  4569  001EB0  0E00               	movlw	0
  4570  001EB2  6E36               	movwf	(?___fltol+3)^0,c
  4571  001EB4  EFC9  F00F         	goto	l572
  4572  001EB8                     l2963:
  4573  001EB8  C033  F037         	movff	___fltol@f1,??___fltol
  4574  001EBC  C034  F038         	movff	___fltol@f1+1,??___fltol+1
  4575  001EC0  C035  F039         	movff	___fltol@f1+2,??___fltol+2
  4576  001EC4  C036  F03A         	movff	___fltol@f1+3,??___fltol+3
  4577  001EC8  0E20               	movlw	32
  4578  001ECA  EF6C  F00F         	goto	u2800
  4579  001ECE                     u2805:
  4580  001ECE  90D8               	bcf	status,0,c
  4581  001ED0  323A               	rrcf	(??___fltol+3)^0,f,c
  4582  001ED2  3239               	rrcf	(??___fltol+2)^0,f,c
  4583  001ED4  3238               	rrcf	(??___fltol+1)^0,f,c
  4584  001ED6  3237               	rrcf	??___fltol^0,f,c
  4585  001ED8                     u2800:
  4586  001ED8  2EE8               	decfsz	wreg,f,c
  4587  001EDA  EF67  F00F         	goto	u2805
  4588  001EDE  5037               	movf	??___fltol^0,w,c
  4589  001EE0  6E3B               	movwf	___fltol@sign1^0,c
  4590  001EE2  8E35               	bsf	(___fltol@f1+2)^0,7,c
  4591  001EE4  0EFF               	movlw	255
  4592  001EE6  1633               	andwf	___fltol@f1^0,f,c
  4593  001EE8  0EFF               	movlw	255
  4594  001EEA  1634               	andwf	(___fltol@f1+1)^0,f,c
  4595  001EEC  0EFF               	movlw	255
  4596  001EEE  1635               	andwf	(___fltol@f1+2)^0,f,c
  4597  001EF0  0E00               	movlw	0
  4598  001EF2  1636               	andwf	(___fltol@f1+3)^0,f,c
  4599  001EF4  0E96               	movlw	150
  4600  001EF6  5E3C               	subwf	___fltol@exp1^0,f,c
  4601  001EF8  BE3C               	btfsc	___fltol@exp1^0,7,c
  4602  001EFA  EF83  F00F         	goto	u2810
  4603  001EFE  EF81  F00F         	goto	u2811
  4604  001F02                     u2811:
  4605  001F02  EF99  F00F         	goto	l2983
  4606  001F06                     u2810:
  4607  001F06  503C               	movf	___fltol@exp1^0,w,c
  4608  001F08  0A80               	xorlw	128
  4609  001F0A  0F97               	addlw	151
  4610  001F0C  B0D8               	btfsc	status,0,c
  4611  001F0E  EF8B  F00F         	goto	u2821
  4612  001F12  EF8D  F00F         	goto	u2820
  4613  001F16                     u2821:
  4614  001F16  EF8F  F00F         	goto	l2979
  4615  001F1A                     u2820:
  4616  001F1A  EF52  F00F         	goto	l2959
  4617  001F1E                     l2979:
  4618  001F1E  90D8               	bcf	status,0,c
  4619  001F20  3236               	rrcf	(___fltol@f1+3)^0,f,c
  4620  001F22  3235               	rrcf	(___fltol@f1+2)^0,f,c
  4621  001F24  3234               	rrcf	(___fltol@f1+1)^0,f,c
  4622  001F26  3233               	rrcf	___fltol@f1^0,f,c
  4623  001F28  3E3C               	incfsz	___fltol@exp1^0,f,c
  4624  001F2A  EF8F  F00F         	goto	l2979
  4625  001F2E  EFB1  F00F         	goto	l2993
  4626  001F32                     l2983:
  4627  001F32  0E1F               	movlw	31
  4628  001F34  643C               	cpfsgt	___fltol@exp1^0,c
  4629  001F36  EF9F  F00F         	goto	u2831
  4630  001F3A  EFA1  F00F         	goto	u2830
  4631  001F3E                     u2831:
  4632  001F3E  EFA9  F00F         	goto	l2991
  4633  001F42                     u2830:
  4634  001F42  EF52  F00F         	goto	l2959
  4635  001F46                     l2989:
  4636  001F46  90D8               	bcf	status,0,c
  4637  001F48  3633               	rlcf	___fltol@f1^0,f,c
  4638  001F4A  3634               	rlcf	(___fltol@f1+1)^0,f,c
  4639  001F4C  3635               	rlcf	(___fltol@f1+2)^0,f,c
  4640  001F4E  3636               	rlcf	(___fltol@f1+3)^0,f,c
  4641  001F50  063C               	decf	___fltol@exp1^0,f,c
  4642  001F52                     l2991:
  4643  001F52  503C               	movf	___fltol@exp1^0,w,c
  4644  001F54  A4D8               	btfss	status,2,c
  4645  001F56  EFAF  F00F         	goto	u2841
  4646  001F5A  EFB1  F00F         	goto	u2840
  4647  001F5E                     u2841:
  4648  001F5E  EFA3  F00F         	goto	l2989
  4649  001F62                     u2840:
  4650  001F62                     l2993:
  4651  001F62  503B               	movf	___fltol@sign1^0,w,c
  4652  001F64  B4D8               	btfsc	status,2,c
  4653  001F66  EFB7  F00F         	goto	u2851
  4654  001F6A  EFB9  F00F         	goto	u2850
  4655  001F6E                     u2851:
  4656  001F6E  EFC1  F00F         	goto	l2997
  4657  001F72                     u2850:
  4658  001F72  1E36               	comf	(___fltol@f1+3)^0,f,c
  4659  001F74  1E35               	comf	(___fltol@f1+2)^0,f,c
  4660  001F76  1E34               	comf	(___fltol@f1+1)^0,f,c
  4661  001F78  6C33               	negf	___fltol@f1^0,c
  4662  001F7A  0E00               	movlw	0
  4663  001F7C  2234               	addwfc	(___fltol@f1+1)^0,f,c
  4664  001F7E  2235               	addwfc	(___fltol@f1+2)^0,f,c
  4665  001F80  2236               	addwfc	(___fltol@f1+3)^0,f,c
  4666  001F82                     l2997:
  4667  001F82  C033  F033         	movff	___fltol@f1,?___fltol
  4668  001F86  C034  F034         	movff	___fltol@f1+1,?___fltol+1
  4669  001F8A  C035  F035         	movff	___fltol@f1+2,?___fltol+2
  4670  001F8E  C036  F036         	movff	___fltol@f1+3,?___fltol+3
  4671  001F92                     l572:
  4672  001F92  0012               	return		;funcret
  4673  001F94                     __end_of___fltol:
  4674                           	callstack 0
  4675                           
  4676 ;; *************** function ___flmul *****************
  4677 ;; Defined at:
  4678 ;;		line 8 in file "C:\Program Files\Microchip\xc8\v2.36\pic\sources\c99\common\sprcmul.c"
  4679 ;; Parameters:    Size  Location     Type
  4680 ;;  b               4    0[COMRAM] long 
  4681 ;;  a               4    4[COMRAM] long 
  4682 ;; Auto vars:     Size  Location     Type
  4683 ;;  prod            4   19[COMRAM] struct .
  4684 ;;  grs             4   13[COMRAM] unsigned long 
  4685 ;;  temp            2   23[COMRAM] struct .
  4686 ;;  bexp            1   18[COMRAM] unsigned char 
  4687 ;;  aexp            1   17[COMRAM] unsigned char 
  4688 ;;  sign            1   12[COMRAM] unsigned char 
  4689 ;; Return value:  Size  Location     Type
  4690 ;;                  4    0[COMRAM] unsigned char 
  4691 ;; Registers used:
  4692 ;;		wreg, status,2, status,0, prodl, prodh
  4693 ;; Tracked objects:
  4694 ;;		On entry : 0/0
  4695 ;;		On exit  : 0/0
  4696 ;;		Unchanged: 0/0
  4697 ;; Data sizes:     COMRAM   BANK0   BANK1   BANK2   BANK3   BANK4   BANK5
  4698 ;;      Params:         8       0       0       0       0       0       0
  4699 ;;      Locals:        13       0       0       0       0       0       0
  4700 ;;      Temps:          4       0       0       0       0       0       0
  4701 ;;      Totals:        25       0       0       0       0       0       0
  4702 ;;Total ram usage:       25 bytes
  4703 ;; Hardware stack levels used: 1
  4704 ;; This function calls:
  4705 ;;		Nothing
  4706 ;; This function is called by:
  4707 ;;		_main
  4708 ;; This function uses a non-reentrant model
  4709 ;;
  4710                           
  4711                           	psect	text24
  4712  00062C                     __ptext24:
  4713                           	callstack 0
  4714  00062C                     ___flmul:
  4715                           	callstack 30
  4716  00062C  5004               	movf	(___flmul@b+3)^0,w,c
  4717  00062E  0B80               	andlw	128
  4718  000630  6E0D               	movwf	___flmul@sign^0,c
  4719  000632  5004               	movf	(___flmul@b+3)^0,w,c
  4720  000634  2404               	addwf	(___flmul@b+3)^0,w,c
  4721  000636  6E13               	movwf	___flmul@bexp^0,c
  4722  000638  AE03               	btfss	(___flmul@b+2)^0,7,c
  4723  00063A  EF21  F003         	goto	u2601
  4724  00063E  EF23  F003         	goto	u2600
  4725  000642                     u2601:
  4726  000642  EF24  F003         	goto	l2833
  4727  000646                     u2600:
  4728  000646  8013               	bsf	___flmul@bexp^0,0,c
  4729  000648                     l2833:
  4730  000648  5013               	movf	___flmul@bexp^0,w,c
  4731  00064A  B4D8               	btfsc	status,2,c
  4732  00064C  EF2A  F003         	goto	u2611
  4733  000650  EF2C  F003         	goto	u2610
  4734  000654                     u2611:
  4735  000654  EF3F  F003         	goto	l2841
  4736  000658                     u2610:
  4737  000658  2813               	incf	___flmul@bexp^0,w,c
  4738  00065A  A4D8               	btfss	status,2,c
  4739  00065C  EF32  F003         	goto	u2621
  4740  000660  EF34  F003         	goto	u2620
  4741  000664                     u2621:
  4742  000664  EF3C  F003         	goto	l2839
  4743  000668                     u2620:
  4744  000668  0E00               	movlw	0
  4745  00066A  6E01               	movwf	___flmul@b^0,c
  4746  00066C  0E00               	movlw	0
  4747  00066E  6E02               	movwf	(___flmul@b+1)^0,c
  4748  000670  0E00               	movlw	0
  4749  000672  6E03               	movwf	(___flmul@b+2)^0,c
  4750  000674  0E00               	movlw	0
  4751  000676  6E04               	movwf	(___flmul@b+3)^0,c
  4752  000678                     l2839:
  4753  000678  8E03               	bsf	(___flmul@b+2)^0,7,c
  4754  00067A  EF47  F003         	goto	l2843
  4755  00067E                     l2841:
  4756  00067E  0E00               	movlw	0
  4757  000680  6E01               	movwf	___flmul@b^0,c
  4758  000682  0E00               	movlw	0
  4759  000684  6E02               	movwf	(___flmul@b+1)^0,c
  4760  000686  0E00               	movlw	0
  4761  000688  6E03               	movwf	(___flmul@b+2)^0,c
  4762  00068A  0E00               	movlw	0
  4763  00068C  6E04               	movwf	(___flmul@b+3)^0,c
  4764  00068E                     l2843:
  4765  00068E  5008               	movf	(___flmul@a+3)^0,w,c
  4766  000690  0B80               	andlw	128
  4767  000692  1A0D               	xorwf	___flmul@sign^0,f,c
  4768  000694  5008               	movf	(___flmul@a+3)^0,w,c
  4769  000696  2408               	addwf	(___flmul@a+3)^0,w,c
  4770  000698  6E12               	movwf	___flmul@aexp^0,c
  4771  00069A  AE07               	btfss	(___flmul@a+2)^0,7,c
  4772  00069C  EF52  F003         	goto	u2631
  4773  0006A0  EF54  F003         	goto	u2630
  4774  0006A4                     u2631:
  4775  0006A4  EF55  F003         	goto	l2851
  4776  0006A8                     u2630:
  4777  0006A8  8012               	bsf	___flmul@aexp^0,0,c
  4778  0006AA                     l2851:
  4779  0006AA  5012               	movf	___flmul@aexp^0,w,c
  4780  0006AC  B4D8               	btfsc	status,2,c
  4781  0006AE  EF5B  F003         	goto	u2641
  4782  0006B2  EF5D  F003         	goto	u2640
  4783  0006B6                     u2641:
  4784  0006B6  EF70  F003         	goto	l2859
  4785  0006BA                     u2640:
  4786  0006BA  2812               	incf	___flmul@aexp^0,w,c
  4787  0006BC  A4D8               	btfss	status,2,c
  4788  0006BE  EF63  F003         	goto	u2651
  4789  0006C2  EF65  F003         	goto	u2650
  4790  0006C6                     u2651:
  4791  0006C6  EF6D  F003         	goto	l2857
  4792  0006CA                     u2650:
  4793  0006CA  0E00               	movlw	0
  4794  0006CC  6E05               	movwf	___flmul@a^0,c
  4795  0006CE  0E00               	movlw	0
  4796  0006D0  6E06               	movwf	(___flmul@a+1)^0,c
  4797  0006D2  0E00               	movlw	0
  4798  0006D4  6E07               	movwf	(___flmul@a+2)^0,c
  4799  0006D6  0E00               	movlw	0
  4800  0006D8  6E08               	movwf	(___flmul@a+3)^0,c
  4801  0006DA                     l2857:
  4802  0006DA  8E07               	bsf	(___flmul@a+2)^0,7,c
  4803  0006DC  EF78  F003         	goto	l889
  4804  0006E0                     l2859:
  4805  0006E0  0E00               	movlw	0
  4806  0006E2  6E05               	movwf	___flmul@a^0,c
  4807  0006E4  0E00               	movlw	0
  4808  0006E6  6E06               	movwf	(___flmul@a+1)^0,c
  4809  0006E8  0E00               	movlw	0
  4810  0006EA  6E07               	movwf	(___flmul@a+2)^0,c
  4811  0006EC  0E00               	movlw	0
  4812  0006EE  6E08               	movwf	(___flmul@a+3)^0,c
  4813  0006F0                     l889:
  4814  0006F0  5012               	movf	___flmul@aexp^0,w,c
  4815  0006F2  B4D8               	btfsc	status,2,c
  4816  0006F4  EF7E  F003         	goto	u2661
  4817  0006F8  EF80  F003         	goto	u2660
  4818  0006FC                     u2661:
  4819  0006FC  EF88  F003         	goto	l2863
  4820  000700                     u2660:
  4821  000700  5013               	movf	___flmul@bexp^0,w,c
  4822  000702  A4D8               	btfss	status,2,c
  4823  000704  EF86  F003         	goto	u2671
  4824  000708  EF88  F003         	goto	u2670
  4825  00070C                     u2671:
  4826  00070C  EF92  F003         	goto	l2867
  4827  000710                     u2670:
  4828  000710                     l2863:
  4829  000710  0E00               	movlw	0
  4830  000712  6E01               	movwf	?___flmul^0,c
  4831  000714  0E00               	movlw	0
  4832  000716  6E02               	movwf	(?___flmul+1)^0,c
  4833  000718  0E00               	movlw	0
  4834  00071A  6E03               	movwf	(?___flmul+2)^0,c
  4835  00071C  0E00               	movlw	0
  4836  00071E  6E04               	movwf	(?___flmul+3)^0,c
  4837  000720  EF2A  F005         	goto	l893
  4838  000724                     l2867:
  4839  000724  5007               	movf	(___flmul@a+2)^0,w,c
  4840  000726  0201               	mulwf	___flmul@b^0,c
  4841  000728  CFF3 F018          	movff	prodl,___flmul@temp
  4842  00072C  CFF4 F019          	movff	prodh,___flmul@temp+1
  4843  000730  5018               	movf	___flmul@temp^0,w,c
  4844  000732  6E0E               	movwf	___flmul@grs^0,c
  4845  000734  6A0F               	clrf	(___flmul@grs+1)^0,c
  4846  000736  6A10               	clrf	(___flmul@grs+2)^0,c
  4847  000738  6A11               	clrf	(___flmul@grs+3)^0,c
  4848  00073A  5019               	movf	(___flmul@temp+1)^0,w,c
  4849  00073C  6E14               	movwf	___flmul@prod^0,c
  4850  00073E  6A15               	clrf	(___flmul@prod+1)^0,c
  4851  000740  6A16               	clrf	(___flmul@prod+2)^0,c
  4852  000742  6A17               	clrf	(___flmul@prod+3)^0,c
  4853  000744  5006               	movf	(___flmul@a+1)^0,w,c
  4854  000746  0202               	mulwf	(___flmul@b+1)^0,c
  4855  000748  CFF3 F018          	movff	prodl,___flmul@temp
  4856  00074C  CFF4 F019          	movff	prodh,___flmul@temp+1
  4857  000750  5018               	movf	___flmul@temp^0,w,c
  4858  000752  260E               	addwf	___flmul@grs^0,f,c
  4859  000754  0E00               	movlw	0
  4860  000756  220F               	addwfc	(___flmul@grs+1)^0,f,c
  4861  000758  2210               	addwfc	(___flmul@grs+2)^0,f,c
  4862  00075A  2211               	addwfc	(___flmul@grs+3)^0,f,c
  4863  00075C  5019               	movf	(___flmul@temp+1)^0,w,c
  4864  00075E  2614               	addwf	___flmul@prod^0,f,c
  4865  000760  0E00               	movlw	0
  4866  000762  2215               	addwfc	(___flmul@prod+1)^0,f,c
  4867  000764  2216               	addwfc	(___flmul@prod+2)^0,f,c
  4868  000766  2217               	addwfc	(___flmul@prod+3)^0,f,c
  4869  000768  5005               	movf	___flmul@a^0,w,c
  4870  00076A  0203               	mulwf	(___flmul@b+2)^0,c
  4871  00076C  CFF3 F018          	movff	prodl,___flmul@temp
  4872  000770  CFF4 F019          	movff	prodh,___flmul@temp+1
  4873  000774  5018               	movf	___flmul@temp^0,w,c
  4874  000776  260E               	addwf	___flmul@grs^0,f,c
  4875  000778  0E00               	movlw	0
  4876  00077A  220F               	addwfc	(___flmul@grs+1)^0,f,c
  4877  00077C  2210               	addwfc	(___flmul@grs+2)^0,f,c
  4878  00077E  2211               	addwfc	(___flmul@grs+3)^0,f,c
  4879  000780  5019               	movf	(___flmul@temp+1)^0,w,c
  4880  000782  2614               	addwf	___flmul@prod^0,f,c
  4881  000784  0E00               	movlw	0
  4882  000786  2215               	addwfc	(___flmul@prod+1)^0,f,c
  4883  000788  2216               	addwfc	(___flmul@prod+2)^0,f,c
  4884  00078A  2217               	addwfc	(___flmul@prod+3)^0,f,c
  4885  00078C  C010  F011         	movff	___flmul@grs+2,___flmul@grs+3
  4886  000790  C00F  F010         	movff	___flmul@grs+1,___flmul@grs+2
  4887  000794  C00E  F00F         	movff	___flmul@grs,___flmul@grs+1
  4888  000798  6A0E               	clrf	___flmul@grs^0,c
  4889  00079A  5005               	movf	___flmul@a^0,w,c
  4890  00079C  0202               	mulwf	(___flmul@b+1)^0,c
  4891  00079E  CFF3 F018          	movff	prodl,___flmul@temp
  4892  0007A2  CFF4 F019          	movff	prodh,___flmul@temp+1
  4893  0007A6  5018               	movf	___flmul@temp^0,w,c
  4894  0007A8  260E               	addwf	___flmul@grs^0,f,c
  4895  0007AA  5019               	movf	(___flmul@temp+1)^0,w,c
  4896  0007AC  220F               	addwfc	(___flmul@grs+1)^0,f,c
  4897  0007AE  0E00               	movlw	0
  4898  0007B0  2210               	addwfc	(___flmul@grs+2)^0,f,c
  4899  0007B2  0E00               	movlw	0
  4900  0007B4  2211               	addwfc	(___flmul@grs+3)^0,f,c
  4901  0007B6  5006               	movf	(___flmul@a+1)^0,w,c
  4902  0007B8  0201               	mulwf	___flmul@b^0,c
  4903  0007BA  CFF3 F018          	movff	prodl,___flmul@temp
  4904  0007BE  CFF4 F019          	movff	prodh,___flmul@temp+1
  4905  0007C2  5018               	movf	___flmul@temp^0,w,c
  4906  0007C4  260E               	addwf	___flmul@grs^0,f,c
  4907  0007C6  5019               	movf	(___flmul@temp+1)^0,w,c
  4908  0007C8  220F               	addwfc	(___flmul@grs+1)^0,f,c
  4909  0007CA  0E00               	movlw	0
  4910  0007CC  2210               	addwfc	(___flmul@grs+2)^0,f,c
  4911  0007CE  0E00               	movlw	0
  4912  0007D0  2211               	addwfc	(___flmul@grs+3)^0,f,c
  4913  0007D2  C010  F011         	movff	___flmul@grs+2,___flmul@grs+3
  4914  0007D6  C00F  F010         	movff	___flmul@grs+1,___flmul@grs+2
  4915  0007DA  C00E  F00F         	movff	___flmul@grs,___flmul@grs+1
  4916  0007DE  6A0E               	clrf	___flmul@grs^0,c
  4917  0007E0  5005               	movf	___flmul@a^0,w,c
  4918  0007E2  0201               	mulwf	___flmul@b^0,c
  4919  0007E4  CFF3 F018          	movff	prodl,___flmul@temp
  4920  0007E8  CFF4 F019          	movff	prodh,___flmul@temp+1
  4921  0007EC  5018               	movf	___flmul@temp^0,w,c
  4922  0007EE  260E               	addwf	___flmul@grs^0,f,c
  4923  0007F0  5019               	movf	(___flmul@temp+1)^0,w,c
  4924  0007F2  220F               	addwfc	(___flmul@grs+1)^0,f,c
  4925  0007F4  0E00               	movlw	0
  4926  0007F6  2210               	addwfc	(___flmul@grs+2)^0,f,c
  4927  0007F8  0E00               	movlw	0
  4928  0007FA  2211               	addwfc	(___flmul@grs+3)^0,f,c
  4929  0007FC  5007               	movf	(___flmul@a+2)^0,w,c
  4930  0007FE  0202               	mulwf	(___flmul@b+1)^0,c
  4931  000800  CFF3 F018          	movff	prodl,___flmul@temp
  4932  000804  CFF4 F019          	movff	prodh,___flmul@temp+1
  4933  000808  5018               	movf	___flmul@temp^0,w,c
  4934  00080A  2614               	addwf	___flmul@prod^0,f,c
  4935  00080C  5019               	movf	(___flmul@temp+1)^0,w,c
  4936  00080E  2215               	addwfc	(___flmul@prod+1)^0,f,c
  4937  000810  0E00               	movlw	0
  4938  000812  2216               	addwfc	(___flmul@prod+2)^0,f,c
  4939  000814  0E00               	movlw	0
  4940  000816  2217               	addwfc	(___flmul@prod+3)^0,f,c
  4941  000818  5006               	movf	(___flmul@a+1)^0,w,c
  4942  00081A  0203               	mulwf	(___flmul@b+2)^0,c
  4943  00081C  CFF3 F018          	movff	prodl,___flmul@temp
  4944  000820  CFF4 F019          	movff	prodh,___flmul@temp+1
  4945  000824  5018               	movf	___flmul@temp^0,w,c
  4946  000826  2614               	addwf	___flmul@prod^0,f,c
  4947  000828  5019               	movf	(___flmul@temp+1)^0,w,c
  4948  00082A  2215               	addwfc	(___flmul@prod+1)^0,f,c
  4949  00082C  0E00               	movlw	0
  4950  00082E  2216               	addwfc	(___flmul@prod+2)^0,f,c
  4951  000830  0E00               	movlw	0
  4952  000832  2217               	addwfc	(___flmul@prod+3)^0,f,c
  4953  000834  5007               	movf	(___flmul@a+2)^0,w,c
  4954  000836  0203               	mulwf	(___flmul@b+2)^0,c
  4955  000838  CFF3 F018          	movff	prodl,___flmul@temp
  4956  00083C  CFF4 F019          	movff	prodh,___flmul@temp+1
  4957  000840  5018               	movf	___flmul@temp^0,w,c
  4958  000842  6E09               	movwf	??___flmul^0,c
  4959  000844  5019               	movf	(___flmul@temp+1)^0,w,c
  4960  000846  6E0A               	movwf	(??___flmul+1)^0,c
  4961  000848  6A0B               	clrf	(??___flmul+2)^0,c
  4962  00084A  6A0C               	clrf	(??___flmul+3)^0,c
  4963  00084C  C00B  F00C         	movff	??___flmul+2,??___flmul+3
  4964  000850  C00A  F00B         	movff	??___flmul+1,??___flmul+2
  4965  000854  C009  F00A         	movff	??___flmul,??___flmul+1
  4966  000858  6A09               	clrf	??___flmul^0,c
  4967  00085A  5009               	movf	??___flmul^0,w,c
  4968  00085C  2614               	addwf	___flmul@prod^0,f,c
  4969  00085E  500A               	movf	(??___flmul+1)^0,w,c
  4970  000860  2215               	addwfc	(___flmul@prod+1)^0,f,c
  4971  000862  500B               	movf	(??___flmul+2)^0,w,c
  4972  000864  2216               	addwfc	(___flmul@prod+2)^0,f,c
  4973  000866  500C               	movf	(??___flmul+3)^0,w,c
  4974  000868  2217               	addwfc	(___flmul@prod+3)^0,f,c
  4975  00086A  C00E  F009         	movff	___flmul@grs,??___flmul
  4976  00086E  C00F  F00A         	movff	___flmul@grs+1,??___flmul+1
  4977  000872  C010  F00B         	movff	___flmul@grs+2,??___flmul+2
  4978  000876  C011  F00C         	movff	___flmul@grs+3,??___flmul+3
  4979  00087A  0E19               	movlw	25
  4980  00087C  EF45  F004         	goto	u2680
  4981  000880                     u2685:
  4982  000880  90D8               	bcf	status,0,c
  4983  000882  320C               	rrcf	(??___flmul+3)^0,f,c
  4984  000884  320B               	rrcf	(??___flmul+2)^0,f,c
  4985  000886  320A               	rrcf	(??___flmul+1)^0,f,c
  4986  000888  3209               	rrcf	??___flmul^0,f,c
  4987  00088A                     u2680:
  4988  00088A  2EE8               	decfsz	wreg,f,c
  4989  00088C  EF40  F004         	goto	u2685
  4990  000890  5009               	movf	??___flmul^0,w,c
  4991  000892  2614               	addwf	___flmul@prod^0,f,c
  4992  000894  500A               	movf	(??___flmul+1)^0,w,c
  4993  000896  2215               	addwfc	(___flmul@prod+1)^0,f,c
  4994  000898  500B               	movf	(??___flmul+2)^0,w,c
  4995  00089A  2216               	addwfc	(___flmul@prod+2)^0,f,c
  4996  00089C  500C               	movf	(??___flmul+3)^0,w,c
  4997  00089E  2217               	addwfc	(___flmul@prod+3)^0,f,c
  4998  0008A0  C010  F011         	movff	___flmul@grs+2,___flmul@grs+3
  4999  0008A4  C00F  F010         	movff	___flmul@grs+1,___flmul@grs+2
  5000  0008A8  C00E  F00F         	movff	___flmul@grs,___flmul@grs+1
  5001  0008AC  6A0E               	clrf	___flmul@grs^0,c
  5002  0008AE  5012               	movf	___flmul@aexp^0,w,c
  5003  0008B0  C013  F009         	movff	___flmul@bexp,??___flmul
  5004  0008B4  6A0A               	clrf	(??___flmul+1)^0,c
  5005  0008B6  2609               	addwf	??___flmul^0,f,c
  5006  0008B8  0E00               	movlw	0
  5007  0008BA  220A               	addwfc	(??___flmul+1)^0,f,c
  5008  0008BC  0E82               	movlw	130
  5009  0008BE  2409               	addwf	??___flmul^0,w,c
  5010  0008C0  6E18               	movwf	___flmul@temp^0,c
  5011  0008C2  0EFF               	movlw	255
  5012  0008C4  200A               	addwfc	(??___flmul+1)^0,w,c
  5013  0008C6  6E19               	movwf	(___flmul@temp+1)^0,c
  5014  0008C8  EF7B  F004         	goto	l2915
  5015  0008CC                     l2909:
  5016  0008CC  90D8               	bcf	status,0,c
  5017  0008CE  3614               	rlcf	___flmul@prod^0,f,c
  5018  0008D0  3615               	rlcf	(___flmul@prod+1)^0,f,c
  5019  0008D2  3616               	rlcf	(___flmul@prod+2)^0,f,c
  5020  0008D4  3617               	rlcf	(___flmul@prod+3)^0,f,c
  5021  0008D6  AE11               	btfss	(___flmul@grs+3)^0,7,c
  5022  0008D8  EF70  F004         	goto	u2691
  5023  0008DC  EF72  F004         	goto	u2690
  5024  0008E0                     u2691:
  5025  0008E0  EF73  F004         	goto	l896
  5026  0008E4                     u2690:
  5027  0008E4  8014               	bsf	___flmul@prod^0,0,c
  5028  0008E6                     l896:
  5029  0008E6  90D8               	bcf	status,0,c
  5030  0008E8  360E               	rlcf	___flmul@grs^0,f,c
  5031  0008EA  360F               	rlcf	(___flmul@grs+1)^0,f,c
  5032  0008EC  3610               	rlcf	(___flmul@grs+2)^0,f,c
  5033  0008EE  3611               	rlcf	(___flmul@grs+3)^0,f,c
  5034  0008F0  0618               	decf	___flmul@temp^0,f,c
  5035  0008F2  A0D8               	btfss	status,0,c
  5036  0008F4  0619               	decf	(___flmul@temp+1)^0,f,c
  5037  0008F6                     l2915:
  5038  0008F6  AE16               	btfss	(___flmul@prod+2)^0,7,c
  5039  0008F8  EF80  F004         	goto	u2701
  5040  0008FC  EF82  F004         	goto	u2700
  5041  000900                     u2701:
  5042  000900  EF66  F004         	goto	l2909
  5043  000904                     u2700:
  5044  000904  0E00               	movlw	0
  5045  000906  6E12               	movwf	___flmul@aexp^0,c
  5046  000908  AE11               	btfss	(___flmul@grs+3)^0,7,c
  5047  00090A  EF89  F004         	goto	u2711
  5048  00090E  EF8B  F004         	goto	u2710
  5049  000912                     u2711:
  5050  000912  EFAF  F004         	goto	l898
  5051  000916                     u2710:
  5052  000916  0EFF               	movlw	255
  5053  000918  140E               	andwf	___flmul@grs^0,w,c
  5054  00091A  6E09               	movwf	??___flmul^0,c
  5055  00091C  0EFF               	movlw	255
  5056  00091E  140F               	andwf	(___flmul@grs+1)^0,w,c
  5057  000920  6E0A               	movwf	(??___flmul+1)^0,c
  5058  000922  0EFF               	movlw	255
  5059  000924  1410               	andwf	(___flmul@grs+2)^0,w,c
  5060  000926  6E0B               	movwf	(??___flmul+2)^0,c
  5061  000928  0E7F               	movlw	127
  5062  00092A  1411               	andwf	(___flmul@grs+3)^0,w,c
  5063  00092C  6E0C               	movwf	(??___flmul+3)^0,c
  5064  00092E  5009               	movf	??___flmul^0,w,c
  5065  000930  100A               	iorwf	(??___flmul+1)^0,w,c
  5066  000932  100B               	iorwf	(??___flmul+2)^0,w,c
  5067  000934  100C               	iorwf	(??___flmul+3)^0,w,c
  5068  000936  B4D8               	btfsc	status,2,c
  5069  000938  EFA0  F004         	goto	u2721
  5070  00093C  EFA2  F004         	goto	u2720
  5071  000940                     u2721:
  5072  000940  EFA6  F004         	goto	l899
  5073  000944                     u2720:
  5074  000944                     l2923:
  5075  000944  0E01               	movlw	1
  5076  000946  6E12               	movwf	___flmul@aexp^0,c
  5077  000948  EFAF  F004         	goto	l898
  5078  00094C                     l899:
  5079  00094C  A014               	btfss	___flmul@prod^0,0,c
  5080  00094E  EFAB  F004         	goto	u2731
  5081  000952  EFAD  F004         	goto	u2730
  5082  000956                     u2731:
  5083  000956  EFAF  F004         	goto	l898
  5084  00095A                     u2730:
  5085  00095A  EFA2  F004         	goto	l2923
  5086  00095E                     l898:
  5087  00095E  5012               	movf	___flmul@aexp^0,w,c
  5088  000960  B4D8               	btfsc	status,2,c
  5089  000962  EFB5  F004         	goto	u2741
  5090  000966  EFB7  F004         	goto	u2740
  5091  00096A                     u2741:
  5092  00096A  EFDB  F004         	goto	l2935
  5093  00096E                     u2740:
  5094  00096E  0E01               	movlw	1
  5095  000970  2614               	addwf	___flmul@prod^0,f,c
  5096  000972  0E00               	movlw	0
  5097  000974  2215               	addwfc	(___flmul@prod+1)^0,f,c
  5098  000976  2216               	addwfc	(___flmul@prod+2)^0,f,c
  5099  000978  2217               	addwfc	(___flmul@prod+3)^0,f,c
  5100  00097A  A017               	btfss	(___flmul@prod+3)^0,0,c
  5101  00097C  EFC2  F004         	goto	u2751
  5102  000980  EFC4  F004         	goto	u2750
  5103  000984                     u2751:
  5104  000984  EFDB  F004         	goto	l2935
  5105  000988                     u2750:
  5106  000988  C014  F009         	movff	___flmul@prod,??___flmul
  5107  00098C  C015  F00A         	movff	___flmul@prod+1,??___flmul+1
  5108  000990  C016  F00B         	movff	___flmul@prod+2,??___flmul+2
  5109  000994  C017  F00C         	movff	___flmul@prod+3,??___flmul+3
  5110  000998  340C               	rlcf	(??___flmul+3)^0,w,c
  5111  00099A  320C               	rrcf	(??___flmul+3)^0,f,c
  5112  00099C  320B               	rrcf	(??___flmul+2)^0,f,c
  5113  00099E  320A               	rrcf	(??___flmul+1)^0,f,c
  5114  0009A0  3209               	rrcf	??___flmul^0,f,c
  5115  0009A2  C009  F014         	movff	??___flmul,___flmul@prod
  5116  0009A6  C00A  F015         	movff	??___flmul+1,___flmul@prod+1
  5117  0009AA  C00B  F016         	movff	??___flmul+2,___flmul@prod+2
  5118  0009AE  C00C  F017         	movff	??___flmul+3,___flmul@prod+3
  5119  0009B2  4A18               	infsnz	___flmul@temp^0,f,c
  5120  0009B4  2A19               	incf	(___flmul@temp+1)^0,f,c
  5121  0009B6                     l2935:
  5122  0009B6  BE19               	btfsc	(___flmul@temp+1)^0,7,c
  5123  0009B8  EFE6  F004         	goto	u2761
  5124  0009BC  5019               	movf	(___flmul@temp+1)^0,w,c
  5125  0009BE  E108               	bnz	u2760
  5126  0009C0  2818               	incf	___flmul@temp^0,w,c
  5127  0009C2  A0D8               	btfss	status,0,c
  5128  0009C4  EFE6  F004         	goto	u2761
  5129  0009C8  EFE8  F004         	goto	u2760
  5130  0009CC                     u2761:
  5131  0009CC  EFF2  F004         	goto	l2939
  5132  0009D0                     u2760:
  5133  0009D0  0E00               	movlw	0
  5134  0009D2  6E14               	movwf	___flmul@prod^0,c
  5135  0009D4  0E00               	movlw	0
  5136  0009D6  6E15               	movwf	(___flmul@prod+1)^0,c
  5137  0009D8  0E80               	movlw	128
  5138  0009DA  6E16               	movwf	(___flmul@prod+2)^0,c
  5139  0009DC  0E7F               	movlw	127
  5140  0009DE  6E17               	movwf	(___flmul@prod+3)^0,c
  5141  0009E0  EF20  F005         	goto	l2951
  5142  0009E4                     l2939:
  5143  0009E4  BE19               	btfsc	(___flmul@temp+1)^0,7,c
  5144  0009E6  EFFF  F004         	goto	u2770
  5145  0009EA  5019               	movf	(___flmul@temp+1)^0,w,c
  5146  0009EC  E106               	bnz	u2771
  5147  0009EE  0418               	decf	___flmul@temp^0,w,c
  5148  0009F0  B0D8               	btfsc	status,0,c
  5149  0009F2  EFFD  F004         	goto	u2771
  5150  0009F6  EFFF  F004         	goto	u2770
  5151  0009FA                     u2771:
  5152  0009FA  EF0B  F005         	goto	l906
  5153  0009FE                     u2770:
  5154  0009FE  0E00               	movlw	0
  5155  000A00  6E14               	movwf	___flmul@prod^0,c
  5156  000A02  0E00               	movlw	0
  5157  000A04  6E15               	movwf	(___flmul@prod+1)^0,c
  5158  000A06  0E00               	movlw	0
  5159  000A08  6E16               	movwf	(___flmul@prod+2)^0,c
  5160  000A0A  0E00               	movlw	0
  5161  000A0C  6E17               	movwf	(___flmul@prod+3)^0,c
  5162  000A0E  0E00               	movlw	0
  5163  000A10  6E0D               	movwf	___flmul@sign^0,c
  5164  000A12  EF20  F005         	goto	l2951
  5165  000A16                     l906:
  5166  000A16  C018  F013         	movff	___flmul@temp,___flmul@bexp
  5167  000A1A  0EFF               	movlw	255
  5168  000A1C  1614               	andwf	___flmul@prod^0,f,c
  5169  000A1E  0EFF               	movlw	255
  5170  000A20  1615               	andwf	(___flmul@prod+1)^0,f,c
  5171  000A22  0E7F               	movlw	127
  5172  000A24  1616               	andwf	(___flmul@prod+2)^0,f,c
  5173  000A26  0E00               	movlw	0
  5174  000A28  1617               	andwf	(___flmul@prod+3)^0,f,c
  5175  000A2A  A013               	btfss	___flmul@bexp^0,0,c
  5176  000A2C  EF1A  F005         	goto	u2781
  5177  000A30  EF1C  F005         	goto	u2780
  5178  000A34                     u2781:
  5179  000A34  EF1D  F005         	goto	l2949
  5180  000A38                     u2780:
  5181  000A38  8E16               	bsf	(___flmul@prod+2)^0,7,c
  5182  000A3A                     l2949:
  5183  000A3A  90D8               	bcf	status,0,c
  5184  000A3C  3013               	rrcf	___flmul@bexp^0,w,c
  5185  000A3E  6E17               	movwf	(___flmul@prod+3)^0,c
  5186  000A40                     l2951:
  5187  000A40  500D               	movf	___flmul@sign^0,w,c
  5188  000A42  1217               	iorwf	(___flmul@prod+3)^0,f,c
  5189  000A44  C014  F001         	movff	___flmul@prod,?___flmul
  5190  000A48  C015  F002         	movff	___flmul@prod+1,?___flmul+1
  5191  000A4C  C016  F003         	movff	___flmul@prod+2,?___flmul+2
  5192  000A50  C017  F004         	movff	___flmul@prod+3,?___flmul+3
  5193  000A54                     l893:
  5194  000A54  0012               	return		;funcret
  5195  000A56                     __end_of___flmul:
  5196                           	callstack 0
  5197                           
  5198 ;; *************** function ___fldiv *****************
  5199 ;; Defined at:
  5200 ;;		line 11 in file "C:\Program Files\Microchip\xc8\v2.36\pic\sources\c99\common\sprcdiv.c"
  5201 ;; Parameters:    Size  Location     Type
  5202 ;;  b               4   25[COMRAM] unsigned char 
  5203 ;;  a               4   29[COMRAM] unsigned char 
  5204 ;; Auto vars:     Size  Location     Type
  5205 ;;  grs             4   44[COMRAM] unsigned long 
  5206 ;;  rem             4   37[COMRAM] unsigned long 
  5207 ;;  new_exp         2   42[COMRAM] short 
  5208 ;;  aexp            1   49[COMRAM] unsigned char 
  5209 ;;  bexp            1   48[COMRAM] unsigned char 
  5210 ;;  sign            1   41[COMRAM] unsigned char 
  5211 ;; Return value:  Size  Location     Type
  5212 ;;                  4   25[COMRAM] unsigned char 
  5213 ;; Registers used:
  5214 ;;		wreg, status,2, status,0
  5215 ;; Tracked objects:
  5216 ;;		On entry : 0/0
  5217 ;;		On exit  : 0/0
  5218 ;;		Unchanged: 0/0
  5219 ;; Data sizes:     COMRAM   BANK0   BANK1   BANK2   BANK3   BANK4   BANK5
  5220 ;;      Params:         8       0       0       0       0       0       0
  5221 ;;      Locals:        13       0       0       0       0       0       0
  5222 ;;      Temps:          4       0       0       0       0       0       0
  5223 ;;      Totals:        25       0       0       0       0       0       0
  5224 ;;Total ram usage:       25 bytes
  5225 ;; Hardware stack levels used: 1
  5226 ;; This function calls:
  5227 ;;		Nothing
  5228 ;; This function is called by:
  5229 ;;		_main
  5230 ;; This function uses a non-reentrant model
  5231 ;;
  5232                           
  5233                           	psect	text25
  5234  000A56                     __ptext25:
  5235                           	callstack 0
  5236  000A56                     ___fldiv:
  5237                           	callstack 30
  5238  000A56  501D               	movf	(___fldiv@b+3)^0,w,c
  5239  000A58  0B80               	andlw	128
  5240  000A5A  6E2A               	movwf	___fldiv@sign^0,c
  5241  000A5C  501D               	movf	(___fldiv@b+3)^0,w,c
  5242  000A5E  241D               	addwf	(___fldiv@b+3)^0,w,c
  5243  000A60  6E31               	movwf	___fldiv@bexp^0,c
  5244  000A62  AE1C               	btfss	(___fldiv@b+2)^0,7,c
  5245  000A64  EF36  F005         	goto	u2371
  5246  000A68  EF38  F005         	goto	u2370
  5247  000A6C                     u2371:
  5248  000A6C  EF39  F005         	goto	l2695
  5249  000A70                     u2370:
  5250  000A70  8031               	bsf	___fldiv@bexp^0,0,c
  5251  000A72                     l2695:
  5252  000A72  5031               	movf	___fldiv@bexp^0,w,c
  5253  000A74  B4D8               	btfsc	status,2,c
  5254  000A76  EF3F  F005         	goto	u2381
  5255  000A7A  EF41  F005         	goto	u2380
  5256  000A7E                     u2381:
  5257  000A7E  EF56  F005         	goto	l2705
  5258  000A82                     u2380:
  5259  000A82  2831               	incf	___fldiv@bexp^0,w,c
  5260  000A84  A4D8               	btfss	status,2,c
  5261  000A86  EF47  F005         	goto	u2391
  5262  000A8A  EF49  F005         	goto	u2390
  5263  000A8E                     u2391:
  5264  000A8E  EF51  F005         	goto	l2701
  5265  000A92                     u2390:
  5266  000A92  0E00               	movlw	0
  5267  000A94  6E1A               	movwf	___fldiv@b^0,c
  5268  000A96  0E00               	movlw	0
  5269  000A98  6E1B               	movwf	(___fldiv@b+1)^0,c
  5270  000A9A  0E00               	movlw	0
  5271  000A9C  6E1C               	movwf	(___fldiv@b+2)^0,c
  5272  000A9E  0E00               	movlw	0
  5273  000AA0  6E1D               	movwf	(___fldiv@b+3)^0,c
  5274  000AA2                     l2701:
  5275  000AA2  8E1C               	bsf	(___fldiv@b+2)^0,7,c
  5276  000AA4  0E00               	movlw	0
  5277  000AA6  6E1D               	movwf	(___fldiv@b+3)^0,c
  5278  000AA8  EF5E  F005         	goto	l2707
  5279  000AAC                     l2705:
  5280  000AAC  0E00               	movlw	0
  5281  000AAE  6E1A               	movwf	___fldiv@b^0,c
  5282  000AB0  0E00               	movlw	0
  5283  000AB2  6E1B               	movwf	(___fldiv@b+1)^0,c
  5284  000AB4  0E00               	movlw	0
  5285  000AB6  6E1C               	movwf	(___fldiv@b+2)^0,c
  5286  000AB8  0E00               	movlw	0
  5287  000ABA  6E1D               	movwf	(___fldiv@b+3)^0,c
  5288  000ABC                     l2707:
  5289  000ABC  5021               	movf	(___fldiv@a+3)^0,w,c
  5290  000ABE  0B80               	andlw	128
  5291  000AC0  1A2A               	xorwf	___fldiv@sign^0,f,c
  5292  000AC2  5021               	movf	(___fldiv@a+3)^0,w,c
  5293  000AC4  2421               	addwf	(___fldiv@a+3)^0,w,c
  5294  000AC6  6E32               	movwf	___fldiv@aexp^0,c
  5295  000AC8  AE20               	btfss	(___fldiv@a+2)^0,7,c
  5296  000ACA  EF69  F005         	goto	u2401
  5297  000ACE  EF6B  F005         	goto	u2400
  5298  000AD2                     u2401:
  5299  000AD2  EF6C  F005         	goto	l2715
  5300  000AD6                     u2400:
  5301  000AD6  8032               	bsf	___fldiv@aexp^0,0,c
  5302  000AD8                     l2715:
  5303  000AD8  5032               	movf	___fldiv@aexp^0,w,c
  5304  000ADA  B4D8               	btfsc	status,2,c
  5305  000ADC  EF72  F005         	goto	u2411
  5306  000AE0  EF74  F005         	goto	u2410
  5307  000AE4                     u2411:
  5308  000AE4  EF89  F005         	goto	l2725
  5309  000AE8                     u2410:
  5310  000AE8  2832               	incf	___fldiv@aexp^0,w,c
  5311  000AEA  A4D8               	btfss	status,2,c
  5312  000AEC  EF7A  F005         	goto	u2421
  5313  000AF0  EF7C  F005         	goto	u2420
  5314  000AF4                     u2421:
  5315  000AF4  EF84  F005         	goto	l2721
  5316  000AF8                     u2420:
  5317  000AF8  0E00               	movlw	0
  5318  000AFA  6E1E               	movwf	___fldiv@a^0,c
  5319  000AFC  0E00               	movlw	0
  5320  000AFE  6E1F               	movwf	(___fldiv@a+1)^0,c
  5321  000B00  0E00               	movlw	0
  5322  000B02  6E20               	movwf	(___fldiv@a+2)^0,c
  5323  000B04  0E00               	movlw	0
  5324  000B06  6E21               	movwf	(___fldiv@a+3)^0,c
  5325  000B08                     l2721:
  5326  000B08  8E20               	bsf	(___fldiv@a+2)^0,7,c
  5327  000B0A  0E00               	movlw	0
  5328  000B0C  6E21               	movwf	(___fldiv@a+3)^0,c
  5329  000B0E  EF91  F005         	goto	l2727
  5330  000B12                     l2725:
  5331  000B12  0E00               	movlw	0
  5332  000B14  6E1E               	movwf	___fldiv@a^0,c
  5333  000B16  0E00               	movlw	0
  5334  000B18  6E1F               	movwf	(___fldiv@a+1)^0,c
  5335  000B1A  0E00               	movlw	0
  5336  000B1C  6E20               	movwf	(___fldiv@a+2)^0,c
  5337  000B1E  0E00               	movlw	0
  5338  000B20  6E21               	movwf	(___fldiv@a+3)^0,c
  5339  000B22                     l2727:
  5340  000B22  501E               	movf	___fldiv@a^0,w,c
  5341  000B24  101F               	iorwf	(___fldiv@a+1)^0,w,c
  5342  000B26  1020               	iorwf	(___fldiv@a+2)^0,w,c
  5343  000B28  1021               	iorwf	(___fldiv@a+3)^0,w,c
  5344  000B2A  A4D8               	btfss	status,2,c
  5345  000B2C  EF9A  F005         	goto	u2431
  5346  000B30  EF9C  F005         	goto	u2430
  5347  000B34                     u2431:
  5348  000B34  EFB4  F005         	goto	l2739
  5349  000B38                     u2430:
  5350  000B38  0E00               	movlw	0
  5351  000B3A  6E1A               	movwf	___fldiv@b^0,c
  5352  000B3C  0E00               	movlw	0
  5353  000B3E  6E1B               	movwf	(___fldiv@b+1)^0,c
  5354  000B40  0E00               	movlw	0
  5355  000B42  6E1C               	movwf	(___fldiv@b+2)^0,c
  5356  000B44  0E00               	movlw	0
  5357  000B46  6E1D               	movwf	(___fldiv@b+3)^0,c
  5358  000B48  0E80               	movlw	128
  5359  000B4A  121C               	iorwf	(___fldiv@b+2)^0,f,c
  5360  000B4C  0E7F               	movlw	127
  5361  000B4E  121D               	iorwf	(___fldiv@b+3)^0,f,c
  5362  000B50                     l2733:
  5363  000B50  502A               	movf	___fldiv@sign^0,w,c
  5364  000B52  121D               	iorwf	(___fldiv@b+3)^0,f,c
  5365  000B54  C01A  F01A         	movff	___fldiv@b,?___fldiv
  5366  000B58  C01B  F01B         	movff	___fldiv@b+1,?___fldiv+1
  5367  000B5C  C01C  F01C         	movff	___fldiv@b+2,?___fldiv+2
  5368  000B60  C01D  F01D         	movff	___fldiv@b+3,?___fldiv+3
  5369  000B64  EFF7  F006         	goto	l857
  5370  000B68                     l2739:
  5371  000B68  5031               	movf	___fldiv@bexp^0,w,c
  5372  000B6A  A4D8               	btfss	status,2,c
  5373  000B6C  EFBA  F005         	goto	u2441
  5374  000B70  EFBC  F005         	goto	u2440
  5375  000B74                     u2441:
  5376  000B74  EFC6  F005         	goto	l2747
  5377  000B78                     u2440:
  5378  000B78  0E00               	movlw	0
  5379  000B7A  6E1A               	movwf	?___fldiv^0,c
  5380  000B7C  0E00               	movlw	0
  5381  000B7E  6E1B               	movwf	(?___fldiv+1)^0,c
  5382  000B80  0E00               	movlw	0
  5383  000B82  6E1C               	movwf	(?___fldiv+2)^0,c
  5384  000B84  0E00               	movlw	0
  5385  000B86  6E1D               	movwf	(?___fldiv+3)^0,c
  5386  000B88  EFF7  F006         	goto	l857
  5387  000B8C                     l2747:
  5388  000B8C  5032               	movf	___fldiv@aexp^0,w,c
  5389  000B8E  C031  F022         	movff	___fldiv@bexp,??___fldiv
  5390  000B92  6A23               	clrf	(??___fldiv+1)^0,c
  5391  000B94  5E22               	subwf	??___fldiv^0,f,c
  5392  000B96  0E00               	movlw	0
  5393  000B98  5A23               	subwfb	(??___fldiv+1)^0,f,c
  5394  000B9A  0E7F               	movlw	127
  5395  000B9C  2422               	addwf	??___fldiv^0,w,c
  5396  000B9E  6E2B               	movwf	___fldiv@new_exp^0,c
  5397  000BA0  0E00               	movlw	0
  5398  000BA2  2023               	addwfc	(??___fldiv+1)^0,w,c
  5399  000BA4  6E2C               	movwf	(___fldiv@new_exp+1)^0,c
  5400  000BA6  C01A  F026         	movff	___fldiv@b,___fldiv@rem
  5401  000BAA  C01B  F027         	movff	___fldiv@b+1,___fldiv@rem+1
  5402  000BAE  C01C  F028         	movff	___fldiv@b+2,___fldiv@rem+2
  5403  000BB2  C01D  F029         	movff	___fldiv@b+3,___fldiv@rem+3
  5404  000BB6  0E00               	movlw	0
  5405  000BB8  6E1A               	movwf	___fldiv@b^0,c
  5406  000BBA  0E00               	movlw	0
  5407  000BBC  6E1B               	movwf	(___fldiv@b+1)^0,c
  5408  000BBE  0E00               	movlw	0
  5409  000BC0  6E1C               	movwf	(___fldiv@b+2)^0,c
  5410  000BC2  0E00               	movlw	0
  5411  000BC4  6E1D               	movwf	(___fldiv@b+3)^0,c
  5412  000BC6  0E00               	movlw	0
  5413  000BC8  6E2D               	movwf	___fldiv@grs^0,c
  5414  000BCA  0E00               	movlw	0
  5415  000BCC  6E2E               	movwf	(___fldiv@grs+1)^0,c
  5416  000BCE  0E00               	movlw	0
  5417  000BD0  6E2F               	movwf	(___fldiv@grs+2)^0,c
  5418  000BD2  0E00               	movlw	0
  5419  000BD4  6E30               	movwf	(___fldiv@grs+3)^0,c
  5420  000BD6  0E00               	movlw	0
  5421  000BD8  6E32               	movwf	___fldiv@aexp^0,c
  5422  000BDA  EF27  F006         	goto	l859
  5423  000BDE                     l2757:
  5424  000BDE  5032               	movf	___fldiv@aexp^0,w,c
  5425  000BE0  B4D8               	btfsc	status,2,c
  5426  000BE2  EFF5  F005         	goto	u2451
  5427  000BE6  EFF7  F005         	goto	u2450
  5428  000BEA                     u2451:
  5429  000BEA  EF0E  F006         	goto	l2765
  5430  000BEE                     u2450:
  5431  000BEE  90D8               	bcf	status,0,c
  5432  000BF0  3626               	rlcf	___fldiv@rem^0,f,c
  5433  000BF2  3627               	rlcf	(___fldiv@rem+1)^0,f,c
  5434  000BF4  3628               	rlcf	(___fldiv@rem+2)^0,f,c
  5435  000BF6  3629               	rlcf	(___fldiv@rem+3)^0,f,c
  5436  000BF8  90D8               	bcf	status,0,c
  5437  000BFA  361A               	rlcf	___fldiv@b^0,f,c
  5438  000BFC  361B               	rlcf	(___fldiv@b+1)^0,f,c
  5439  000BFE  361C               	rlcf	(___fldiv@b+2)^0,f,c
  5440  000C00  361D               	rlcf	(___fldiv@b+3)^0,f,c
  5441  000C02  AE30               	btfss	(___fldiv@grs+3)^0,7,c
  5442  000C04  EF06  F006         	goto	u2461
  5443  000C08  EF08  F006         	goto	u2460
  5444  000C0C                     u2461:
  5445  000C0C  EF09  F006         	goto	l862
  5446  000C10                     u2460:
  5447  000C10  801A               	bsf	___fldiv@b^0,0,c
  5448  000C12                     l862:
  5449  000C12  90D8               	bcf	status,0,c
  5450  000C14  362D               	rlcf	___fldiv@grs^0,f,c
  5451  000C16  362E               	rlcf	(___fldiv@grs+1)^0,f,c
  5452  000C18  362F               	rlcf	(___fldiv@grs+2)^0,f,c
  5453  000C1A  3630               	rlcf	(___fldiv@grs+3)^0,f,c
  5454  000C1C                     l2765:
  5455  000C1C  501E               	movf	___fldiv@a^0,w,c
  5456  000C1E  5C26               	subwf	___fldiv@rem^0,w,c
  5457  000C20  501F               	movf	(___fldiv@a+1)^0,w,c
  5458  000C22  5827               	subwfb	(___fldiv@rem+1)^0,w,c
  5459  000C24  5020               	movf	(___fldiv@a+2)^0,w,c
  5460  000C26  5828               	subwfb	(___fldiv@rem+2)^0,w,c
  5461  000C28  5021               	movf	(___fldiv@a+3)^0,w,c
  5462  000C2A  5829               	subwfb	(___fldiv@rem+3)^0,w,c
  5463  000C2C  A0D8               	btfss	status,0,c
  5464  000C2E  EF1B  F006         	goto	u2471
  5465  000C32  EF1D  F006         	goto	u2470
  5466  000C36                     u2471:
  5467  000C36  EF26  F006         	goto	l2771
  5468  000C3A                     u2470:
  5469  000C3A  8C30               	bsf	(___fldiv@grs+3)^0,6,c
  5470  000C3C  501E               	movf	___fldiv@a^0,w,c
  5471  000C3E  5E26               	subwf	___fldiv@rem^0,f,c
  5472  000C40  501F               	movf	(___fldiv@a+1)^0,w,c
  5473  000C42  5A27               	subwfb	(___fldiv@rem+1)^0,f,c
  5474  000C44  5020               	movf	(___fldiv@a+2)^0,w,c
  5475  000C46  5A28               	subwfb	(___fldiv@rem+2)^0,f,c
  5476  000C48  5021               	movf	(___fldiv@a+3)^0,w,c
  5477  000C4A  5A29               	subwfb	(___fldiv@rem+3)^0,f,c
  5478  000C4C                     l2771:
  5479  000C4C  2A32               	incf	___fldiv@aexp^0,f,c
  5480  000C4E                     l859:
  5481  000C4E  0E19               	movlw	25
  5482  000C50  6432               	cpfsgt	___fldiv@aexp^0,c
  5483  000C52  EF2D  F006         	goto	u2481
  5484  000C56  EF2F  F006         	goto	u2480
  5485  000C5A                     u2481:
  5486  000C5A  EFEF  F005         	goto	l2757
  5487  000C5E                     u2480:
  5488  000C5E  5026               	movf	___fldiv@rem^0,w,c
  5489  000C60  1027               	iorwf	(___fldiv@rem+1)^0,w,c
  5490  000C62  1028               	iorwf	(___fldiv@rem+2)^0,w,c
  5491  000C64  1029               	iorwf	(___fldiv@rem+3)^0,w,c
  5492  000C66  B4D8               	btfsc	status,2,c
  5493  000C68  EF38  F006         	goto	u2491
  5494  000C6C  EF3A  F006         	goto	u2490
  5495  000C70                     u2491:
  5496  000C70  EF52  F006         	goto	l2783
  5497  000C74                     u2490:
  5498  000C74  802D               	bsf	___fldiv@grs^0,0,c
  5499  000C76  EF52  F006         	goto	l2783
  5500  000C7A                     l2777:
  5501  000C7A  90D8               	bcf	status,0,c
  5502  000C7C  361A               	rlcf	___fldiv@b^0,f,c
  5503  000C7E  361B               	rlcf	(___fldiv@b+1)^0,f,c
  5504  000C80  361C               	rlcf	(___fldiv@b+2)^0,f,c
  5505  000C82  361D               	rlcf	(___fldiv@b+3)^0,f,c
  5506  000C84  AE30               	btfss	(___fldiv@grs+3)^0,7,c
  5507  000C86  EF47  F006         	goto	u2501
  5508  000C8A  EF49  F006         	goto	u2500
  5509  000C8E                     u2501:
  5510  000C8E  EF4A  F006         	goto	l868
  5511  000C92                     u2500:
  5512  000C92  801A               	bsf	___fldiv@b^0,0,c
  5513  000C94                     l868:
  5514  000C94  90D8               	bcf	status,0,c
  5515  000C96  362D               	rlcf	___fldiv@grs^0,f,c
  5516  000C98  362E               	rlcf	(___fldiv@grs+1)^0,f,c
  5517  000C9A  362F               	rlcf	(___fldiv@grs+2)^0,f,c
  5518  000C9C  3630               	rlcf	(___fldiv@grs+3)^0,f,c
  5519  000C9E  062B               	decf	___fldiv@new_exp^0,f,c
  5520  000CA0  A0D8               	btfss	status,0,c
  5521  000CA2  062C               	decf	(___fldiv@new_exp+1)^0,f,c
  5522  000CA4                     l2783:
  5523  000CA4  AE1C               	btfss	(___fldiv@b+2)^0,7,c
  5524  000CA6  EF57  F006         	goto	u2511
  5525  000CAA  EF59  F006         	goto	u2510
  5526  000CAE                     u2511:
  5527  000CAE  EF3D  F006         	goto	l2777
  5528  000CB2                     u2510:
  5529  000CB2  0E00               	movlw	0
  5530  000CB4  6E32               	movwf	___fldiv@aexp^0,c
  5531  000CB6  AE30               	btfss	(___fldiv@grs+3)^0,7,c
  5532  000CB8  EF60  F006         	goto	u2521
  5533  000CBC  EF62  F006         	goto	u2520
  5534  000CC0                     u2521:
  5535  000CC0  EF86  F006         	goto	l870
  5536  000CC4                     u2520:
  5537  000CC4  0EFF               	movlw	255
  5538  000CC6  142D               	andwf	___fldiv@grs^0,w,c
  5539  000CC8  6E22               	movwf	??___fldiv^0,c
  5540  000CCA  0EFF               	movlw	255
  5541  000CCC  142E               	andwf	(___fldiv@grs+1)^0,w,c
  5542  000CCE  6E23               	movwf	(??___fldiv+1)^0,c
  5543  000CD0  0EFF               	movlw	255
  5544  000CD2  142F               	andwf	(___fldiv@grs+2)^0,w,c
  5545  000CD4  6E24               	movwf	(??___fldiv+2)^0,c
  5546  000CD6  0E7F               	movlw	127
  5547  000CD8  1430               	andwf	(___fldiv@grs+3)^0,w,c
  5548  000CDA  6E25               	movwf	(??___fldiv+3)^0,c
  5549  000CDC  5022               	movf	??___fldiv^0,w,c
  5550  000CDE  1023               	iorwf	(??___fldiv+1)^0,w,c
  5551  000CE0  1024               	iorwf	(??___fldiv+2)^0,w,c
  5552  000CE2  1025               	iorwf	(??___fldiv+3)^0,w,c
  5553  000CE4  B4D8               	btfsc	status,2,c
  5554  000CE6  EF77  F006         	goto	u2531
  5555  000CEA  EF79  F006         	goto	u2530
  5556  000CEE                     u2531:
  5557  000CEE  EF7D  F006         	goto	l871
  5558  000CF2                     u2530:
  5559  000CF2                     l2791:
  5560  000CF2  0E01               	movlw	1
  5561  000CF4  6E32               	movwf	___fldiv@aexp^0,c
  5562  000CF6  EF86  F006         	goto	l870
  5563  000CFA                     l871:
  5564  000CFA  A01A               	btfss	___fldiv@b^0,0,c
  5565  000CFC  EF82  F006         	goto	u2541
  5566  000D00  EF84  F006         	goto	u2540
  5567  000D04                     u2541:
  5568  000D04  EF86  F006         	goto	l870
  5569  000D08                     u2540:
  5570  000D08  EF79  F006         	goto	l2791
  5571  000D0C                     l870:
  5572  000D0C  5032               	movf	___fldiv@aexp^0,w,c
  5573  000D0E  B4D8               	btfsc	status,2,c
  5574  000D10  EF8C  F006         	goto	u2551
  5575  000D14  EF8E  F006         	goto	u2550
  5576  000D18                     u2551:
  5577  000D18  EFB2  F006         	goto	l2803
  5578  000D1C                     u2550:
  5579  000D1C  0E01               	movlw	1
  5580  000D1E  261A               	addwf	___fldiv@b^0,f,c
  5581  000D20  0E00               	movlw	0
  5582  000D22  221B               	addwfc	(___fldiv@b+1)^0,f,c
  5583  000D24  221C               	addwfc	(___fldiv@b+2)^0,f,c
  5584  000D26  221D               	addwfc	(___fldiv@b+3)^0,f,c
  5585  000D28  A01D               	btfss	(___fldiv@b+3)^0,0,c
  5586  000D2A  EF99  F006         	goto	u2561
  5587  000D2E  EF9B  F006         	goto	u2560
  5588  000D32                     u2561:
  5589  000D32  EFB2  F006         	goto	l2803
  5590  000D36                     u2560:
  5591  000D36  C01A  F022         	movff	___fldiv@b,??___fldiv
  5592  000D3A  C01B  F023         	movff	___fldiv@b+1,??___fldiv+1
  5593  000D3E  C01C  F024         	movff	___fldiv@b+2,??___fldiv+2
  5594  000D42  C01D  F025         	movff	___fldiv@b+3,??___fldiv+3
  5595  000D46  3425               	rlcf	(??___fldiv+3)^0,w,c
  5596  000D48  3225               	rrcf	(??___fldiv+3)^0,f,c
  5597  000D4A  3224               	rrcf	(??___fldiv+2)^0,f,c
  5598  000D4C  3223               	rrcf	(??___fldiv+1)^0,f,c
  5599  000D4E  3222               	rrcf	??___fldiv^0,f,c
  5600  000D50  C022  F01A         	movff	??___fldiv,___fldiv@b
  5601  000D54  C023  F01B         	movff	??___fldiv+1,___fldiv@b+1
  5602  000D58  C024  F01C         	movff	??___fldiv+2,___fldiv@b+2
  5603  000D5C  C025  F01D         	movff	??___fldiv+3,___fldiv@b+3
  5604  000D60  4A2B               	infsnz	___fldiv@new_exp^0,f,c
  5605  000D62  2A2C               	incf	(___fldiv@new_exp+1)^0,f,c
  5606  000D64                     l2803:
  5607  000D64  BE2C               	btfsc	(___fldiv@new_exp+1)^0,7,c
  5608  000D66  EFBD  F006         	goto	u2571
  5609  000D6A  502C               	movf	(___fldiv@new_exp+1)^0,w,c
  5610  000D6C  E108               	bnz	u2570
  5611  000D6E  282B               	incf	___fldiv@new_exp^0,w,c
  5612  000D70  A0D8               	btfss	status,0,c
  5613  000D72  EFBD  F006         	goto	u2571
  5614  000D76  EFBF  F006         	goto	u2570
  5615  000D7A                     u2571:
  5616  000D7A  EFCA  F006         	goto	l2807
  5617  000D7E                     u2570:
  5618  000D7E  0E00               	movlw	0
  5619  000D80  6E2C               	movwf	(___fldiv@new_exp+1)^0,c
  5620  000D82  682B               	setf	___fldiv@new_exp^0,c
  5621  000D84  0E00               	movlw	0
  5622  000D86  6E1A               	movwf	___fldiv@b^0,c
  5623  000D88  0E00               	movlw	0
  5624  000D8A  6E1B               	movwf	(___fldiv@b+1)^0,c
  5625  000D8C  0E00               	movlw	0
  5626  000D8E  6E1C               	movwf	(___fldiv@b+2)^0,c
  5627  000D90  0E00               	movlw	0
  5628  000D92  6E1D               	movwf	(___fldiv@b+3)^0,c
  5629  000D94                     l2807:
  5630  000D94  BE2C               	btfsc	(___fldiv@new_exp+1)^0,7,c
  5631  000D96  EFD7  F006         	goto	u2580
  5632  000D9A  502C               	movf	(___fldiv@new_exp+1)^0,w,c
  5633  000D9C  E106               	bnz	u2581
  5634  000D9E  042B               	decf	___fldiv@new_exp^0,w,c
  5635  000DA0  B0D8               	btfsc	status,0,c
  5636  000DA2  EFD5  F006         	goto	u2581
  5637  000DA6  EFD7  F006         	goto	u2580
  5638  000DAA                     u2581:
  5639  000DAA  EFE5  F006         	goto	l2811
  5640  000DAE                     u2580:
  5641  000DAE  0E00               	movlw	0
  5642  000DB0  6E2C               	movwf	(___fldiv@new_exp+1)^0,c
  5643  000DB2  0E00               	movlw	0
  5644  000DB4  6E2B               	movwf	___fldiv@new_exp^0,c
  5645  000DB6  0E00               	movlw	0
  5646  000DB8  6E1A               	movwf	___fldiv@b^0,c
  5647  000DBA  0E00               	movlw	0
  5648  000DBC  6E1B               	movwf	(___fldiv@b+1)^0,c
  5649  000DBE  0E00               	movlw	0
  5650  000DC0  6E1C               	movwf	(___fldiv@b+2)^0,c
  5651  000DC2  0E00               	movlw	0
  5652  000DC4  6E1D               	movwf	(___fldiv@b+3)^0,c
  5653  000DC6  0E00               	movlw	0
  5654  000DC8  6E2A               	movwf	___fldiv@sign^0,c
  5655  000DCA                     l2811:
  5656  000DCA  C02B  F031         	movff	___fldiv@new_exp,___fldiv@bexp
  5657  000DCE  A031               	btfss	___fldiv@bexp^0,0,c
  5658  000DD0  EFEC  F006         	goto	u2591
  5659  000DD4  EFEE  F006         	goto	u2590
  5660  000DD8                     u2591:
  5661  000DD8  EFF1  F006         	goto	l2817
  5662  000DDC                     u2590:
  5663  000DDC  8E1C               	bsf	(___fldiv@b+2)^0,7,c
  5664  000DDE  EFF2  F006         	goto	l2819
  5665  000DE2                     l2817:
  5666  000DE2  9E1C               	bcf	(___fldiv@b+2)^0,7,c
  5667  000DE4                     l2819:
  5668  000DE4  90D8               	bcf	status,0,c
  5669  000DE6  3031               	rrcf	___fldiv@bexp^0,w,c
  5670  000DE8  6E1D               	movwf	(___fldiv@b+3)^0,c
  5671  000DEA  EFA8  F005         	goto	l2733
  5672  000DEE                     l857:
  5673  000DEE  0012               	return		;funcret
  5674  000DF0                     __end_of___fldiv:
  5675                           	callstack 0
  5676                           
  5677 ;; *************** function _SendUsartString *****************
  5678 ;; Defined at:
  5679 ;;		line 47 in file "main.c"
  5680 ;; Parameters:    Size  Location     Type
  5681 ;;  str             2    1[COMRAM] PTR unsigned char 
  5682 ;;		 -> xvalueASCII(50), 
  5683 ;; Auto vars:     Size  Location     Type
  5684 ;;		None
  5685 ;; Return value:  Size  Location     Type
  5686 ;;                  1    wreg      void 
  5687 ;; Registers used:
  5688 ;;		wreg, fsr2l, fsr2h, status,2, status,0, cstack
  5689 ;; Tracked objects:
  5690 ;;		On entry : 0/0
  5691 ;;		On exit  : 0/0
  5692 ;;		Unchanged: 0/0
  5693 ;; Data sizes:     COMRAM   BANK0   BANK1   BANK2   BANK3   BANK4   BANK5
  5694 ;;      Params:         2       0       0       0       0       0       0
  5695 ;;      Locals:         0       0       0       0       0       0       0
  5696 ;;      Temps:          0       0       0       0       0       0       0
  5697 ;;      Totals:         2       0       0       0       0       0       0
  5698 ;;Total ram usage:        2 bytes
  5699 ;; Hardware stack levels used: 1
  5700 ;; Hardware stack levels required when called: 1
  5701 ;; This function calls:
  5702 ;;		_EUSART_Write
  5703 ;; This function is called by:
  5704 ;;		_main
  5705 ;; This function uses a non-reentrant model
  5706 ;;
  5707                           
  5708                           	psect	text26
  5709  0025A6                     __ptext26:
  5710                           	callstack 0
  5711  0025A6                     _SendUsartString:
  5712                           	callstack 29
  5713  0025A6                     
  5714                           ;main.c: 48:        while (*str)
  5715  0025A6  EFDE  F012         	goto	l2681
  5716  0025AA                     l2677:
  5717                           
  5718                           ;main.c: 49:         EUSART_Write(*str++);
  5719  0025AA  C002  FFD9         	movff	SendUsartString@str,fsr2l
  5720  0025AE  C003  FFDA         	movff	SendUsartString@str+1,fsr2h
  5721  0025B2  50DF               	movf	indf2,w,c
  5722  0025B4  EC3B  F013         	call	_EUSART_Write
  5723  0025B8  4A02               	infsnz	SendUsartString@str^0,f,c
  5724  0025BA  2A03               	incf	(SendUsartString@str+1)^0,f,c
  5725  0025BC                     l2681:
  5726                           
  5727                           ;main.c: 48:        while (*str)
  5728  0025BC  C002  FFD9         	movff	SendUsartString@str,fsr2l
  5729  0025C0  C003  FFDA         	movff	SendUsartString@str+1,fsr2h
  5730  0025C4  50DF               	movf	indf2,w,c
  5731  0025C6  A4D8               	btfss	status,2,c
  5732  0025C8  EFE8  F012         	goto	u2361
  5733  0025CC  EFEA  F012         	goto	u2360
  5734  0025D0                     u2361:
  5735  0025D0  EFD5  F012         	goto	l2677
  5736  0025D4                     u2360:
  5737  0025D4  0012               	return		;funcret
  5738  0025D6                     __end_of_SendUsartString:
  5739                           	callstack 0
  5740                           
  5741 ;; *************** function _EUSART_Write *****************
  5742 ;; Defined at:
  5743 ;;		line 132 in file "mcc_generated_files/eusart.c"
  5744 ;; Parameters:    Size  Location     Type
  5745 ;;  txData          1    wreg     unsigned char 
  5746 ;; Auto vars:     Size  Location     Type
  5747 ;;  txData          1    0[COMRAM] unsigned char 
  5748 ;; Return value:  Size  Location     Type
  5749 ;;                  1    wreg      void 
  5750 ;; Registers used:
  5751 ;;		wreg
  5752 ;; Tracked objects:
  5753 ;;		On entry : 0/0
  5754 ;;		On exit  : 0/0
  5755 ;;		Unchanged: 0/0
  5756 ;; Data sizes:     COMRAM   BANK0   BANK1   BANK2   BANK3   BANK4   BANK5
  5757 ;;      Params:         0       0       0       0       0       0       0
  5758 ;;      Locals:         1       0       0       0       0       0       0
  5759 ;;      Temps:          0       0       0       0       0       0       0
  5760 ;;      Totals:         1       0       0       0       0       0       0
  5761 ;;Total ram usage:        1 bytes
  5762 ;; Hardware stack levels used: 1
  5763 ;; This function calls:
  5764 ;;		Nothing
  5765 ;; This function is called by:
  5766 ;;		_SendUsartString
  5767 ;; This function uses a non-reentrant model
  5768 ;;
  5769                           
  5770                           	psect	text27
  5771  002676                     __ptext27:
  5772                           	callstack 0
  5773  002676                     _EUSART_Write:
  5774                           	callstack 29
  5775                           
  5776                           ;incstack = 0
  5777                           ;EUSART_Write@txData stored from wreg
  5778  002676  6E01               	movwf	EUSART_Write@txData^0,c
  5779  002678                     l107:
  5780                           
  5781                           ;mcc_generated_files/eusart.c: 134:     while(0 == PIR1bits.TX1IF)
  5782  002678  A89E               	btfss	158,4,c	;volatile
  5783  00267A  EF41  F013         	goto	u2251
  5784  00267E  EF43  F013         	goto	u2250
  5785  002682                     u2251:
  5786  002682  EF3C  F013         	goto	l107
  5787  002686                     u2250:
  5788  002686                     
  5789                           ;mcc_generated_files/eusart.c: 138:     TXREG = txData;
  5790  002686  C001  FFAD         	movff	EUSART_Write@txData,4013	;volatile
  5791  00268A  0012               	return		;funcret
  5792  00268C                     __end_of_EUSART_Write:
  5793                           	callstack 0
  5794                           
  5795 ;; *************** function _SYSTEM_Initialize *****************
  5796 ;; Defined at:
  5797 ;;		line 50 in file "mcc_generated_files/mcc.c"
  5798 ;; Parameters:    Size  Location     Type
  5799 ;;		None
  5800 ;; Auto vars:     Size  Location     Type
  5801 ;;		None
  5802 ;; Return value:  Size  Location     Type
  5803 ;;                  1    wreg      void 
  5804 ;; Registers used:
  5805 ;;		wreg, status,2, status,0, cstack
  5806 ;; Tracked objects:
  5807 ;;		On entry : 0/0
  5808 ;;		On exit  : 0/0
  5809 ;;		Unchanged: 0/0
  5810 ;; Data sizes:     COMRAM   BANK0   BANK1   BANK2   BANK3   BANK4   BANK5
  5811 ;;      Params:         0       0       0       0       0       0       0
  5812 ;;      Locals:         0       0       0       0       0       0       0
  5813 ;;      Temps:          0       0       0       0       0       0       0
  5814 ;;      Totals:         0       0       0       0       0       0       0
  5815 ;;Total ram usage:        0 bytes
  5816 ;; Hardware stack levels used: 1
  5817 ;; Hardware stack levels required when called: 2
  5818 ;; This function calls:
  5819 ;;		_ADC_Initialize
  5820 ;;		_EUSART_Initialize
  5821 ;;		_OSCILLATOR_Initialize
  5822 ;;		_PIN_MANAGER_Initialize
  5823 ;;		_PWM2_Initialize
  5824 ;;		_TMR2_Initialize
  5825 ;; This function is called by:
  5826 ;;		_main
  5827 ;; This function uses a non-reentrant model
  5828 ;;
  5829                           
  5830                           	psect	text28
  5831  00265C                     __ptext28:
  5832                           	callstack 0
  5833  00265C                     _SYSTEM_Initialize:
  5834                           	callstack 28
  5835  00265C                     
  5836                           ;mcc_generated_files/mcc.c: 53:     PIN_MANAGER_Initialize();
  5837  00265C  ECEB  F012         	call	_PIN_MANAGER_Initialize	;wreg free
  5838                           
  5839                           ;mcc_generated_files/mcc.c: 54:     OSCILLATOR_Initialize();
  5840  002660  EC60  F013         	call	_OSCILLATOR_Initialize	;wreg free
  5841                           
  5842                           ;mcc_generated_files/mcc.c: 55:     PWM2_Initialize();
  5843  002664  EC59  F013         	call	_PWM2_Initialize	;wreg free
  5844                           
  5845                           ;mcc_generated_files/mcc.c: 56:     TMR2_Initialize();
  5846  002668  EC51  F013         	call	_TMR2_Initialize	;wreg free
  5847                           
  5848                           ;mcc_generated_files/mcc.c: 57:     ADC_Initialize();
  5849  00266C  EC46  F013         	call	_ADC_Initialize	;wreg free
  5850  002670                     
  5851                           ;mcc_generated_files/mcc.c: 58:     EUSART_Initialize();
  5852  002670  EC5D  F012         	call	_EUSART_Initialize	;wreg free
  5853  002674  0012               	return		;funcret
  5854  002676                     __end_of_SYSTEM_Initialize:
  5855                           	callstack 0
  5856                           
  5857 ;; *************** function _TMR2_Initialize *****************
  5858 ;; Defined at:
  5859 ;;		line 62 in file "mcc_generated_files/tmr2.c"
  5860 ;; Parameters:    Size  Location     Type
  5861 ;;		None
  5862 ;; Auto vars:     Size  Location     Type
  5863 ;;		None
  5864 ;; Return value:  Size  Location     Type
  5865 ;;                  1    wreg      void 
  5866 ;; Registers used:
  5867 ;;		wreg, status,2
  5868 ;; Tracked objects:
  5869 ;;		On entry : 0/0
  5870 ;;		On exit  : 0/0
  5871 ;;		Unchanged: 0/0
  5872 ;; Data sizes:     COMRAM   BANK0   BANK1   BANK2   BANK3   BANK4   BANK5
  5873 ;;      Params:         0       0       0       0       0       0       0
  5874 ;;      Locals:         0       0       0       0       0       0       0
  5875 ;;      Temps:          0       0       0       0       0       0       0
  5876 ;;      Totals:         0       0       0       0       0       0       0
  5877 ;;Total ram usage:        0 bytes
  5878 ;; Hardware stack levels used: 1
  5879 ;; This function calls:
  5880 ;;		Nothing
  5881 ;; This function is called by:
  5882 ;;		_SYSTEM_Initialize
  5883 ;; This function uses a non-reentrant model
  5884 ;;
  5885                           
  5886                           	psect	text29
  5887  0026A2                     __ptext29:
  5888                           	callstack 0
  5889  0026A2                     _TMR2_Initialize:
  5890                           	callstack 29
  5891  0026A2                     
  5892                           ;mcc_generated_files/tmr2.c: 67:     PR2 = 0xF5;
  5893  0026A2  0EF5               	movlw	245
  5894  0026A4  6ECB               	movwf	203,c	;volatile
  5895                           
  5896                           ;mcc_generated_files/tmr2.c: 70:     TMR2 = 0x00;
  5897  0026A6  0E00               	movlw	0
  5898  0026A8  6ECC               	movwf	204,c	;volatile
  5899  0026AA                     
  5900                           ;mcc_generated_files/tmr2.c: 73:     PIR1bits.TMR2IF = 0;
  5901  0026AA  929E               	bcf	158,1,c	;volatile
  5902                           
  5903                           ;mcc_generated_files/tmr2.c: 76:     T2CON = 0x6E;
  5904  0026AC  0E6E               	movlw	110
  5905  0026AE  6ECA               	movwf	202,c	;volatile
  5906  0026B0  0012               	return		;funcret
  5907  0026B2                     __end_of_TMR2_Initialize:
  5908                           	callstack 0
  5909                           
  5910 ;; *************** function _PWM2_Initialize *****************
  5911 ;; Defined at:
  5912 ;;		line 64 in file "mcc_generated_files/pwm2.c"
  5913 ;; Parameters:    Size  Location     Type
  5914 ;;		None
  5915 ;; Auto vars:     Size  Location     Type
  5916 ;;		None
  5917 ;; Return value:  Size  Location     Type
  5918 ;;                  1    wreg      void 
  5919 ;; Registers used:
  5920 ;;		wreg, status,2
  5921 ;; Tracked objects:
  5922 ;;		On entry : 0/0
  5923 ;;		On exit  : 0/0
  5924 ;;		Unchanged: 0/0
  5925 ;; Data sizes:     COMRAM   BANK0   BANK1   BANK2   BANK3   BANK4   BANK5
  5926 ;;      Params:         0       0       0       0       0       0       0
  5927 ;;      Locals:         0       0       0       0       0       0       0
  5928 ;;      Temps:          0       0       0       0       0       0       0
  5929 ;;      Totals:         0       0       0       0       0       0       0
  5930 ;;Total ram usage:        0 bytes
  5931 ;; Hardware stack levels used: 1
  5932 ;; This function calls:
  5933 ;;		Nothing
  5934 ;; This function is called by:
  5935 ;;		_SYSTEM_Initialize
  5936 ;; This function uses a non-reentrant model
  5937 ;;
  5938                           
  5939                           	psect	text30
  5940  0026B2                     __ptext30:
  5941                           	callstack 0
  5942  0026B2                     _PWM2_Initialize:
  5943                           	callstack 29
  5944  0026B2                     
  5945                           ;mcc_generated_files/pwm2.c: 69:  CCP2CON = 0x0C;
  5946  0026B2  0E0C               	movlw	12
  5947  0026B4  6EBA               	movwf	186,c	;volatile
  5948                           
  5949                           ;mcc_generated_files/pwm2.c: 72:  CCPR2L = 0x00;
  5950  0026B6  0E00               	movlw	0
  5951  0026B8  6EBB               	movwf	187,c	;volatile
  5952                           
  5953                           ;mcc_generated_files/pwm2.c: 75:  CCPR2H = 0x00;
  5954  0026BA  0E00               	movlw	0
  5955  0026BC  6EBC               	movwf	188,c	;volatile
  5956  0026BE  0012               	return		;funcret
  5957  0026C0                     __end_of_PWM2_Initialize:
  5958                           	callstack 0
  5959                           
  5960 ;; *************** function _PIN_MANAGER_Initialize *****************
  5961 ;; Defined at:
  5962 ;;		line 55 in file "mcc_generated_files/pin_manager.c"
  5963 ;; Parameters:    Size  Location     Type
  5964 ;;		None
  5965 ;; Auto vars:     Size  Location     Type
  5966 ;;		None
  5967 ;; Return value:  Size  Location     Type
  5968 ;;                  1    wreg      void 
  5969 ;; Registers used:
  5970 ;;		wreg, status,2
  5971 ;; Tracked objects:
  5972 ;;		On entry : 0/0
  5973 ;;		On exit  : 0/0
  5974 ;;		Unchanged: 0/0
  5975 ;; Data sizes:     COMRAM   BANK0   BANK1   BANK2   BANK3   BANK4   BANK5
  5976 ;;      Params:         0       0       0       0       0       0       0
  5977 ;;      Locals:         0       0       0       0       0       0       0
  5978 ;;      Temps:          0       0       0       0       0       0       0
  5979 ;;      Totals:         0       0       0       0       0       0       0
  5980 ;;Total ram usage:        0 bytes
  5981 ;; Hardware stack levels used: 1
  5982 ;; This function calls:
  5983 ;;		Nothing
  5984 ;; This function is called by:
  5985 ;;		_SYSTEM_Initialize
  5986 ;; This function uses a non-reentrant model
  5987 ;;
  5988                           
  5989                           	psect	text31
  5990  0025D6                     __ptext31:
  5991                           	callstack 0
  5992  0025D6                     _PIN_MANAGER_Initialize:
  5993                           	callstack 29
  5994  0025D6                     
  5995                           ;mcc_generated_files/pin_manager.c: 60:     LATE = 0x00;
  5996  0025D6  0E00               	movlw	0
  5997  0025D8  6E8D               	movwf	141,c	;volatile
  5998                           
  5999                           ;mcc_generated_files/pin_manager.c: 61:     LATD = 0x00;
  6000  0025DA  0E00               	movlw	0
  6001  0025DC  6E8C               	movwf	140,c	;volatile
  6002                           
  6003                           ;mcc_generated_files/pin_manager.c: 62:     LATA = 0x00;
  6004  0025DE  0E00               	movlw	0
  6005  0025E0  6E89               	movwf	137,c	;volatile
  6006                           
  6007                           ;mcc_generated_files/pin_manager.c: 63:     LATB = 0x00;
  6008  0025E2  0E00               	movlw	0
  6009  0025E4  6E8A               	movwf	138,c	;volatile
  6010                           
  6011                           ;mcc_generated_files/pin_manager.c: 64:     LATC = 0x00;
  6012  0025E6  0E00               	movlw	0
  6013  0025E8  6E8B               	movwf	139,c	;volatile
  6014                           
  6015                           ;mcc_generated_files/pin_manager.c: 69:     TRISE = 0x07;
  6016  0025EA  0E07               	movlw	7
  6017  0025EC  6E96               	movwf	150,c	;volatile
  6018  0025EE                     
  6019                           ;mcc_generated_files/pin_manager.c: 70:     TRISA = 0xFF;
  6020  0025EE  6892               	setf	146,c	;volatile
  6021  0025F0                     
  6022                           ;mcc_generated_files/pin_manager.c: 71:     TRISB = 0xFF;
  6023  0025F0  6893               	setf	147,c	;volatile
  6024                           
  6025                           ;mcc_generated_files/pin_manager.c: 72:     TRISC = 0xB8;
  6026  0025F2  0EB8               	movlw	184
  6027  0025F4  6E94               	movwf	148,c	;volatile
  6028  0025F6                     
  6029                           ;mcc_generated_files/pin_manager.c: 73:     TRISD = 0xFF;
  6030  0025F6  6895               	setf	149,c	;volatile
  6031  0025F8                     
  6032                           ;mcc_generated_files/pin_manager.c: 78:     ANSEL = 0xFF;
  6033  0025F8  687E               	setf	126,c	;volatile
  6034                           
  6035                           ;mcc_generated_files/pin_manager.c: 79:     ANSELH = 0x1F;
  6036  0025FA  0E1F               	movlw	31
  6037  0025FC  6E7F               	movwf	127,c	;volatile
  6038                           
  6039                           ;mcc_generated_files/pin_manager.c: 84:     WPUB = 0x00;
  6040  0025FE  0E00               	movlw	0
  6041  002600  6E7C               	movwf	124,c	;volatile
  6042  002602                     
  6043                           ;mcc_generated_files/pin_manager.c: 85:     INTCON2bits.nRBPU = 1;
  6044  002602  8EF1               	bsf	241,7,c	;volatile
  6045  002604  0012               	return		;funcret
  6046  002606                     __end_of_PIN_MANAGER_Initialize:
  6047                           	callstack 0
  6048                           
  6049 ;; *************** function _OSCILLATOR_Initialize *****************
  6050 ;; Defined at:
  6051 ;;		line 61 in file "mcc_generated_files/mcc.c"
  6052 ;; Parameters:    Size  Location     Type
  6053 ;;		None
  6054 ;; Auto vars:     Size  Location     Type
  6055 ;;		None
  6056 ;; Return value:  Size  Location     Type
  6057 ;;                  1    wreg      void 
  6058 ;; Registers used:
  6059 ;;		wreg, status,2
  6060 ;; Tracked objects:
  6061 ;;		On entry : 0/0
  6062 ;;		On exit  : 0/0
  6063 ;;		Unchanged: 0/0
  6064 ;; Data sizes:     COMRAM   BANK0   BANK1   BANK2   BANK3   BANK4   BANK5
  6065 ;;      Params:         0       0       0       0       0       0       0
  6066 ;;      Locals:         0       0       0       0       0       0       0
  6067 ;;      Temps:          0       0       0       0       0       0       0
  6068 ;;      Totals:         0       0       0       0       0       0       0
  6069 ;;Total ram usage:        0 bytes
  6070 ;; Hardware stack levels used: 1
  6071 ;; This function calls:
  6072 ;;		Nothing
  6073 ;; This function is called by:
  6074 ;;		_SYSTEM_Initialize
  6075 ;; This function uses a non-reentrant model
  6076 ;;
  6077                           
  6078                           	psect	text32
  6079  0026C0                     __ptext32:
  6080                           	callstack 0
  6081  0026C0                     _OSCILLATOR_Initialize:
  6082                           	callstack 29
  6083  0026C0                     
  6084                           ;mcc_generated_files/mcc.c: 64:     OSCCON = 0x20;
  6085  0026C0  0E20               	movlw	32
  6086  0026C2  6ED3               	movwf	211,c	;volatile
  6087                           
  6088                           ;mcc_generated_files/mcc.c: 66:     OSCTUNE = 0x00;
  6089  0026C4  0E00               	movlw	0
  6090  0026C6  6E9B               	movwf	155,c	;volatile
  6091  0026C8  0012               	return		;funcret
  6092  0026CA                     __end_of_OSCILLATOR_Initialize:
  6093                           	callstack 0
  6094                           
  6095 ;; *************** function _EUSART_Initialize *****************
  6096 ;; Defined at:
  6097 ;;		line 66 in file "mcc_generated_files/eusart.c"
  6098 ;; Parameters:    Size  Location     Type
  6099 ;;		None
  6100 ;; Auto vars:     Size  Location     Type
  6101 ;;		None
  6102 ;; Return value:  Size  Location     Type
  6103 ;;                  1    wreg      void 
  6104 ;; Registers used:
  6105 ;;		wreg, status,2, status,0, cstack
  6106 ;; Tracked objects:
  6107 ;;		On entry : 0/0
  6108 ;;		On exit  : 0/0
  6109 ;;		Unchanged: 0/0
  6110 ;; Data sizes:     COMRAM   BANK0   BANK1   BANK2   BANK3   BANK4   BANK5
  6111 ;;      Params:         0       0       0       0       0       0       0
  6112 ;;      Locals:         0       0       0       0       0       0       0
  6113 ;;      Temps:          0       0       0       0       0       0       0
  6114 ;;      Totals:         0       0       0       0       0       0       0
  6115 ;;Total ram usage:        0 bytes
  6116 ;; Hardware stack levels used: 1
  6117 ;; Hardware stack levels required when called: 1
  6118 ;; This function calls:
  6119 ;;		_EUSART_SetErrorHandler
  6120 ;;		_EUSART_SetFramingErrorHandler
  6121 ;;		_EUSART_SetOverrunErrorHandler
  6122 ;; This function is called by:
  6123 ;;		_SYSTEM_Initialize
  6124 ;; This function uses a non-reentrant model
  6125 ;;
  6126                           
  6127                           	psect	text33
  6128  0024BA                     __ptext33:
  6129                           	callstack 0
  6130  0024BA                     _EUSART_Initialize:
  6131                           	callstack 28
  6132  0024BA                     
  6133                           ;mcc_generated_files/eusart.c: 71:     BAUDCON = 0x08;
  6134  0024BA  0E08               	movlw	8
  6135  0024BC  6EB8               	movwf	184,c	;volatile
  6136                           
  6137                           ;mcc_generated_files/eusart.c: 74:     RCSTA = 0x90;
  6138  0024BE  0E90               	movlw	144
  6139  0024C0  6EAB               	movwf	171,c	;volatile
  6140                           
  6141                           ;mcc_generated_files/eusart.c: 77:     TXSTA = 0x24;
  6142  0024C2  0E24               	movlw	36
  6143  0024C4  6EAC               	movwf	172,c	;volatile
  6144                           
  6145                           ;mcc_generated_files/eusart.c: 80:     SPBRG = 0x08;
  6146  0024C6  0E08               	movlw	8
  6147  0024C8  6EAF               	movwf	175,c	;volatile
  6148                           
  6149                           ;mcc_generated_files/eusart.c: 83:     SPBRGH = 0x02;
  6150  0024CA  0E02               	movlw	2
  6151  0024CC  6EB0               	movwf	176,c	;volatile
  6152  0024CE                     
  6153                           ;mcc_generated_files/eusart.c: 86:     EUSART_SetFramingErrorHandler(EUSART_DefaultFrami
      +                          ngErrorHandler);
  6154  0024CE  0E00               	movlw	0
  6155  0024D0  6E01               	movwf	EUSART_SetFramingErrorHandler@interruptHandler^0,c
  6156  0024D2  0E00               	movlw	0
  6157  0024D4  6E02               	movwf	(EUSART_SetFramingErrorHandler@interruptHandler+1)^0,c
  6158  0024D6  EC6A  F013         	call	_EUSART_SetFramingErrorHandler	;wreg free
  6159  0024DA                     
  6160                           ;mcc_generated_files/eusart.c: 87:     EUSART_SetOverrunErrorHandler(EUSART_DefaultOverr
      +                          unErrorHandler);
  6161  0024DA  0E00               	movlw	0
  6162  0024DC  6E01               	movwf	EUSART_SetOverrunErrorHandler@interruptHandler^0,c
  6163  0024DE  0E00               	movlw	0
  6164  0024E0  6E02               	movwf	(EUSART_SetOverrunErrorHandler@interruptHandler+1)^0,c
  6165  0024E2  EC65  F013         	call	_EUSART_SetOverrunErrorHandler	;wreg free
  6166  0024E6                     
  6167                           ;mcc_generated_files/eusart.c: 88:     EUSART_SetErrorHandler(EUSART_DefaultErrorHandler
      +                          );
  6168  0024E6  0E00               	movlw	0
  6169  0024E8  6E01               	movwf	EUSART_SetErrorHandler@interruptHandler^0,c
  6170  0024EA  0E00               	movlw	0
  6171  0024EC  6E02               	movwf	(EUSART_SetErrorHandler@interruptHandler+1)^0,c
  6172  0024EE  EC6F  F013         	call	_EUSART_SetErrorHandler	;wreg free
  6173  0024F2                     
  6174                           ;mcc_generated_files/eusart.c: 90:     eusartRxLastError.status = 0;
  6175  0024F2  0E00               	movlw	0
  6176  0024F4  0100               	movlb	0	; () banked
  6177  0024F6  6F6C               	movwf	_eusartRxLastError& (0+255),b	;volatile
  6178  0024F8                     
  6179                           ; BSR set to: 0
  6180  0024F8  0012               	return		;funcret
  6181  0024FA                     __end_of_EUSART_Initialize:
  6182                           	callstack 0
  6183                           
  6184 ;; *************** function _EUSART_SetOverrunErrorHandler *****************
  6185 ;; Defined at:
  6186 ;;		line 161 in file "mcc_generated_files/eusart.c"
  6187 ;; Parameters:    Size  Location     Type
  6188 ;;  interruptHan    2    0[COMRAM] PTR FTN()void 
  6189 ;;		 -> EUSART_DefaultOverrunErrorHandler(1), 
  6190 ;; Auto vars:     Size  Location     Type
  6191 ;;		None
  6192 ;; Return value:  Size  Location     Type
  6193 ;;                  1    wreg      void 
  6194 ;; Registers used:
  6195 ;;		wreg, status,2, status,0
  6196 ;; Tracked objects:
  6197 ;;		On entry : 0/0
  6198 ;;		On exit  : 0/0
  6199 ;;		Unchanged: 0/0
  6200 ;; Data sizes:     COMRAM   BANK0   BANK1   BANK2   BANK3   BANK4   BANK5
  6201 ;;      Params:         2       0       0       0       0       0       0
  6202 ;;      Locals:         0       0       0       0       0       0       0
  6203 ;;      Temps:          0       0       0       0       0       0       0
  6204 ;;      Totals:         2       0       0       0       0       0       0
  6205 ;;Total ram usage:        2 bytes
  6206 ;; Hardware stack levels used: 1
  6207 ;; This function calls:
  6208 ;;		Nothing
  6209 ;; This function is called by:
  6210 ;;		_EUSART_Initialize
  6211 ;; This function uses a non-reentrant model
  6212 ;;
  6213                           
  6214                           	psect	text34
  6215  0026CA                     __ptext34:
  6216                           	callstack 0
  6217  0026CA                     _EUSART_SetOverrunErrorHandler:
  6218                           	callstack 28
  6219  0026CA                     
  6220                           ;mcc_generated_files/eusart.c: 162:     EUSART_OverrunErrorHandler = interruptHandler;
  6221  0026CA  C001  F0E2         	movff	EUSART_SetOverrunErrorHandler@interruptHandler,_EUSART_OverrunErrorHandler
  6222  0026CE  C002  F0E3         	movff	EUSART_SetOverrunErrorHandler@interruptHandler+1,_EUSART_OverrunErrorHandler+1
  6223  0026D2  0012               	return		;funcret
  6224  0026D4                     __end_of_EUSART_SetOverrunErrorHandler:
  6225                           	callstack 0
  6226                           
  6227 ;; *************** function _EUSART_SetFramingErrorHandler *****************
  6228 ;; Defined at:
  6229 ;;		line 157 in file "mcc_generated_files/eusart.c"
  6230 ;; Parameters:    Size  Location     Type
  6231 ;;  interruptHan    2    0[COMRAM] PTR FTN()void 
  6232 ;;		 -> EUSART_DefaultFramingErrorHandler(1), 
  6233 ;; Auto vars:     Size  Location     Type
  6234 ;;		None
  6235 ;; Return value:  Size  Location     Type
  6236 ;;                  1    wreg      void 
  6237 ;; Registers used:
  6238 ;;		wreg, status,2, status,0
  6239 ;; Tracked objects:
  6240 ;;		On entry : 0/0
  6241 ;;		On exit  : 0/0
  6242 ;;		Unchanged: 0/0
  6243 ;; Data sizes:     COMRAM   BANK0   BANK1   BANK2   BANK3   BANK4   BANK5
  6244 ;;      Params:         2       0       0       0       0       0       0
  6245 ;;      Locals:         0       0       0       0       0       0       0
  6246 ;;      Temps:          0       0       0       0       0       0       0
  6247 ;;      Totals:         2       0       0       0       0       0       0
  6248 ;;Total ram usage:        2 bytes
  6249 ;; Hardware stack levels used: 1
  6250 ;; This function calls:
  6251 ;;		Nothing
  6252 ;; This function is called by:
  6253 ;;		_EUSART_Initialize
  6254 ;; This function uses a non-reentrant model
  6255 ;;
  6256                           
  6257                           	psect	text35
  6258  0026D4                     __ptext35:
  6259                           	callstack 0
  6260  0026D4                     _EUSART_SetFramingErrorHandler:
  6261                           	callstack 28
  6262  0026D4                     
  6263                           ;mcc_generated_files/eusart.c: 158:     EUSART_FramingErrorHandler = interruptHandler;
  6264  0026D4  C001  F0E4         	movff	EUSART_SetFramingErrorHandler@interruptHandler,_EUSART_FramingErrorHandler
  6265  0026D8  C002  F0E5         	movff	EUSART_SetFramingErrorHandler@interruptHandler+1,_EUSART_FramingErrorHandler+1
  6266  0026DC  0012               	return		;funcret
  6267  0026DE                     __end_of_EUSART_SetFramingErrorHandler:
  6268                           	callstack 0
  6269                           
  6270 ;; *************** function _EUSART_SetErrorHandler *****************
  6271 ;; Defined at:
  6272 ;;		line 165 in file "mcc_generated_files/eusart.c"
  6273 ;; Parameters:    Size  Location     Type
  6274 ;;  interruptHan    2    0[COMRAM] PTR FTN()void 
  6275 ;;		 -> EUSART_DefaultErrorHandler(1), 
  6276 ;; Auto vars:     Size  Location     Type
  6277 ;;		None
  6278 ;; Return value:  Size  Location     Type
  6279 ;;                  1    wreg      void 
  6280 ;; Registers used:
  6281 ;;		wreg, status,2, status,0
  6282 ;; Tracked objects:
  6283 ;;		On entry : 0/0
  6284 ;;		On exit  : 0/0
  6285 ;;		Unchanged: 0/0
  6286 ;; Data sizes:     COMRAM   BANK0   BANK1   BANK2   BANK3   BANK4   BANK5
  6287 ;;      Params:         2       0       0       0       0       0       0
  6288 ;;      Locals:         0       0       0       0       0       0       0
  6289 ;;      Temps:          0       0       0       0       0       0       0
  6290 ;;      Totals:         2       0       0       0       0       0       0
  6291 ;;Total ram usage:        2 bytes
  6292 ;; Hardware stack levels used: 1
  6293 ;; This function calls:
  6294 ;;		Nothing
  6295 ;; This function is called by:
  6296 ;;		_EUSART_Initialize
  6297 ;; This function uses a non-reentrant model
  6298 ;;
  6299                           
  6300                           	psect	text36
  6301  0026DE                     __ptext36:
  6302                           	callstack 0
  6303  0026DE                     _EUSART_SetErrorHandler:
  6304                           	callstack 28
  6305  0026DE                     
  6306                           ;mcc_generated_files/eusart.c: 166:     EUSART_ErrorHandler = interruptHandler;
  6307  0026DE  C001  F0E0         	movff	EUSART_SetErrorHandler@interruptHandler,_EUSART_ErrorHandler
  6308  0026E2  C002  F0E1         	movff	EUSART_SetErrorHandler@interruptHandler+1,_EUSART_ErrorHandler+1
  6309  0026E6  0012               	return		;funcret
  6310  0026E8                     __end_of_EUSART_SetErrorHandler:
  6311                           	callstack 0
  6312                           
  6313 ;; *************** function _ADC_Initialize *****************
  6314 ;; Defined at:
  6315 ;;		line 62 in file "mcc_generated_files/adc.c"
  6316 ;; Parameters:    Size  Location     Type
  6317 ;;		None
  6318 ;; Auto vars:     Size  Location     Type
  6319 ;;		None
  6320 ;; Return value:  Size  Location     Type
  6321 ;;                  1    wreg      void 
  6322 ;; Registers used:
  6323 ;;		wreg, status,2
  6324 ;; Tracked objects:
  6325 ;;		On entry : 0/0
  6326 ;;		On exit  : 0/0
  6327 ;;		Unchanged: 0/0
  6328 ;; Data sizes:     COMRAM   BANK0   BANK1   BANK2   BANK3   BANK4   BANK5
  6329 ;;      Params:         0       0       0       0       0       0       0
  6330 ;;      Locals:         0       0       0       0       0       0       0
  6331 ;;      Temps:          0       0       0       0       0       0       0
  6332 ;;      Totals:         0       0       0       0       0       0       0
  6333 ;;Total ram usage:        0 bytes
  6334 ;; Hardware stack levels used: 1
  6335 ;; This function calls:
  6336 ;;		Nothing
  6337 ;; This function is called by:
  6338 ;;		_SYSTEM_Initialize
  6339 ;; This function uses a non-reentrant model
  6340 ;;
  6341                           
  6342                           	psect	text37
  6343  00268C                     __ptext37:
  6344                           	callstack 0
  6345  00268C                     _ADC_Initialize:
  6346                           	callstack 29
  6347  00268C                     
  6348                           ;mcc_generated_files/adc.c: 67:     ADCON1 = 0x00;
  6349  00268C  0E00               	movlw	0
  6350  00268E  6EC1               	movwf	193,c	;volatile
  6351                           
  6352                           ;mcc_generated_files/adc.c: 70:     ADCON2 = 0xBA;
  6353  002690  0EBA               	movlw	186
  6354  002692  6EC0               	movwf	192,c	;volatile
  6355                           
  6356                           ;mcc_generated_files/adc.c: 73:     ADRESL = 0x00;
  6357  002694  0E00               	movlw	0
  6358  002696  6EC3               	movwf	195,c	;volatile
  6359                           
  6360                           ;mcc_generated_files/adc.c: 76:     ADRESH = 0x00;
  6361  002698  0E00               	movlw	0
  6362  00269A  6EC4               	movwf	196,c	;volatile
  6363                           
  6364                           ;mcc_generated_files/adc.c: 79:     ADCON0 = 0x01;
  6365  00269C  0E01               	movlw	1
  6366  00269E  6EC2               	movwf	194,c	;volatile
  6367  0026A0  0012               	return		;funcret
  6368  0026A2                     __end_of_ADC_Initialize:
  6369                           	callstack 0
  6370                           
  6371 ;; *************** function _PWM2_LoadDutyValue *****************
  6372 ;; Defined at:
  6373 ;;		line 80 in file "mcc_generated_files/pwm2.c"
  6374 ;; Parameters:    Size  Location     Type
  6375 ;;  dutyValue       2    0[COMRAM] unsigned short 
  6376 ;; Auto vars:     Size  Location     Type
  6377 ;;		None
  6378 ;; Return value:  Size  Location     Type
  6379 ;;                  1    wreg      void 
  6380 ;; Registers used:
  6381 ;;		wreg, status,2, status,0
  6382 ;; Tracked objects:
  6383 ;;		On entry : 0/0
  6384 ;;		On exit  : 0/0
  6385 ;;		Unchanged: 0/0
  6386 ;; Data sizes:     COMRAM   BANK0   BANK1   BANK2   BANK3   BANK4   BANK5
  6387 ;;      Params:         2       0       0       0       0       0       0
  6388 ;;      Locals:         0       0       0       0       0       0       0
  6389 ;;      Temps:          2       0       0       0       0       0       0
  6390 ;;      Totals:         4       0       0       0       0       0       0
  6391 ;;Total ram usage:        4 bytes
  6392 ;; Hardware stack levels used: 1
  6393 ;; This function calls:
  6394 ;;		Nothing
  6395 ;; This function is called by:
  6396 ;;		_main
  6397 ;; This function uses a non-reentrant model
  6398 ;;
  6399                           
  6400                           	psect	text38
  6401  002606                     __ptext38:
  6402                           	callstack 0
  6403  002606                     _PWM2_LoadDutyValue:
  6404                           	callstack 30
  6405  002606                     
  6406                           ;mcc_generated_files/pwm2.c: 80: void PWM2_LoadDutyValue(uint16_t dutyValue);mcc_generat
      +                          ed_files/pwm2.c: 81: {;mcc_generated_files/pwm2.c: 83:     CCPR2L = ((dutyValue & 0x03FC
      +                          )>>2);
  6407  002606  C001  F003         	movff	PWM2_LoadDutyValue@dutyValue,??_PWM2_LoadDutyValue
  6408  00260A  C002  F004         	movff	PWM2_LoadDutyValue@dutyValue+1,??_PWM2_LoadDutyValue+1
  6409  00260E  90D8               	bcf	status,0,c
  6410  002610  3204               	rrcf	(??_PWM2_LoadDutyValue+1)^0,f,c
  6411  002612  3203               	rrcf	??_PWM2_LoadDutyValue^0,f,c
  6412  002614  90D8               	bcf	status,0,c
  6413  002616  3204               	rrcf	(??_PWM2_LoadDutyValue+1)^0,f,c
  6414  002618  3203               	rrcf	??_PWM2_LoadDutyValue^0,f,c
  6415  00261A  5003               	movf	??_PWM2_LoadDutyValue^0,w,c
  6416  00261C  6EBB               	movwf	187,c	;volatile
  6417                           
  6418                           ;mcc_generated_files/pwm2.c: 86:     CCP2CON = ((uint8_t)(CCP2CON & 0xCF) | ((dutyValue 
      +                          & 0x0003)<<4));
  6419  00261E  C001  F003         	movff	PWM2_LoadDutyValue@dutyValue,??_PWM2_LoadDutyValue
  6420  002622  0E03               	movlw	3
  6421  002624  1603               	andwf	??_PWM2_LoadDutyValue^0,f,c
  6422  002626  3A03               	swapf	??_PWM2_LoadDutyValue^0,f,c
  6423  002628  0EF0               	movlw	240
  6424  00262A  1603               	andwf	??_PWM2_LoadDutyValue^0,f,c
  6425  00262C  50BA               	movf	186,w,c	;volatile
  6426  00262E  0BCF               	andlw	207
  6427  002630  1003               	iorwf	??_PWM2_LoadDutyValue^0,w,c
  6428  002632  6EBA               	movwf	186,c	;volatile
  6429  002634  0012               	return		;funcret
  6430  002636                     __end_of_PWM2_LoadDutyValue:
  6431                           	callstack 0
  6432                           
  6433 ;; *************** function _ADC_GetConversion *****************
  6434 ;; Defined at:
  6435 ;;		line 110 in file "mcc_generated_files/adc.c"
  6436 ;; Parameters:    Size  Location     Type
  6437 ;;  channel         1    wreg     enum E2717
  6438 ;; Auto vars:     Size  Location     Type
  6439 ;;  channel         1    4[COMRAM] enum E2717
  6440 ;; Return value:  Size  Location     Type
  6441 ;;                  2    0[COMRAM] unsigned short 
  6442 ;; Registers used:
  6443 ;;		wreg, status,2, status,0
  6444 ;; Tracked objects:
  6445 ;;		On entry : 0/0
  6446 ;;		On exit  : 0/0
  6447 ;;		Unchanged: 0/0
  6448 ;; Data sizes:     COMRAM   BANK0   BANK1   BANK2   BANK3   BANK4   BANK5
  6449 ;;      Params:         2       0       0       0       0       0       0
  6450 ;;      Locals:         1       0       0       0       0       0       0
  6451 ;;      Temps:          2       0       0       0       0       0       0
  6452 ;;      Totals:         5       0       0       0       0       0       0
  6453 ;;Total ram usage:        5 bytes
  6454 ;; Hardware stack levels used: 1
  6455 ;; This function calls:
  6456 ;;		Nothing
  6457 ;; This function is called by:
  6458 ;;		_main
  6459 ;; This function uses a non-reentrant model
  6460 ;;
  6461                           
  6462                           	psect	text39
  6463  002534                     __ptext39:
  6464                           	callstack 0
  6465  002534                     _ADC_GetConversion:
  6466                           	callstack 30
  6467                           
  6468                           ;incstack = 0
  6469                           ;ADC_GetConversion@channel stored from wreg
  6470  002534  6E05               	movwf	ADC_GetConversion@channel^0,c
  6471  002536                     
  6472                           ;mcc_generated_files/adc.c: 110: adc_result_t ADC_GetConversion(adc_channel_t channel);m
      +                          cc_generated_files/adc.c: 111: {;mcc_generated_files/adc.c: 113:     ADCON0bits.CHS = ch
      +                          annel;
  6473  002536  C005  F003         	movff	ADC_GetConversion@channel,??_ADC_GetConversion
  6474  00253A  4603               	rlncf	??_ADC_GetConversion^0,f,c
  6475  00253C  4603               	rlncf	??_ADC_GetConversion^0,f,c
  6476  00253E  50C2               	movf	194,w,c	;volatile
  6477  002540  1803               	xorwf	??_ADC_GetConversion^0,w,c
  6478  002542  0BC3               	andlw	-61
  6479  002544  1803               	xorwf	??_ADC_GetConversion^0,w,c
  6480  002546  6EC2               	movwf	194,c	;volatile
  6481  002548                     
  6482                           ;mcc_generated_files/adc.c: 116:     ADCON0bits.ADON = 1;
  6483  002548  80C2               	bsf	194,0,c	;volatile
  6484  00254A                     
  6485                           ;mcc_generated_files/adc.c: 119:     ADCON0bits.GO_nDONE = 1;
  6486  00254A  82C2               	bsf	194,1,c	;volatile
  6487  00254C                     l34:
  6488                           
  6489                           ;mcc_generated_files/adc.c: 122:     while (ADCON0bits.GO_nDONE)
  6490  00254C  B2C2               	btfsc	194,1,c	;volatile
  6491  00254E  EFAB  F012         	goto	u2351
  6492  002552  EFAD  F012         	goto	u2350
  6493  002556                     u2351:
  6494  002556  EFA6  F012         	goto	l34
  6495  00255A                     u2350:
  6496  00255A                     
  6497                           ;mcc_generated_files/adc.c: 127:     return ((adc_result_t)((ADRESH << 8) + ADRESL));
  6498  00255A  50C4               	movf	196,w,c	;volatile
  6499  00255C  6E04               	movwf	(??_ADC_GetConversion+1)^0,c
  6500  00255E  6A03               	clrf	??_ADC_GetConversion^0,c
  6501  002560  50C3               	movf	195,w,c	;volatile
  6502  002562  2403               	addwf	??_ADC_GetConversion^0,w,c
  6503  002564  6E01               	movwf	?_ADC_GetConversion^0,c
  6504  002566  0E00               	movlw	0
  6505  002568  2004               	addwfc	(??_ADC_GetConversion+1)^0,w,c
  6506  00256A  6E02               	movwf	(?_ADC_GetConversion+1)^0,c
  6507  00256C  0012               	return		;funcret
  6508  00256E                     __end_of_ADC_GetConversion:
  6509                           	callstack 0
  6510                           
  6511                           	psect	rparam
  6512  0000                     
  6513                           	psect	idloc
  6514                           
  6515                           ;Config register IDLOC0 @ 0x200000
  6516                           ;	unspecified, using default values
  6517  200000                     	org	2097152
  6518  200000  FF                 	db	255
  6519                           
  6520                           ;Config register IDLOC1 @ 0x200001
  6521                           ;	unspecified, using default values
  6522  200001                     	org	2097153
  6523  200001  FF                 	db	255
  6524                           
  6525                           ;Config register IDLOC2 @ 0x200002
  6526                           ;	unspecified, using default values
  6527  200002                     	org	2097154
  6528  200002  FF                 	db	255
  6529                           
  6530                           ;Config register IDLOC3 @ 0x200003
  6531                           ;	unspecified, using default values
  6532  200003                     	org	2097155
  6533  200003  FF                 	db	255
  6534                           
  6535                           ;Config register IDLOC4 @ 0x200004
  6536                           ;	unspecified, using default values
  6537  200004                     	org	2097156
  6538  200004  FF                 	db	255
  6539                           
  6540                           ;Config register IDLOC5 @ 0x200005
  6541                           ;	unspecified, using default values
  6542  200005                     	org	2097157
  6543  200005  FF                 	db	255
  6544                           
  6545                           ;Config register IDLOC6 @ 0x200006
  6546                           ;	unspecified, using default values
  6547  200006                     	org	2097158
  6548  200006  FF                 	db	255
  6549                           
  6550                           ;Config register IDLOC7 @ 0x200007
  6551                           ;	unspecified, using default values
  6552  200007                     	org	2097159
  6553  200007  FF                 	db	255
  6554                           
  6555                           	psect	config
  6556                           
  6557                           ; Padding undefined space
  6558  300000                     	org	3145728
  6559  300000  FF                 	db	255
  6560                           
  6561                           ;Config register CONFIG1H @ 0x300001
  6562                           ;	Oscillator Selection bits
  6563                           ;	FOSC = HS, HS oscillator
  6564                           ;	Fail-Safe Clock Monitor Enable bit
  6565                           ;	FCMEN = OFF, Fail-Safe Clock Monitor disabled
  6566                           ;	Internal/External Oscillator Switchover bit
  6567                           ;	IESO = OFF, Oscillator Switchover mode disabled
  6568  300001                     	org	3145729
  6569  300001  02                 	db	2
  6570                           
  6571                           ;Config register CONFIG2L @ 0x300002
  6572                           ;	Power-up Timer Enable bit
  6573                           ;	PWRT = OFF, PWRT disabled
  6574                           ;	Brown-out Reset Enable bits
  6575                           ;	BOREN = SBORDIS, Brown-out Reset enabled in hardware only (SBOREN is disabled)
  6576                           ;	Brown Out Reset Voltage bits
  6577                           ;	BORV = 18, VBOR set to 1.8 V nominal
  6578  300002                     	org	3145730
  6579  300002  1F                 	db	31
  6580                           
  6581                           ;Config register CONFIG2H @ 0x300003
  6582                           ;	Watchdog Timer Enable bit
  6583                           ;	WDTEN = OFF, WDT is controlled by SWDTEN bit of the WDTCON register
  6584                           ;	Watchdog Timer Postscale Select bits
  6585                           ;	WDTPS = 32768, 1:32768
  6586  300003                     	org	3145731
  6587  300003  1E                 	db	30
  6588                           
  6589                           ; Padding undefined space
  6590  300004                     	org	3145732
  6591  300004  FF                 	db	255
  6592                           
  6593                           ;Config register CONFIG3H @ 0x300005
  6594                           ;	CCP2 MUX bit
  6595                           ;	CCP2MX = PORTC, CCP2 input/output is multiplexed with RC1
  6596                           ;	PORTB A/D Enable bit
  6597                           ;	PBADEN = ON, PORTB<4:0> pins are configured as analog input channels on Reset
  6598                           ;	Low-Power Timer1 Oscillator Enable bit
  6599                           ;	LPT1OSC = OFF, Timer1 configured for higher power operation
  6600                           ;	HFINTOSC Fast Start-up
  6601                           ;	HFOFST = ON, HFINTOSC starts clocking the CPU without waiting for the oscillator to st
      +                          ablize.
  6602                           ;	MCLR Pin Enable bit
  6603                           ;	MCLRE = ON, MCLR pin enabled; RE3 input pin disabled
  6604  300005                     	org	3145733
  6605  300005  8B                 	db	139
  6606                           
  6607                           ;Config register CONFIG4L @ 0x300006
  6608                           ;	Stack Full/Underflow Reset Enable bit
  6609                           ;	STVREN = ON, Stack full/underflow will cause Reset
  6610                           ;	Single-Supply ICSP Enable bit
  6611                           ;	LVP = OFF, Single-Supply ICSP disabled
  6612                           ;	Extended Instruction Set Enable bit
  6613                           ;	XINST = OFF, Instruction set extension and Indexed Addressing mode disabled (Legacy mo
      +                          de)
  6614                           ;	Background Debugger Enable bit
  6615                           ;	DEBUG = OFF, Background debugger disabled, RB6 and RB7 configured as general purpose I
      +                          /O pins
  6616  300006                     	org	3145734
  6617  300006  81                 	db	129
  6618                           
  6619                           ; Padding undefined space
  6620  300007                     	org	3145735
  6621  300007  FF                 	db	255
  6622                           
  6623                           ;Config register CONFIG5L @ 0x300008
  6624                           ;	Code Protection Block 0
  6625                           ;	CP0 = OFF, Block 0 (000800-001FFFh) not code-protected
  6626                           ;	Code Protection Block 1
  6627                           ;	CP1 = OFF, Block 1 (002000-003FFFh) not code-protected
  6628                           ;	Code Protection Block 2
  6629                           ;	CP2 = OFF, Block 2 (004000-005FFFh) not code-protected
  6630                           ;	Code Protection Block 3
  6631                           ;	CP3 = OFF, Block 3 (006000-007FFFh) not code-protected
  6632  300008                     	org	3145736
  6633  300008  0F                 	db	15
  6634                           
  6635                           ;Config register CONFIG5H @ 0x300009
  6636                           ;	Boot Block Code Protection bit
  6637                           ;	CPB = OFF, Boot block (000000-0007FFh) not code-protected
  6638                           ;	Data EEPROM Code Protection bit
  6639                           ;	CPD = OFF, Data EEPROM not code-protected
  6640  300009                     	org	3145737
  6641  300009  C0                 	db	192
  6642                           
  6643                           ;Config register CONFIG6L @ 0x30000A
  6644                           ;	Write Protection Block 0
  6645                           ;	WRT0 = OFF, Block 0 (000800-001FFFh) not write-protected
  6646                           ;	Write Protection Block 1
  6647                           ;	WRT1 = OFF, Block 1 (002000-003FFFh) not write-protected
  6648                           ;	Write Protection Block 2
  6649                           ;	WRT2 = OFF, Block 2 (004000-005FFFh) not write-protected
  6650                           ;	Write Protection Block 3
  6651                           ;	WRT3 = OFF, Block 3 (006000-007FFFh) not write-protected
  6652  30000A                     	org	3145738
  6653  30000A  0F                 	db	15
  6654                           
  6655                           ;Config register CONFIG6H @ 0x30000B
  6656                           ;	Configuration Register Write Protection bit
  6657                           ;	WRTC = OFF, Configuration registers (300000-3000FFh) not write-protected
  6658                           ;	Boot Block Write Protection bit
  6659                           ;	WRTB = OFF, Boot Block (000000-0007FFh) not write-protected
  6660                           ;	Data EEPROM Write Protection bit
  6661                           ;	WRTD = OFF, Data EEPROM not write-protected
  6662  30000B                     	org	3145739
  6663  30000B  E0                 	db	224
  6664                           
  6665                           ;Config register CONFIG7L @ 0x30000C
  6666                           ;	Table Read Protection Block 0
  6667                           ;	EBTR0 = OFF, Block 0 (000800-001FFFh) not protected from table reads executed in other
      +                           blocks
  6668                           ;	Table Read Protection Block 1
  6669                           ;	EBTR1 = OFF, Block 1 (002000-003FFFh) not protected from table reads executed in other
      +                           blocks
  6670                           ;	Table Read Protection Block 2
  6671                           ;	EBTR2 = OFF, Block 2 (004000-005FFFh) not protected from table reads executed in other
      +                           blocks
  6672                           ;	Table Read Protection Block 3
  6673                           ;	EBTR3 = OFF, Block 3 (006000-007FFFh) not protected from table reads executed in other
      +                           blocks
  6674  30000C                     	org	3145740
  6675  30000C  0F                 	db	15
  6676                           
  6677                           ;Config register CONFIG7H @ 0x30000D
  6678                           ;	Boot Block Table Read Protection bit
  6679                           ;	EBTRB = OFF, Boot Block (000000-0007FFh) not protected from table reads executed in ot
      +                          her blocks
  6680  30000D                     	org	3145741
  6681  30000D  40                 	db	64
  6682                           tosu	equ	0xFFF
  6683                           tosh	equ	0xFFE
  6684                           tosl	equ	0xFFD
  6685                           stkptr	equ	0xFFC
  6686                           pclatu	equ	0xFFB
  6687                           pclath	equ	0xFFA
  6688                           pcl	equ	0xFF9
  6689                           tblptru	equ	0xFF8
  6690                           tblptrh	equ	0xFF7
  6691                           tblptrl	equ	0xFF6
  6692                           tablat	equ	0xFF5
  6693                           prodh	equ	0xFF4
  6694                           prodl	equ	0xFF3
  6695                           indf0	equ	0xFEF
  6696                           postinc0	equ	0xFEE
  6697                           postdec0	equ	0xFED
  6698                           preinc0	equ	0xFEC
  6699                           plusw0	equ	0xFEB
  6700                           fsr0h	equ	0xFEA
  6701                           fsr0l	equ	0xFE9
  6702                           wreg	equ	0xFE8
  6703                           indf1	equ	0xFE7
  6704                           postinc1	equ	0xFE6
  6705                           postdec1	equ	0xFE5
  6706                           preinc1	equ	0xFE4
  6707                           plusw1	equ	0xFE3
  6708                           fsr1h	equ	0xFE2
  6709                           fsr1l	equ	0xFE1
  6710                           bsr	equ	0xFE0
  6711                           indf2	equ	0xFDF
  6712                           postinc2	equ	0xFDE
  6713                           postdec2	equ	0xFDD
  6714                           preinc2	equ	0xFDC
  6715                           plusw2	equ	0xFDB
  6716                           fsr2h	equ	0xFDA
  6717                           fsr2l	equ	0xFD9
  6718                           status	equ	0xFD8

Data Sizes:
    Strings     41
    Constant    0
    Data        7
    BSS         97
    Persistent  12
    Stack       0

Auto Spaces:
    Space          Size  Autos    Used
    COMRAM           95     93      95
    BANK0           160     27     141
    BANK1           256      0       0
    BANK2           256      0       0
    BANK3           256      0       0
    BANK4           256      0       0
    BANK5           256      0       0

Pointer List with Targets:

    ADC_InterruptHandler	PTR FTN()void  size(2) Largest target is 1
		 -> Absolute function(), 

    strncmp@_r	PTR const unsigned char  size(2) Largest target is 4
		 -> STR_6(CODE[4]), 

    strncmp@r	PTR const unsigned char  size(2) Largest target is 4
		 -> STR_6(CODE[4]), 

    strncmp@_l	PTR const unsigned char  size(2) Largest target is 10
		 -> STR_1(CODE[10]), 

    strncmp@l	PTR const unsigned char  size(2) Largest target is 10
		 -> STR_1(CODE[10]), 

    strlen@s	PTR const unsigned char  size(2) Largest target is 32
		 -> stoa@nuls(COMRAM[7]), dbuf(BANK0[32]), ?_sprintf(BANK0[2]), STR_3(CODE[13]), 
		 -> STR_2(CODE[14]), 

    strlen@a	PTR const unsigned char  size(2) Largest target is 32
		 -> stoa@nuls(COMRAM[7]), dbuf(BANK0[32]), ?_sprintf(BANK0[2]), STR_3(CODE[13]), 
		 -> STR_2(CODE[14]), 

    fputs@s	PTR const unsigned char  size(2) Largest target is 32
		 -> dbuf(BANK0[32]), 

    fputs@fp	PTR struct _IO_FILE size(2) Largest target is 11
		 -> sprintf@f(BANK0[11]), 

    fputc@fp...source	PTR const unsigned char  size(2) Largest target is 0

    fputc@fp...buffer	PTR unsigned char  size(2) Largest target is 0

    fputc@fp	PTR struct _IO_FILE size(2) Largest target is 11
		 -> sprintf@f(BANK0[11]), 

    atoi@s	PTR const unsigned char  size(2) Largest target is 10
		 -> STR_1(CODE[10]), 

    vfprintf@ap	PTR PTR void  size(2) Largest target is 2
		 -> sprintf@ap(BANK0[2]), 

    vfprintf@fp	PTR struct _IO_FILE size(2) Largest target is 11
		 -> sprintf@f(BANK0[11]), 

    vfprintf@fmt	PTR const unsigned char  size(2) Largest target is 10
		 -> STR_1(CODE[10]), 

    vfprintf@cfmt	PTR unsigned char  size(2) Largest target is 10
		 -> STR_1(CODE[10]), 

    vfpfcnvrt@cp	PTR unsigned char  size(2) Largest target is 2
		 -> ?_sprintf(BANK0[2]), STR_3(CODE[13]), STR_2(CODE[14]), 

    vfpfcnvrt@fp	PTR struct _IO_FILE size(2) Largest target is 11
		 -> sprintf@f(BANK0[11]), 

    vfpfcnvrt@ap	PTR PTR void  size(2) Largest target is 2
		 -> sprintf@ap(BANK0[2]), 

    vfpfcnvrt@fmt	PTR PTR unsigned char  size(2) Largest target is 2
		 -> vfprintf@cfmt(COMRAM[2]), 

    stoa@fp	PTR struct _IO_FILE size(2) Largest target is 11
		 -> sprintf@f(BANK0[11]), 

    stoa@s	PTR unsigned char  size(2) Largest target is 2
		 -> ?_sprintf(BANK0[2]), STR_3(CODE[13]), STR_2(CODE[14]), 

    stoa@cp	PTR unsigned char  size(2) Largest target is 7
		 -> stoa@nuls(COMRAM[7]), ?_sprintf(BANK0[2]), STR_3(CODE[13]), STR_2(CODE[14]), 

    dtoa@fp	PTR struct _IO_FILE size(2) Largest target is 11
		 -> sprintf@f(BANK0[11]), 

    pad@fp	PTR struct _IO_FILE size(2) Largest target is 11
		 -> sprintf@f(BANK0[11]), 

    pad@buf	PTR unsigned char  size(2) Largest target is 32
		 -> dbuf(BANK0[32]), 

    sprintf@fmt	PTR const unsigned char  size(2) Largest target is 10
		 -> STR_1(CODE[10]), 

    sprintf@s	PTR unsigned char  size(2) Largest target is 50
		 -> xvalueASCII(BANK0[50]), 

    sprintf@ap	PTR void [1] size(2) Largest target is 2
		 -> ?_sprintf(BANK0[2]), 

    S1111$source	PTR const unsigned char  size(2) Largest target is 0

    f...source	PTR const unsigned char  size(2) Largest target is 0

    S1111$buffer	PTR unsigned char  size(2) Largest target is 0

    f...buffer	PTR unsigned char  size(2) Largest target is 0

    SendUsartString@str	PTR unsigned char  size(2) Largest target is 50
		 -> xvalueASCII(BANK0[50]), 

    EUSART_SetErrorHandler@interruptHandler	PTR FTN()void  size(2) Largest target is 1
		 -> EUSART_DefaultErrorHandler(), 

    EUSART_ErrorHandler	PTR FTN()void  size(2) Largest target is 1
		 -> Absolute function(), EUSART_DefaultErrorHandler(), 

    EUSART_SetOverrunErrorHandler@interruptHandler	PTR FTN()void  size(2) Largest target is 1
		 -> EUSART_DefaultOverrunErrorHandler(), 

    EUSART_OverrunErrorHandler	PTR FTN()void  size(2) Largest target is 1
		 -> Absolute function(), EUSART_DefaultOverrunErrorHandler(), 

    EUSART_SetFramingErrorHandler@interruptHandler	PTR FTN()void  size(2) Largest target is 1
		 -> EUSART_DefaultFramingErrorHandler(), 

    EUSART_FramingErrorHandler	PTR FTN()void  size(2) Largest target is 1
		 -> Absolute function(), EUSART_DefaultFramingErrorHandler(), 


Critical Paths under _main in COMRAM

    _sprintf->_vfprintf
    _vfprintf->_vfpfcnvrt
    _vfpfcnvrt->_dtoa
    _stoa->_fputc
    _dtoa->_pad
    _pad->_fputs
    _fputs->_fputc
    _abs->___aomod
    _atoi->_isspace
    _map->___aldiv
    ___aldiv->___lmul
    ___xxtofl->_ADC_GetConversion
    ___fltol->___fldiv
    ___fldiv->___flmul
    _SendUsartString->_EUSART_Write
    _EUSART_Initialize->_EUSART_SetErrorHandler
    _EUSART_Initialize->_EUSART_SetFramingErrorHandler
    _EUSART_Initialize->_EUSART_SetOverrunErrorHandler

Critical Paths under _main in BANK0

    _main->_sprintf

Critical Paths under _main in BANK1

    None.

Critical Paths under _main in BANK2

    None.

Critical Paths under _main in BANK3

    None.

Critical Paths under _main in BANK4

    None.

Critical Paths under _main in BANK5

    None.

Call Graph Tables:

 ---------------------------------------------------------------------------------
 (Depth) Function   	        Calls       Base Space   Used Autos Params    Refs
 ---------------------------------------------------------------------------------
 (0) _main                                                 4     4      0   18375
                                             23 BANK0      4     4      0
                  _ADC_GetConversion
                 _PWM2_LoadDutyValue
                  _SYSTEM_Initialize
                    _SendUsartString
                            ___fldiv
                            ___flmul
                            ___fltol
                           ___xxtofl
                                _map
                            _sprintf
 ---------------------------------------------------------------------------------
 (1) _sprintf                                             25    15     10   12343
                                              0 BANK0     23    13     10
                           _vfprintf
 ---------------------------------------------------------------------------------
 (2) _vfprintf                                             8     2      6   11988
                                             85 COMRAM     8     2      6
                          _vfpfcnvrt
 ---------------------------------------------------------------------------------
 (3) _vfpfcnvrt                                           45    39      6   11621
                                             63 COMRAM    22    16      6
                               _atoi
                               _dtoa
                              _fputc
                            _isdigit
                               _stoa
                            _strncmp
 ---------------------------------------------------------------------------------
 (4) _strncmp                                             11     5      6     453
                                              0 COMRAM    11     5      6
 ---------------------------------------------------------------------------------
 (4) _stoa                                                22    18      4    2139
                                              9 COMRAM    22    18      4
                              _fputc
                             _strlen
 ---------------------------------------------------------------------------------
 (4) _dtoa                                                36    26     10    5346
                                             27 COMRAM    36    26     10
                            ___aodiv
                            ___aomod
                                _abs
                                _pad
 ---------------------------------------------------------------------------------
 (5) _pad                                                 11     5      6    3697
                                             16 COMRAM    11     5      6
                              _fputc
                              _fputs
                             _strlen
 ---------------------------------------------------------------------------------
 (5) _strlen                                               4     2      2     242
                                              0 COMRAM     4     2      2
 ---------------------------------------------------------------------------------
 (6) _fputs                                                7     3      4    1691
                                              9 COMRAM     7     3      4
                              _fputc
 ---------------------------------------------------------------------------------
 (5) _fputc                                                9     5      4    1290
                                              0 COMRAM     9     5      4
                              _putch
 ---------------------------------------------------------------------------------
 (6) _putch                                                1     1      0       0
 ---------------------------------------------------------------------------------
 (5) _abs                                                  4     2      2     142
                                             18 COMRAM     4     2      2
                            ___aomod (ARG)
 ---------------------------------------------------------------------------------
 (5) ___aomod                                             18     2     16     448
                                              0 COMRAM    18     2     16
 ---------------------------------------------------------------------------------
 (5) ___aodiv                                             26    10     16     452
                                              0 COMRAM    26    10     16
 ---------------------------------------------------------------------------------
 (4) _atoi                                                10     8      2    1264
                                              7 COMRAM    10     8      2
                             ___wmul
                            _isdigit
                            _isspace
 ---------------------------------------------------------------------------------
 (5) _isspace                                              7     5      2     207
                                              0 COMRAM     7     5      2
 ---------------------------------------------------------------------------------
 (4) _isdigit                                              6     4      2     237
                                              0 COMRAM     6     4      2
 ---------------------------------------------------------------------------------
 (5) ___wmul                                               6     2      4     495
                                              0 COMRAM     6     2      4
 ---------------------------------------------------------------------------------
 (1) _map                                                 20     0     20    1356
                                             26 COMRAM    20     0     20
                            ___aldiv
                             ___lmul
 ---------------------------------------------------------------------------------
 (2) ___lmul                                              12     4      8     370
                                              0 COMRAM    12     4      8
 ---------------------------------------------------------------------------------
 (2) ___aldiv                                             14     6      8     452
                                             12 COMRAM    14     6      8
                             ___lmul (ARG)
 ---------------------------------------------------------------------------------
 (1) ___xxtofl                                            14    10      4     398
                                              5 COMRAM    14    10      4
                  _ADC_GetConversion (ARG)
 ---------------------------------------------------------------------------------
 (1) ___fltol                                             10     6      4     305
                                             50 COMRAM    10     6      4
                            ___fldiv (ARG)
                            ___flmul (ARG)
 ---------------------------------------------------------------------------------
 (1) ___flmul                                             25    17      8    1744
                                              0 COMRAM    25    17      8
 ---------------------------------------------------------------------------------
 (1) ___fldiv                                             25    17      8    1551
                                             25 COMRAM    25    17      8
                            ___flmul (ARG)
 ---------------------------------------------------------------------------------
 (1) _SendUsartString                                      2     0      2     143
                                              1 COMRAM     2     0      2
                       _EUSART_Write
 ---------------------------------------------------------------------------------
 (2) _EUSART_Write                                         1     1      0      22
                                              0 COMRAM     1     1      0
 ---------------------------------------------------------------------------------
 (1) _SYSTEM_Initialize                                    0     0      0     294
                     _ADC_Initialize
                  _EUSART_Initialize
              _OSCILLATOR_Initialize
             _PIN_MANAGER_Initialize
                    _PWM2_Initialize
                    _TMR2_Initialize
 ---------------------------------------------------------------------------------
 (2) _TMR2_Initialize                                      0     0      0       0
 ---------------------------------------------------------------------------------
 (2) _PWM2_Initialize                                      0     0      0       0
 ---------------------------------------------------------------------------------
 (2) _PIN_MANAGER_Initialize                               0     0      0       0
 ---------------------------------------------------------------------------------
 (2) _OSCILLATOR_Initialize                                0     0      0       0
 ---------------------------------------------------------------------------------
 (2) _EUSART_Initialize                                    0     0      0     294
             _EUSART_SetErrorHandler
      _EUSART_SetFramingErrorHandler
      _EUSART_SetOverrunErrorHandler
 ---------------------------------------------------------------------------------
 (3) _EUSART_SetOverrunErrorHandler                        2     0      2      98
                                              0 COMRAM     2     0      2
 ---------------------------------------------------------------------------------
 (3) _EUSART_SetFramingErrorHandler                        2     0      2      98
                                              0 COMRAM     2     0      2
 ---------------------------------------------------------------------------------
 (3) _EUSART_SetErrorHandler                               2     0      2      98
                                              0 COMRAM     2     0      2
 ---------------------------------------------------------------------------------
 (2) _ADC_Initialize                                       0     0      0       0
 ---------------------------------------------------------------------------------
 (1) _PWM2_LoadDutyValue                                   4     2      2     196
                                              0 COMRAM     4     2      2
 ---------------------------------------------------------------------------------
 (1) _ADC_GetConversion                                    5     3      2      22
                                              0 COMRAM     5     3      2
 ---------------------------------------------------------------------------------
 Estimated maximum stack depth 6
 ---------------------------------------------------------------------------------

 Call Graph Graphs:

 _main (ROOT)
   _ADC_GetConversion
   _PWM2_LoadDutyValue
   _SYSTEM_Initialize
     _ADC_Initialize
     _EUSART_Initialize
       _EUSART_SetErrorHandler
       _EUSART_SetFramingErrorHandler
       _EUSART_SetOverrunErrorHandler
     _OSCILLATOR_Initialize
     _PIN_MANAGER_Initialize
     _PWM2_Initialize
     _TMR2_Initialize
   _SendUsartString
     _EUSART_Write
   ___fldiv
     ___flmul (ARG)
   ___flmul
   ___fltol
     ___fldiv (ARG)
     ___flmul (ARG)
   ___xxtofl
     _ADC_GetConversion (ARG)
   _map
     ___aldiv
       ___lmul (ARG)
     ___lmul
   _sprintf
     _vfprintf
       _vfpfcnvrt
         _atoi
           ___wmul
           _isdigit
           _isspace
         _dtoa
           ___aodiv
           ___aomod
           _abs
             ___aomod (ARG)
           _pad
             _fputc
               _putch
             _fputs
               _fputc
             _strlen
         _fputc
         _isdigit
         _stoa
           _fputc
           _strlen
         _strncmp

 Address spaces:
Name               Size   Autos  Total    Cost      Usage
BIGRAM             5FF      0       0      31        0.0%
EEDATA             100      0       0       0        0.0%
BITBANK5           100      0       0      14        0.0%
BANK5              100      0       0      15        0.0%
BITBANK4           100      0       0      12        0.0%
BANK4              100      0       0      13        0.0%
BITBANK3           100      0       0      10        0.0%
BANK3              100      0       0      11        0.0%
BITBANK2           100      0       0       8        0.0%
BANK2              100      0       0       9        0.0%
BITBANK1           100      0       0       6        0.0%
BANK1              100      0       0       7        0.0%
BITBANK0            A0      0       0       4        0.0%
BANK0               A0     1B      8D       5       88.1%
BITCOMRAM           5F      0       0       0        0.0%
COMRAM              5F     5D      5F       1      100.0%
BITBIGSFRhhhl       1D      0       0      17        0.0%
BITBIGSFRllllll     1C      0       0      29        0.0%
BITBIGSFRhhhh        D      0       0      16        0.0%
BITBIGSFRlllh        C      0       0      23        0.0%
BITBIGSFRllllll      9      0       0      27        0.0%
BITBIGSFRllhh        7      0       0      22        0.0%
BITBIGSFRhhlh        6      0       0      18        0.0%
BITBIGSFRhhll        5      0       0      19        0.0%
BITBIGSFRlllllh      4      0       0      25        0.0%
BITBIGSFRlllllh      4      0       0      26        0.0%
BITBIGSFRlhh         3      0       0      20        0.0%
BITBIGSFRllllh       2      0       0      24        0.0%
BITBIGSFRllllll      1      0       0      28        0.0%
BITBIGSFRlhl         1      0       0      21        0.0%
BIGSFR               0      0       0     200        0.0%
BITSFR               0      0       0     200        0.0%
SFR                  0      0       0     200        0.0%
STACK                0      0       0       2        0.0%
NULL                 0      0       0       0        0.0%
ABS                  0      0      EC      30        0.0%
DATA                 0      0      EC       3        0.0%
CODE                 0      0       0       0        0.0%


Microchip Technology PIC18 Macro Assembler V2.36 build 20220127204148 
Symbol Table                                                                                   Thu Dec 22 15:09:36 2022

                                 ___fldiv@aexp 0032                                   ___fldiv@bexp 0031  
                                 ___fldiv@sign 002A                                             l34 254C  
                                           l19 26A0                                             l37 256C  
                                           l83 24F8                            ___wmul@multiplicand 0003  
                                          l110 268A                                            l122 26DC  
                                          l107 2678                                            l125 26D2  
                                          l150 26C8                                            l215 160A  
                                          l240 2634                                            l128 26E6  
                                          l225 25D4                                            l402 1C2A  
                                          l147 2674                                            l228 2276  
                                          l237 26BE                                            l253 26B0  
                                          l183 2604                                            l354 1E8C  
                                          l275 265A                                            l286 22D0  
                                          l287 22E0                                            l572 1F92  
                                          l389 1AC6                                            l906 0A16  
                                          l930 14A4                                            l933 1600  
                                          l870 0D0C                                            l862 0C12  
                                          l871 0CFA                                            l944 1598  
                                          l857 0DEE                                            l937 153C  
                                          l953 2394                                            l859 0C4E  
                                          l868 0C94                                            l893 0A54  
                                          l991 21FC                                            l896 08E6  
                                          l889 06F0                                            l898 095E  
                                          l986 2180                                            l899 094C  
                                          l989 21C2                                            l997 1210  
                                          l999 1218                                            _PR2 000FCB  
                                          _abs 247A                                            _pad 213C  
                                          _map 21FE                 ?_EUSART_SetFramingErrorHandler 0001  
                              _TMR2_Initialize 26A2                                            wreg 000FE8  
                                 ___flmul@aexp 0012                                   ___flmul@bexp 0013  
                                 ___flmul@sign 000D                                   ___flmul@temp 0018  
                                 ___flmul@prod 0014                                   ___fltol@exp1 003C  
                                         l1101 1D80                                           l1104 25A4  
                                         l1112 23E6                                           l1040 193E  
                                         l1024 1828                                           l1017 144C  
                                         l1026 1830                                           l1035 18EE  
                                         ?_abs 0013                                           l1036 1936  
                                         l1127 213A                                           l1135 2478  
                                         l1055 116E                                           l1144 2434  
                                         l3001 1450                                           l2201 1984  
                                         l1073 24B0                                           l1138 26F0  
                                         l3003 1460                                           l2211 19DA  
                                         l2203 19A4                                           l1076 24B8  
                                         l1148 2070                                           l1068 233A  
                                         l3021 1526                                           l3013 14DE  
                                         l3005 146E                                           l2301 2396  
                                         l3101 1CC8                                           l2221 1A5C  
                                         l2213 19EE                                           l2205 19A8  
                                         l1069 2342                                           l3031 15A6  
                                         l3023 1532                                           l3015 14E6  
                                         l3007 14B4                                           l2303 239A  
                                         l2231 1AA6                                           l2223 1A5E  
                                         l2215 19FC                                           l2207 19B4  
                                         l3041 15EE                                           l3033 15A8  
                                         l3025 156E                                           l3017 14F2  
                                         l3009 14CA                                           l2305 23AE  
                                         l2225 1A70                                           l2217 1A0E  
                                         l2209 19D2                                           l2241 1AFA  
                                         l2161 20BE                                           l2153 2072  
                                         l2321 11E8                                           l2313 1170  
                                         l2401 1894                                           l1098 1D78  
                                         l3043 15F0                                           l3035 15AC  
                                         l3027 157A                                           l3019 1524  
                                         l2307 23DC                                           l2219 1A3C  
                                         l2227 1A76                                           l2251 1B52  
                                         l2243 1AFE                                           l2235 1AC8  
                                         l2163 20F4                                           l2155 2084  
                                         l2171 2454                                           l2331 1240  
                                         l2323 11EA                                           l2315 1190  
                                         l2411 1900                                           l2403 18C8  
                                         l3037 15D0                                           l3029 1588  
                                         l2309 23E0                                           l2229 1A86  
                                         l2261 1BD4                                           l2253 1B66  
                                         l2245 1B0C                                           l2237 1ACC  
                                         l2157 2096                                           l2173 2458  
                                         l2181 2428                                           l2341 12DE  
                                         l2333 1246                                           l2325 1204  
                                         l2317 11B8                                           l2413 1914  
                                         l2405 18CC                                           l2501 0F3E  
                                         l3061 1606                                           l3039 15E0  
                                         l2431 1CAA                                           l2423 1C44  
                                         l2191 1940                                           l2255 1B74  
                                         l2263 1BDA                                           l2247 1B2C  
                                         l2239 1ADA                                           l2159 20A0  
                                         l2167 2436                                           l2175 23E8  
                                         l2271 213C                                           l2351 1386  
                                         l2343 12E4                                           l2335 124E  
                                         l2327 1220                                           l2319 11D8  
                                         l2415 1918                                           l2407 18D0  
                                         l2511 1006                                           l2503 0F62  
                                         l3071 16F8                                           l3063 1608  
                                         l2601 1D94                                           l2185 2636  
                                         l2441 1D4A                                           l2433 1CDE  
                                         l2425 1C60                                           l2417 1C2C  
                                         l2193 1944                                           l2265 1BEA  
                                         l2257 1BA2                                           l2249 1B4A  
                                         l2169 2442                                           l2177 23F4  
                                         l2281 218C                                           l2273 214A  
                                         l2361 13E8                                           l2353 13A0  
                                         l2345 12EA                                           l2337 1256  
                                         l2329 1232                                           l2521 1084  
                                         l2513 103C                                           l2505 0FAA  
                                         l3073 1704                                           l3065 1632  
                                         l2611 1DCA                                           l2603 1DA4  
                                         l2187 2652                                           l2443 1D5C  
                                         l2427 1C9A                                           l2419 1C40  
                                         l2195 1952                                           l2267 1C0A  
                                         l2259 1BC2                                           l2179 23F8  
                                         l2283 21A0                                           l2275 215E  
                                         l2363 13EE                                           l2371 1424  
                                         l2355 13BA                                           l2339 125C  
                                         l2347 134E                                           l2451 1FBE  
                                         l2531 10FE                                           l2523 10AC  
                                         l2515 1060                                           l3075 176A  
                                         l3067 168A                                           l3059 1602  
                                         l2701 0AA2                                           l2621 1E12  
                                         l2613 1DDA                                           l2605 1DA8  
                                         l2429 1CA2                                           l2197 1972  
                                         l2293 247A                                           l2285 21A4  
                                         l2277 216C                                           l2365 1400  
                                         l2349 1368                                           l2357 13C8  
                                         l2381 17D4                                           l2461 2010  
                                         l2533 1112                                           l2517 106C  
                                         l2509 0FE2                                           l3077 1776  
                                         l3069 16CA                                           l2551 268C  
                                         l2471 26CA                                           l2711 0AC8  
                                         l2703 0AA4                                           l2631 1E56  
                                         l2623 1E1C                                           l2615 1DF0  
                                         l2607 1DB6                                           l2439 1D14  
                                         l2199 1976                                           l2295 2494  
                                         l2287 21D0                                           l2279 2178  
                                         l2367 140C                                           l2359 13DA  
                                         l2383 17DC                                           l2375 17A8  
                                         l2463 2022                                           l2455 1FCA  
                                         l2519 1074                                           l2527 10CC  
                                         l2543 1138                                           l3079 1794  
                                         l2473 26DE                                           l2561 24F2  
                                         l2553 24BA                                           l2801 0D60  
                                         l2721 0B08                                           l2713 0AD6  
                                         l2705 0AAC                                           l2625 1E3A  
                                         l2617 1DF8                                           l2633 1E5C  
                                         l2609 1DC6                                           l2297 256E  
                                         l2289 21E4                                           l2369 1414  
                                         l2393 1852                                           l2385 17F0  
                                         l2377 17BA                                           l2465 204C  
                                         l2457 1FD8                                           l2449 1F94  
                                         l2545 115C                                           l2529 10F0  
                                         l2537 111E                                           l2481 0E34  
                                         l2641 22E2                                           l2651 2548  
                                         l2555 24CE                                           l2571 25F0  
                                         l2563 2678                                           l2811 0DCA  
                                         l2803 0D64                                           l2731 0B48  
                                         l2723 0B0A                                           l2715 0AD8  
                                         l2707 0ABC                                           l2635 1E6C  
                                         l2627 1E4A                                           l2619 1E04  
                                         l2395 1866                                           l2387 17F8  
                                         l2379 17C2                                           l2459 1FF4  
                                         l2539 112C                                           l2491 0EAE  
                                         l2483 0E38                                           l2475 0DF0  
                                         l2643 22EA                                           l2653 254A  
                                         l2469 26D4                                           l2557 24DA  
                                         l2573 25F6                                           l2581 26B2  
                                         l2661 2670                                           l2565 2686  
                                         l2813 0DCE                                           l2805 0D7E  
                                         l2741 0B78                                           l2733 0B50  
                                         l2717 0AE8                                           l2725 0B12  
                                         l2709 0AC2                                           l2901 0840  
                                         l2637 1E7C                                           l2629 1E4C  
                                         l2397 186A                                           l2389 1806  
                                         l2493 0ECE                                           l2485 0E5C  
                                         l2477 0E14                                           l2645 22F8  
                                         l2655 255A                                           l2559 24E6  
                                         l2575 25F8                                           l2567 25D6  
                                         l2583 26A2                                           l2815 0DDC  
                                         l2807 0D94                                           l2751 0BB6  
                                         l2743 0B78                                           l2735 0B54  
                                         l2727 0B22                                           l2719 0AF8  
                                         l2911 08D6                                           l2903 086A  
                                         l2831 0646                                           l2591 2296  
                                         l2399 1888                                           l2487 0E92  
                                         l2479 0E22                                           l2647 231E  
                                         l2671 2382                                           l2663 2344  
                                         l2649 2536                                           l2577 2602  
                                         l2569 25EE                                           l2585 26AA  
                                         l2681 25BC                                           l2817 0DE2  
                                         l2809 0DAE                                           l2761 0C02  
                                         l2753 0BC6                                           l2729 0B38  
                                         l2921 0916                                           l2913 08E4  
                                         l2905 08A0                                           l2841 067E  
                                         l2833 0648                                           l2593 22A6  
                                         l2497 0EDC                                           l2489 0EA0  
                                         l2665 2356                                           l2579 26C0  
                                         l2659 265C                                           l2675 25A6  
                                         l2819 0DE4                                           l2771 0C4C  
                                         l2763 0C10                                           l2755 0BD6  
                                         l2747 0B8C                                           l2739 0B68  
                                         l2691 0A62                                           l2931 0988  
                                         l2923 0944                                           l2915 08F6  
                                         l2907 08AE                                           l2851 06AA  
                                         l2843 068E                                           l2835 0658  
                                         l2827 062C                                           l2595 22B0  
                                         l2587 2278                                           l2683 21FE  
                                         l2499 0F1A                                           l2667 235E  
                                         l2677 25AA                                           l2781 0C92  
                                         l2773 0C5E                                           l2765 0C1C  
                                         l2757 0BDE                                           l2749 0BA6  
                                         l2693 0A70                                           l2941 09FE  
                                         l2933 09B2                                           l2917 0904  
                                         l2909 08CC                                           l2861 0700  
                                         l2853 06BA                                           l2845 0694  
                                         l2837 0668                                           l2829 0638  
                                         l2597 1D82                                           l2589 2288  
                                         l2669 2366                                           ?_map 001B  
                                         ?_pad 0011                                           l2687 2606  
                                         l2679 25B8                                           l2791 0CF2  
                                         l2775 0C74                                           l2783 0CA4  
                                         l2767 0C3A                                           l2759 0BEE  
                                         l2695 0A72                                           l2943 0A1A  
                                         l2951 0A40                                           l2927 096E  
                                         l2935 09B6                                           l2919 0908  
                                         l2871 073A                                           l2863 0710  
                                         l2855 06CA                                           l2847 069A  
                                         l2839 0678                                           l2599 1D86  
                                         l2785 0CB2                                           l2777 0C7A  
                                         l2769 0C3C                                           l2697 0A82  
                                         l2689 0A56                                           l2953 0A44  
                                         l2945 0A2A                                           l2937 09D0  
                                         l2929 097A                                           l2881 078C  
                                         l2873 0750                                           l2857 06DA  
                                         l2849 06A8                                           l2795 0D1C  
                                         l2787 0CB6                                           l2779 0C84  
                                         l2699 0A92                                           l2947 0A38  
                                         l2939 09E4                                           l2891 07D2  
                                         l2883 079A                                           l2875 075C  
                                         l2867 0724                                           l2859 06E0  
                                         l2971 1EF8                                           l2963 1EB8  
                                         l2797 0D28                                           l2789 0CC4  
                                         l2949 0A3A                                           l2893 07EC  
                                         l2885 07A6                                           l2877 0774  
                                         l2869 0730                                           l2981 1F28  
                                         l2973 1F06                                           l2965 1EE2  
                                         l2957 1E8E                                           l2799 0D36  
                                         l2895 07FC                                           l2887 07B6  
                                         l2879 0780                                           l2991 1F52  
                                         l2983 1F32                                           l2967 1EE4  
                                         l2959 1EA4                                           l2897 0818  
                                         l2889 07C2                                           l2993 1F62  
                                         l2969 1EF4                                           l2899 0824  
                                         l2995 1F72                                           l2979 1F1E  
                                         l2997 1F82                                           l2989 1F46  
                                         STR_1 061C                                           STR_2 0601  
                                         STR_3 060F                                           STR_4 0626  
                                         STR_6 0626                                           u2000 184E  
                                         u2001 184A                                           u2010 1888  
                                         u2011 1884                                           u2020 18B4  
                                         u2100 1FBE                                           u2101 1FBA  
                                         u2030 18EE                                           u2110 1FF4  
                                         u2031 18EA                                           u2111 1FF0  
                                         u2040 18FC                                           u2120 2010  
                                         u2200 0F62                                           u2041 18F8  
                                         u2121 200C                                           u2201 0F5E  
                                         u2050 1936                                           u2130 2022  
                                         u2210 1006                                           u2051 1932  
                                         u2027 18AA                                           u2131 201E  
                                         u2211 1002                                           u2300 1DF0  
                                         u2060 1C60                                           u2140 204C  
                                         u2220 103C                                           u2301 1DEC  
                                         u2061 1C5C                                           u2141 2048  
                                         u2221 1038                                           _LATA 000F89  
                                         u2310 1E12                                           u2070 1C96  
                                         u2230 1060                                           u2150 0E14  
                                         _LATB 000F8A                                           u2311 1E0E  
                                         u2071 1C92                                           u2231 105C  
                                         u2151 0E10                                           _LATC 000F8B  
                                         u2400 0AD6                                           u2320 1E3A  
                                         u2080 1D4A                                           u1600 1984  
                                         u1520 2084                                           u2240 10F0  
                                         u2160 0E5C                                           _LATD 000F8C  
                                         u2401 0AD2                                           u2321 1E36  
                                         u2081 1D46                                           u1601 1980  
                                         u1521 2080                                           u2241 10EC  
                                         u2161 0E58                                           _LATE 000F8D  
                                         u2250 2686                                           u2410 0AE8  
                                         u2330 1E6C                                           u2090 1D5C  
                                         u1530 2096                                           u2170 0EA0  
                                         u2251 2682                                           u2411 0AE4  
                                         u2331 1E68                                           u2091 1D58  
                                         u1611 19AE                                           u1531 2092  
                                         u2171 0E9C                                           u2500 0C92  
                                         u2420 0AF8                                           u2260 2296  
                                         u1620 19D2                                           u1700 1BA2  
                                         u1540 20BE                                           u2180 0F1A  
                                         u2340 233A                                           u2501 0C8E  
                                         u2421 0AF4                                           u2261 2292  
                                         u1621 19CE                                           u1701 1B9E  
                                         u1541 20BA                                           u2181 0F16  
                                         u2341 2336                                           u2350 255A  
                                         u2510 0CB2                                           u2430 0B38  
                                         u2270 22D0                                           u1630 19FC  
                                         u1710 1BEA                                           u1550 20F4  
                                         u2190 0F3E                                           u2351 2556  
                                         u2511 0CAE                                           u2431 0B34  
                                         u2271 22CC                                           u1631 19F8  
                                         u1711 1BE6                                           u1551 20F0  
                                         u2191 0F3A                                           u2360 25D4  
                                         u2520 0CC4                                           u2440 0B78  
                                         u2600 0646                                           u2280 1D94  
                                         u1800 23DC                                           u1640 1A3C  
                                         u1560 2478                                           u1720 214A  
                                         u2361 25D0                                           u2521 0CC0  
                                         u2441 0B74                                           u2601 0642  
                                         u2281 1D90                                           u1801 23D8  
                                         u1641 1A38                                           u1561 2474  
                                         u1721 2146                                           u2530 0CF2  
                                         u2450 0BEE                                           u2370 0A70  
                                         u2610 0658                                           u2290 1DB6  
                                         u1650 1A86                                           u1570 2418  
                                         u1730 216C                                           u1810 11A0  
                                         u2531 0CEE                                           u2451 0BEA  
                                         u2371 0A6C                                           u2611 0654  
                                         u2291 1DB2                                           u1651 1A82  
                                         u1731 2168                                           u1811 119A  
                                         u2540 0D08                                           u2460 0C10  
                                         u2380 0A82                                           u2700 0904  
                                         u2620 0668                                           u1660 1ADA  
                                         u1580 2428                                           u1740 21C2  
                                         u1900 13A0                                           u1820 11A2  
                                         u2541 0D04                                           u2461 0C0C  
                                         u2381 0A7E                                           u2701 0900  
                                         u2621 0664                                           u1661 1AD6  
                                         u1581 2424                                           u1741 21BE  
                                         u1901 139C                                           u2550 0D1C  
                                         u2470 0C3A                                           u2390 0A92  
                                         u2710 0916                                           u2630 06A8  
                                         u1590 1952                                           u1670 1B0C  
                                         u1750 21D0                                           u1910 13BA  
                                         u1830 11B8                                           u2551 0D18  
                                         u2471 0C36                                           u2391 0A8E  
                                         u2711 0912                                           u2631 06A4  
                                         u1591 194E                                           u1671 1B08  
                                         u1751 21CC                                           u1911 13B6  
                                         u1831 11B4                                           u2560 0D36  
                                         u2480 0C5E                                           u2720 0944  
                                         u2640 06BA                                           u2800 1ED8  
                                         u1680 1B4A                                           u1760 2494  
                                         u1920 13C8                                           u1840 11E8  
                                         u2561 0D32                                           u2481 0C5A  
                                         u2721 0940                                           u2641 06B6  
                                         u1681 1B46                                           u1761 2490  
                                         u1577 240E                                           u1921 13C4  
                                         u1841 11E4                                           u2570 0D7E  
                                         u2490 0C74                                           u2730 095A  
                                         u2650 06CA                                           u2810 1F06  
                                         u1770 259E                                           u1690 1B74  
                                         u1930 13DA                                           u1850 1204  
                                         u2571 0D7A                                           u2491 0C70  
                                         u2731 0956                                           u2651 06C6  
                                         u2811 1F02                                           u1771 2598  
                                         u1691 1B70                                           u1931 13D6  
                                         u1851 1200                                           u2580 0DAE  
                                         u2740 096E                                           u2660 0700  
                                         u2820 1F1A                                           u2900 156A  
                                         u1780 25A0                                           u1940 13E8  
                                         u1860 1232                                           u2581 0DAA  
                                         u2741 096A                                           u2661 06FC  
                                         u2821 1F16                                           u2805 1ECE  
                                         u2901 1566                                           u1941 13E4  
                                         u1861 122E                                           u2590 0DDC  
                                         u2750 0988                                           u2670 0710  
                                         u2830 1F42                                           u2910 1588  
                                         u1790 23AE                                           u1950 1400  
                                         u1870 1240                                           u2591 0DD8  
                                         u2751 0984                                           u2671 070C  
                                         u2831 1F3E                                           u2911 1584  
                                         u1791 23AA                                           u1951 13FC  
                                         u1871 123C                                           u2760 09D0  
                                         u2680 088A                                           u2840 1F62  
                                         u2920 1598                                           u1880 1368  
                                         u2761 09CC                                           u2841 1F5E  
                                         u2921 1594                                           u1881 1364  
                                         u1961 17B2                                           u2770 09FE  
                                         u2690 08E4                                           u2850 1F72  
                                         u2930 15A6                                           u1890 1386  
                                         u1970 17D4                                           u2771 09FA  
                                         u2691 08E0                                           u2851 1F6E  
                                         u2931 15A2                                           u1891 1382  
                                         u1971 17D0                                           u2780 0A38  
                                         u2940 15E0                                           u2860 1460  
                                         u1980 1806                                           u2781 0A34  
                                         u2685 0880                                           u2941 15DC  
                                         u2861 145C                                           u1981 1802  
                                         u2790 1EA4                                           u2950 15EE  
                                         u2870 146E                                           u1990 1824  
                                         u2791 1EA0                                           u2951 15EA  
                                         u2871 146A                                           u1991 1820  
                                         u2880 14CA                                           u2881 14C6  
                                         u2890 1520                                           u2891 151C  
                                         u2980 1794                                           u2981 1790  
                                         _TMR2 000FCC                                           _WPUB 000F7C  
                                         abs@a 0013                                           _dbuf 009F  
                                         _atoi 1C2C                                           _main 1602  
                                         _dtoa 1170                                           _prec 0068  
                                         _nout 0064                                           pad@i 0018  
                                         pad@p 0015                                           fsr1h 000FE2  
                                         fsr2h 000FDA                                           indf1 000FE7  
                                         indf2 000FDF                                           fsr1l 000FE1  
                                         pad@w 001A                                           map@x 001B  
                                         fsr2l 000FD9                                           _stoa 17A8  
                                         prodh 000FF4                                           prodl 000FF3  
                                         start 0000                                ___fldiv@new_exp 002B  
                                 ___param_bank 000000                                          ??_abs 0015  
                                        ??_map 002F                                          ??_pad 0017  
                      __end_of_PWM2_Initialize 26C0                                  ?_EUSART_Write 0001  
                __end_of_OSCILLATOR_Initialize 26CA                                  ___fltol@sign1 003B  
                              __end_of___aldiv 1E8E                                __end_of___aodiv 1AC8  
                                        ?_atoi 0008                                          ?_main 0001  
                                        ?_dtoa 001C                                __end_of___aomod 1C2C  
                              __end_of___fldiv 0DF0                                __end_of___flmul 0A56  
                              __end_of___fltol 1F94                                          ?_stoa 000A  
                                        _ANSEL 000F7E                                          _T2CON 000FCA  
                                        _RCREG 000FAE                                          _RCSTA 000FAB  
                                 vfpfcnvrt@fmt 0042                                          _SPBRG 000FAF  
                                        _TRISA 000F92                                          _TRISB 000F93  
                                        _TRISC 000F94                                          _TRISD 000F95  
                                        _TRISE 000F96                                          _TXREG 000FAD  
                                        _TXSTA 000FAC                            ___lmul@multiplicand 0005  
                                  _xvalueASCII 006D                                          _flags 005E  
                                        _fputc 2072                                          _fputs 2436  
                              __end_of_isdigit 25A6                                          atoi@n 0010  
                                        pad@fp 0011                                          atoi@s 0008  
                                        _width 0066                                          _putch 26F0  
                                        dtoa@d 001E                                          dtoa@i 003E  
                                        dtoa@n 0036                                          dtoa@p 0030  
                                        dtoa@s 0034                                          dtoa@w 0032  
                              __end_of_isspace 23E8                                          tablat 000FF5  
                                        plusw1 000FE3                                          plusw2 000FDB  
                                        stoa@i 0016                                          stoa@l 001E  
                                        stoa@p 001C                                          stoa@s 000C  
                                        stoa@w 0018                                          status 000FD8  
                              __end_of_sprintf 2396                                __end_of_strncmp 2072  
                              __initialization 24FA                                   __end_of_atoi 1D82  
                                 __end_of_main 17A8                                   __end_of_dtoa 144E  
                                 __end_of_stoa 1940                                 ??_EUSART_Write 0001  
                      __end_of_TMR2_Initialize 26B2                                         ??_atoi 000A  
                                       ??_main 005E                                         ??_dtoa 0026  
                                       ??_stoa 000E                                  __activetblptr 000002  
            _EUSART_DefaultFramingErrorHandler 000000                                         _ADCON0 000FC2  
                                       _ADCON1 000FC1                                         _ADCON2 000FC0  
                   _EUSART_OverrunErrorHandler 00E2                                         ?_fputc 0001  
                                       ?_fputs 000A                                         _ADRESH 000FC4  
                                       _ADRESL 000FC3                                         _CCPR2H 000FBC  
                                       _CCPR2L 000FBB                                         ?_putch 0001  
                                       _ANSELH 000F7F                                         _OSCCON 000FD3  
                                       _SPBRGH 000FB0                               __end_of___xxtofl 1602  
                                 vfprintf@cfmt 005C                                         ___lmul 2278  
                                    ??___aldiv 0015                                      ??___aodiv 0011  
                                    ??___aomod 0011                                         ___wmul 2636  
                                    ??___fldiv 0022                                      ??___flmul 0009  
                                    ??___fltol 0037                               ?_PWM2_Initialize 0001  
                                       clear_0 2520                                         isa$std 000001  
                                       pad@buf 0013                                         dtoa@fp 001C  
                                       _strlen 23E8                                         fputc@c 0001  
                                       fputs@c 000E                                         fputs@i 000F  
                                       fputs@s 000A                                      ??_isdigit 0003  
                                 __mediumconst 0000                                      ??_isspace 0003  
                                       tblptrh 000FF7                                         tblptrl 000FF6  
                                       tblptru 000FF8                       ADC_GetConversion@channel 0005  
                                       stoa@cp 001A                                         stoa@fp 000A  
                                       putch@c 0001                               __end_of_vfprintf 2344  
                                    ??_sprintf 005E                                      ??_strncmp 0007  
                                 ___xxtofl@arg 0010                                   ___xxtofl@exp 000F  
                            _SYSTEM_Initialize 265C                                   ___xxtofl@val 0006  
                                   __accesstop 0060                        __end_of__initialization 252A  
                           ?_SYSTEM_Initialize 0001                     __end_of_PWM2_LoadDutyValue 2636  
                                ___rparam_used 000001                                     ___fltol@f1 0033  
                               __pcstackCOMRAM 0001                                   __pidataBANK0 26E8  
                          ??_SYSTEM_Initialize 0003                                  __end_of_fputc 213C  
                                __end_of_fputs 247A                                  __end_of_putch 26F2  
                             ?_TMR2_Initialize 0001                ??_EUSART_SetOverrunErrorHandler 0003  
                                      ??_fputc 0005                      __end_of_SYSTEM_Initialize 2676  
                                      ??_fputs 000E                                        ??_putch 0001  
                                   __pbssBANK0 0060                           __end_of_EUSART_Write 268C  
                                      ?___lmul 0001                                        ?___wmul 0001  
                                      _CCP2CON 000FBA                                        _BAUDCON 000FB8  
                               ___lmul@product 0009                                        ?_strlen 0001  
                                 _LM35_Reading 00DE                                      ?___xxtofl 0006  
                                      _OSCTUNE 000F9B                       ??_EUSART_SetErrorHandler 0003  
                                 _DC_Fan_Speed 0060                           _ADC_InterruptHandler 006A  
                                      __Hparam 0000                                        __Lparam 0000  
                                      ___aldiv 1D82                                        ___aodiv 1940  
                                      ___aomod 1AC8                                        ___fldiv 0A56  
                                      ___flmul 062C                                        _Voltage 00DA  
                                      ___fltol 1E8E                                      ?_vfprintf 0056  
                                 __psmallconst 0600                                        __pcinit 24FA  
                                      __ramtop 0600                                        __ptext0 1602  
                                      __ptext1 2344                                        __ptext2 22E2  
                                      __ptext3 0DF0                                        __ptext4 1F94  
                                      __ptext5 17A8                                        __ptext6 1170  
                                      __ptext7 213C                                        __ptext8 23E8  
                                      __ptext9 2436                          _OSCILLATOR_Initialize 26C0  
                                    _T2CONbits 000FCA                                        _isdigit 256E  
                                   ??___xxtofl 000A                               ___aldiv@dividend 000D  
                     ??_PIN_MANAGER_Initialize 0001                                        _isspace 2396  
                                      atoi@neg 000E                                        _sprintf 2344  
                                      _strncmp 1F94                           end_of_initialization 252A  
        __end_of_EUSART_SetOverrunErrorHandler 26D4                  _EUSART_SetOverrunErrorHandler 26CA  
                                      fputc@fp 0003                                  __Lmediumconst 0000  
                                      fputs@fp 000C                              _EUSART_Initialize 24BA  
                           ?_EUSART_Initialize 0001                              __end_of_vfpfcnvrt 1170  
                                    _RCSTAbits 000FAB                               ___aldiv@quotient 0017  
                                      postdec1 000FE5                                        postdec2 000FDD  
                                      postinc0 000FEE                                        postinc1 000FE6  
                                      postinc2 000FDE                                     ??_vfprintf 005C  
                                      strlen@a 0003                                        strlen@s 0001  
                          ??_EUSART_Initialize 0003                             SendUsartString@str 0002  
                            ??_SendUsartString 0004                                  ___xxtofl@sign 000E  
                                  ___fldiv@grs 002D                                    ___fldiv@rem 0026  
                                   map@out_max 002B                                     map@out_min 0027  
                                  ___flmul@grs 000E                      __end_of_EUSART_Initialize 24FA  
                                    _TXSTAbits 000FAC                                 __end_of___lmul 22E2  
                   _EUSART_DefaultErrorHandler 000000                                    vfpfcnvrt@ap 0044  
                                  vfpfcnvrt@cp 0052                                    vfpfcnvrt@fp 0040  
                                  vfpfcnvrt@ll 004A                                 __end_of___wmul 265C  
                                 _EUSART_Write 2676                             _PWM2_LoadDutyValue 2606  
                               _ADC_Initialize 268C                         ?_OSCILLATOR_Initialize 0001  
                               __end_of_strlen 2436                            start_initialization 24FA  
                          ?_PWM2_LoadDutyValue 0001                                    __end_of_abs 24BA  
                                  __end_of_map 2278                                    __end_of_pad 21FE  
               ?_EUSART_SetOverrunErrorHandler 0001                           ??_PWM2_LoadDutyValue 0003  
                                  vfprintf@fmt 0058                     _EUSART_FramingErrorHandler 00E4  
                  PWM2_LoadDutyValue@dutyValue 0001                                       ??___lmul 0009  
                                     ??___wmul 0005                         _EUSART_SetErrorHandler 26DE  
                       __end_of_ADC_Initialize 26A2                                    __pdataBANK0 00E6  
                                     ??_strlen 0003                                      ___fldiv@a 001E  
                                    ___fldiv@b 001A                                      ___flmul@a 0005  
                                    ___flmul@b 0001                                    __pbssCOMRAM 005E  
                                __pcstackBANK0 00BF                               ___aodiv@dividend 0001  
                                    __pnvBANK0 00DA                                      _main$1579 00D6  
                       _PIN_MANAGER_Initialize 25D6                                      _dtoa$1210 002E  
                                     ?___aldiv 000D                                       ?___aodiv 0001  
                                     ?___aomod 0001                                       ?___fldiv 001A  
                             ___aodiv@quotient 0013                                       ?___flmul 0001  
                                     ?___fltol 0033                                ?_ADC_Initialize 0001  
                                  __smallconst 0600                                       ?_isdigit 0001  
                                     ?_isspace 0001                                       ?_sprintf 00BF  
                                     ?_strncmp 0001                                ___aldiv@divisor 0011  
                            ??_PWM2_Initialize 0001                                ___aldiv@counter 0015  
                               ___wmul@product 0005         EUSART_SetErrorHandler@interruptHandler 0001  
                                     _LATCbits 000F8B                              _eusartRxLastError 006C  
                                     _PIR1bits 000F9E                ??_EUSART_SetFramingErrorHandler 0003  
            _EUSART_DefaultOverrunErrorHandler 000000                                _SendUsartString 25A6  
                                    _vfpfcnvrt 0DF0                                      map@in_max 0023  
                                    map@in_min 001F                                     _ADCON0bits 000FC2  
                            ___wmul@multiplier 0001                                   _isspace$1277 0007  
                            ___lmul@multiplier 0001                                    _INTCON2bits 000FF1  
                                    copy_data0 250E                              ??_TMR2_Initialize 0001  
                                     __Hrparam 0000                                     vfprintf@ap 005A  
                                     __Lrparam 0000                                     vfprintf@fp 0056  
                            _ADC_GetConversion 2534                        ??_OSCILLATOR_Initialize 0001  
                          _EUSART_ErrorHandler 00E0                             ?_ADC_GetConversion 0001  
                                   ?_vfpfcnvrt 0040                                ___aodiv@divisor 0009  
                              ___aodiv@counter 0011                            ??_ADC_GetConversion 0003  
                                   sprintf@fmt 00C1                                       ___xxtofl 144E  
                                     __ptext10 2072                                       __ptext11 26F0  
                                     __ptext20 2278                                       __ptext12 247A  
                                     __ptext21 1D82                                       __ptext13 1AC8  
                                     __ptext30 26B2                                       __ptext22 144E  
                                     __ptext14 1940                                       __ptext31 25D6  
                                     __ptext23 1E8E                                       __ptext15 1C2C  
                                     __ptext32 26C0                                       __ptext24 062C  
                                     __ptext16 2396                                       __ptext33 24BA  
                                     __ptext25 0A56                                       __ptext17 256E  
                                     __ptext34 26CA                                       __ptext26 25A6  
                                     __ptext18 2636                                       __ptext35 26D4  
                                     __ptext27 2676                                       __ptext19 21FE  
                                     __ptext36 26DE                                       __ptext28 265C  
                                     __ptext37 268C                                       __ptext29 26A2  
                                     __ptext38 2606                                       __ptext39 2534  
                      __end_of_SendUsartString 25D6                      __end_of_ADC_GetConversion 256E  
                      ?_EUSART_SetErrorHandler 0001                                      stoa@F1150 00E6  
EUSART_SetOverrunErrorHandler@interruptHandler 0001                                       isa$xinst 000000  
                                     _vfprintf 22E2          __end_of_EUSART_SetFramingErrorHandler 26DE  
                _EUSART_SetFramingErrorHandler 26D4                               ___aomod@dividend 0001  
                               _vfpfcnvrt$1240 0054                                     _INTCONbits 000FF2  
                                     isdigit@c 0001                                      sprintf@ap 00C9  
                                     isspace@c 0001                        ?_PIN_MANAGER_Initialize 0001  
               __end_of_EUSART_SetErrorHandler 26E8                                      strncmp@_l 0001  
                                    strncmp@_r 0003                               ??_ADC_Initialize 0001  
EUSART_SetFramingErrorHandler@interruptHandler 0001                                ___aomod@divisor 0009  
                                  ??_vfpfcnvrt 0046                                       stoa@nuls 000F  
                              ___aomod@counter 0011                                       sprintf@f 00CB  
                                     sprintf@s 00BF                                _PWM2_Initialize 26B2  
                                     strncmp@l 0008                                       strncmp@n 0005  
                                     strncmp@r 000A                                   ___aldiv@sign 0016  
                           EUSART_Write@txData 0001                                   ___aodiv@sign 0012  
               __end_of_PIN_MANAGER_Initialize 2606                               ?_SendUsartString 0002  
                                 ___aomod@sign 0012  
