

Microchip MPLAB XC8 Assembler V2.36 build 20220127204148 
                                                                                               Fri Dec 23 16:15:48 2022

Microchip MPLAB XC8 C Compiler v2.36 (Free license) build 20220127204148 Og1 
     1                           	processor	18F45K20
     2                           	fnconf	rparam,??,?,0
     3                           	pagewidth 120
     4                           	opt	flic
     5                           	psect	smallconst,global,reloc=2,class=SMALLCONST,delta=1,noexec
     6                           	psect	nvCOMRAM,global,class=COMRAM,space=1,delta=1,lowdata,noexec
     7                           	psect	cinit,global,reloc=2,class=CODE,delta=1
     8                           	psect	bssCOMRAM,global,class=COMRAM,space=1,delta=1,lowdata,noexec
     9                           	psect	bssBANK0,global,class=BANK0,space=1,delta=1,lowdata,noexec
    10                           	psect	cstackCOMRAM,global,class=COMRAM,space=1,delta=1,lowdata,noexec
    11                           	psect	text0,global,reloc=2,class=CODE,delta=1
    12                           	psect	text1,global,reloc=2,class=CODE,delta=1,group=2
    13                           	psect	text2,global,reloc=2,class=CODE,delta=1,group=2
    14                           	psect	text3,global,reloc=2,class=CODE,delta=1,group=2
    15                           	psect	text4,global,reloc=2,class=CODE,delta=1,group=2
    16                           	psect	text5,global,reloc=2,class=CODE,delta=1
    17                           	psect	text6,global,reloc=2,class=CODE,delta=1,group=1
    18                           	psect	text7,global,reloc=2,class=CODE,delta=1,group=3
    19                           	psect	text8,global,reloc=2,class=CODE,delta=1,group=2
    20                           	psect	text9,global,reloc=2,class=CODE,delta=1,group=2
    21                           	psect	text10,global,reloc=2,class=CODE,delta=1
    22                           	psect	text11,global,reloc=2,class=CODE,delta=1
    23                           	psect	text12,global,reloc=2,class=CODE,delta=1
    24                           	psect	text13,global,reloc=2,class=CODE,delta=1
    25                           	psect	text14,global,reloc=2,class=CODE,delta=1
    26                           	psect	text15,global,reloc=2,class=CODE,delta=1,group=2
    27                           	psect	text16,global,reloc=2,class=CODE,delta=1,group=2
    28                           	psect	text17,global,reloc=2,class=CODE,delta=1,group=2
    29                           	psect	text18,global,reloc=2,class=CODE,delta=1
    30                           	psect	text19,global,reloc=2,class=CODE,delta=1
    31                           	psect	text20,global,reloc=2,class=CODE,delta=1
    32                           	psect	text21,global,reloc=2,class=CODE,delta=1
    33                           	psect	text22,global,reloc=2,class=CODE,delta=1
    34                           	psect	text23,global,reloc=2,class=CODE,delta=1
    35                           	psect	text24,global,reloc=2,class=CODE,delta=1
    36                           	psect	text25,global,reloc=2,class=CODE,delta=1
    37                           	psect	text26,global,reloc=2,class=CODE,delta=1
    38                           	psect	intsave_regs,global,class=BIGRAM,space=1,delta=1,noexec
    39                           	psect	rparam,global,class=COMRAM,space=1,delta=1,noexec
    40                           	psect	idloc,global,abs,ovrld,class=IDLOC,space=5,delta=1,noexec
    41                           	psect	config,global,abs,ovrld,class=CONFIG,space=4,delta=1,noexec
    42  0000                     
    43                           ; Version 2.40
    44                           ; Generated 17/11/2021 GMT
    45                           ; 
    46                           ; Copyright © 2021, Microchip Technology Inc. and its subsidiaries ("Microchip")
    47                           ; All rights reserved.
    48                           ; 
    49                           ; This software is developed by Microchip Technology Inc. and its subsidiaries ("Microch
      +                          ip").
    50                           ; 
    51                           ; Redistribution and use in source and binary forms, with or without modification, are
    52                           ; permitted provided that the following conditions are met:
    53                           ; 
    54                           ;     1. Redistributions of source code must retain the above copyright notice, this lis
      +                          t of
    55                           ;        conditions and the following disclaimer.
    56                           ; 
    57                           ;     2. Redistributions in binary form must reproduce the above copyright notice, this 
      +                          list
    58                           ;        of conditions and the following disclaimer in the documentation and/or other
    59                           ;        materials provided with the distribution. Publication is not required when
    60                           ;        this file is used in an embedded application.
    61                           ; 
    62                           ;     3. Microchip's name may not be used to endorse or promote products derived from th
      +                          is
    63                           ;        software without specific prior written permission.
    64                           ; 
    65                           ; THIS SOFTWARE IS PROVIDED BY MICROCHIP "AS IS" AND ANY EXPRESS OR IMPLIED WARRANTIES,
    66                           ; INCLUDING, BUT NOT LIMITED TO, THE IMPLIED WARRANTIES OF MERCHANTABILITY AND FITNESS F
      +                          OR
    67                           ; PURPOSE ARE DISCLAIMED.  IN NO EVENT SHALL MICROCHIP BE LIABLE FOR ANY DIRECT, INDIREC
      +                          T,
    68                           ; INCIDENTAL, SPECIAL, EXEMPLARY, OR CONSEQUENTIAL DAMAGES (INCLUDING BUT NOT LIMITED TO
    69                           ; PROCUREMENT OF SUBSTITUTE GOODS OR SERVICES; LOSS OF USE, DATA OR PROFITS; OR BUSINESS
    70                           ; INTERRUPTION) HOWSOEVER CAUSED AND ON ANY THEORY OF LIABILITY, WHETHER IN CONTRACT, ST
      +                          RICT
    71                           ; LIABILITY, OR TORT (INCLUDING NEGLIGENCE OR OTHERWISE) ARISING IN ANY WAY OUT OF THE U
      +                          SE OF
    72                           ; THIS SOFTWARE, EVEN IF ADVISED OF THE POSSIBILITY OF SUCH DAMAGE.
    73                           ; 
    74                           ; 
    75                           ; Code-generator required, PIC18F45K20 Definitions
    76                           ; 
    77                           ; SFR Addresses
    78  0000                     
    79 ;; Function _EUSART_DefaultFramingErrorHandler is unused but had its address taken
    80  0000                     
    81 ;; Function _EUSART_DefaultOverrunErrorHandler is unused but had its address taken
    82  0000                     
    83 ;; Function _EUSART_DefaultErrorHandler is unused but had its address taken
    84  0000                     
    85                           	psect	smallconst
    86  000600                     __psmallconst:
    87                           	callstack 0
    88  000600  00                 	db	0
    89  000601                     _dpowers:
    90                           	callstack 0
    91  000601  0001               	dw	1
    92  000603  000A               	dw	10
    93  000605  0064               	dw	100
    94  000607  03E8               	dw	1000
    95  000609  2710               	dw	10000
    96  00060B                     __end_of_dpowers:
    97                           	callstack 0
    98  0000                     _TRISD	set	3989
    99  0000                     _TRISC	set	3988
   100  0000                     _TRISB	set	3987
   101  0000                     _LATC	set	3979
   102  0000                     _LATB	set	3978
   103  0000                     _TXREG	set	4013
   104  0000                     _RCREG	set	4014
   105  0000                     _SPBRG	set	4015
   106  0000                     _TXSTA	set	4012
   107  0000                     _ADCON0	set	4034
   108  0000                     _ADRESL	set	4035
   109  00060B                     STR_2:
   110  00060B  54                 	db	84	;'T'
   111  00060C  65                 	db	101	;'e'
   112  00060D  6D                 	db	109	;'m'
   113  00060E  70                 	db	112	;'p'
   114  00060F  65                 	db	101	;'e'
   115  000610  72                 	db	114	;'r'
   116  000611  61                 	db	97	;'a'
   117  000612  74                 	db	116	;'t'
   118  000613  75                 	db	117	;'u'
   119  000614  72                 	db	114	;'r'
   120  000615  65                 	db	101	;'e'
   121  000616  20                 	db	32
   122  000617  3A                 	db	58	;':'
   123  000618  20                 	db	32
   124  000619  00                 	db	0
   125  00061A                     STR_3:
   126  00061A  20                 	db	32
   127  00061B  44                 	db	68	;'D'
   128  00061C  65                 	db	101	;'e'
   129  00061D  67                 	db	103	;'g'
   130  00061E  72                 	db	114	;'r'
   131  00061F  65                 	db	101	;'e'
   132  000620  65                 	db	101	;'e'
   133  000621  73                 	db	115	;'s'
   134  000622  20                 	db	32
   135  000623  0A                 	db	10
   136  000624  0D                 	db	13
   137  000625  20                 	db	32
   138  000626  00                 	db	0
   139  000627                     STR_1:
   140  000627  25                 	db	37
   141  000628  73                 	db	115	;'s'
   142  000629  25                 	db	37
   143  00062A  33                 	db	51	;'3'
   144  00062B  64                 	db	100	;'d'
   145  00062C  2E                 	db	46
   146  00062D  25                 	db	37
   147  00062E  30                 	db	48	;'0'
   148  00062F  31                 	db	49	;'1'
   149  000630  64                 	db	100	;'d'
   150  000631  25                 	db	37
   151  000632  73                 	db	115	;'s'
   152  000633  00                 	db	0
   153  000634                     STR_4:
   154  000634  28                 	db	40
   155  000635  6E                 	db	110	;'n'
   156  000636  75                 	db	117	;'u'
   157  000637  6C                 	db	108	;'l'
   158  000638  6C                 	db	108	;'l'
   159  000639  29                 	db	41
   160  00063A  00                 	db	0
   161  00063B  00                 	db	0	; dummy byte at the end
   162  0000                     
   163                           	psect	nvCOMRAM
   164  000041                     __pnvCOMRAM:
   165                           	callstack 0
   166  000041                     _Voltage:
   167                           	callstack 0
   168  000041                     	ds	4
   169  000045                     _whole:
   170                           	callstack 0
   171  000045                     	ds	2
   172  000047                     _LM35_Reading:
   173                           	callstack 0
   174  000047                     	ds	2
   175  000049                     _EUSART_ErrorHandler:
   176                           	callstack 0
   177  000049                     	ds	2
   178  00004B                     _EUSART_OverrunErrorHandler:
   179                           	callstack 0
   180  00004B                     	ds	2
   181  00004D                     _EUSART_FramingErrorHandler:
   182                           	callstack 0
   183  00004D                     	ds	2
   184  00004F                     _RAM:
   185                           	callstack 0
   186  00004F                     	ds	1
   187  000050                     _decimal:
   188                           	callstack 0
   189  000050                     	ds	2
   190  0000                     _LATAbits	set	3977
   191  0000                     _LATDbits	set	3980
   192  0000                     _RCSTAbits	set	4011
   193  0000                     _TXSTAbits	set	4012
   194  0000                     _ADCON0bits	set	4034
   195  0000                     _WPUB	set	3964
   196  0000                     _ANSEL	set	3966
   197  0000                     _LATA	set	3977
   198  0000                     _LATD	set	3980
   199  0000                     _LATE	set	3981
   200  0000                     _OSCTUNE	set	3995
   201  0000                     _PIR1bits	set	3998
   202  0000                     _RCSTA	set	4011
   203  0000                     _BAUDCON	set	4024
   204  0000                     _ADCON2	set	4032
   205  0000                     _ADCON1	set	4033
   206  0000                     _OSCCON	set	4051
   207  0000                     _ADRESH	set	4036
   208  0000                     _SPBRGH	set	4016
   209  0000                     _INTCON2bits	set	4081
   210  0000                     _TRISA	set	3986
   211  0000                     _TRISE	set	3990
   212  0000                     _ANSELH	set	3967
   213  0000                     _INTCONbits	set	4082
   214                           
   215                           ; #config settings
   216                           
   217                           	psect	cinit
   218  001C32                     __pcinit:
   219                           	callstack 0
   220  001C32                     start_initialization:
   221                           	callstack 0
   222  001C32                     __initialization:
   223                           	callstack 0
   224                           
   225                           ; Clear objects allocated to BANK0 (50 bytes)
   226  001C32  EE00  F060         	lfsr	0,__pbssBANK0
   227  001C36  0E32               	movlw	50
   228  001C38                     clear_0:
   229  001C38  6AEE               	clrf	postinc0,c
   230  001C3A  06E8               	decf	wreg,f,c
   231  001C3C  E1FD               	bnz	clear_0
   232                           
   233                           ; Clear objects allocated to COMRAM (7 bytes)
   234  001C3E  EE00  F052         	lfsr	0,__pbssCOMRAM
   235  001C42  0E07               	movlw	7
   236  001C44                     clear_1:
   237  001C44  6AEE               	clrf	postinc0,c
   238  001C46  06E8               	decf	wreg,f,c
   239  001C48  E1FD               	bnz	clear_1
   240  001C4A                     end_of_initialization:
   241                           	callstack 0
   242  001C4A                     __end_of__initialization:
   243                           	callstack 0
   244  001C4A  0E00               	movlw	low (__Lmediumconst shr (0+16))
   245  001C4C  6EF8               	movwf	tblptru,c
   246  001C4E  0100               	movlb	0
   247  001C50  EF84  F00B         	goto	_main	;jump to C main() function
   248                           
   249                           	psect	bssCOMRAM
   250  000052                     __pbssCOMRAM:
   251                           	callstack 0
   252  000052                     _ADC_InterruptHandler:
   253                           	callstack 0
   254  000052                     	ds	2
   255  000054                     _Fourth_Digit:
   256                           	callstack 0
   257  000054                     	ds	1
   258  000055                     _Third_Digit:
   259                           	callstack 0
   260  000055                     	ds	1
   261  000056                     _Second_Digit:
   262                           	callstack 0
   263  000056                     	ds	1
   264  000057                     _First_Digit:
   265                           	callstack 0
   266  000057                     	ds	1
   267  000058                     _eusartRxLastError:
   268                           	callstack 0
   269  000058                     	ds	1
   270                           
   271                           	psect	bssBANK0
   272  000060                     __pbssBANK0:
   273                           	callstack 0
   274  000060                     _xvalueASCII:
   275                           	callstack 0
   276  000060                     	ds	50
   277                           
   278                           	psect	cstackCOMRAM
   279  000001                     __pcstackCOMRAM:
   280                           	callstack 0
   281  000001                     ??_isdigit:
   282  000001                     ?_ADC_GetConversion:
   283                           	callstack 0
   284  000001                     ?___wmul:
   285                           	callstack 0
   286  000001                     ?___lwdiv:
   287                           	callstack 0
   288  000001                     ?___flmul:
   289                           	callstack 0
   290  000001                     _EUSART_is_tx_ready$327:
   291                           	callstack 0
   292  000001                     EUSART_Write@txData:
   293                           	callstack 0
   294  000001                     EUSART_SetFramingErrorHandler@interruptHandler:
   295                           	callstack 0
   296  000001                     EUSART_SetOverrunErrorHandler@interruptHandler:
   297                           	callstack 0
   298  000001                     EUSART_SetErrorHandler@interruptHandler:
   299                           	callstack 0
   300  000001                     ___wmul@multiplier:
   301                           	callstack 0
   302  000001                     ___lwdiv@dividend:
   303                           	callstack 0
   304  000001                     ___flmul@b:
   305                           	callstack 0
   306                           
   307                           ; 4 bytes @ 0x0
   308  000001                     	ds	1
   309  000002                     _isdigit$1111:
   310                           	callstack 0
   311  000002                     USART_String_Transmit@string:
   312                           	callstack 0
   313                           
   314                           ; 2 bytes @ 0x1
   315  000002                     	ds	1
   316  000003                     ??_ADC_GetConversion:
   317  000003                     isdigit@c:
   318                           	callstack 0
   319  000003                     ___wmul@multiplicand:
   320                           	callstack 0
   321  000003                     ___lwdiv@divisor:
   322                           	callstack 0
   323                           
   324                           ; 2 bytes @ 0x2
   325  000003                     	ds	1
   326  000004                     
   327                           ; 1 bytes @ 0x3
   328  000004                     	ds	1
   329  000005                     ADC_GetConversion@channel:
   330                           	callstack 0
   331  000005                     ___wmul@product:
   332                           	callstack 0
   333  000005                     ___lwdiv@quotient:
   334                           	callstack 0
   335  000005                     ___flmul@a:
   336                           	callstack 0
   337                           
   338                           ; 4 bytes @ 0x4
   339  000005                     	ds	1
   340  000006                     ?___xxtofl:
   341                           	callstack 0
   342  000006                     ___xxtofl@val:
   343                           	callstack 0
   344                           
   345                           ; 4 bytes @ 0x5
   346  000006                     	ds	1
   347  000007                     ?___awmod:
   348                           	callstack 0
   349  000007                     ___lwdiv@counter:
   350                           	callstack 0
   351  000007                     ___awmod@dividend:
   352                           	callstack 0
   353                           
   354                           ; 2 bytes @ 0x6
   355  000007                     	ds	1
   356  000008                     ?___lwmod:
   357                           	callstack 0
   358  000008                     ___lwmod@dividend:
   359                           	callstack 0
   360                           
   361                           ; 2 bytes @ 0x7
   362  000008                     	ds	1
   363  000009                     ??___flmul:
   364  000009                     ___awmod@divisor:
   365                           	callstack 0
   366                           
   367                           ; 2 bytes @ 0x8
   368  000009                     	ds	1
   369  00000A                     ??___xxtofl:
   370  00000A                     ___lwmod@divisor:
   371                           	callstack 0
   372                           
   373                           ; 2 bytes @ 0x9
   374  00000A                     	ds	1
   375  00000B                     ___awmod@counter:
   376                           	callstack 0
   377                           
   378                           ; 1 bytes @ 0xA
   379  00000B                     	ds	1
   380  00000C                     ___awmod@sign:
   381                           	callstack 0
   382  00000C                     ___lwmod@counter:
   383                           	callstack 0
   384                           
   385                           ; 1 bytes @ 0xB
   386  00000C                     	ds	1
   387  00000D                     ?_sprintf:
   388                           	callstack 0
   389  00000D                     ?___awdiv:
   390                           	callstack 0
   391  00000D                     ___flmul@sign:
   392                           	callstack 0
   393  00000D                     sprintf@sp:
   394                           	callstack 0
   395  00000D                     ___awdiv@dividend:
   396                           	callstack 0
   397                           
   398                           ; 2 bytes @ 0xC
   399  00000D                     	ds	1
   400  00000E                     ___xxtofl@sign:
   401                           	callstack 0
   402  00000E                     ___flmul@grs:
   403                           	callstack 0
   404                           
   405                           ; 4 bytes @ 0xD
   406  00000E                     	ds	1
   407  00000F                     ___xxtofl@exp:
   408                           	callstack 0
   409  00000F                     sprintf@f:
   410                           	callstack 0
   411  00000F                     ___awdiv@divisor:
   412                           	callstack 0
   413                           
   414                           ; 2 bytes @ 0xE
   415  00000F                     	ds	1
   416  000010                     ___xxtofl@arg:
   417                           	callstack 0
   418                           
   419                           ; 4 bytes @ 0xF
   420  000010                     	ds	1
   421  000011                     ___awdiv@counter:
   422                           	callstack 0
   423                           
   424                           ; 1 bytes @ 0x10
   425  000011                     	ds	1
   426  000012                     ___awdiv@sign:
   427                           	callstack 0
   428  000012                     ___flmul@aexp:
   429                           	callstack 0
   430                           
   431                           ; 1 bytes @ 0x11
   432  000012                     	ds	1
   433  000013                     ___flmul@bexp:
   434                           	callstack 0
   435  000013                     ___awdiv@quotient:
   436                           	callstack 0
   437                           
   438                           ; 2 bytes @ 0x12
   439  000013                     	ds	1
   440  000014                     ___flmul@prod:
   441                           	callstack 0
   442                           
   443                           ; 4 bytes @ 0x13
   444  000014                     	ds	1
   445  000015                     ??_Seven_Segment_Tempreture_Output:
   446                           
   447                           ; 1 bytes @ 0x14
   448  000015                     	ds	2
   449  000017                     _Seven_Segment_Tempreture_Output$1327:
   450                           	callstack 0
   451                           
   452                           ; 2 bytes @ 0x16
   453  000017                     	ds	1
   454  000018                     ___flmul@temp:
   455                           	callstack 0
   456                           
   457                           ; 2 bytes @ 0x17
   458  000018                     	ds	1
   459  000019                     ??_sprintf:
   460                           
   461                           ; 1 bytes @ 0x18
   462  000019                     	ds	1
   463  00001A                     ?___fldiv:
   464                           	callstack 0
   465  00001A                     ___fldiv@b:
   466                           	callstack 0
   467                           
   468                           ; 4 bytes @ 0x19
   469  00001A                     	ds	3
   470  00001D                     sprintf@prec:
   471                           	callstack 0
   472                           
   473                           ; 1 bytes @ 0x1C
   474  00001D                     	ds	1
   475  00001E                     sprintf@ap:
   476                           	callstack 0
   477  00001E                     ___fldiv@a:
   478                           	callstack 0
   479                           
   480                           ; 4 bytes @ 0x1D
   481  00001E                     	ds	2
   482  000020                     sprintf@cp:
   483                           	callstack 0
   484                           
   485                           ; 2 bytes @ 0x1F
   486  000020                     	ds	2
   487  000022                     ??___fldiv:
   488  000022                     sprintf@val:
   489                           	callstack 0
   490                           
   491                           ; 2 bytes @ 0x21
   492  000022                     	ds	2
   493  000024                     sprintf@len:
   494                           	callstack 0
   495                           
   496                           ; 2 bytes @ 0x23
   497  000024                     	ds	2
   498  000026                     sprintf@flag:
   499                           	callstack 0
   500  000026                     ___fldiv@rem:
   501                           	callstack 0
   502                           
   503                           ; 4 bytes @ 0x25
   504  000026                     	ds	1
   505  000027                     sprintf@c:
   506                           	callstack 0
   507                           
   508                           ; 1 bytes @ 0x26
   509  000027                     	ds	1
   510  000028                     sprintf@width:
   511                           	callstack 0
   512                           
   513                           ; 2 bytes @ 0x27
   514  000028                     	ds	2
   515  00002A                     ___fldiv@sign:
   516                           	callstack 0
   517                           
   518                           ; 1 bytes @ 0x29
   519  00002A                     	ds	1
   520  00002B                     ___fldiv@new_exp:
   521                           	callstack 0
   522                           
   523                           ; 2 bytes @ 0x2A
   524  00002B                     	ds	2
   525  00002D                     ___fldiv@grs:
   526                           	callstack 0
   527                           
   528                           ; 4 bytes @ 0x2C
   529  00002D                     	ds	4
   530  000031                     ___fldiv@bexp:
   531                           	callstack 0
   532                           
   533                           ; 1 bytes @ 0x30
   534  000031                     	ds	1
   535  000032                     ___fldiv@aexp:
   536                           	callstack 0
   537                           
   538                           ; 1 bytes @ 0x31
   539  000032                     	ds	1
   540  000033                     ?___fltol:
   541                           	callstack 0
   542  000033                     ___fltol@f1:
   543                           	callstack 0
   544                           
   545                           ; 4 bytes @ 0x32
   546  000033                     	ds	4
   547  000037                     ??___fltol:
   548                           
   549                           ; 1 bytes @ 0x36
   550  000037                     	ds	4
   551  00003B                     ___fltol@sign1:
   552                           	callstack 0
   553                           
   554                           ; 1 bytes @ 0x3A
   555  00003B                     	ds	1
   556  00003C                     ___fltol@exp1:
   557                           	callstack 0
   558                           
   559                           ; 1 bytes @ 0x3B
   560  00003C                     	ds	1
   561  00003D                     _main$1326:
   562                           	callstack 0
   563                           
   564                           ; 4 bytes @ 0x3C
   565  00003D                     	ds	4
   566                           
   567 ;;
   568 ;;Main: autosize = 0, tempsize = 0, incstack = 0, save=0
   569 ;;
   570 ;; *************** function _main *****************
   571 ;; Defined at:
   572 ;;		line 57 in file "main.c"
   573 ;; Parameters:    Size  Location     Type
   574 ;;		None
   575 ;; Auto vars:     Size  Location     Type
   576 ;;		None
   577 ;; Return value:  Size  Location     Type
   578 ;;                  1    wreg      void 
   579 ;; Registers used:
   580 ;;		wreg, fsr0l, fsr0h, fsr2l, fsr2h, status,2, status,0, tblptrl, tblptrh, tblptru, prodl, prodh, cstack
   581 ;; Tracked objects:
   582 ;;		On entry : 0/0
   583 ;;		On exit  : 0/0
   584 ;;		Unchanged: 0/0
   585 ;; Data sizes:     COMRAM   BANK0   BANK1   BANK2   BANK3   BANK4   BANK5
   586 ;;      Params:         0       0       0       0       0       0       0
   587 ;;      Locals:         4       0       0       0       0       0       0
   588 ;;      Temps:          0       0       0       0       0       0       0
   589 ;;      Totals:         4       0       0       0       0       0       0
   590 ;;Total ram usage:        4 bytes
   591 ;; Hardware stack levels required when called: 3
   592 ;; This function calls:
   593 ;;		_ADC_GetConversion
   594 ;;		_SYSTEM_Initialize
   595 ;;		_Seven_Segment_Tempreture_Output
   596 ;;		_UART_Tempreture_Output
   597 ;;		___fldiv
   598 ;;		___flmul
   599 ;;		___fltol
   600 ;;		___xxtofl
   601 ;; This function is called by:
   602 ;;		Startup code after reset
   603 ;; This function uses a non-reentrant model
   604 ;;
   605                           
   606                           	psect	text0
   607  001708                     __ptext0:
   608                           	callstack 0
   609  001708                     _main:
   610                           	callstack 28
   611  001708                     
   612                           ;main.c: 60: SYSTEM_Initialize();
   613  001708  EC4A  F00E         	call	_SYSTEM_Initialize	;wreg free
   614  00170C                     l233:
   615                           
   616                           ;main.c: 63: {;main.c: 64: Voltage = ADC_GetConversion(0);
   617  00170C  0E00               	movlw	0
   618  00170E  ECA1  F00D         	call	_ADC_GetConversion
   619  001712  C001  F006         	movff	?_ADC_GetConversion,___xxtofl@val
   620  001716  C002  F007         	movff	?_ADC_GetConversion+1,___xxtofl@val+1
   621  00171A  6A08               	clrf	(___xxtofl@val+2)^0,c
   622  00171C  6A09               	clrf	(___xxtofl@val+3)^0,c
   623  00171E  0E00               	movlw	0
   624  001720  EC4F  F009         	call	___xxtofl
   625  001724  C006  F041         	movff	?___xxtofl,_Voltage
   626  001728  C007  F042         	movff	?___xxtofl+1,_Voltage+1
   627  00172C  C008  F043         	movff	?___xxtofl+2,_Voltage+2
   628  001730  C009  F044         	movff	?___xxtofl+3,_Voltage+3
   629  001734                     
   630                           ;main.c: 65: LM35_Reading = ((((Voltage*5000)/1023)))/10;
   631  001734  0E00               	movlw	0
   632  001736  6E1E               	movwf	___fldiv@a^0,c
   633  001738  0EC0               	movlw	192
   634  00173A  6E1F               	movwf	(___fldiv@a+1)^0,c
   635  00173C  0E7F               	movlw	127
   636  00173E  6E20               	movwf	(___fldiv@a+2)^0,c
   637  001740  0E44               	movlw	68
   638  001742  6E21               	movwf	(___fldiv@a+3)^0,c
   639  001744  0E00               	movlw	0
   640  001746  6E05               	movwf	___flmul@a^0,c
   641  001748  0E40               	movlw	64
   642  00174A  6E06               	movwf	(___flmul@a+1)^0,c
   643  00174C  0E9C               	movlw	156
   644  00174E  6E07               	movwf	(___flmul@a+2)^0,c
   645  001750  0E45               	movlw	69
   646  001752  6E08               	movwf	(___flmul@a+3)^0,c
   647  001754  C041  F001         	movff	_Voltage,___flmul@b
   648  001758  C042  F002         	movff	_Voltage+1,___flmul@b+1
   649  00175C  C043  F003         	movff	_Voltage+2,___flmul@b+2
   650  001760  C044  F004         	movff	_Voltage+3,___flmul@b+3
   651  001764  EC6D  F005         	call	___flmul	;wreg free
   652  001768  C001  F01A         	movff	?___flmul,___fldiv@b
   653  00176C  C002  F01B         	movff	?___flmul+1,___fldiv@b+1
   654  001770  C003  F01C         	movff	?___flmul+2,___fldiv@b+2
   655  001774  C004  F01D         	movff	?___flmul+3,___fldiv@b+3
   656  001778  EC82  F007         	call	___fldiv	;wreg free
   657  00177C  C01A  F03D         	movff	?___fldiv,_main$1326
   658  001780  C01B  F03E         	movff	?___fldiv+1,_main$1326+1
   659  001784  C01C  F03F         	movff	?___fldiv+2,_main$1326+2
   660  001788  C01D  F040         	movff	?___fldiv+3,_main$1326+3
   661  00178C                     
   662                           ;main.c: 65: LM35_Reading = ((((Voltage*5000)/1023)))/10;
   663  00178C  0E00               	movlw	0
   664  00178E  6E1E               	movwf	___fldiv@a^0,c
   665  001790  0E00               	movlw	0
   666  001792  6E1F               	movwf	(___fldiv@a+1)^0,c
   667  001794  0E20               	movlw	32
   668  001796  6E20               	movwf	(___fldiv@a+2)^0,c
   669  001798  0E41               	movlw	65
   670  00179A  6E21               	movwf	(___fldiv@a+3)^0,c
   671  00179C  C03D  F01A         	movff	_main$1326,___fldiv@b
   672  0017A0  C03E  F01B         	movff	_main$1326+1,___fldiv@b+1
   673  0017A4  C03F  F01C         	movff	_main$1326+2,___fldiv@b+2
   674  0017A8  C040  F01D         	movff	_main$1326+3,___fldiv@b+3
   675  0017AC  EC82  F007         	call	___fldiv	;wreg free
   676  0017B0  C01A  F033         	movff	?___fldiv,___fltol@f1
   677  0017B4  C01B  F034         	movff	?___fldiv+1,___fltol@f1+1
   678  0017B8  C01C  F035         	movff	?___fldiv+2,___fltol@f1+2
   679  0017BC  C01D  F036         	movff	?___fldiv+3,___fltol@f1+3
   680  0017C0  EC01  F00B         	call	___fltol	;wreg free
   681  0017C4  C033  F047         	movff	?___fltol,_LM35_Reading
   682  0017C8  C034  F048         	movff	?___fltol+1,_LM35_Reading+1
   683  0017CC                     
   684                           ;main.c: 66: UART_Tempreture_Output();
   685  0017CC  ECA8  F00C         	call	_UART_Tempreture_Output	;wreg free
   686  0017D0                     
   687                           ;main.c: 67: Seven_Segment_Tempreture_Output();
   688  0017D0  EC29  F00A         	call	_Seven_Segment_Tempreture_Output	;wreg free
   689  0017D4  EF86  F00B         	goto	l233
   690  0017D8  EF00  F000         	goto	start
   691  0017DC                     __end_of_main:
   692                           	callstack 0
   693                           
   694 ;; *************** function ___xxtofl *****************
   695 ;; Defined at:
   696 ;;		line 10 in file "C:\Program Files\Microchip\xc8\v2.36\pic\sources\c90\common\xxtofl.c"
   697 ;; Parameters:    Size  Location     Type
   698 ;;  sign            1    wreg     unsigned char 
   699 ;;  val             4    5[COMRAM] long 
   700 ;; Auto vars:     Size  Location     Type
   701 ;;  sign            1   13[COMRAM] unsigned char 
   702 ;;  arg             4   15[COMRAM] unsigned long 
   703 ;;  exp             1   14[COMRAM] unsigned char 
   704 ;; Return value:  Size  Location     Type
   705 ;;                  4    5[COMRAM] unsigned char 
   706 ;; Registers used:
   707 ;;		wreg, status,2, status,0
   708 ;; Tracked objects:
   709 ;;		On entry : 0/0
   710 ;;		On exit  : 0/0
   711 ;;		Unchanged: 0/0
   712 ;; Data sizes:     COMRAM   BANK0   BANK1   BANK2   BANK3   BANK4   BANK5
   713 ;;      Params:         4       0       0       0       0       0       0
   714 ;;      Locals:         6       0       0       0       0       0       0
   715 ;;      Temps:          4       0       0       0       0       0       0
   716 ;;      Totals:        14       0       0       0       0       0       0
   717 ;;Total ram usage:       14 bytes
   718 ;; Hardware stack levels used: 1
   719 ;; This function calls:
   720 ;;		Nothing
   721 ;; This function is called by:
   722 ;;		_main
   723 ;; This function uses a non-reentrant model
   724 ;;
   725                           
   726                           	psect	text1
   727  00129E                     __ptext1:
   728                           	callstack 0
   729  00129E                     ___xxtofl:
   730                           	callstack 30
   731                           
   732                           ;incstack = 0
   733                           ;___xxtofl@sign stored from wreg
   734  00129E  6E0E               	movwf	___xxtofl@sign^0,c
   735  0012A0  500E               	movf	___xxtofl@sign^0,w,c
   736  0012A2  B4D8               	btfsc	status,2,c
   737  0012A4  EF56  F009         	goto	u2191
   738  0012A8  EF58  F009         	goto	u2190
   739  0012AC                     u2191:
   740  0012AC  EF7A  F009         	goto	l965
   741  0012B0                     u2190:
   742  0012B0  BE09               	btfsc	(___xxtofl@val+3)^0,7,c
   743  0012B2  EF5F  F009         	goto	u2200
   744  0012B6  EF5D  F009         	goto	u2201
   745  0012BA                     u2201:
   746  0012BA  EF7A  F009         	goto	l965
   747  0012BE                     u2200:
   748  0012BE  C006  F00A         	movff	___xxtofl@val,??___xxtofl
   749  0012C2  C007  F00B         	movff	___xxtofl@val+1,??___xxtofl+1
   750  0012C6  C008  F00C         	movff	___xxtofl@val+2,??___xxtofl+2
   751  0012CA  C009  F00D         	movff	___xxtofl@val+3,??___xxtofl+3
   752  0012CE  1E0A               	comf	??___xxtofl^0,f,c
   753  0012D0  1E0B               	comf	(??___xxtofl+1)^0,f,c
   754  0012D2  1E0C               	comf	(??___xxtofl+2)^0,f,c
   755  0012D4  1E0D               	comf	(??___xxtofl+3)^0,f,c
   756  0012D6  2A0A               	incf	??___xxtofl^0,f,c
   757  0012D8  0E00               	movlw	0
   758  0012DA  220B               	addwfc	(??___xxtofl+1)^0,f,c
   759  0012DC  220C               	addwfc	(??___xxtofl+2)^0,f,c
   760  0012DE  220D               	addwfc	(??___xxtofl+3)^0,f,c
   761  0012E0  C00A  F010         	movff	??___xxtofl,___xxtofl@arg
   762  0012E4  C00B  F011         	movff	??___xxtofl+1,___xxtofl@arg+1
   763  0012E8  C00C  F012         	movff	??___xxtofl+2,___xxtofl@arg+2
   764  0012EC  C00D  F013         	movff	??___xxtofl+3,___xxtofl@arg+3
   765  0012F0  EF82  F009         	goto	l2680
   766  0012F4                     l965:
   767  0012F4  C006  F010         	movff	___xxtofl@val,___xxtofl@arg
   768  0012F8  C007  F011         	movff	___xxtofl@val+1,___xxtofl@arg+1
   769  0012FC  C008  F012         	movff	___xxtofl@val+2,___xxtofl@arg+2
   770  001300  C009  F013         	movff	___xxtofl@val+3,___xxtofl@arg+3
   771  001304                     l2680:
   772  001304  5006               	movf	___xxtofl@val^0,w,c
   773  001306  1007               	iorwf	(___xxtofl@val+1)^0,w,c
   774  001308  1008               	iorwf	(___xxtofl@val+2)^0,w,c
   775  00130A  1009               	iorwf	(___xxtofl@val+3)^0,w,c
   776  00130C  A4D8               	btfss	status,2,c
   777  00130E  EF8B  F009         	goto	u2211
   778  001312  EF8D  F009         	goto	u2210
   779  001316                     u2211:
   780  001316  EF97  F009         	goto	l2686
   781  00131A                     u2210:
   782  00131A  0E00               	movlw	0
   783  00131C  6E06               	movwf	?___xxtofl^0,c
   784  00131E  0E00               	movlw	0
   785  001320  6E07               	movwf	(?___xxtofl+1)^0,c
   786  001322  0E00               	movlw	0
   787  001324  6E08               	movwf	(?___xxtofl+2)^0,c
   788  001326  0E00               	movlw	0
   789  001328  6E09               	movwf	(?___xxtofl+3)^0,c
   790  00132A  EF28  F00A         	goto	l968
   791  00132E                     l2686:
   792  00132E  0E96               	movlw	150
   793  001330  6E0F               	movwf	___xxtofl@exp^0,c
   794  001332  EFA1  F009         	goto	l2690
   795  001336                     l2688:
   796  001336  2A0F               	incf	___xxtofl@exp^0,f,c
   797  001338  90D8               	bcf	status,0,c
   798  00133A  3213               	rrcf	(___xxtofl@arg+3)^0,f,c
   799  00133C  3212               	rrcf	(___xxtofl@arg+2)^0,f,c
   800  00133E  3211               	rrcf	(___xxtofl@arg+1)^0,f,c
   801  001340  3210               	rrcf	___xxtofl@arg^0,f,c
   802  001342                     l2690:
   803  001342  0E00               	movlw	0
   804  001344  1410               	andwf	___xxtofl@arg^0,w,c
   805  001346  6E0A               	movwf	??___xxtofl^0,c
   806  001348  0E00               	movlw	0
   807  00134A  1411               	andwf	(___xxtofl@arg+1)^0,w,c
   808  00134C  6E0B               	movwf	(??___xxtofl+1)^0,c
   809  00134E  0E00               	movlw	0
   810  001350  1412               	andwf	(___xxtofl@arg+2)^0,w,c
   811  001352  6E0C               	movwf	(??___xxtofl+2)^0,c
   812  001354  0EFE               	movlw	254
   813  001356  1413               	andwf	(___xxtofl@arg+3)^0,w,c
   814  001358  6E0D               	movwf	(??___xxtofl+3)^0,c
   815  00135A  500A               	movf	??___xxtofl^0,w,c
   816  00135C  100B               	iorwf	(??___xxtofl+1)^0,w,c
   817  00135E  100C               	iorwf	(??___xxtofl+2)^0,w,c
   818  001360  100D               	iorwf	(??___xxtofl+3)^0,w,c
   819  001362  A4D8               	btfss	status,2,c
   820  001364  EFB6  F009         	goto	u2221
   821  001368  EFB8  F009         	goto	u2220
   822  00136C                     u2221:
   823  00136C  EF9B  F009         	goto	l2688
   824  001370                     u2220:
   825  001370  EFC6  F009         	goto	l972
   826  001374                     l2692:
   827  001374  2A0F               	incf	___xxtofl@exp^0,f,c
   828  001376  0E01               	movlw	1
   829  001378  2610               	addwf	___xxtofl@arg^0,f,c
   830  00137A  0E00               	movlw	0
   831  00137C  2211               	addwfc	(___xxtofl@arg+1)^0,f,c
   832  00137E  2212               	addwfc	(___xxtofl@arg+2)^0,f,c
   833  001380  2213               	addwfc	(___xxtofl@arg+3)^0,f,c
   834  001382  90D8               	bcf	status,0,c
   835  001384  3213               	rrcf	(___xxtofl@arg+3)^0,f,c
   836  001386  3212               	rrcf	(___xxtofl@arg+2)^0,f,c
   837  001388  3211               	rrcf	(___xxtofl@arg+1)^0,f,c
   838  00138A  3210               	rrcf	___xxtofl@arg^0,f,c
   839  00138C                     l972:
   840  00138C  0E00               	movlw	0
   841  00138E  1410               	andwf	___xxtofl@arg^0,w,c
   842  001390  6E0A               	movwf	??___xxtofl^0,c
   843  001392  0E00               	movlw	0
   844  001394  1411               	andwf	(___xxtofl@arg+1)^0,w,c
   845  001396  6E0B               	movwf	(??___xxtofl+1)^0,c
   846  001398  0E00               	movlw	0
   847  00139A  1412               	andwf	(___xxtofl@arg+2)^0,w,c
   848  00139C  6E0C               	movwf	(??___xxtofl+2)^0,c
   849  00139E  0EFF               	movlw	255
   850  0013A0  1413               	andwf	(___xxtofl@arg+3)^0,w,c
   851  0013A2  6E0D               	movwf	(??___xxtofl+3)^0,c
   852  0013A4  500A               	movf	??___xxtofl^0,w,c
   853  0013A6  100B               	iorwf	(??___xxtofl+1)^0,w,c
   854  0013A8  100C               	iorwf	(??___xxtofl+2)^0,w,c
   855  0013AA  100D               	iorwf	(??___xxtofl+3)^0,w,c
   856  0013AC  A4D8               	btfss	status,2,c
   857  0013AE  EFDB  F009         	goto	u2231
   858  0013B2  EFDD  F009         	goto	u2230
   859  0013B6                     u2231:
   860  0013B6  EFBA  F009         	goto	l2692
   861  0013BA                     u2230:
   862  0013BA  EFE5  F009         	goto	l2700
   863  0013BE                     l2698:
   864  0013BE  060F               	decf	___xxtofl@exp^0,f,c
   865  0013C0  90D8               	bcf	status,0,c
   866  0013C2  3610               	rlcf	___xxtofl@arg^0,f,c
   867  0013C4  3611               	rlcf	(___xxtofl@arg+1)^0,f,c
   868  0013C6  3612               	rlcf	(___xxtofl@arg+2)^0,f,c
   869  0013C8  3613               	rlcf	(___xxtofl@arg+3)^0,f,c
   870  0013CA                     l2700:
   871  0013CA  BE12               	btfsc	(___xxtofl@arg+2)^0,7,c
   872  0013CC  EFEA  F009         	goto	u2241
   873  0013D0  EFEC  F009         	goto	u2240
   874  0013D4                     u2241:
   875  0013D4  EFF4  F009         	goto	l979
   876  0013D8                     u2240:
   877  0013D8  0E02               	movlw	2
   878  0013DA  600F               	cpfslt	___xxtofl@exp^0,c
   879  0013DC  EFF2  F009         	goto	u2251
   880  0013E0  EFF4  F009         	goto	u2250
   881  0013E4                     u2251:
   882  0013E4  EFDF  F009         	goto	l2698
   883  0013E8                     u2250:
   884  0013E8                     l979:
   885  0013E8  B00F               	btfsc	___xxtofl@exp^0,0,c
   886  0013EA  EFF9  F009         	goto	u2261
   887  0013EE  EFFB  F009         	goto	u2260
   888  0013F2                     u2261:
   889  0013F2  EFFC  F009         	goto	l2706
   890  0013F6                     u2260:
   891  0013F6  9E12               	bcf	(___xxtofl@arg+2)^0,7,c
   892  0013F8                     l2706:
   893  0013F8  90D8               	bcf	status,0,c
   894  0013FA  320F               	rrcf	___xxtofl@exp^0,f,c
   895  0013FC  C00F  F00A         	movff	___xxtofl@exp,??___xxtofl
   896  001400  6A0B               	clrf	(??___xxtofl+1)^0,c
   897  001402  6A0C               	clrf	(??___xxtofl+2)^0,c
   898  001404  6A0D               	clrf	(??___xxtofl+3)^0,c
   899  001406  C00A  F00D         	movff	??___xxtofl,??___xxtofl+3
   900  00140A  6A0C               	clrf	(??___xxtofl+2)^0,c
   901  00140C  6A0B               	clrf	(??___xxtofl+1)^0,c
   902  00140E  6A0A               	clrf	??___xxtofl^0,c
   903  001410  500A               	movf	??___xxtofl^0,w,c
   904  001412  1210               	iorwf	___xxtofl@arg^0,f,c
   905  001414  500B               	movf	(??___xxtofl+1)^0,w,c
   906  001416  1211               	iorwf	(___xxtofl@arg+1)^0,f,c
   907  001418  500C               	movf	(??___xxtofl+2)^0,w,c
   908  00141A  1212               	iorwf	(___xxtofl@arg+2)^0,f,c
   909  00141C  500D               	movf	(??___xxtofl+3)^0,w,c
   910  00141E  1213               	iorwf	(___xxtofl@arg+3)^0,f,c
   911  001420  500E               	movf	___xxtofl@sign^0,w,c
   912  001422  B4D8               	btfsc	status,2,c
   913  001424  EF16  F00A         	goto	u2271
   914  001428  EF18  F00A         	goto	u2270
   915  00142C                     u2271:
   916  00142C  EF20  F00A         	goto	l2716
   917  001430                     u2270:
   918  001430  BE09               	btfsc	(___xxtofl@val+3)^0,7,c
   919  001432  EF1F  F00A         	goto	u2280
   920  001436  EF1D  F00A         	goto	u2281
   921  00143A                     u2281:
   922  00143A  EF20  F00A         	goto	l2716
   923  00143E                     u2280:
   924  00143E  8E13               	bsf	(___xxtofl@arg+3)^0,7,c
   925  001440                     l2716:
   926  001440  C010  F006         	movff	___xxtofl@arg,?___xxtofl
   927  001444  C011  F007         	movff	___xxtofl@arg+1,?___xxtofl+1
   928  001448  C012  F008         	movff	___xxtofl@arg+2,?___xxtofl+2
   929  00144C  C013  F009         	movff	___xxtofl@arg+3,?___xxtofl+3
   930  001450                     l968:
   931  001450  0012               	return		;funcret
   932  001452                     __end_of___xxtofl:
   933                           	callstack 0
   934                           
   935 ;; *************** function ___fltol *****************
   936 ;; Defined at:
   937 ;;		line 43 in file "C:\Program Files\Microchip\xc8\v2.36\pic\sources\c90\common\fltol.c"
   938 ;; Parameters:    Size  Location     Type
   939 ;;  f1              4   50[COMRAM] unsigned char 
   940 ;; Auto vars:     Size  Location     Type
   941 ;;  exp1            1   59[COMRAM] unsigned char 
   942 ;;  sign1           1   58[COMRAM] unsigned char 
   943 ;; Return value:  Size  Location     Type
   944 ;;                  4   50[COMRAM] long 
   945 ;; Registers used:
   946 ;;		wreg, status,2, status,0
   947 ;; Tracked objects:
   948 ;;		On entry : 0/0
   949 ;;		On exit  : 0/0
   950 ;;		Unchanged: 0/0
   951 ;; Data sizes:     COMRAM   BANK0   BANK1   BANK2   BANK3   BANK4   BANK5
   952 ;;      Params:         4       0       0       0       0       0       0
   953 ;;      Locals:         2       0       0       0       0       0       0
   954 ;;      Temps:          4       0       0       0       0       0       0
   955 ;;      Totals:        10       0       0       0       0       0       0
   956 ;;Total ram usage:       10 bytes
   957 ;; Hardware stack levels used: 1
   958 ;; This function calls:
   959 ;;		Nothing
   960 ;; This function is called by:
   961 ;;		_main
   962 ;; This function uses a non-reentrant model
   963 ;;
   964                           
   965                           	psect	text2
   966  001602                     __ptext2:
   967                           	callstack 0
   968  001602                     ___fltol:
   969                           	callstack 30
   970  001602  3435               	rlcf	(___fltol@f1+2)^0,w,c
   971  001604  3436               	rlcf	(___fltol@f1+3)^0,w,c
   972  001606  6E3C               	movwf	___fltol@exp1^0,c
   973  001608  503C               	movf	___fltol@exp1^0,w,c
   974  00160A  A4D8               	btfss	status,2,c
   975  00160C  EF0A  F00B         	goto	u2121
   976  001610  EF0C  F00B         	goto	u2120
   977  001614                     u2121:
   978  001614  EF16  F00B         	goto	l2636
   979  001618                     u2120:
   980  001618                     l2632:
   981  001618  0E00               	movlw	0
   982  00161A  6E33               	movwf	?___fltol^0,c
   983  00161C  0E00               	movlw	0
   984  00161E  6E34               	movwf	(?___fltol+1)^0,c
   985  001620  0E00               	movlw	0
   986  001622  6E35               	movwf	(?___fltol+2)^0,c
   987  001624  0E00               	movlw	0
   988  001626  6E36               	movwf	(?___fltol+3)^0,c
   989  001628  EF83  F00B         	goto	l611
   990  00162C                     l2636:
   991  00162C  C033  F037         	movff	___fltol@f1,??___fltol
   992  001630  C034  F038         	movff	___fltol@f1+1,??___fltol+1
   993  001634  C035  F039         	movff	___fltol@f1+2,??___fltol+2
   994  001638  C036  F03A         	movff	___fltol@f1+3,??___fltol+3
   995  00163C  0E20               	movlw	32
   996  00163E  EF26  F00B         	goto	u2130
   997  001642                     u2135:
   998  001642  90D8               	bcf	status,0,c
   999  001644  323A               	rrcf	(??___fltol+3)^0,f,c
  1000  001646  3239               	rrcf	(??___fltol+2)^0,f,c
  1001  001648  3238               	rrcf	(??___fltol+1)^0,f,c
  1002  00164A  3237               	rrcf	??___fltol^0,f,c
  1003  00164C                     u2130:
  1004  00164C  2EE8               	decfsz	wreg,f,c
  1005  00164E  EF21  F00B         	goto	u2135
  1006  001652  5037               	movf	??___fltol^0,w,c
  1007  001654  6E3B               	movwf	___fltol@sign1^0,c
  1008  001656  8E35               	bsf	(___fltol@f1+2)^0,7,c
  1009  001658  0EFF               	movlw	255
  1010  00165A  1633               	andwf	___fltol@f1^0,f,c
  1011  00165C  0EFF               	movlw	255
  1012  00165E  1634               	andwf	(___fltol@f1+1)^0,f,c
  1013  001660  0EFF               	movlw	255
  1014  001662  1635               	andwf	(___fltol@f1+2)^0,f,c
  1015  001664  0E00               	movlw	0
  1016  001666  1636               	andwf	(___fltol@f1+3)^0,f,c
  1017  001668  0E96               	movlw	150
  1018  00166A  5E3C               	subwf	___fltol@exp1^0,f,c
  1019  00166C  BE3C               	btfsc	___fltol@exp1^0,7,c
  1020  00166E  EF3D  F00B         	goto	u2140
  1021  001672  EF3B  F00B         	goto	u2141
  1022  001676                     u2141:
  1023  001676  EF53  F00B         	goto	l2656
  1024  00167A                     u2140:
  1025  00167A  503C               	movf	___fltol@exp1^0,w,c
  1026  00167C  0A80               	xorlw	128
  1027  00167E  0F97               	addlw	151
  1028  001680  B0D8               	btfsc	status,0,c
  1029  001682  EF45  F00B         	goto	u2151
  1030  001686  EF47  F00B         	goto	u2150
  1031  00168A                     u2151:
  1032  00168A  EF49  F00B         	goto	l2652
  1033  00168E                     u2150:
  1034  00168E  EF0C  F00B         	goto	l2632
  1035  001692                     l2652:
  1036  001692  90D8               	bcf	status,0,c
  1037  001694  3236               	rrcf	(___fltol@f1+3)^0,f,c
  1038  001696  3235               	rrcf	(___fltol@f1+2)^0,f,c
  1039  001698  3234               	rrcf	(___fltol@f1+1)^0,f,c
  1040  00169A  3233               	rrcf	___fltol@f1^0,f,c
  1041  00169C  3E3C               	incfsz	___fltol@exp1^0,f,c
  1042  00169E  EF49  F00B         	goto	l2652
  1043  0016A2  EF6B  F00B         	goto	l2666
  1044  0016A6                     l2656:
  1045  0016A6  0E1F               	movlw	31
  1046  0016A8  643C               	cpfsgt	___fltol@exp1^0,c
  1047  0016AA  EF59  F00B         	goto	u2161
  1048  0016AE  EF5B  F00B         	goto	u2160
  1049  0016B2                     u2161:
  1050  0016B2  EF63  F00B         	goto	l2664
  1051  0016B6                     u2160:
  1052  0016B6  EF0C  F00B         	goto	l2632
  1053  0016BA                     l2662:
  1054  0016BA  90D8               	bcf	status,0,c
  1055  0016BC  3633               	rlcf	___fltol@f1^0,f,c
  1056  0016BE  3634               	rlcf	(___fltol@f1+1)^0,f,c
  1057  0016C0  3635               	rlcf	(___fltol@f1+2)^0,f,c
  1058  0016C2  3636               	rlcf	(___fltol@f1+3)^0,f,c
  1059  0016C4  063C               	decf	___fltol@exp1^0,f,c
  1060  0016C6                     l2664:
  1061  0016C6  503C               	movf	___fltol@exp1^0,w,c
  1062  0016C8  A4D8               	btfss	status,2,c
  1063  0016CA  EF69  F00B         	goto	u2171
  1064  0016CE  EF6B  F00B         	goto	u2170
  1065  0016D2                     u2171:
  1066  0016D2  EF5D  F00B         	goto	l2662
  1067  0016D6                     u2170:
  1068  0016D6                     l2666:
  1069  0016D6  503B               	movf	___fltol@sign1^0,w,c
  1070  0016D8  B4D8               	btfsc	status,2,c
  1071  0016DA  EF71  F00B         	goto	u2181
  1072  0016DE  EF73  F00B         	goto	u2180
  1073  0016E2                     u2181:
  1074  0016E2  EF7B  F00B         	goto	l2670
  1075  0016E6                     u2180:
  1076  0016E6  1E36               	comf	(___fltol@f1+3)^0,f,c
  1077  0016E8  1E35               	comf	(___fltol@f1+2)^0,f,c
  1078  0016EA  1E34               	comf	(___fltol@f1+1)^0,f,c
  1079  0016EC  6C33               	negf	___fltol@f1^0,c
  1080  0016EE  0E00               	movlw	0
  1081  0016F0  2234               	addwfc	(___fltol@f1+1)^0,f,c
  1082  0016F2  2235               	addwfc	(___fltol@f1+2)^0,f,c
  1083  0016F4  2236               	addwfc	(___fltol@f1+3)^0,f,c
  1084  0016F6                     l2670:
  1085  0016F6  C033  F033         	movff	___fltol@f1,?___fltol
  1086  0016FA  C034  F034         	movff	___fltol@f1+1,?___fltol+1
  1087  0016FE  C035  F035         	movff	___fltol@f1+2,?___fltol+2
  1088  001702  C036  F036         	movff	___fltol@f1+3,?___fltol+3
  1089  001706                     l611:
  1090  001706  0012               	return		;funcret
  1091  001708                     __end_of___fltol:
  1092                           	callstack 0
  1093                           
  1094 ;; *************** function ___flmul *****************
  1095 ;; Defined at:
  1096 ;;		line 8 in file "C:\Program Files\Microchip\xc8\v2.36\pic\sources\c90\common\sprcmul.c"
  1097 ;; Parameters:    Size  Location     Type
  1098 ;;  b               4    0[COMRAM] long 
  1099 ;;  a               4    4[COMRAM] long 
  1100 ;; Auto vars:     Size  Location     Type
  1101 ;;  prod            4   19[COMRAM] struct .
  1102 ;;  grs             4   13[COMRAM] unsigned long 
  1103 ;;  temp            2   23[COMRAM] struct .
  1104 ;;  bexp            1   18[COMRAM] unsigned char 
  1105 ;;  aexp            1   17[COMRAM] unsigned char 
  1106 ;;  sign            1   12[COMRAM] unsigned char 
  1107 ;; Return value:  Size  Location     Type
  1108 ;;                  4    0[COMRAM] unsigned char 
  1109 ;; Registers used:
  1110 ;;		wreg, status,2, status,0, prodl, prodh
  1111 ;; Tracked objects:
  1112 ;;		On entry : 0/0
  1113 ;;		On exit  : 0/0
  1114 ;;		Unchanged: 0/0
  1115 ;; Data sizes:     COMRAM   BANK0   BANK1   BANK2   BANK3   BANK4   BANK5
  1116 ;;      Params:         8       0       0       0       0       0       0
  1117 ;;      Locals:        13       0       0       0       0       0       0
  1118 ;;      Temps:          4       0       0       0       0       0       0
  1119 ;;      Totals:        25       0       0       0       0       0       0
  1120 ;;Total ram usage:       25 bytes
  1121 ;; Hardware stack levels used: 1
  1122 ;; This function calls:
  1123 ;;		Nothing
  1124 ;; This function is called by:
  1125 ;;		_main
  1126 ;; This function uses a non-reentrant model
  1127 ;;
  1128                           
  1129                           	psect	text3
  1130  000ADA                     __ptext3:
  1131                           	callstack 0
  1132  000ADA                     ___flmul:
  1133                           	callstack 30
  1134  000ADA  5004               	movf	(___flmul@b+3)^0,w,c
  1135  000ADC  0B80               	andlw	128
  1136  000ADE  6E0D               	movwf	___flmul@sign^0,c
  1137  000AE0  5004               	movf	(___flmul@b+3)^0,w,c
  1138  000AE2  2404               	addwf	(___flmul@b+3)^0,w,c
  1139  000AE4  6E13               	movwf	___flmul@bexp^0,c
  1140  000AE6  AE03               	btfss	(___flmul@b+2)^0,7,c
  1141  000AE8  EF78  F005         	goto	u1931
  1142  000AEC  EF7A  F005         	goto	u1930
  1143  000AF0                     u1931:
  1144  000AF0  EF7B  F005         	goto	l2506
  1145  000AF4                     u1930:
  1146  000AF4  8013               	bsf	___flmul@bexp^0,0,c
  1147  000AF6                     l2506:
  1148  000AF6  5013               	movf	___flmul@bexp^0,w,c
  1149  000AF8  B4D8               	btfsc	status,2,c
  1150  000AFA  EF81  F005         	goto	u1941
  1151  000AFE  EF83  F005         	goto	u1940
  1152  000B02                     u1941:
  1153  000B02  EF96  F005         	goto	l2514
  1154  000B06                     u1940:
  1155  000B06  2813               	incf	___flmul@bexp^0,w,c
  1156  000B08  A4D8               	btfss	status,2,c
  1157  000B0A  EF89  F005         	goto	u1951
  1158  000B0E  EF8B  F005         	goto	u1950
  1159  000B12                     u1951:
  1160  000B12  EF93  F005         	goto	l2512
  1161  000B16                     u1950:
  1162  000B16  0E00               	movlw	0
  1163  000B18  6E01               	movwf	___flmul@b^0,c
  1164  000B1A  0E00               	movlw	0
  1165  000B1C  6E02               	movwf	(___flmul@b+1)^0,c
  1166  000B1E  0E00               	movlw	0
  1167  000B20  6E03               	movwf	(___flmul@b+2)^0,c
  1168  000B22  0E00               	movlw	0
  1169  000B24  6E04               	movwf	(___flmul@b+3)^0,c
  1170  000B26                     l2512:
  1171  000B26  8E03               	bsf	(___flmul@b+2)^0,7,c
  1172  000B28  EF9E  F005         	goto	l2516
  1173  000B2C                     l2514:
  1174  000B2C  0E00               	movlw	0
  1175  000B2E  6E01               	movwf	___flmul@b^0,c
  1176  000B30  0E00               	movlw	0
  1177  000B32  6E02               	movwf	(___flmul@b+1)^0,c
  1178  000B34  0E00               	movlw	0
  1179  000B36  6E03               	movwf	(___flmul@b+2)^0,c
  1180  000B38  0E00               	movlw	0
  1181  000B3A  6E04               	movwf	(___flmul@b+3)^0,c
  1182  000B3C                     l2516:
  1183  000B3C  5008               	movf	(___flmul@a+3)^0,w,c
  1184  000B3E  0B80               	andlw	128
  1185  000B40  1A0D               	xorwf	___flmul@sign^0,f,c
  1186  000B42  5008               	movf	(___flmul@a+3)^0,w,c
  1187  000B44  2408               	addwf	(___flmul@a+3)^0,w,c
  1188  000B46  6E12               	movwf	___flmul@aexp^0,c
  1189  000B48  AE07               	btfss	(___flmul@a+2)^0,7,c
  1190  000B4A  EFA9  F005         	goto	u1961
  1191  000B4E  EFAB  F005         	goto	u1960
  1192  000B52                     u1961:
  1193  000B52  EFAC  F005         	goto	l2524
  1194  000B56                     u1960:
  1195  000B56  8012               	bsf	___flmul@aexp^0,0,c
  1196  000B58                     l2524:
  1197  000B58  5012               	movf	___flmul@aexp^0,w,c
  1198  000B5A  B4D8               	btfsc	status,2,c
  1199  000B5C  EFB2  F005         	goto	u1971
  1200  000B60  EFB4  F005         	goto	u1970
  1201  000B64                     u1971:
  1202  000B64  EFC7  F005         	goto	l2532
  1203  000B68                     u1970:
  1204  000B68  2812               	incf	___flmul@aexp^0,w,c
  1205  000B6A  A4D8               	btfss	status,2,c
  1206  000B6C  EFBA  F005         	goto	u1981
  1207  000B70  EFBC  F005         	goto	u1980
  1208  000B74                     u1981:
  1209  000B74  EFC4  F005         	goto	l2530
  1210  000B78                     u1980:
  1211  000B78  0E00               	movlw	0
  1212  000B7A  6E05               	movwf	___flmul@a^0,c
  1213  000B7C  0E00               	movlw	0
  1214  000B7E  6E06               	movwf	(___flmul@a+1)^0,c
  1215  000B80  0E00               	movlw	0
  1216  000B82  6E07               	movwf	(___flmul@a+2)^0,c
  1217  000B84  0E00               	movlw	0
  1218  000B86  6E08               	movwf	(___flmul@a+3)^0,c
  1219  000B88                     l2530:
  1220  000B88  8E07               	bsf	(___flmul@a+2)^0,7,c
  1221  000B8A  EFCF  F005         	goto	l924
  1222  000B8E                     l2532:
  1223  000B8E  0E00               	movlw	0
  1224  000B90  6E05               	movwf	___flmul@a^0,c
  1225  000B92  0E00               	movlw	0
  1226  000B94  6E06               	movwf	(___flmul@a+1)^0,c
  1227  000B96  0E00               	movlw	0
  1228  000B98  6E07               	movwf	(___flmul@a+2)^0,c
  1229  000B9A  0E00               	movlw	0
  1230  000B9C  6E08               	movwf	(___flmul@a+3)^0,c
  1231  000B9E                     l924:
  1232  000B9E  5012               	movf	___flmul@aexp^0,w,c
  1233  000BA0  B4D8               	btfsc	status,2,c
  1234  000BA2  EFD5  F005         	goto	u1991
  1235  000BA6  EFD7  F005         	goto	u1990
  1236  000BAA                     u1991:
  1237  000BAA  EFDF  F005         	goto	l2536
  1238  000BAE                     u1990:
  1239  000BAE  5013               	movf	___flmul@bexp^0,w,c
  1240  000BB0  A4D8               	btfss	status,2,c
  1241  000BB2  EFDD  F005         	goto	u2001
  1242  000BB6  EFDF  F005         	goto	u2000
  1243  000BBA                     u2001:
  1244  000BBA  EFE9  F005         	goto	l2540
  1245  000BBE                     u2000:
  1246  000BBE                     l2536:
  1247  000BBE  0E00               	movlw	0
  1248  000BC0  6E01               	movwf	?___flmul^0,c
  1249  000BC2  0E00               	movlw	0
  1250  000BC4  6E02               	movwf	(?___flmul+1)^0,c
  1251  000BC6  0E00               	movlw	0
  1252  000BC8  6E03               	movwf	(?___flmul+2)^0,c
  1253  000BCA  0E00               	movlw	0
  1254  000BCC  6E04               	movwf	(?___flmul+3)^0,c
  1255  000BCE  EF81  F007         	goto	l928
  1256  000BD2                     l2540:
  1257  000BD2  5007               	movf	(___flmul@a+2)^0,w,c
  1258  000BD4  0201               	mulwf	___flmul@b^0,c
  1259  000BD6  CFF3 F018          	movff	prodl,___flmul@temp
  1260  000BDA  CFF4 F019          	movff	prodh,___flmul@temp+1
  1261  000BDE  5018               	movf	___flmul@temp^0,w,c
  1262  000BE0  6E0E               	movwf	___flmul@grs^0,c
  1263  000BE2  6A0F               	clrf	(___flmul@grs+1)^0,c
  1264  000BE4  6A10               	clrf	(___flmul@grs+2)^0,c
  1265  000BE6  6A11               	clrf	(___flmul@grs+3)^0,c
  1266  000BE8  5019               	movf	(___flmul@temp+1)^0,w,c
  1267  000BEA  6E14               	movwf	___flmul@prod^0,c
  1268  000BEC  6A15               	clrf	(___flmul@prod+1)^0,c
  1269  000BEE  6A16               	clrf	(___flmul@prod+2)^0,c
  1270  000BF0  6A17               	clrf	(___flmul@prod+3)^0,c
  1271  000BF2  5006               	movf	(___flmul@a+1)^0,w,c
  1272  000BF4  0202               	mulwf	(___flmul@b+1)^0,c
  1273  000BF6  CFF3 F018          	movff	prodl,___flmul@temp
  1274  000BFA  CFF4 F019          	movff	prodh,___flmul@temp+1
  1275  000BFE  5018               	movf	___flmul@temp^0,w,c
  1276  000C00  260E               	addwf	___flmul@grs^0,f,c
  1277  000C02  0E00               	movlw	0
  1278  000C04  220F               	addwfc	(___flmul@grs+1)^0,f,c
  1279  000C06  2210               	addwfc	(___flmul@grs+2)^0,f,c
  1280  000C08  2211               	addwfc	(___flmul@grs+3)^0,f,c
  1281  000C0A  5019               	movf	(___flmul@temp+1)^0,w,c
  1282  000C0C  2614               	addwf	___flmul@prod^0,f,c
  1283  000C0E  0E00               	movlw	0
  1284  000C10  2215               	addwfc	(___flmul@prod+1)^0,f,c
  1285  000C12  2216               	addwfc	(___flmul@prod+2)^0,f,c
  1286  000C14  2217               	addwfc	(___flmul@prod+3)^0,f,c
  1287  000C16  5005               	movf	___flmul@a^0,w,c
  1288  000C18  0203               	mulwf	(___flmul@b+2)^0,c
  1289  000C1A  CFF3 F018          	movff	prodl,___flmul@temp
  1290  000C1E  CFF4 F019          	movff	prodh,___flmul@temp+1
  1291  000C22  5018               	movf	___flmul@temp^0,w,c
  1292  000C24  260E               	addwf	___flmul@grs^0,f,c
  1293  000C26  0E00               	movlw	0
  1294  000C28  220F               	addwfc	(___flmul@grs+1)^0,f,c
  1295  000C2A  2210               	addwfc	(___flmul@grs+2)^0,f,c
  1296  000C2C  2211               	addwfc	(___flmul@grs+3)^0,f,c
  1297  000C2E  5019               	movf	(___flmul@temp+1)^0,w,c
  1298  000C30  2614               	addwf	___flmul@prod^0,f,c
  1299  000C32  0E00               	movlw	0
  1300  000C34  2215               	addwfc	(___flmul@prod+1)^0,f,c
  1301  000C36  2216               	addwfc	(___flmul@prod+2)^0,f,c
  1302  000C38  2217               	addwfc	(___flmul@prod+3)^0,f,c
  1303  000C3A  C010  F011         	movff	___flmul@grs+2,___flmul@grs+3
  1304  000C3E  C00F  F010         	movff	___flmul@grs+1,___flmul@grs+2
  1305  000C42  C00E  F00F         	movff	___flmul@grs,___flmul@grs+1
  1306  000C46  6A0E               	clrf	___flmul@grs^0,c
  1307  000C48  5005               	movf	___flmul@a^0,w,c
  1308  000C4A  0202               	mulwf	(___flmul@b+1)^0,c
  1309  000C4C  CFF3 F018          	movff	prodl,___flmul@temp
  1310  000C50  CFF4 F019          	movff	prodh,___flmul@temp+1
  1311  000C54  5018               	movf	___flmul@temp^0,w,c
  1312  000C56  260E               	addwf	___flmul@grs^0,f,c
  1313  000C58  5019               	movf	(___flmul@temp+1)^0,w,c
  1314  000C5A  220F               	addwfc	(___flmul@grs+1)^0,f,c
  1315  000C5C  0E00               	movlw	0
  1316  000C5E  2210               	addwfc	(___flmul@grs+2)^0,f,c
  1317  000C60  0E00               	movlw	0
  1318  000C62  2211               	addwfc	(___flmul@grs+3)^0,f,c
  1319  000C64  5006               	movf	(___flmul@a+1)^0,w,c
  1320  000C66  0201               	mulwf	___flmul@b^0,c
  1321  000C68  CFF3 F018          	movff	prodl,___flmul@temp
  1322  000C6C  CFF4 F019          	movff	prodh,___flmul@temp+1
  1323  000C70  5018               	movf	___flmul@temp^0,w,c
  1324  000C72  260E               	addwf	___flmul@grs^0,f,c
  1325  000C74  5019               	movf	(___flmul@temp+1)^0,w,c
  1326  000C76  220F               	addwfc	(___flmul@grs+1)^0,f,c
  1327  000C78  0E00               	movlw	0
  1328  000C7A  2210               	addwfc	(___flmul@grs+2)^0,f,c
  1329  000C7C  0E00               	movlw	0
  1330  000C7E  2211               	addwfc	(___flmul@grs+3)^0,f,c
  1331  000C80  C010  F011         	movff	___flmul@grs+2,___flmul@grs+3
  1332  000C84  C00F  F010         	movff	___flmul@grs+1,___flmul@grs+2
  1333  000C88  C00E  F00F         	movff	___flmul@grs,___flmul@grs+1
  1334  000C8C  6A0E               	clrf	___flmul@grs^0,c
  1335  000C8E  5005               	movf	___flmul@a^0,w,c
  1336  000C90  0201               	mulwf	___flmul@b^0,c
  1337  000C92  CFF3 F018          	movff	prodl,___flmul@temp
  1338  000C96  CFF4 F019          	movff	prodh,___flmul@temp+1
  1339  000C9A  5018               	movf	___flmul@temp^0,w,c
  1340  000C9C  260E               	addwf	___flmul@grs^0,f,c
  1341  000C9E  5019               	movf	(___flmul@temp+1)^0,w,c
  1342  000CA0  220F               	addwfc	(___flmul@grs+1)^0,f,c
  1343  000CA2  0E00               	movlw	0
  1344  000CA4  2210               	addwfc	(___flmul@grs+2)^0,f,c
  1345  000CA6  0E00               	movlw	0
  1346  000CA8  2211               	addwfc	(___flmul@grs+3)^0,f,c
  1347  000CAA  5007               	movf	(___flmul@a+2)^0,w,c
  1348  000CAC  0202               	mulwf	(___flmul@b+1)^0,c
  1349  000CAE  CFF3 F018          	movff	prodl,___flmul@temp
  1350  000CB2  CFF4 F019          	movff	prodh,___flmul@temp+1
  1351  000CB6  5018               	movf	___flmul@temp^0,w,c
  1352  000CB8  2614               	addwf	___flmul@prod^0,f,c
  1353  000CBA  5019               	movf	(___flmul@temp+1)^0,w,c
  1354  000CBC  2215               	addwfc	(___flmul@prod+1)^0,f,c
  1355  000CBE  0E00               	movlw	0
  1356  000CC0  2216               	addwfc	(___flmul@prod+2)^0,f,c
  1357  000CC2  0E00               	movlw	0
  1358  000CC4  2217               	addwfc	(___flmul@prod+3)^0,f,c
  1359  000CC6  5006               	movf	(___flmul@a+1)^0,w,c
  1360  000CC8  0203               	mulwf	(___flmul@b+2)^0,c
  1361  000CCA  CFF3 F018          	movff	prodl,___flmul@temp
  1362  000CCE  CFF4 F019          	movff	prodh,___flmul@temp+1
  1363  000CD2  5018               	movf	___flmul@temp^0,w,c
  1364  000CD4  2614               	addwf	___flmul@prod^0,f,c
  1365  000CD6  5019               	movf	(___flmul@temp+1)^0,w,c
  1366  000CD8  2215               	addwfc	(___flmul@prod+1)^0,f,c
  1367  000CDA  0E00               	movlw	0
  1368  000CDC  2216               	addwfc	(___flmul@prod+2)^0,f,c
  1369  000CDE  0E00               	movlw	0
  1370  000CE0  2217               	addwfc	(___flmul@prod+3)^0,f,c
  1371  000CE2  5007               	movf	(___flmul@a+2)^0,w,c
  1372  000CE4  0203               	mulwf	(___flmul@b+2)^0,c
  1373  000CE6  CFF3 F018          	movff	prodl,___flmul@temp
  1374  000CEA  CFF4 F019          	movff	prodh,___flmul@temp+1
  1375  000CEE  5018               	movf	___flmul@temp^0,w,c
  1376  000CF0  6E09               	movwf	??___flmul^0,c
  1377  000CF2  5019               	movf	(___flmul@temp+1)^0,w,c
  1378  000CF4  6E0A               	movwf	(??___flmul+1)^0,c
  1379  000CF6  6A0B               	clrf	(??___flmul+2)^0,c
  1380  000CF8  6A0C               	clrf	(??___flmul+3)^0,c
  1381  000CFA  C00B  F00C         	movff	??___flmul+2,??___flmul+3
  1382  000CFE  C00A  F00B         	movff	??___flmul+1,??___flmul+2
  1383  000D02  C009  F00A         	movff	??___flmul,??___flmul+1
  1384  000D06  6A09               	clrf	??___flmul^0,c
  1385  000D08  5009               	movf	??___flmul^0,w,c
  1386  000D0A  2614               	addwf	___flmul@prod^0,f,c
  1387  000D0C  500A               	movf	(??___flmul+1)^0,w,c
  1388  000D0E  2215               	addwfc	(___flmul@prod+1)^0,f,c
  1389  000D10  500B               	movf	(??___flmul+2)^0,w,c
  1390  000D12  2216               	addwfc	(___flmul@prod+2)^0,f,c
  1391  000D14  500C               	movf	(??___flmul+3)^0,w,c
  1392  000D16  2217               	addwfc	(___flmul@prod+3)^0,f,c
  1393  000D18  C00E  F009         	movff	___flmul@grs,??___flmul
  1394  000D1C  C00F  F00A         	movff	___flmul@grs+1,??___flmul+1
  1395  000D20  C010  F00B         	movff	___flmul@grs+2,??___flmul+2
  1396  000D24  C011  F00C         	movff	___flmul@grs+3,??___flmul+3
  1397  000D28  0E19               	movlw	25
  1398  000D2A  EF9C  F006         	goto	u2010
  1399  000D2E                     u2015:
  1400  000D2E  90D8               	bcf	status,0,c
  1401  000D30  320C               	rrcf	(??___flmul+3)^0,f,c
  1402  000D32  320B               	rrcf	(??___flmul+2)^0,f,c
  1403  000D34  320A               	rrcf	(??___flmul+1)^0,f,c
  1404  000D36  3209               	rrcf	??___flmul^0,f,c
  1405  000D38                     u2010:
  1406  000D38  2EE8               	decfsz	wreg,f,c
  1407  000D3A  EF97  F006         	goto	u2015
  1408  000D3E  5009               	movf	??___flmul^0,w,c
  1409  000D40  2614               	addwf	___flmul@prod^0,f,c
  1410  000D42  500A               	movf	(??___flmul+1)^0,w,c
  1411  000D44  2215               	addwfc	(___flmul@prod+1)^0,f,c
  1412  000D46  500B               	movf	(??___flmul+2)^0,w,c
  1413  000D48  2216               	addwfc	(___flmul@prod+2)^0,f,c
  1414  000D4A  500C               	movf	(??___flmul+3)^0,w,c
  1415  000D4C  2217               	addwfc	(___flmul@prod+3)^0,f,c
  1416  000D4E  C010  F011         	movff	___flmul@grs+2,___flmul@grs+3
  1417  000D52  C00F  F010         	movff	___flmul@grs+1,___flmul@grs+2
  1418  000D56  C00E  F00F         	movff	___flmul@grs,___flmul@grs+1
  1419  000D5A  6A0E               	clrf	___flmul@grs^0,c
  1420  000D5C  5012               	movf	___flmul@aexp^0,w,c
  1421  000D5E  C013  F009         	movff	___flmul@bexp,??___flmul
  1422  000D62  6A0A               	clrf	(??___flmul+1)^0,c
  1423  000D64  2609               	addwf	??___flmul^0,f,c
  1424  000D66  0E00               	movlw	0
  1425  000D68  220A               	addwfc	(??___flmul+1)^0,f,c
  1426  000D6A  0E82               	movlw	130
  1427  000D6C  2409               	addwf	??___flmul^0,w,c
  1428  000D6E  6E18               	movwf	___flmul@temp^0,c
  1429  000D70  0EFF               	movlw	255
  1430  000D72  200A               	addwfc	(??___flmul+1)^0,w,c
  1431  000D74  6E19               	movwf	(___flmul@temp+1)^0,c
  1432  000D76  EFD2  F006         	goto	l2588
  1433  000D7A                     l2582:
  1434  000D7A  90D8               	bcf	status,0,c
  1435  000D7C  3614               	rlcf	___flmul@prod^0,f,c
  1436  000D7E  3615               	rlcf	(___flmul@prod+1)^0,f,c
  1437  000D80  3616               	rlcf	(___flmul@prod+2)^0,f,c
  1438  000D82  3617               	rlcf	(___flmul@prod+3)^0,f,c
  1439  000D84  AE11               	btfss	(___flmul@grs+3)^0,7,c
  1440  000D86  EFC7  F006         	goto	u2021
  1441  000D8A  EFC9  F006         	goto	u2020
  1442  000D8E                     u2021:
  1443  000D8E  EFCA  F006         	goto	l931
  1444  000D92                     u2020:
  1445  000D92  8014               	bsf	___flmul@prod^0,0,c
  1446  000D94                     l931:
  1447  000D94  90D8               	bcf	status,0,c
  1448  000D96  360E               	rlcf	___flmul@grs^0,f,c
  1449  000D98  360F               	rlcf	(___flmul@grs+1)^0,f,c
  1450  000D9A  3610               	rlcf	(___flmul@grs+2)^0,f,c
  1451  000D9C  3611               	rlcf	(___flmul@grs+3)^0,f,c
  1452  000D9E  0618               	decf	___flmul@temp^0,f,c
  1453  000DA0  A0D8               	btfss	status,0,c
  1454  000DA2  0619               	decf	(___flmul@temp+1)^0,f,c
  1455  000DA4                     l2588:
  1456  000DA4  AE16               	btfss	(___flmul@prod+2)^0,7,c
  1457  000DA6  EFD7  F006         	goto	u2031
  1458  000DAA  EFD9  F006         	goto	u2030
  1459  000DAE                     u2031:
  1460  000DAE  EFBD  F006         	goto	l2582
  1461  000DB2                     u2030:
  1462  000DB2  0E00               	movlw	0
  1463  000DB4  6E12               	movwf	___flmul@aexp^0,c
  1464  000DB6  AE11               	btfss	(___flmul@grs+3)^0,7,c
  1465  000DB8  EFE0  F006         	goto	u2041
  1466  000DBC  EFE2  F006         	goto	u2040
  1467  000DC0                     u2041:
  1468  000DC0  EF06  F007         	goto	l933
  1469  000DC4                     u2040:
  1470  000DC4  0EFF               	movlw	255
  1471  000DC6  140E               	andwf	___flmul@grs^0,w,c
  1472  000DC8  6E09               	movwf	??___flmul^0,c
  1473  000DCA  0EFF               	movlw	255
  1474  000DCC  140F               	andwf	(___flmul@grs+1)^0,w,c
  1475  000DCE  6E0A               	movwf	(??___flmul+1)^0,c
  1476  000DD0  0EFF               	movlw	255
  1477  000DD2  1410               	andwf	(___flmul@grs+2)^0,w,c
  1478  000DD4  6E0B               	movwf	(??___flmul+2)^0,c
  1479  000DD6  0E7F               	movlw	127
  1480  000DD8  1411               	andwf	(___flmul@grs+3)^0,w,c
  1481  000DDA  6E0C               	movwf	(??___flmul+3)^0,c
  1482  000DDC  5009               	movf	??___flmul^0,w,c
  1483  000DDE  100A               	iorwf	(??___flmul+1)^0,w,c
  1484  000DE0  100B               	iorwf	(??___flmul+2)^0,w,c
  1485  000DE2  100C               	iorwf	(??___flmul+3)^0,w,c
  1486  000DE4  B4D8               	btfsc	status,2,c
  1487  000DE6  EFF7  F006         	goto	u2051
  1488  000DEA  EFF9  F006         	goto	u2050
  1489  000DEE                     u2051:
  1490  000DEE  EFFD  F006         	goto	l934
  1491  000DF2                     u2050:
  1492  000DF2                     l2596:
  1493  000DF2  0E01               	movlw	1
  1494  000DF4  6E12               	movwf	___flmul@aexp^0,c
  1495  000DF6  EF06  F007         	goto	l933
  1496  000DFA                     l934:
  1497  000DFA  A014               	btfss	___flmul@prod^0,0,c
  1498  000DFC  EF02  F007         	goto	u2061
  1499  000E00  EF04  F007         	goto	u2060
  1500  000E04                     u2061:
  1501  000E04  EF06  F007         	goto	l933
  1502  000E08                     u2060:
  1503  000E08  EFF9  F006         	goto	l2596
  1504  000E0C                     l933:
  1505  000E0C  5012               	movf	___flmul@aexp^0,w,c
  1506  000E0E  B4D8               	btfsc	status,2,c
  1507  000E10  EF0C  F007         	goto	u2071
  1508  000E14  EF0E  F007         	goto	u2070
  1509  000E18                     u2071:
  1510  000E18  EF32  F007         	goto	l2608
  1511  000E1C                     u2070:
  1512  000E1C  0E01               	movlw	1
  1513  000E1E  2614               	addwf	___flmul@prod^0,f,c
  1514  000E20  0E00               	movlw	0
  1515  000E22  2215               	addwfc	(___flmul@prod+1)^0,f,c
  1516  000E24  2216               	addwfc	(___flmul@prod+2)^0,f,c
  1517  000E26  2217               	addwfc	(___flmul@prod+3)^0,f,c
  1518  000E28  A017               	btfss	(___flmul@prod+3)^0,0,c
  1519  000E2A  EF19  F007         	goto	u2081
  1520  000E2E  EF1B  F007         	goto	u2080
  1521  000E32                     u2081:
  1522  000E32  EF32  F007         	goto	l2608
  1523  000E36                     u2080:
  1524  000E36  C014  F009         	movff	___flmul@prod,??___flmul
  1525  000E3A  C015  F00A         	movff	___flmul@prod+1,??___flmul+1
  1526  000E3E  C016  F00B         	movff	___flmul@prod+2,??___flmul+2
  1527  000E42  C017  F00C         	movff	___flmul@prod+3,??___flmul+3
  1528  000E46  340C               	rlcf	(??___flmul+3)^0,w,c
  1529  000E48  320C               	rrcf	(??___flmul+3)^0,f,c
  1530  000E4A  320B               	rrcf	(??___flmul+2)^0,f,c
  1531  000E4C  320A               	rrcf	(??___flmul+1)^0,f,c
  1532  000E4E  3209               	rrcf	??___flmul^0,f,c
  1533  000E50  C009  F014         	movff	??___flmul,___flmul@prod
  1534  000E54  C00A  F015         	movff	??___flmul+1,___flmul@prod+1
  1535  000E58  C00B  F016         	movff	??___flmul+2,___flmul@prod+2
  1536  000E5C  C00C  F017         	movff	??___flmul+3,___flmul@prod+3
  1537  000E60  4A18               	infsnz	___flmul@temp^0,f,c
  1538  000E62  2A19               	incf	(___flmul@temp+1)^0,f,c
  1539  000E64                     l2608:
  1540  000E64  BE19               	btfsc	(___flmul@temp+1)^0,7,c
  1541  000E66  EF3D  F007         	goto	u2091
  1542  000E6A  5019               	movf	(___flmul@temp+1)^0,w,c
  1543  000E6C  E108               	bnz	u2090
  1544  000E6E  2818               	incf	___flmul@temp^0,w,c
  1545  000E70  A0D8               	btfss	status,0,c
  1546  000E72  EF3D  F007         	goto	u2091
  1547  000E76  EF3F  F007         	goto	u2090
  1548  000E7A                     u2091:
  1549  000E7A  EF49  F007         	goto	l2612
  1550  000E7E                     u2090:
  1551  000E7E  0E00               	movlw	0
  1552  000E80  6E14               	movwf	___flmul@prod^0,c
  1553  000E82  0E00               	movlw	0
  1554  000E84  6E15               	movwf	(___flmul@prod+1)^0,c
  1555  000E86  0E80               	movlw	128
  1556  000E88  6E16               	movwf	(___flmul@prod+2)^0,c
  1557  000E8A  0E7F               	movlw	127
  1558  000E8C  6E17               	movwf	(___flmul@prod+3)^0,c
  1559  000E8E  EF77  F007         	goto	l2624
  1560  000E92                     l2612:
  1561  000E92  BE19               	btfsc	(___flmul@temp+1)^0,7,c
  1562  000E94  EF56  F007         	goto	u2100
  1563  000E98  5019               	movf	(___flmul@temp+1)^0,w,c
  1564  000E9A  E106               	bnz	u2101
  1565  000E9C  0418               	decf	___flmul@temp^0,w,c
  1566  000E9E  B0D8               	btfsc	status,0,c
  1567  000EA0  EF54  F007         	goto	u2101
  1568  000EA4  EF56  F007         	goto	u2100
  1569  000EA8                     u2101:
  1570  000EA8  EF62  F007         	goto	l941
  1571  000EAC                     u2100:
  1572  000EAC  0E00               	movlw	0
  1573  000EAE  6E14               	movwf	___flmul@prod^0,c
  1574  000EB0  0E00               	movlw	0
  1575  000EB2  6E15               	movwf	(___flmul@prod+1)^0,c
  1576  000EB4  0E00               	movlw	0
  1577  000EB6  6E16               	movwf	(___flmul@prod+2)^0,c
  1578  000EB8  0E00               	movlw	0
  1579  000EBA  6E17               	movwf	(___flmul@prod+3)^0,c
  1580  000EBC  0E00               	movlw	0
  1581  000EBE  6E0D               	movwf	___flmul@sign^0,c
  1582  000EC0  EF77  F007         	goto	l2624
  1583  000EC4                     l941:
  1584  000EC4  C018  F013         	movff	___flmul@temp,___flmul@bexp
  1585  000EC8  0EFF               	movlw	255
  1586  000ECA  1614               	andwf	___flmul@prod^0,f,c
  1587  000ECC  0EFF               	movlw	255
  1588  000ECE  1615               	andwf	(___flmul@prod+1)^0,f,c
  1589  000ED0  0E7F               	movlw	127
  1590  000ED2  1616               	andwf	(___flmul@prod+2)^0,f,c
  1591  000ED4  0E00               	movlw	0
  1592  000ED6  1617               	andwf	(___flmul@prod+3)^0,f,c
  1593  000ED8  A013               	btfss	___flmul@bexp^0,0,c
  1594  000EDA  EF71  F007         	goto	u2111
  1595  000EDE  EF73  F007         	goto	u2110
  1596  000EE2                     u2111:
  1597  000EE2  EF74  F007         	goto	l2622
  1598  000EE6                     u2110:
  1599  000EE6  8E16               	bsf	(___flmul@prod+2)^0,7,c
  1600  000EE8                     l2622:
  1601  000EE8  90D8               	bcf	status,0,c
  1602  000EEA  3013               	rrcf	___flmul@bexp^0,w,c
  1603  000EEC  6E17               	movwf	(___flmul@prod+3)^0,c
  1604  000EEE                     l2624:
  1605  000EEE  500D               	movf	___flmul@sign^0,w,c
  1606  000EF0  1217               	iorwf	(___flmul@prod+3)^0,f,c
  1607  000EF2  C014  F001         	movff	___flmul@prod,?___flmul
  1608  000EF6  C015  F002         	movff	___flmul@prod+1,?___flmul+1
  1609  000EFA  C016  F003         	movff	___flmul@prod+2,?___flmul+2
  1610  000EFE  C017  F004         	movff	___flmul@prod+3,?___flmul+3
  1611  000F02                     l928:
  1612  000F02  0012               	return		;funcret
  1613  000F04                     __end_of___flmul:
  1614                           	callstack 0
  1615                           
  1616 ;; *************** function ___fldiv *****************
  1617 ;; Defined at:
  1618 ;;		line 11 in file "C:\Program Files\Microchip\xc8\v2.36\pic\sources\c90\common\sprcdiv.c"
  1619 ;; Parameters:    Size  Location     Type
  1620 ;;  b               4   25[COMRAM] unsigned char 
  1621 ;;  a               4   29[COMRAM] unsigned char 
  1622 ;; Auto vars:     Size  Location     Type
  1623 ;;  grs             4   44[COMRAM] unsigned long 
  1624 ;;  rem             4   37[COMRAM] unsigned long 
  1625 ;;  new_exp         2   42[COMRAM] int 
  1626 ;;  aexp            1   49[COMRAM] unsigned char 
  1627 ;;  bexp            1   48[COMRAM] unsigned char 
  1628 ;;  sign            1   41[COMRAM] unsigned char 
  1629 ;; Return value:  Size  Location     Type
  1630 ;;                  4   25[COMRAM] unsigned char 
  1631 ;; Registers used:
  1632 ;;		wreg, status,2, status,0
  1633 ;; Tracked objects:
  1634 ;;		On entry : 0/0
  1635 ;;		On exit  : 0/0
  1636 ;;		Unchanged: 0/0
  1637 ;; Data sizes:     COMRAM   BANK0   BANK1   BANK2   BANK3   BANK4   BANK5
  1638 ;;      Params:         8       0       0       0       0       0       0
  1639 ;;      Locals:        13       0       0       0       0       0       0
  1640 ;;      Temps:          4       0       0       0       0       0       0
  1641 ;;      Totals:        25       0       0       0       0       0       0
  1642 ;;Total ram usage:       25 bytes
  1643 ;; Hardware stack levels used: 1
  1644 ;; This function calls:
  1645 ;;		Nothing
  1646 ;; This function is called by:
  1647 ;;		_main
  1648 ;; This function uses a non-reentrant model
  1649 ;;
  1650                           
  1651                           	psect	text4
  1652  000F04                     __ptext4:
  1653                           	callstack 0
  1654  000F04                     ___fldiv:
  1655                           	callstack 30
  1656  000F04  501D               	movf	(___fldiv@b+3)^0,w,c
  1657  000F06  0B80               	andlw	128
  1658  000F08  6E2A               	movwf	___fldiv@sign^0,c
  1659  000F0A  501D               	movf	(___fldiv@b+3)^0,w,c
  1660  000F0C  241D               	addwf	(___fldiv@b+3)^0,w,c
  1661  000F0E  6E31               	movwf	___fldiv@bexp^0,c
  1662  000F10  AE1C               	btfss	(___fldiv@b+2)^0,7,c
  1663  000F12  EF8D  F007         	goto	u1701
  1664  000F16  EF8F  F007         	goto	u1700
  1665  000F1A                     u1701:
  1666  000F1A  EF90  F007         	goto	l2368
  1667  000F1E                     u1700:
  1668  000F1E  8031               	bsf	___fldiv@bexp^0,0,c
  1669  000F20                     l2368:
  1670  000F20  5031               	movf	___fldiv@bexp^0,w,c
  1671  000F22  B4D8               	btfsc	status,2,c
  1672  000F24  EF96  F007         	goto	u1711
  1673  000F28  EF98  F007         	goto	u1710
  1674  000F2C                     u1711:
  1675  000F2C  EFAD  F007         	goto	l2378
  1676  000F30                     u1710:
  1677  000F30  2831               	incf	___fldiv@bexp^0,w,c
  1678  000F32  A4D8               	btfss	status,2,c
  1679  000F34  EF9E  F007         	goto	u1721
  1680  000F38  EFA0  F007         	goto	u1720
  1681  000F3C                     u1721:
  1682  000F3C  EFA8  F007         	goto	l2374
  1683  000F40                     u1720:
  1684  000F40  0E00               	movlw	0
  1685  000F42  6E1A               	movwf	___fldiv@b^0,c
  1686  000F44  0E00               	movlw	0
  1687  000F46  6E1B               	movwf	(___fldiv@b+1)^0,c
  1688  000F48  0E00               	movlw	0
  1689  000F4A  6E1C               	movwf	(___fldiv@b+2)^0,c
  1690  000F4C  0E00               	movlw	0
  1691  000F4E  6E1D               	movwf	(___fldiv@b+3)^0,c
  1692  000F50                     l2374:
  1693  000F50  8E1C               	bsf	(___fldiv@b+2)^0,7,c
  1694  000F52  0E00               	movlw	0
  1695  000F54  6E1D               	movwf	(___fldiv@b+3)^0,c
  1696  000F56  EFB5  F007         	goto	l2380
  1697  000F5A                     l2378:
  1698  000F5A  0E00               	movlw	0
  1699  000F5C  6E1A               	movwf	___fldiv@b^0,c
  1700  000F5E  0E00               	movlw	0
  1701  000F60  6E1B               	movwf	(___fldiv@b+1)^0,c
  1702  000F62  0E00               	movlw	0
  1703  000F64  6E1C               	movwf	(___fldiv@b+2)^0,c
  1704  000F66  0E00               	movlw	0
  1705  000F68  6E1D               	movwf	(___fldiv@b+3)^0,c
  1706  000F6A                     l2380:
  1707  000F6A  5021               	movf	(___fldiv@a+3)^0,w,c
  1708  000F6C  0B80               	andlw	128
  1709  000F6E  1A2A               	xorwf	___fldiv@sign^0,f,c
  1710  000F70  5021               	movf	(___fldiv@a+3)^0,w,c
  1711  000F72  2421               	addwf	(___fldiv@a+3)^0,w,c
  1712  000F74  6E32               	movwf	___fldiv@aexp^0,c
  1713  000F76  AE20               	btfss	(___fldiv@a+2)^0,7,c
  1714  000F78  EFC0  F007         	goto	u1731
  1715  000F7C  EFC2  F007         	goto	u1730
  1716  000F80                     u1731:
  1717  000F80  EFC3  F007         	goto	l2388
  1718  000F84                     u1730:
  1719  000F84  8032               	bsf	___fldiv@aexp^0,0,c
  1720  000F86                     l2388:
  1721  000F86  5032               	movf	___fldiv@aexp^0,w,c
  1722  000F88  B4D8               	btfsc	status,2,c
  1723  000F8A  EFC9  F007         	goto	u1741
  1724  000F8E  EFCB  F007         	goto	u1740
  1725  000F92                     u1741:
  1726  000F92  EFE0  F007         	goto	l2398
  1727  000F96                     u1740:
  1728  000F96  2832               	incf	___fldiv@aexp^0,w,c
  1729  000F98  A4D8               	btfss	status,2,c
  1730  000F9A  EFD1  F007         	goto	u1751
  1731  000F9E  EFD3  F007         	goto	u1750
  1732  000FA2                     u1751:
  1733  000FA2  EFDB  F007         	goto	l2394
  1734  000FA6                     u1750:
  1735  000FA6  0E00               	movlw	0
  1736  000FA8  6E1E               	movwf	___fldiv@a^0,c
  1737  000FAA  0E00               	movlw	0
  1738  000FAC  6E1F               	movwf	(___fldiv@a+1)^0,c
  1739  000FAE  0E00               	movlw	0
  1740  000FB0  6E20               	movwf	(___fldiv@a+2)^0,c
  1741  000FB2  0E00               	movlw	0
  1742  000FB4  6E21               	movwf	(___fldiv@a+3)^0,c
  1743  000FB6                     l2394:
  1744  000FB6  8E20               	bsf	(___fldiv@a+2)^0,7,c
  1745  000FB8  0E00               	movlw	0
  1746  000FBA  6E21               	movwf	(___fldiv@a+3)^0,c
  1747  000FBC  EFE8  F007         	goto	l2400
  1748  000FC0                     l2398:
  1749  000FC0  0E00               	movlw	0
  1750  000FC2  6E1E               	movwf	___fldiv@a^0,c
  1751  000FC4  0E00               	movlw	0
  1752  000FC6  6E1F               	movwf	(___fldiv@a+1)^0,c
  1753  000FC8  0E00               	movlw	0
  1754  000FCA  6E20               	movwf	(___fldiv@a+2)^0,c
  1755  000FCC  0E00               	movlw	0
  1756  000FCE  6E21               	movwf	(___fldiv@a+3)^0,c
  1757  000FD0                     l2400:
  1758  000FD0  501E               	movf	___fldiv@a^0,w,c
  1759  000FD2  101F               	iorwf	(___fldiv@a+1)^0,w,c
  1760  000FD4  1020               	iorwf	(___fldiv@a+2)^0,w,c
  1761  000FD6  1021               	iorwf	(___fldiv@a+3)^0,w,c
  1762  000FD8  A4D8               	btfss	status,2,c
  1763  000FDA  EFF1  F007         	goto	u1761
  1764  000FDE  EFF3  F007         	goto	u1760
  1765  000FE2                     u1761:
  1766  000FE2  EF0B  F008         	goto	l2412
  1767  000FE6                     u1760:
  1768  000FE6  0E00               	movlw	0
  1769  000FE8  6E1A               	movwf	___fldiv@b^0,c
  1770  000FEA  0E00               	movlw	0
  1771  000FEC  6E1B               	movwf	(___fldiv@b+1)^0,c
  1772  000FEE  0E00               	movlw	0
  1773  000FF0  6E1C               	movwf	(___fldiv@b+2)^0,c
  1774  000FF2  0E00               	movlw	0
  1775  000FF4  6E1D               	movwf	(___fldiv@b+3)^0,c
  1776  000FF6  0E80               	movlw	128
  1777  000FF8  121C               	iorwf	(___fldiv@b+2)^0,f,c
  1778  000FFA  0E7F               	movlw	127
  1779  000FFC  121D               	iorwf	(___fldiv@b+3)^0,f,c
  1780  000FFE                     l2406:
  1781  000FFE  502A               	movf	___fldiv@sign^0,w,c
  1782  001000  121D               	iorwf	(___fldiv@b+3)^0,f,c
  1783  001002  C01A  F01A         	movff	___fldiv@b,?___fldiv
  1784  001006  C01B  F01B         	movff	___fldiv@b+1,?___fldiv+1
  1785  00100A  C01C  F01C         	movff	___fldiv@b+2,?___fldiv+2
  1786  00100E  C01D  F01D         	movff	___fldiv@b+3,?___fldiv+3
  1787  001012  EF4E  F009         	goto	l892
  1788  001016                     l2412:
  1789  001016  5031               	movf	___fldiv@bexp^0,w,c
  1790  001018  A4D8               	btfss	status,2,c
  1791  00101A  EF11  F008         	goto	u1771
  1792  00101E  EF13  F008         	goto	u1770
  1793  001022                     u1771:
  1794  001022  EF1D  F008         	goto	l2420
  1795  001026                     u1770:
  1796  001026  0E00               	movlw	0
  1797  001028  6E1A               	movwf	?___fldiv^0,c
  1798  00102A  0E00               	movlw	0
  1799  00102C  6E1B               	movwf	(?___fldiv+1)^0,c
  1800  00102E  0E00               	movlw	0
  1801  001030  6E1C               	movwf	(?___fldiv+2)^0,c
  1802  001032  0E00               	movlw	0
  1803  001034  6E1D               	movwf	(?___fldiv+3)^0,c
  1804  001036  EF4E  F009         	goto	l892
  1805  00103A                     l2420:
  1806  00103A  5032               	movf	___fldiv@aexp^0,w,c
  1807  00103C  C031  F022         	movff	___fldiv@bexp,??___fldiv
  1808  001040  6A23               	clrf	(??___fldiv+1)^0,c
  1809  001042  5E22               	subwf	??___fldiv^0,f,c
  1810  001044  0E00               	movlw	0
  1811  001046  5A23               	subwfb	(??___fldiv+1)^0,f,c
  1812  001048  0E7F               	movlw	127
  1813  00104A  2422               	addwf	??___fldiv^0,w,c
  1814  00104C  6E2B               	movwf	___fldiv@new_exp^0,c
  1815  00104E  0E00               	movlw	0
  1816  001050  2023               	addwfc	(??___fldiv+1)^0,w,c
  1817  001052  6E2C               	movwf	(___fldiv@new_exp+1)^0,c
  1818  001054  C01A  F026         	movff	___fldiv@b,___fldiv@rem
  1819  001058  C01B  F027         	movff	___fldiv@b+1,___fldiv@rem+1
  1820  00105C  C01C  F028         	movff	___fldiv@b+2,___fldiv@rem+2
  1821  001060  C01D  F029         	movff	___fldiv@b+3,___fldiv@rem+3
  1822  001064  0E00               	movlw	0
  1823  001066  6E1A               	movwf	___fldiv@b^0,c
  1824  001068  0E00               	movlw	0
  1825  00106A  6E1B               	movwf	(___fldiv@b+1)^0,c
  1826  00106C  0E00               	movlw	0
  1827  00106E  6E1C               	movwf	(___fldiv@b+2)^0,c
  1828  001070  0E00               	movlw	0
  1829  001072  6E1D               	movwf	(___fldiv@b+3)^0,c
  1830  001074  0E00               	movlw	0
  1831  001076  6E2D               	movwf	___fldiv@grs^0,c
  1832  001078  0E00               	movlw	0
  1833  00107A  6E2E               	movwf	(___fldiv@grs+1)^0,c
  1834  00107C  0E00               	movlw	0
  1835  00107E  6E2F               	movwf	(___fldiv@grs+2)^0,c
  1836  001080  0E00               	movlw	0
  1837  001082  6E30               	movwf	(___fldiv@grs+3)^0,c
  1838  001084  0E00               	movlw	0
  1839  001086  6E32               	movwf	___fldiv@aexp^0,c
  1840  001088  EF7E  F008         	goto	l894
  1841  00108C                     l2430:
  1842  00108C  5032               	movf	___fldiv@aexp^0,w,c
  1843  00108E  B4D8               	btfsc	status,2,c
  1844  001090  EF4C  F008         	goto	u1781
  1845  001094  EF4E  F008         	goto	u1780
  1846  001098                     u1781:
  1847  001098  EF65  F008         	goto	l2438
  1848  00109C                     u1780:
  1849  00109C  90D8               	bcf	status,0,c
  1850  00109E  3626               	rlcf	___fldiv@rem^0,f,c
  1851  0010A0  3627               	rlcf	(___fldiv@rem+1)^0,f,c
  1852  0010A2  3628               	rlcf	(___fldiv@rem+2)^0,f,c
  1853  0010A4  3629               	rlcf	(___fldiv@rem+3)^0,f,c
  1854  0010A6  90D8               	bcf	status,0,c
  1855  0010A8  361A               	rlcf	___fldiv@b^0,f,c
  1856  0010AA  361B               	rlcf	(___fldiv@b+1)^0,f,c
  1857  0010AC  361C               	rlcf	(___fldiv@b+2)^0,f,c
  1858  0010AE  361D               	rlcf	(___fldiv@b+3)^0,f,c
  1859  0010B0  AE30               	btfss	(___fldiv@grs+3)^0,7,c
  1860  0010B2  EF5D  F008         	goto	u1791
  1861  0010B6  EF5F  F008         	goto	u1790
  1862  0010BA                     u1791:
  1863  0010BA  EF60  F008         	goto	l897
  1864  0010BE                     u1790:
  1865  0010BE  801A               	bsf	___fldiv@b^0,0,c
  1866  0010C0                     l897:
  1867  0010C0  90D8               	bcf	status,0,c
  1868  0010C2  362D               	rlcf	___fldiv@grs^0,f,c
  1869  0010C4  362E               	rlcf	(___fldiv@grs+1)^0,f,c
  1870  0010C6  362F               	rlcf	(___fldiv@grs+2)^0,f,c
  1871  0010C8  3630               	rlcf	(___fldiv@grs+3)^0,f,c
  1872  0010CA                     l2438:
  1873  0010CA  501E               	movf	___fldiv@a^0,w,c
  1874  0010CC  5C26               	subwf	___fldiv@rem^0,w,c
  1875  0010CE  501F               	movf	(___fldiv@a+1)^0,w,c
  1876  0010D0  5827               	subwfb	(___fldiv@rem+1)^0,w,c
  1877  0010D2  5020               	movf	(___fldiv@a+2)^0,w,c
  1878  0010D4  5828               	subwfb	(___fldiv@rem+2)^0,w,c
  1879  0010D6  5021               	movf	(___fldiv@a+3)^0,w,c
  1880  0010D8  5829               	subwfb	(___fldiv@rem+3)^0,w,c
  1881  0010DA  A0D8               	btfss	status,0,c
  1882  0010DC  EF72  F008         	goto	u1801
  1883  0010E0  EF74  F008         	goto	u1800
  1884  0010E4                     u1801:
  1885  0010E4  EF7D  F008         	goto	l2444
  1886  0010E8                     u1800:
  1887  0010E8  8C30               	bsf	(___fldiv@grs+3)^0,6,c
  1888  0010EA  501E               	movf	___fldiv@a^0,w,c
  1889  0010EC  5E26               	subwf	___fldiv@rem^0,f,c
  1890  0010EE  501F               	movf	(___fldiv@a+1)^0,w,c
  1891  0010F0  5A27               	subwfb	(___fldiv@rem+1)^0,f,c
  1892  0010F2  5020               	movf	(___fldiv@a+2)^0,w,c
  1893  0010F4  5A28               	subwfb	(___fldiv@rem+2)^0,f,c
  1894  0010F6  5021               	movf	(___fldiv@a+3)^0,w,c
  1895  0010F8  5A29               	subwfb	(___fldiv@rem+3)^0,f,c
  1896  0010FA                     l2444:
  1897  0010FA  2A32               	incf	___fldiv@aexp^0,f,c
  1898  0010FC                     l894:
  1899  0010FC  0E19               	movlw	25
  1900  0010FE  6432               	cpfsgt	___fldiv@aexp^0,c
  1901  001100  EF84  F008         	goto	u1811
  1902  001104  EF86  F008         	goto	u1810
  1903  001108                     u1811:
  1904  001108  EF46  F008         	goto	l2430
  1905  00110C                     u1810:
  1906  00110C  5026               	movf	___fldiv@rem^0,w,c
  1907  00110E  1027               	iorwf	(___fldiv@rem+1)^0,w,c
  1908  001110  1028               	iorwf	(___fldiv@rem+2)^0,w,c
  1909  001112  1029               	iorwf	(___fldiv@rem+3)^0,w,c
  1910  001114  B4D8               	btfsc	status,2,c
  1911  001116  EF8F  F008         	goto	u1821
  1912  00111A  EF91  F008         	goto	u1820
  1913  00111E                     u1821:
  1914  00111E  EFA9  F008         	goto	l2456
  1915  001122                     u1820:
  1916  001122  802D               	bsf	___fldiv@grs^0,0,c
  1917  001124  EFA9  F008         	goto	l2456
  1918  001128                     l2450:
  1919  001128  90D8               	bcf	status,0,c
  1920  00112A  361A               	rlcf	___fldiv@b^0,f,c
  1921  00112C  361B               	rlcf	(___fldiv@b+1)^0,f,c
  1922  00112E  361C               	rlcf	(___fldiv@b+2)^0,f,c
  1923  001130  361D               	rlcf	(___fldiv@b+3)^0,f,c
  1924  001132  AE30               	btfss	(___fldiv@grs+3)^0,7,c
  1925  001134  EF9E  F008         	goto	u1831
  1926  001138  EFA0  F008         	goto	u1830
  1927  00113C                     u1831:
  1928  00113C  EFA1  F008         	goto	l903
  1929  001140                     u1830:
  1930  001140  801A               	bsf	___fldiv@b^0,0,c
  1931  001142                     l903:
  1932  001142  90D8               	bcf	status,0,c
  1933  001144  362D               	rlcf	___fldiv@grs^0,f,c
  1934  001146  362E               	rlcf	(___fldiv@grs+1)^0,f,c
  1935  001148  362F               	rlcf	(___fldiv@grs+2)^0,f,c
  1936  00114A  3630               	rlcf	(___fldiv@grs+3)^0,f,c
  1937  00114C  062B               	decf	___fldiv@new_exp^0,f,c
  1938  00114E  A0D8               	btfss	status,0,c
  1939  001150  062C               	decf	(___fldiv@new_exp+1)^0,f,c
  1940  001152                     l2456:
  1941  001152  AE1C               	btfss	(___fldiv@b+2)^0,7,c
  1942  001154  EFAE  F008         	goto	u1841
  1943  001158  EFB0  F008         	goto	u1840
  1944  00115C                     u1841:
  1945  00115C  EF94  F008         	goto	l2450
  1946  001160                     u1840:
  1947  001160  0E00               	movlw	0
  1948  001162  6E32               	movwf	___fldiv@aexp^0,c
  1949  001164  AE30               	btfss	(___fldiv@grs+3)^0,7,c
  1950  001166  EFB7  F008         	goto	u1851
  1951  00116A  EFB9  F008         	goto	u1850
  1952  00116E                     u1851:
  1953  00116E  EFDD  F008         	goto	l905
  1954  001172                     u1850:
  1955  001172  0EFF               	movlw	255
  1956  001174  142D               	andwf	___fldiv@grs^0,w,c
  1957  001176  6E22               	movwf	??___fldiv^0,c
  1958  001178  0EFF               	movlw	255
  1959  00117A  142E               	andwf	(___fldiv@grs+1)^0,w,c
  1960  00117C  6E23               	movwf	(??___fldiv+1)^0,c
  1961  00117E  0EFF               	movlw	255
  1962  001180  142F               	andwf	(___fldiv@grs+2)^0,w,c
  1963  001182  6E24               	movwf	(??___fldiv+2)^0,c
  1964  001184  0E7F               	movlw	127
  1965  001186  1430               	andwf	(___fldiv@grs+3)^0,w,c
  1966  001188  6E25               	movwf	(??___fldiv+3)^0,c
  1967  00118A  5022               	movf	??___fldiv^0,w,c
  1968  00118C  1023               	iorwf	(??___fldiv+1)^0,w,c
  1969  00118E  1024               	iorwf	(??___fldiv+2)^0,w,c
  1970  001190  1025               	iorwf	(??___fldiv+3)^0,w,c
  1971  001192  B4D8               	btfsc	status,2,c
  1972  001194  EFCE  F008         	goto	u1861
  1973  001198  EFD0  F008         	goto	u1860
  1974  00119C                     u1861:
  1975  00119C  EFD4  F008         	goto	l906
  1976  0011A0                     u1860:
  1977  0011A0                     l2464:
  1978  0011A0  0E01               	movlw	1
  1979  0011A2  6E32               	movwf	___fldiv@aexp^0,c
  1980  0011A4  EFDD  F008         	goto	l905
  1981  0011A8                     l906:
  1982  0011A8  A01A               	btfss	___fldiv@b^0,0,c
  1983  0011AA  EFD9  F008         	goto	u1871
  1984  0011AE  EFDB  F008         	goto	u1870
  1985  0011B2                     u1871:
  1986  0011B2  EFDD  F008         	goto	l905
  1987  0011B6                     u1870:
  1988  0011B6  EFD0  F008         	goto	l2464
  1989  0011BA                     l905:
  1990  0011BA  5032               	movf	___fldiv@aexp^0,w,c
  1991  0011BC  B4D8               	btfsc	status,2,c
  1992  0011BE  EFE3  F008         	goto	u1881
  1993  0011C2  EFE5  F008         	goto	u1880
  1994  0011C6                     u1881:
  1995  0011C6  EF09  F009         	goto	l2476
  1996  0011CA                     u1880:
  1997  0011CA  0E01               	movlw	1
  1998  0011CC  261A               	addwf	___fldiv@b^0,f,c
  1999  0011CE  0E00               	movlw	0
  2000  0011D0  221B               	addwfc	(___fldiv@b+1)^0,f,c
  2001  0011D2  221C               	addwfc	(___fldiv@b+2)^0,f,c
  2002  0011D4  221D               	addwfc	(___fldiv@b+3)^0,f,c
  2003  0011D6  A01D               	btfss	(___fldiv@b+3)^0,0,c
  2004  0011D8  EFF0  F008         	goto	u1891
  2005  0011DC  EFF2  F008         	goto	u1890
  2006  0011E0                     u1891:
  2007  0011E0  EF09  F009         	goto	l2476
  2008  0011E4                     u1890:
  2009  0011E4  C01A  F022         	movff	___fldiv@b,??___fldiv
  2010  0011E8  C01B  F023         	movff	___fldiv@b+1,??___fldiv+1
  2011  0011EC  C01C  F024         	movff	___fldiv@b+2,??___fldiv+2
  2012  0011F0  C01D  F025         	movff	___fldiv@b+3,??___fldiv+3
  2013  0011F4  3425               	rlcf	(??___fldiv+3)^0,w,c
  2014  0011F6  3225               	rrcf	(??___fldiv+3)^0,f,c
  2015  0011F8  3224               	rrcf	(??___fldiv+2)^0,f,c
  2016  0011FA  3223               	rrcf	(??___fldiv+1)^0,f,c
  2017  0011FC  3222               	rrcf	??___fldiv^0,f,c
  2018  0011FE  C022  F01A         	movff	??___fldiv,___fldiv@b
  2019  001202  C023  F01B         	movff	??___fldiv+1,___fldiv@b+1
  2020  001206  C024  F01C         	movff	??___fldiv+2,___fldiv@b+2
  2021  00120A  C025  F01D         	movff	??___fldiv+3,___fldiv@b+3
  2022  00120E  4A2B               	infsnz	___fldiv@new_exp^0,f,c
  2023  001210  2A2C               	incf	(___fldiv@new_exp+1)^0,f,c
  2024  001212                     l2476:
  2025  001212  BE2C               	btfsc	(___fldiv@new_exp+1)^0,7,c
  2026  001214  EF14  F009         	goto	u1901
  2027  001218  502C               	movf	(___fldiv@new_exp+1)^0,w,c
  2028  00121A  E108               	bnz	u1900
  2029  00121C  282B               	incf	___fldiv@new_exp^0,w,c
  2030  00121E  A0D8               	btfss	status,0,c
  2031  001220  EF14  F009         	goto	u1901
  2032  001224  EF16  F009         	goto	u1900
  2033  001228                     u1901:
  2034  001228  EF21  F009         	goto	l2480
  2035  00122C                     u1900:
  2036  00122C  0E00               	movlw	0
  2037  00122E  6E2C               	movwf	(___fldiv@new_exp+1)^0,c
  2038  001230  682B               	setf	___fldiv@new_exp^0,c
  2039  001232  0E00               	movlw	0
  2040  001234  6E1A               	movwf	___fldiv@b^0,c
  2041  001236  0E00               	movlw	0
  2042  001238  6E1B               	movwf	(___fldiv@b+1)^0,c
  2043  00123A  0E00               	movlw	0
  2044  00123C  6E1C               	movwf	(___fldiv@b+2)^0,c
  2045  00123E  0E00               	movlw	0
  2046  001240  6E1D               	movwf	(___fldiv@b+3)^0,c
  2047  001242                     l2480:
  2048  001242  BE2C               	btfsc	(___fldiv@new_exp+1)^0,7,c
  2049  001244  EF2E  F009         	goto	u1910
  2050  001248  502C               	movf	(___fldiv@new_exp+1)^0,w,c
  2051  00124A  E106               	bnz	u1911
  2052  00124C  042B               	decf	___fldiv@new_exp^0,w,c
  2053  00124E  B0D8               	btfsc	status,0,c
  2054  001250  EF2C  F009         	goto	u1911
  2055  001254  EF2E  F009         	goto	u1910
  2056  001258                     u1911:
  2057  001258  EF3C  F009         	goto	l2484
  2058  00125C                     u1910:
  2059  00125C  0E00               	movlw	0
  2060  00125E  6E2C               	movwf	(___fldiv@new_exp+1)^0,c
  2061  001260  0E00               	movlw	0
  2062  001262  6E2B               	movwf	___fldiv@new_exp^0,c
  2063  001264  0E00               	movlw	0
  2064  001266  6E1A               	movwf	___fldiv@b^0,c
  2065  001268  0E00               	movlw	0
  2066  00126A  6E1B               	movwf	(___fldiv@b+1)^0,c
  2067  00126C  0E00               	movlw	0
  2068  00126E  6E1C               	movwf	(___fldiv@b+2)^0,c
  2069  001270  0E00               	movlw	0
  2070  001272  6E1D               	movwf	(___fldiv@b+3)^0,c
  2071  001274  0E00               	movlw	0
  2072  001276  6E2A               	movwf	___fldiv@sign^0,c
  2073  001278                     l2484:
  2074  001278  C02B  F031         	movff	___fldiv@new_exp,___fldiv@bexp
  2075  00127C  A031               	btfss	___fldiv@bexp^0,0,c
  2076  00127E  EF43  F009         	goto	u1921
  2077  001282  EF45  F009         	goto	u1920
  2078  001286                     u1921:
  2079  001286  EF48  F009         	goto	l2490
  2080  00128A                     u1920:
  2081  00128A  8E1C               	bsf	(___fldiv@b+2)^0,7,c
  2082  00128C  EF49  F009         	goto	l2492
  2083  001290                     l2490:
  2084  001290  9E1C               	bcf	(___fldiv@b+2)^0,7,c
  2085  001292                     l2492:
  2086  001292  90D8               	bcf	status,0,c
  2087  001294  3031               	rrcf	___fldiv@bexp^0,w,c
  2088  001296  6E1D               	movwf	(___fldiv@b+3)^0,c
  2089  001298  EFFF  F007         	goto	l2406
  2090  00129C                     l892:
  2091  00129C  0012               	return		;funcret
  2092  00129E                     __end_of___fldiv:
  2093                           	callstack 0
  2094                           
  2095 ;; *************** function _UART_Tempreture_Output *****************
  2096 ;; Defined at:
  2097 ;;		line 117 in file "main.c"
  2098 ;; Parameters:    Size  Location     Type
  2099 ;;		None
  2100 ;; Auto vars:     Size  Location     Type
  2101 ;;		None
  2102 ;; Return value:  Size  Location     Type
  2103 ;;                  1    wreg      void 
  2104 ;; Registers used:
  2105 ;;		wreg, fsr0l, fsr0h, fsr2l, fsr2h, status,2, status,0, tblptrl, tblptrh, tblptru, prodl, prodh, cstack
  2106 ;; Tracked objects:
  2107 ;;		On entry : 0/0
  2108 ;;		On exit  : 0/0
  2109 ;;		Unchanged: 0/0
  2110 ;; Data sizes:     COMRAM   BANK0   BANK1   BANK2   BANK3   BANK4   BANK5
  2111 ;;      Params:         0       0       0       0       0       0       0
  2112 ;;      Locals:         0       0       0       0       0       0       0
  2113 ;;      Temps:          0       0       0       0       0       0       0
  2114 ;;      Totals:         0       0       0       0       0       0       0
  2115 ;;Total ram usage:        0 bytes
  2116 ;; Hardware stack levels used: 1
  2117 ;; Hardware stack levels required when called: 2
  2118 ;; This function calls:
  2119 ;;		_USART_String_Transmit
  2120 ;;		___wmul
  2121 ;;		_sprintf
  2122 ;; This function is called by:
  2123 ;;		_main
  2124 ;; This function uses a non-reentrant model
  2125 ;;
  2126                           
  2127                           	psect	text5
  2128  001950                     __ptext5:
  2129                           	callstack 0
  2130  001950                     _UART_Tempreture_Output:
  2131                           	callstack 28
  2132  001950                     
  2133                           ;main.c: 119: RAM=LM35_Reading;
  2134  001950  C047  F04F         	movff	_LM35_Reading,_RAM
  2135                           
  2136                           ;main.c: 120: whole = LM35_Reading;
  2137  001954  C047  F045         	movff	_LM35_Reading,_whole
  2138  001958  C048  F046         	movff	_LM35_Reading+1,_whole+1
  2139  00195C                     
  2140                           ;main.c: 121: decimal=(LM35_Reading-whole)*1000;
  2141  00195C  5045               	movf	_whole^0,w,c
  2142  00195E  5C47               	subwf	_LM35_Reading^0,w,c
  2143  001960  6E01               	movwf	___wmul@multiplier^0,c
  2144  001962  5046               	movf	(_whole+1)^0,w,c
  2145  001964  5848               	subwfb	(_LM35_Reading+1)^0,w,c
  2146  001966  6E02               	movwf	(___wmul@multiplier+1)^0,c
  2147  001968  0E03               	movlw	3
  2148  00196A  6E04               	movwf	(___wmul@multiplicand+1)^0,c
  2149  00196C  0EE8               	movlw	232
  2150  00196E  6E03               	movwf	___wmul@multiplicand^0,c
  2151  001970  EC06  F00E         	call	___wmul	;wreg free
  2152  001974  C001  F050         	movff	?___wmul,_decimal
  2153  001978  C002  F051         	movff	?___wmul+1,_decimal+1
  2154  00197C                     
  2155                           ;main.c: 122: if(decimal<0){decimal=(decimal*-1);}
  2156  00197C  BE51               	btfsc	(_decimal+1)^0,7,c
  2157  00197E  EFC5  F00C         	goto	u1690
  2158  001982  EFC3  F00C         	goto	u1691
  2159  001986                     u1691:
  2160  001986  EFC9  F00C         	goto	l2282
  2161  00198A                     u1690:
  2162  00198A  6C50               	negf	_decimal^0,c
  2163  00198C  1E51               	comf	(_decimal+1)^0,f,c
  2164  00198E  B0D8               	btfsc	status,0,c
  2165  001990  2A51               	incf	(_decimal+1)^0,f,c
  2166  001992                     l2282:
  2167                           
  2168                           ;main.c: 123: sprintf(xvalueASCII,"%s%3d.%01d%s","Temperature : ",whole,decimal, " Degre
      +                          es \n\r " );
  2169  001992  0E60               	movlw	low _xvalueASCII
  2170  001994  6E0D               	movwf	sprintf@sp^0,c
  2171  001996  0E00               	movlw	high _xvalueASCII
  2172  001998  6E0E               	movwf	(sprintf@sp+1)^0,c
  2173  00199A  0E27               	movlw	low STR_1
  2174  00199C  6E0F               	movwf	sprintf@f^0,c
  2175  00199E  0E06               	movlw	high STR_1
  2176  0019A0  6E10               	movwf	(sprintf@f+1)^0,c
  2177  0019A2  0E0B               	movlw	low STR_2
  2178  0019A4  6E11               	movwf	(?_sprintf+4)^0,c
  2179  0019A6  0E06               	movlw	high STR_2
  2180  0019A8  6E12               	movwf	(?_sprintf+5)^0,c
  2181  0019AA  C045  F013         	movff	_whole,?_sprintf+6
  2182  0019AE  C046  F014         	movff	_whole+1,?_sprintf+7
  2183  0019B2  C050  F015         	movff	_decimal,?_sprintf+8
  2184  0019B6  C051  F016         	movff	_decimal+1,?_sprintf+9
  2185  0019BA  0E1A               	movlw	low STR_3
  2186  0019BC  6E17               	movwf	(?_sprintf+10)^0,c
  2187  0019BE  0E06               	movlw	high STR_3
  2188  0019C0  6E18               	movwf	(?_sprintf+11)^0,c
  2189  0019C2  EC1E  F003         	call	_sprintf	;wreg free
  2190  0019C6                     
  2191                           ;main.c: 124: USART_String_Transmit(xvalueASCII);
  2192  0019C6  0E60               	movlw	low _xvalueASCII
  2193  0019C8  6E02               	movwf	USART_String_Transmit@string^0,c
  2194  0019CA  0E00               	movlw	high _xvalueASCII
  2195  0019CC  6E03               	movwf	(USART_String_Transmit@string+1)^0,c
  2196  0019CE  EC56  F00D         	call	_USART_String_Transmit	;wreg free
  2197  0019D2  0012               	return		;funcret
  2198  0019D4                     __end_of_UART_Tempreture_Output:
  2199                           	callstack 0
  2200                           
  2201 ;; *************** function _sprintf *****************
  2202 ;; Defined at:
  2203 ;;		line 505 in file "C:\Program Files\Microchip\xc8\v2.36\pic\sources\c90\common\doprnt.c"
  2204 ;; Parameters:    Size  Location     Type
  2205 ;;  sp              2   12[COMRAM] PTR unsigned char 
  2206 ;;		 -> xvalueASCII(50), 
  2207 ;;  f               2   14[COMRAM] PTR const unsigned char 
  2208 ;;		 -> STR_1(13), 
  2209 ;; Auto vars:     Size  Location     Type
  2210 ;;  tmpval          4    0        struct .
  2211 ;;  width           2   39[COMRAM] int 
  2212 ;;  len             2   35[COMRAM] unsigned int 
  2213 ;;  val             2   33[COMRAM] unsigned int 
  2214 ;;  cp              2   31[COMRAM] PTR const unsigned char 
  2215 ;;		 -> STR_4(7), ?_sprintf(2), STR_3(13), STR_2(15), 
  2216 ;;		 -> decimal(2), 
  2217 ;;  ap              2   29[COMRAM] PTR void [1]
  2218 ;;		 -> ?_sprintf(2), 
  2219 ;;  c               1   38[COMRAM] unsigned char 
  2220 ;;  flag            1   37[COMRAM] unsigned char 
  2221 ;;  prec            1   28[COMRAM] char 
  2222 ;; Return value:  Size  Location     Type
  2223 ;;                  2   12[COMRAM] int 
  2224 ;; Registers used:
  2225 ;;		wreg, fsr0l, fsr0h, fsr2l, fsr2h, status,2, status,0, tblptrl, tblptrh, tblptru, prodl, prodh, cstack
  2226 ;; Tracked objects:
  2227 ;;		On entry : 0/0
  2228 ;;		On exit  : 0/0
  2229 ;;		Unchanged: 0/0
  2230 ;; Data sizes:     COMRAM   BANK0   BANK1   BANK2   BANK3   BANK4   BANK5
  2231 ;;      Params:        12       0       0       0       0       0       0
  2232 ;;      Locals:        13       0       0       0       0       0       0
  2233 ;;      Temps:          4       0       0       0       0       0       0
  2234 ;;      Totals:        29       0       0       0       0       0       0
  2235 ;;Total ram usage:       29 bytes
  2236 ;; Hardware stack levels used: 1
  2237 ;; Hardware stack levels required when called: 1
  2238 ;; This function calls:
  2239 ;;		___lwdiv
  2240 ;;		___lwmod
  2241 ;;		___wmul
  2242 ;;		_isdigit
  2243 ;; This function is called by:
  2244 ;;		_UART_Tempreture_Output
  2245 ;; This function uses a non-reentrant model
  2246 ;;
  2247                           
  2248                           	psect	text6
  2249  00063C                     __ptext6:
  2250                           	callstack 0
  2251  00063C                     _sprintf:
  2252                           	callstack 28
  2253  00063C                     
  2254                           ;doprnt.c: 507: va_list ap;;doprnt.c: 512: char c;;doprnt.c: 514: int width;;doprnt.c: 5
      +                          21: signed char prec;;doprnt.c: 525: unsigned char flag;;doprnt.c: 540: union {;doprnt.c
      +                          : 541: unsigned long vd;;doprnt.c: 542: double integ;;doprnt.c: 543: } tmpval;;doprnt.c:
      +                           545: unsigned int val;;doprnt.c: 546: unsigned len;;doprnt.c: 547: const char * cp;;dop
      +                          rnt.c: 550: *ap = __va_start();
  2255  00063C  0E11               	movlw	low (?_sprintf+4)
  2256  00063E  6E1E               	movwf	sprintf@ap^0,c
  2257  000640  0E00               	movlw	high (?_sprintf+4)
  2258  000642  6E1F               	movwf	(sprintf@ap+1)^0,c
  2259                           
  2260                           ;doprnt.c: 553: while((c = *f++)) {
  2261  000644  EF55  F005         	goto	l2162
  2262  000648                     l2022:
  2263                           
  2264                           ;doprnt.c: 555: if(c != '%')
  2265  000648  0E25               	movlw	37
  2266  00064A  1827               	xorwf	sprintf@c^0,w,c
  2267  00064C  B4D8               	btfsc	status,2,c
  2268  00064E  EF2B  F003         	goto	u1281
  2269  000652  EF2D  F003         	goto	u1280
  2270  000656                     u1281:
  2271  000656  EF37  F003         	goto	l2028
  2272  00065A                     u1280:
  2273  00065A                     
  2274                           ;doprnt.c: 557: {;doprnt.c: 558: ((*sp++ = (c)));
  2275  00065A  C00D  FFD9         	movff	sprintf@sp,fsr2l
  2276  00065E  C00E  FFDA         	movff	sprintf@sp+1,fsr2h
  2277  000662  C027  FFDF         	movff	sprintf@c,indf2
  2278  000666  4A0D               	infsnz	sprintf@sp^0,f,c
  2279  000668  2A0E               	incf	(sprintf@sp+1)^0,f,c
  2280                           
  2281                           ;doprnt.c: 559: continue;
  2282  00066A  EF55  F005         	goto	l2162
  2283  00066E                     l2028:
  2284                           
  2285                           ;doprnt.c: 560: };doprnt.c: 563: width = 0;
  2286  00066E  0E00               	movlw	0
  2287  000670  6E29               	movwf	(sprintf@width+1)^0,c
  2288  000672  0E00               	movlw	0
  2289  000674  6E28               	movwf	sprintf@width^0,c
  2290                           
  2291                           ;doprnt.c: 565: flag = 0;
  2292  000676  0E00               	movlw	0
  2293  000678  6E26               	movwf	sprintf@flag^0,c
  2294  00067A  EF42  F003         	goto	l2034
  2295  00067E                     l2030:
  2296                           
  2297                           ;doprnt.c: 597: flag |= 0x04;
  2298  00067E  8426               	bsf	sprintf@flag^0,2,c
  2299                           
  2300                           ;doprnt.c: 598: f++;
  2301  000680  4A0F               	infsnz	sprintf@f^0,f,c
  2302  000682  2A10               	incf	(sprintf@f+1)^0,f,c
  2303  000684                     l2034:
  2304  000684  C00F  FFF6         	movff	sprintf@f,tblptrl
  2305  000688  C010  FFF7         	movff	sprintf@f+1,tblptrh
  2306  00068C                     	if	0	;tblptru may be non-zero
  2307  00068C                     	endif
  2308  00068C                     	if	0	;tblptru may be non-zero
  2309  00068C                     	endif
  2310  00068C  0008               	tblrd		*
  2311  00068E  50F5               	movf	tablat,w,c
  2312                           
  2313                           ; Switch size 1, requested type "simple"
  2314                           ; Number of cases is 1, Range of values is 48 to 48
  2315                           ; switch strategies available:
  2316                           ; Name         Instructions Cycles
  2317                           ; simple_byte            4     3 (average)
  2318                           ;	Chosen strategy is simple_byte
  2319  000690  0A30               	xorlw	48	; case 48
  2320  000692  B4D8               	btfsc	status,2,c
  2321  000694  EF3F  F003         	goto	l2030
  2322  000698  EF4E  F003         	goto	l2036
  2323  00069C                     l2036:
  2324                           
  2325                           ;doprnt.c: 614: if(isdigit((unsigned)*f)) {
  2326  00069C  C00F  FFF6         	movff	sprintf@f,tblptrl
  2327  0006A0  C010  FFF7         	movff	sprintf@f+1,tblptrh
  2328  0006A4                     	if	0	;tblptru may be non-zero
  2329  0006A4                     	endif
  2330  0006A4                     	if	0	;tblptru may be non-zero
  2331  0006A4                     	endif
  2332  0006A4  0008               	tblrd		*
  2333  0006A6  50F5               	movf	tablat,w,c
  2334  0006A8  ECD9  F00D         	call	_isdigit
  2335  0006AC  A0D8               	btfss	status,0,c
  2336  0006AE  EF5B  F003         	goto	u1291
  2337  0006B2  EF5D  F003         	goto	u1290
  2338  0006B6                     u1291:
  2339  0006B6  EF2B  F004         	goto	l2084
  2340  0006BA                     u1290:
  2341  0006BA                     
  2342                           ;doprnt.c: 615: width = 0;
  2343  0006BA  0E00               	movlw	0
  2344  0006BC  6E29               	movwf	(sprintf@width+1)^0,c
  2345  0006BE  0E00               	movlw	0
  2346  0006C0  6E28               	movwf	sprintf@width^0,c
  2347  0006C2                     l2040:
  2348                           
  2349                           ;doprnt.c: 617: width *= 10;
  2350  0006C2  C028  F001         	movff	sprintf@width,___wmul@multiplier
  2351  0006C6  C029  F002         	movff	sprintf@width+1,___wmul@multiplier+1
  2352  0006CA  0E00               	movlw	0
  2353  0006CC  6E04               	movwf	(___wmul@multiplicand+1)^0,c
  2354  0006CE  0E0A               	movlw	10
  2355  0006D0  6E03               	movwf	___wmul@multiplicand^0,c
  2356  0006D2  EC06  F00E         	call	___wmul	;wreg free
  2357  0006D6  C001  F028         	movff	?___wmul,sprintf@width
  2358  0006DA  C002  F029         	movff	?___wmul+1,sprintf@width+1
  2359  0006DE                     
  2360                           ;doprnt.c: 618: width += *f++ - '0';
  2361  0006DE  0ED0               	movlw	208
  2362  0006E0  6E19               	movwf	??_sprintf^0,c
  2363  0006E2  0EFF               	movlw	255
  2364  0006E4  6E1A               	movwf	(??_sprintf+1)^0,c
  2365  0006E6  C00F  FFF6         	movff	sprintf@f,tblptrl
  2366  0006EA  C010  FFF7         	movff	sprintf@f+1,tblptrh
  2367  0006EE                     	if	0	;tblptru may be non-zero
  2368  0006EE                     	endif
  2369  0006EE                     	if	0	;tblptru may be non-zero
  2370  0006EE                     	endif
  2371  0006EE  0008               	tblrd		*
  2372  0006F0  50F5               	movf	tablat,w,c
  2373  0006F2  6E1B               	movwf	(??_sprintf+2)^0,c
  2374  0006F4  6A1C               	clrf	(??_sprintf+3)^0,c
  2375  0006F6  5019               	movf	??_sprintf^0,w,c
  2376  0006F8  261B               	addwf	(??_sprintf+2)^0,f,c
  2377  0006FA  501A               	movf	(??_sprintf+1)^0,w,c
  2378  0006FC  221C               	addwfc	(??_sprintf+3)^0,f,c
  2379  0006FE  501B               	movf	(??_sprintf+2)^0,w,c
  2380  000700  2628               	addwf	sprintf@width^0,f,c
  2381  000702  501C               	movf	(??_sprintf+3)^0,w,c
  2382  000704  2229               	addwfc	(sprintf@width+1)^0,f,c
  2383  000706  4A0F               	infsnz	sprintf@f^0,f,c
  2384  000708  2A10               	incf	(sprintf@f+1)^0,f,c
  2385  00070A                     
  2386                           ;doprnt.c: 619: } while(isdigit((unsigned)*f));
  2387  00070A  C00F  FFF6         	movff	sprintf@f,tblptrl
  2388  00070E  C010  FFF7         	movff	sprintf@f+1,tblptrh
  2389  000712                     	if	0	;tblptru may be non-zero
  2390  000712                     	endif
  2391  000712                     	if	0	;tblptru may be non-zero
  2392  000712                     	endif
  2393  000712  0008               	tblrd		*
  2394  000714  50F5               	movf	tablat,w,c
  2395  000716  ECD9  F00D         	call	_isdigit
  2396  00071A  B0D8               	btfsc	status,0,c
  2397  00071C  EF92  F003         	goto	u1301
  2398  000720  EF94  F003         	goto	u1300
  2399  000724                     u1301:
  2400  000724  EF61  F003         	goto	l2040
  2401  000728                     u1300:
  2402  000728  EF2B  F004         	goto	l2084
  2403  00072C                     l2048:
  2404                           
  2405                           ;doprnt.c: 760: cp = (*(const char * *)__va_arg((*(const char * **)ap), (const char *)0)
      +                          );
  2406  00072C  C01E  FFD9         	movff	sprintf@ap,fsr2l
  2407  000730  C01F  FFDA         	movff	sprintf@ap+1,fsr2h
  2408  000734  CFDE F020          	movff	postinc2,sprintf@cp
  2409  000738  CFDD F021          	movff	postdec2,sprintf@cp+1
  2410  00073C  0E02               	movlw	2
  2411  00073E  261E               	addwf	sprintf@ap^0,f,c
  2412  000740  0E00               	movlw	0
  2413  000742  221F               	addwfc	(sprintf@ap+1)^0,f,c
  2414  000744                     
  2415                           ;doprnt.c: 766: if(!cp)
  2416  000744  5020               	movf	sprintf@cp^0,w,c
  2417  000746  1021               	iorwf	(sprintf@cp+1)^0,w,c
  2418  000748  A4D8               	btfss	status,2,c
  2419  00074A  EFA9  F003         	goto	u1311
  2420  00074E  EFAB  F003         	goto	u1310
  2421  000752                     u1311:
  2422  000752  EFAF  F003         	goto	l2056
  2423  000756                     u1310:
  2424  000756                     
  2425                           ;doprnt.c: 767: cp = "(null)";
  2426  000756  0E34               	movlw	low STR_4
  2427  000758  6E20               	movwf	sprintf@cp^0,c
  2428  00075A  0E06               	movlw	high STR_4
  2429  00075C  6E21               	movwf	(sprintf@cp+1)^0,c
  2430  00075E                     l2056:
  2431                           
  2432                           ;doprnt.c: 771: len = 0;
  2433  00075E  0E00               	movlw	0
  2434  000760  6E25               	movwf	(sprintf@len+1)^0,c
  2435  000762  0E00               	movlw	0
  2436  000764  6E24               	movwf	sprintf@len^0,c
  2437                           
  2438                           ;doprnt.c: 772: while(cp[len])
  2439  000766  EFB7  F003         	goto	l2060
  2440  00076A                     l2058:
  2441                           
  2442                           ;doprnt.c: 773: len++;
  2443  00076A  4A24               	infsnz	sprintf@len^0,f,c
  2444  00076C  2A25               	incf	(sprintf@len+1)^0,f,c
  2445  00076E                     l2060:
  2446  00076E  5024               	movf	sprintf@len^0,w,c
  2447  000770  2420               	addwf	sprintf@cp^0,w,c
  2448  000772  6E19               	movwf	??_sprintf^0,c
  2449  000774  5025               	movf	(sprintf@len+1)^0,w,c
  2450  000776  2021               	addwfc	(sprintf@cp+1)^0,w,c
  2451  000778  6E1A               	movwf	(??_sprintf+1)^0,c
  2452  00077A  C019  FFF6         	movff	??_sprintf,tblptrl
  2453  00077E  C01A  FFF7         	movff	??_sprintf+1,tblptrh
  2454  000782  6AF8               	clrf	tblptru,c
  2455  000784  0E05               	movlw	(high __ramtop+-1)
  2456  000786  64F7               	cpfsgt	tblptrh,c
  2457  000788  D003               	bra	u1327
  2458  00078A  0008               	tblrd		*
  2459  00078C  50F5               	movf	tablat,w,c
  2460  00078E  D005               	bra	u1320
  2461  000790                     u1327:
  2462  000790  CFF6 FFE9          	movff	tblptrl,fsr0l
  2463  000794  CFF7 FFEA          	movff	tblptrh,fsr0h
  2464  000798  50EF               	movf	indf0,w,c
  2465  00079A                     u1320:
  2466  00079A  0900               	iorlw	0
  2467  00079C  A4D8               	btfss	status,2,c
  2468  00079E  EFD3  F003         	goto	u1331
  2469  0007A2  EFD5  F003         	goto	u1330
  2470  0007A6                     u1331:
  2471  0007A6  EFB5  F003         	goto	l2058
  2472  0007AA                     u1330:
  2473  0007AA                     
  2474                           ;doprnt.c: 783: if(((unsigned)width) > len)
  2475  0007AA  5028               	movf	sprintf@width^0,w,c
  2476  0007AC  5C24               	subwf	sprintf@len^0,w,c
  2477  0007AE  5029               	movf	(sprintf@width+1)^0,w,c
  2478  0007B0  5825               	subwfb	(sprintf@len+1)^0,w,c
  2479  0007B2  B0D8               	btfsc	status,0,c
  2480  0007B4  EFDE  F003         	goto	u1341
  2481  0007B8  EFE0  F003         	goto	u1340
  2482  0007BC                     u1341:
  2483  0007BC  EFE6  F003         	goto	l2066
  2484  0007C0                     u1340:
  2485  0007C0                     
  2486                           ;doprnt.c: 784: width -= len;
  2487  0007C0  5024               	movf	sprintf@len^0,w,c
  2488  0007C2  5E28               	subwf	sprintf@width^0,f,c
  2489  0007C4  5025               	movf	(sprintf@len+1)^0,w,c
  2490  0007C6  5A29               	subwfb	(sprintf@width+1)^0,f,c
  2491  0007C8  EFF4  F003         	goto	l2072
  2492  0007CC                     l2066:
  2493                           
  2494                           ;doprnt.c: 785: else;doprnt.c: 786: width = 0;
  2495  0007CC  0E00               	movlw	0
  2496  0007CE  6E29               	movwf	(sprintf@width+1)^0,c
  2497  0007D0  0E00               	movlw	0
  2498  0007D2  6E28               	movwf	sprintf@width^0,c
  2499  0007D4  EFF4  F003         	goto	l2072
  2500  0007D8                     l2068:
  2501                           
  2502                           ;doprnt.c: 791: ((*sp++ = (' ')));
  2503  0007D8  C00D  FFD9         	movff	sprintf@sp,fsr2l
  2504  0007DC  C00E  FFDA         	movff	sprintf@sp+1,fsr2h
  2505  0007E0  0E20               	movlw	32
  2506  0007E2  6EDF               	movwf	indf2,c
  2507  0007E4  4A0D               	infsnz	sprintf@sp^0,f,c
  2508  0007E6  2A0E               	incf	(sprintf@sp+1)^0,f,c
  2509  0007E8                     l2072:
  2510  0007E8  0628               	decf	sprintf@width^0,f,c
  2511  0007EA  A0D8               	btfss	status,0,c
  2512  0007EC  0629               	decf	(sprintf@width+1)^0,f,c
  2513  0007EE  2828               	incf	sprintf@width^0,w,c
  2514  0007F0  E106               	bnz	u1351
  2515  0007F2  2829               	incf	(sprintf@width+1)^0,w,c
  2516  0007F4  A4D8               	btfss	status,2,c
  2517  0007F6  EFFF  F003         	goto	u1351
  2518  0007FA  EF01  F004         	goto	u1350
  2519  0007FE                     u1351:
  2520  0007FE  EFEC  F003         	goto	l2068
  2521  000802                     u1350:
  2522  000802  EF1C  F004         	goto	l2080
  2523  000806                     l2074:
  2524                           
  2525                           ;doprnt.c: 794: ((*sp++ = (*cp++)));
  2526  000806  C020  FFF6         	movff	sprintf@cp,tblptrl
  2527  00080A  C021  FFF7         	movff	sprintf@cp+1,tblptrh
  2528  00080E  6AF8               	clrf	tblptru,c
  2529  000810  C00D  FFD9         	movff	sprintf@sp,fsr2l
  2530  000814  C00E  FFDA         	movff	sprintf@sp+1,fsr2h
  2531  000818  0E05               	movlw	(high __ramtop+-1)
  2532  00081A  64F7               	cpfsgt	tblptrh,c
  2533  00081C  D003               	bra	u1367
  2534  00081E  0008               	tblrd		*
  2535  000820  50F5               	movf	tablat,w,c
  2536  000822  D005               	bra	u1360
  2537  000824                     u1367:
  2538  000824  CFF6 FFE9          	movff	tblptrl,fsr0l
  2539  000828  CFF7 FFEA          	movff	tblptrh,fsr0h
  2540  00082C  50EF               	movf	indf0,w,c
  2541  00082E                     u1360:
  2542  00082E  6EDF               	movwf	indf2,c
  2543  000830  4A20               	infsnz	sprintf@cp^0,f,c
  2544  000832  2A21               	incf	(sprintf@cp+1)^0,f,c
  2545  000834  4A0D               	infsnz	sprintf@sp^0,f,c
  2546  000836  2A0E               	incf	(sprintf@sp+1)^0,f,c
  2547  000838                     l2080:
  2548  000838  0624               	decf	sprintf@len^0,f,c
  2549  00083A  A0D8               	btfss	status,0,c
  2550  00083C  0625               	decf	(sprintf@len+1)^0,f,c
  2551  00083E  2824               	incf	sprintf@len^0,w,c
  2552  000840  E106               	bnz	u1371
  2553  000842  2825               	incf	(sprintf@len+1)^0,w,c
  2554  000844  A4D8               	btfss	status,2,c
  2555  000846  EF27  F004         	goto	u1371
  2556  00084A  EF29  F004         	goto	u1370
  2557  00084E                     u1371:
  2558  00084E  EF03  F004         	goto	l2074
  2559  000852                     u1370:
  2560  000852  EF55  F005         	goto	l2162
  2561  000856                     l2084:
  2562  000856  C00F  FFF6         	movff	sprintf@f,tblptrl
  2563  00085A  C010  FFF7         	movff	sprintf@f+1,tblptrh
  2564  00085E  4A0F               	infsnz	sprintf@f^0,f,c
  2565  000860  2A10               	incf	(sprintf@f+1)^0,f,c
  2566  000862                     	if	0	;tblptru may be non-zero
  2567  000862                     	endif
  2568  000862                     	if	0	;tblptru may be non-zero
  2569  000862                     	endif
  2570  000862  0008               	tblrd		*
  2571  000864  CFF5 F027          	movff	tablat,sprintf@c
  2572  000868  5027               	movf	sprintf@c^0,w,c
  2573                           
  2574                           ; Switch size 1, requested type "simple"
  2575                           ; Number of cases is 4, Range of values is 0 to 115
  2576                           ; switch strategies available:
  2577                           ; Name         Instructions Cycles
  2578                           ; simple_byte           13     7 (average)
  2579                           ;	Chosen strategy is simple_byte
  2580  00086A  0A00               	xorlw	0	; case 0
  2581  00086C  B4D8               	btfsc	status,2,c
  2582  00086E  EF66  F005         	goto	l2164
  2583  000872  0A64               	xorlw	100	; case 100
  2584  000874  B4D8               	btfsc	status,2,c
  2585  000876  EF47  F004         	goto	l2086
  2586  00087A  0A0D               	xorlw	13	; case 105
  2587  00087C  B4D8               	btfsc	status,2,c
  2588  00087E  EF47  F004         	goto	l2086
  2589  000882  0A1A               	xorlw	26	; case 115
  2590  000884  B4D8               	btfsc	status,2,c
  2591  000886  EF96  F003         	goto	l2048
  2592  00088A  EF55  F005         	goto	l2162
  2593  00088E                     l2086:
  2594                           
  2595                           ;doprnt.c: 1279: {;doprnt.c: 1285: val = (unsigned int)(*(int *)__va_arg((*(int **)ap), 
      +                          (int)0));
  2596  00088E  C01E  FFD9         	movff	sprintf@ap,fsr2l
  2597  000892  C01F  FFDA         	movff	sprintf@ap+1,fsr2h
  2598  000896  CFDE F022          	movff	postinc2,sprintf@val
  2599  00089A  CFDD F023          	movff	postdec2,sprintf@val+1
  2600  00089E  0E02               	movlw	2
  2601  0008A0  261E               	addwf	sprintf@ap^0,f,c
  2602  0008A2  0E00               	movlw	0
  2603  0008A4  221F               	addwfc	(sprintf@ap+1)^0,f,c
  2604  0008A6                     
  2605                           ;doprnt.c: 1287: if((int)val < 0) {
  2606  0008A6  BE23               	btfsc	(sprintf@val+1)^0,7,c
  2607  0008A8  EF5A  F004         	goto	u1380
  2608  0008AC  EF58  F004         	goto	u1381
  2609  0008B0                     u1381:
  2610  0008B0  EF60  F004         	goto	l2096
  2611  0008B4                     u1380:
  2612  0008B4                     
  2613                           ;doprnt.c: 1288: flag |= 0x03;
  2614  0008B4  0E03               	movlw	3
  2615  0008B6  1226               	iorwf	sprintf@flag^0,f,c
  2616  0008B8                     
  2617                           ;doprnt.c: 1289: val = -val;
  2618  0008B8  6C22               	negf	sprintf@val^0,c
  2619  0008BA  1E23               	comf	(sprintf@val+1)^0,f,c
  2620  0008BC  B0D8               	btfsc	status,0,c
  2621  0008BE  2A23               	incf	(sprintf@val+1)^0,f,c
  2622  0008C0                     l2096:
  2623                           
  2624                           ;doprnt.c: 1290: };doprnt.c: 1292: };doprnt.c: 1331: for(c = 1 ; c != sizeof dpowers/siz
      +                          eof dpowers[0] ; c++)
  2625  0008C0  0E01               	movlw	1
  2626  0008C2  6E27               	movwf	sprintf@c^0,c
  2627  0008C4                     l2102:
  2628                           
  2629                           ;doprnt.c: 1332: if(val < dpowers[c])
  2630  0008C4  5027               	movf	sprintf@c^0,w,c
  2631  0008C6  0D02               	mullw	2
  2632  0008C8  0E01               	movlw	low _dpowers
  2633  0008CA  24F3               	addwf	243,w,c
  2634  0008CC  6EF6               	movwf	tblptrl,c
  2635  0008CE  0E06               	movlw	high _dpowers
  2636  0008D0  20F4               	addwfc	244,w,c
  2637  0008D2  6EF7               	movwf	tblptrh,c
  2638  0008D4                     	if	0	;There are less than 3 active tblptr bytes
  2639  0008D4                     	endif
  2640  0008D4  0009               	tblrd		*+
  2641  0008D6  50F5               	movf	tablat,w,c
  2642  0008D8  5C22               	subwf	sprintf@val^0,w,c
  2643  0008DA  0009               	tblrd		*+
  2644  0008DC  50F5               	movf	tablat,w,c
  2645  0008DE  5823               	subwfb	(sprintf@val+1)^0,w,c
  2646  0008E0  B0D8               	btfsc	status,0,c
  2647  0008E2  EF75  F004         	goto	u1391
  2648  0008E6  EF77  F004         	goto	u1390
  2649  0008EA                     u1391:
  2650  0008EA  EF79  F004         	goto	l2106
  2651  0008EE                     u1390:
  2652  0008EE  EF83  F004         	goto	l2110
  2653  0008F2                     l2106:
  2654  0008F2  2A27               	incf	sprintf@c^0,f,c
  2655  0008F4  0E05               	movlw	5
  2656  0008F6  1827               	xorwf	sprintf@c^0,w,c
  2657  0008F8  A4D8               	btfss	status,2,c
  2658  0008FA  EF81  F004         	goto	u1401
  2659  0008FE  EF83  F004         	goto	u1400
  2660  000902                     u1401:
  2661  000902  EF62  F004         	goto	l2102
  2662  000906                     u1400:
  2663  000906                     l2110:
  2664                           
  2665                           ;doprnt.c: 1371: if(width && flag & 0x03)
  2666  000906  5028               	movf	sprintf@width^0,w,c
  2667  000908  1029               	iorwf	(sprintf@width+1)^0,w,c
  2668  00090A  B4D8               	btfsc	status,2,c
  2669  00090C  EF8A  F004         	goto	u1411
  2670  000910  EF8C  F004         	goto	u1410
  2671  000914                     u1411:
  2672  000914  EF9A  F004         	goto	l2116
  2673  000918                     u1410:
  2674  000918  C026  F019         	movff	sprintf@flag,??_sprintf
  2675  00091C  0E03               	movlw	3
  2676  00091E  1619               	andwf	??_sprintf^0,f,c
  2677  000920  B4D8               	btfsc	status,2,c
  2678  000922  EF95  F004         	goto	u1421
  2679  000926  EF97  F004         	goto	u1420
  2680  00092A                     u1421:
  2681  00092A  EF9A  F004         	goto	l2116
  2682  00092E                     u1420:
  2683  00092E                     
  2684                           ;doprnt.c: 1372: width--;
  2685  00092E  0628               	decf	sprintf@width^0,f,c
  2686  000930  A0D8               	btfss	status,0,c
  2687  000932  0629               	decf	(sprintf@width+1)^0,f,c
  2688  000934                     l2116:
  2689                           
  2690                           ;doprnt.c: 1407: if(width > c)
  2691  000934  5027               	movf	sprintf@c^0,w,c
  2692  000936  6E19               	movwf	??_sprintf^0,c
  2693  000938  6A1A               	clrf	(??_sprintf+1)^0,c
  2694  00093A  5028               	movf	sprintf@width^0,w,c
  2695  00093C  5C19               	subwf	??_sprintf^0,w,c
  2696  00093E  501A               	movf	(??_sprintf+1)^0,w,c
  2697  000940  0A80               	xorlw	128
  2698  000942  6E1B               	movwf	(??_sprintf+2)^0,c
  2699  000944  5029               	movf	(sprintf@width+1)^0,w,c
  2700  000946  0A80               	xorlw	128
  2701  000948  581B               	subwfb	(??_sprintf+2)^0,w,c
  2702  00094A  B0D8               	btfsc	status,0,c
  2703  00094C  EFAA  F004         	goto	u1431
  2704  000950  EFAC  F004         	goto	u1430
  2705  000954                     u1431:
  2706  000954  EFB2  F004         	goto	l2120
  2707  000958                     u1430:
  2708  000958                     
  2709                           ;doprnt.c: 1408: width -= c;
  2710  000958  5027               	movf	sprintf@c^0,w,c
  2711  00095A  5E28               	subwf	sprintf@width^0,f,c
  2712  00095C  0E00               	movlw	0
  2713  00095E  5A29               	subwfb	(sprintf@width+1)^0,f,c
  2714  000960  EFB6  F004         	goto	l2122
  2715  000964                     l2120:
  2716                           
  2717                           ;doprnt.c: 1409: else;doprnt.c: 1410: width = 0;
  2718  000964  0E00               	movlw	0
  2719  000966  6E29               	movwf	(sprintf@width+1)^0,c
  2720  000968  0E00               	movlw	0
  2721  00096A  6E28               	movwf	sprintf@width^0,c
  2722  00096C                     l2122:
  2723                           
  2724                           ;doprnt.c: 1413: if(flag & 0x04) {
  2725  00096C  A426               	btfss	sprintf@flag^0,2,c
  2726  00096E  EFBB  F004         	goto	u1441
  2727  000972  EFBD  F004         	goto	u1440
  2728  000976                     u1441:
  2729  000976  EFEF  F004         	goto	l2138
  2730  00097A                     u1440:
  2731  00097A                     
  2732                           ;doprnt.c: 1418: if(flag & 0x03)
  2733  00097A  C026  F019         	movff	sprintf@flag,??_sprintf
  2734  00097E  0E03               	movlw	3
  2735  000980  1619               	andwf	??_sprintf^0,f,c
  2736  000982  B4D8               	btfsc	status,2,c
  2737  000984  EFC6  F004         	goto	u1451
  2738  000988  EFC8  F004         	goto	u1450
  2739  00098C                     u1451:
  2740  00098C  EFD0  F004         	goto	l2130
  2741  000990                     u1450:
  2742  000990                     
  2743                           ;doprnt.c: 1419: ((*sp++ = ('-')));
  2744  000990  C00D  FFD9         	movff	sprintf@sp,fsr2l
  2745  000994  C00E  FFDA         	movff	sprintf@sp+1,fsr2h
  2746  000998  0E2D               	movlw	45
  2747  00099A  6EDF               	movwf	indf2,c
  2748  00099C  4A0D               	infsnz	sprintf@sp^0,f,c
  2749  00099E  2A0E               	incf	(sprintf@sp+1)^0,f,c
  2750  0009A0                     l2130:
  2751                           
  2752                           ;doprnt.c: 1441: if(width)
  2753  0009A0  5028               	movf	sprintf@width^0,w,c
  2754  0009A2  1029               	iorwf	(sprintf@width+1)^0,w,c
  2755  0009A4  B4D8               	btfsc	status,2,c
  2756  0009A6  EFD7  F004         	goto	u1461
  2757  0009AA  EFD9  F004         	goto	u1460
  2758  0009AE                     u1461:
  2759  0009AE  EF1F  F005         	goto	l2152
  2760  0009B2                     u1460:
  2761  0009B2                     l2132:
  2762                           
  2763                           ;doprnt.c: 1443: ((*sp++ = ('0')));
  2764  0009B2  C00D  FFD9         	movff	sprintf@sp,fsr2l
  2765  0009B6  C00E  FFDA         	movff	sprintf@sp+1,fsr2h
  2766  0009BA  0E30               	movlw	48
  2767  0009BC  6EDF               	movwf	indf2,c
  2768  0009BE  4A0D               	infsnz	sprintf@sp^0,f,c
  2769  0009C0  2A0E               	incf	(sprintf@sp+1)^0,f,c
  2770  0009C2                     
  2771                           ;doprnt.c: 1444: while(--width);
  2772  0009C2  0628               	decf	sprintf@width^0,f,c
  2773  0009C4  A0D8               	btfss	status,0,c
  2774  0009C6  0629               	decf	(sprintf@width+1)^0,f,c
  2775  0009C8  5028               	movf	sprintf@width^0,w,c
  2776  0009CA  1029               	iorwf	(sprintf@width+1)^0,w,c
  2777  0009CC  A4D8               	btfss	status,2,c
  2778  0009CE  EFEB  F004         	goto	u1471
  2779  0009D2  EFED  F004         	goto	u1470
  2780  0009D6                     u1471:
  2781  0009D6  EFD9  F004         	goto	l2132
  2782  0009DA                     u1470:
  2783  0009DA  EF1F  F005         	goto	l2152
  2784  0009DE                     l2138:
  2785                           
  2786                           ;doprnt.c: 1448: {;doprnt.c: 1450: if(width;doprnt.c: 1454: )
  2787  0009DE  5028               	movf	sprintf@width^0,w,c
  2788  0009E0  1029               	iorwf	(sprintf@width+1)^0,w,c
  2789  0009E2  B4D8               	btfsc	status,2,c
  2790  0009E4  EFF6  F004         	goto	u1481
  2791  0009E8  EFF8  F004         	goto	u1480
  2792  0009EC                     u1481:
  2793  0009EC  EF0C  F005         	goto	l2146
  2794  0009F0                     u1480:
  2795  0009F0                     l2140:
  2796                           
  2797                           ;doprnt.c: 1456: ((*sp++ = (' ')));
  2798  0009F0  C00D  FFD9         	movff	sprintf@sp,fsr2l
  2799  0009F4  C00E  FFDA         	movff	sprintf@sp+1,fsr2h
  2800  0009F8  0E20               	movlw	32
  2801  0009FA  6EDF               	movwf	indf2,c
  2802  0009FC  4A0D               	infsnz	sprintf@sp^0,f,c
  2803  0009FE  2A0E               	incf	(sprintf@sp+1)^0,f,c
  2804  000A00                     
  2805                           ;doprnt.c: 1457: while(--width);
  2806  000A00  0628               	decf	sprintf@width^0,f,c
  2807  000A02  A0D8               	btfss	status,0,c
  2808  000A04  0629               	decf	(sprintf@width+1)^0,f,c
  2809  000A06  5028               	movf	sprintf@width^0,w,c
  2810  000A08  1029               	iorwf	(sprintf@width+1)^0,w,c
  2811  000A0A  A4D8               	btfss	status,2,c
  2812  000A0C  EF0A  F005         	goto	u1491
  2813  000A10  EF0C  F005         	goto	u1490
  2814  000A14                     u1491:
  2815  000A14  EFF8  F004         	goto	l2140
  2816  000A18                     u1490:
  2817  000A18                     l2146:
  2818                           
  2819                           ;doprnt.c: 1464: if(flag & 0x03)
  2820  000A18  C026  F019         	movff	sprintf@flag,??_sprintf
  2821  000A1C  0E03               	movlw	3
  2822  000A1E  1619               	andwf	??_sprintf^0,f,c
  2823  000A20  B4D8               	btfsc	status,2,c
  2824  000A22  EF15  F005         	goto	u1501
  2825  000A26  EF17  F005         	goto	u1500
  2826  000A2A                     u1501:
  2827  000A2A  EF1F  F005         	goto	l2152
  2828  000A2E                     u1500:
  2829  000A2E                     
  2830                           ;doprnt.c: 1465: ((*sp++ = ('-')));
  2831  000A2E  C00D  FFD9         	movff	sprintf@sp,fsr2l
  2832  000A32  C00E  FFDA         	movff	sprintf@sp+1,fsr2h
  2833  000A36  0E2D               	movlw	45
  2834  000A38  6EDF               	movwf	indf2,c
  2835  000A3A  4A0D               	infsnz	sprintf@sp^0,f,c
  2836  000A3C  2A0E               	incf	(sprintf@sp+1)^0,f,c
  2837  000A3E                     l2152:
  2838                           
  2839                           ;doprnt.c: 1495: };doprnt.c: 1498: prec = c;
  2840  000A3E  C027  F01D         	movff	sprintf@c,sprintf@prec
  2841                           
  2842                           ;doprnt.c: 1500: while(prec--) {
  2843  000A42  EF4C  F005         	goto	l2160
  2844  000A46                     l2154:
  2845                           
  2846                           ;doprnt.c: 1504: {;doprnt.c: 1515: c = (val / dpowers[(unsigned char)prec]) % 10 + '0';
  2847  000A46  501D               	movf	sprintf@prec^0,w,c
  2848  000A48  0D02               	mullw	2
  2849  000A4A  0E01               	movlw	low _dpowers
  2850  000A4C  24F3               	addwf	243,w,c
  2851  000A4E  6EF6               	movwf	tblptrl,c
  2852  000A50  0E06               	movlw	high _dpowers
  2853  000A52  20F4               	addwfc	244,w,c
  2854  000A54  6EF7               	movwf	tblptrh,c
  2855  000A56                     	if	0	;There are less than 3 active tblptr bytes
  2856  000A56                     	endif
  2857  000A56  0009               	tblrd		*+
  2858  000A58  CFF5 F003          	movff	tablat,___lwdiv@divisor
  2859  000A5C  000A               	tblrd		*-
  2860  000A5E  CFF5 F004          	movff	tablat,___lwdiv@divisor+1
  2861  000A62  C022  F001         	movff	sprintf@val,___lwdiv@dividend
  2862  000A66  C023  F002         	movff	sprintf@val+1,___lwdiv@dividend+1
  2863  000A6A  ECEA  F00C         	call	___lwdiv	;wreg free
  2864  000A6E  C001  F008         	movff	?___lwdiv,___lwmod@dividend
  2865  000A72  C002  F009         	movff	?___lwdiv+1,___lwmod@dividend+1
  2866  000A76  0E00               	movlw	0
  2867  000A78  6E0B               	movwf	(___lwmod@divisor+1)^0,c
  2868  000A7A  0E0A               	movlw	10
  2869  000A7C  6E0A               	movwf	___lwmod@divisor^0,c
  2870  000A7E  EC24  F00D         	call	___lwmod	;wreg free
  2871  000A82  5008               	movf	?___lwmod^0,w,c
  2872  000A84  0F30               	addlw	48
  2873  000A86  6E27               	movwf	sprintf@c^0,c
  2874  000A88                     
  2875                           ;doprnt.c: 1549: };doprnt.c: 1550: ((*sp++ = (c)));
  2876  000A88  C00D  FFD9         	movff	sprintf@sp,fsr2l
  2877  000A8C  C00E  FFDA         	movff	sprintf@sp+1,fsr2h
  2878  000A90  C027  FFDF         	movff	sprintf@c,indf2
  2879  000A94  4A0D               	infsnz	sprintf@sp^0,f,c
  2880  000A96  2A0E               	incf	(sprintf@sp+1)^0,f,c
  2881  000A98                     l2160:
  2882  000A98  061D               	decf	sprintf@prec^0,f,c
  2883  000A9A  281D               	incf	sprintf@prec^0,w,c
  2884  000A9C  A4D8               	btfss	status,2,c
  2885  000A9E  EF53  F005         	goto	u1511
  2886  000AA2  EF55  F005         	goto	u1510
  2887  000AA6                     u1511:
  2888  000AA6  EF23  F005         	goto	l2154
  2889  000AAA                     u1510:
  2890  000AAA                     l2162:
  2891  000AAA  C00F  FFF6         	movff	sprintf@f,tblptrl
  2892  000AAE  C010  FFF7         	movff	sprintf@f+1,tblptrh
  2893  000AB2  4A0F               	infsnz	sprintf@f^0,f,c
  2894  000AB4  2A10               	incf	(sprintf@f+1)^0,f,c
  2895  000AB6                     	if	0	;tblptru may be non-zero
  2896  000AB6                     	endif
  2897  000AB6                     	if	0	;tblptru may be non-zero
  2898  000AB6                     	endif
  2899  000AB6  0008               	tblrd		*
  2900  000AB8  CFF5 F027          	movff	tablat,sprintf@c
  2901  000ABC  5027               	movf	sprintf@c^0,w,c
  2902  000ABE  A4D8               	btfss	status,2,c
  2903  000AC0  EF64  F005         	goto	u1521
  2904  000AC4  EF66  F005         	goto	u1520
  2905  000AC8                     u1521:
  2906  000AC8  EF24  F003         	goto	l2022
  2907  000ACC                     u1520:
  2908  000ACC                     l2164:
  2909                           
  2910                           ;doprnt.c: 1564: *sp = 0;
  2911  000ACC  C00D  FFD9         	movff	sprintf@sp,fsr2l
  2912  000AD0  C00E  FFDA         	movff	sprintf@sp+1,fsr2h
  2913  000AD4  0E00               	movlw	0
  2914  000AD6  6EDF               	movwf	indf2,c
  2915  000AD8  0012               	return		;funcret
  2916  000ADA                     __end_of_sprintf:
  2917                           	callstack 0
  2918                           
  2919 ;; *************** function _isdigit *****************
  2920 ;; Defined at:
  2921 ;;		line 8 in file "C:\Program Files\Microchip\xc8\v2.36\pic\sources\c90\common\isdigit.c"
  2922 ;; Parameters:    Size  Location     Type
  2923 ;;  c               1    wreg     unsigned char 
  2924 ;; Auto vars:     Size  Location     Type
  2925 ;;  c               1    2[COMRAM] unsigned char 
  2926 ;; Return value:  Size  Location     Type
  2927 ;;		None               void
  2928 ;; Registers used:
  2929 ;;		wreg, status,2, status,0
  2930 ;; Tracked objects:
  2931 ;;		On entry : 0/0
  2932 ;;		On exit  : 0/0
  2933 ;;		Unchanged: 0/0
  2934 ;; Data sizes:     COMRAM   BANK0   BANK1   BANK2   BANK3   BANK4   BANK5
  2935 ;;      Params:         0       0       0       0       0       0       0
  2936 ;;      Locals:         2       0       0       0       0       0       0
  2937 ;;      Temps:          1       0       0       0       0       0       0
  2938 ;;      Totals:         3       0       0       0       0       0       0
  2939 ;;Total ram usage:        3 bytes
  2940 ;; Hardware stack levels used: 1
  2941 ;; This function calls:
  2942 ;;		Nothing
  2943 ;; This function is called by:
  2944 ;;		_sprintf
  2945 ;; This function uses a non-reentrant model
  2946 ;;
  2947                           
  2948                           	psect	text7
  2949  001BB2                     __ptext7:
  2950                           	callstack 0
  2951  001BB2                     _isdigit:
  2952                           	callstack 28
  2953                           
  2954                           ;incstack = 0
  2955                           ;isdigit@c stored from wreg
  2956  001BB2  6E03               	movwf	isdigit@c^0,c
  2957  001BB4  0E00               	movlw	0
  2958  001BB6  6E02               	movwf	_isdigit$1111^0,c
  2959  001BB8  0E3A               	movlw	58
  2960  001BBA  6003               	cpfslt	isdigit@c^0,c
  2961  001BBC  EFE2  F00D         	goto	u1201
  2962  001BC0  EFE4  F00D         	goto	u1200
  2963  001BC4                     u1201:
  2964  001BC4  EFEE  F00D         	goto	l1952
  2965  001BC8                     u1200:
  2966  001BC8  0E2F               	movlw	47
  2967  001BCA  6403               	cpfsgt	isdigit@c^0,c
  2968  001BCC  EFEA  F00D         	goto	u1211
  2969  001BD0  EFEC  F00D         	goto	u1210
  2970  001BD4                     u1211:
  2971  001BD4  EFEE  F00D         	goto	l1952
  2972  001BD8                     u1210:
  2973  001BD8  0E01               	movlw	1
  2974  001BDA  6E02               	movwf	_isdigit$1111^0,c
  2975  001BDC                     l1952:
  2976  001BDC  C002  F001         	movff	_isdigit$1111,??_isdigit
  2977  001BE0  3001               	rrcf	??_isdigit^0,w,c
  2978  001BE2  0012               	return		;funcret
  2979  001BE4                     __end_of_isdigit:
  2980                           	callstack 0
  2981                           
  2982 ;; *************** function ___lwmod *****************
  2983 ;; Defined at:
  2984 ;;		line 7 in file "C:\Program Files\Microchip\xc8\v2.36\pic\sources\c90\common\lwmod.c"
  2985 ;; Parameters:    Size  Location     Type
  2986 ;;  dividend        2    7[COMRAM] unsigned int 
  2987 ;;  divisor         2    9[COMRAM] unsigned int 
  2988 ;; Auto vars:     Size  Location     Type
  2989 ;;  counter         1   11[COMRAM] unsigned char 
  2990 ;; Return value:  Size  Location     Type
  2991 ;;                  2    7[COMRAM] unsigned int 
  2992 ;; Registers used:
  2993 ;;		wreg, status,2, status,0
  2994 ;; Tracked objects:
  2995 ;;		On entry : 0/0
  2996 ;;		On exit  : 0/0
  2997 ;;		Unchanged: 0/0
  2998 ;; Data sizes:     COMRAM   BANK0   BANK1   BANK2   BANK3   BANK4   BANK5
  2999 ;;      Params:         4       0       0       0       0       0       0
  3000 ;;      Locals:         1       0       0       0       0       0       0
  3001 ;;      Temps:          0       0       0       0       0       0       0
  3002 ;;      Totals:         5       0       0       0       0       0       0
  3003 ;;Total ram usage:        5 bytes
  3004 ;; Hardware stack levels used: 1
  3005 ;; This function calls:
  3006 ;;		Nothing
  3007 ;; This function is called by:
  3008 ;;		_sprintf
  3009 ;; This function uses a non-reentrant model
  3010 ;;
  3011                           
  3012                           	psect	text8
  3013  001A48                     __ptext8:
  3014                           	callstack 0
  3015  001A48                     ___lwmod:
  3016                           	callstack 28
  3017  001A48  500A               	movf	___lwmod@divisor^0,w,c
  3018  001A4A  100B               	iorwf	(___lwmod@divisor+1)^0,w,c
  3019  001A4C  B4D8               	btfsc	status,2,c
  3020  001A4E  EF2B  F00D         	goto	u1251
  3021  001A52  EF2D  F00D         	goto	u1250
  3022  001A56                     u1251:
  3023  001A56  EF51  F00D         	goto	l811
  3024  001A5A                     u1250:
  3025  001A5A  0E01               	movlw	1
  3026  001A5C  6E0C               	movwf	___lwmod@counter^0,c
  3027  001A5E  EF35  F00D         	goto	l1990
  3028  001A62                     l1988:
  3029  001A62  90D8               	bcf	status,0,c
  3030  001A64  360A               	rlcf	___lwmod@divisor^0,f,c
  3031  001A66  360B               	rlcf	(___lwmod@divisor+1)^0,f,c
  3032  001A68  2A0C               	incf	___lwmod@counter^0,f,c
  3033  001A6A                     l1990:
  3034  001A6A  AE0B               	btfss	(___lwmod@divisor+1)^0,7,c
  3035  001A6C  EF3A  F00D         	goto	u1261
  3036  001A70  EF3C  F00D         	goto	u1260
  3037  001A74                     u1261:
  3038  001A74  EF31  F00D         	goto	l1988
  3039  001A78                     u1260:
  3040  001A78                     l1992:
  3041  001A78  500A               	movf	___lwmod@divisor^0,w,c
  3042  001A7A  5C08               	subwf	___lwmod@dividend^0,w,c
  3043  001A7C  500B               	movf	(___lwmod@divisor+1)^0,w,c
  3044  001A7E  5809               	subwfb	(___lwmod@dividend+1)^0,w,c
  3045  001A80  A0D8               	btfss	status,0,c
  3046  001A82  EF45  F00D         	goto	u1271
  3047  001A86  EF47  F00D         	goto	u1270
  3048  001A8A                     u1271:
  3049  001A8A  EF4B  F00D         	goto	l1996
  3050  001A8E                     u1270:
  3051  001A8E  500A               	movf	___lwmod@divisor^0,w,c
  3052  001A90  5E08               	subwf	___lwmod@dividend^0,f,c
  3053  001A92  500B               	movf	(___lwmod@divisor+1)^0,w,c
  3054  001A94  5A09               	subwfb	(___lwmod@dividend+1)^0,f,c
  3055  001A96                     l1996:
  3056  001A96  90D8               	bcf	status,0,c
  3057  001A98  320B               	rrcf	(___lwmod@divisor+1)^0,f,c
  3058  001A9A  320A               	rrcf	___lwmod@divisor^0,f,c
  3059  001A9C  2E0C               	decfsz	___lwmod@counter^0,f,c
  3060  001A9E  EF3C  F00D         	goto	l1992
  3061  001AA2                     l811:
  3062  001AA2  C008  F008         	movff	___lwmod@dividend,?___lwmod
  3063  001AA6  C009  F009         	movff	___lwmod@dividend+1,?___lwmod+1
  3064  001AAA  0012               	return		;funcret
  3065  001AAC                     __end_of___lwmod:
  3066                           	callstack 0
  3067                           
  3068 ;; *************** function ___lwdiv *****************
  3069 ;; Defined at:
  3070 ;;		line 7 in file "C:\Program Files\Microchip\xc8\v2.36\pic\sources\c90\common\lwdiv.c"
  3071 ;; Parameters:    Size  Location     Type
  3072 ;;  dividend        2    0[COMRAM] unsigned int 
  3073 ;;  divisor         2    2[COMRAM] unsigned int 
  3074 ;; Auto vars:     Size  Location     Type
  3075 ;;  quotient        2    4[COMRAM] unsigned int 
  3076 ;;  counter         1    6[COMRAM] unsigned char 
  3077 ;; Return value:  Size  Location     Type
  3078 ;;                  2    0[COMRAM] unsigned int 
  3079 ;; Registers used:
  3080 ;;		wreg, status,2, status,0
  3081 ;; Tracked objects:
  3082 ;;		On entry : 0/0
  3083 ;;		On exit  : 0/0
  3084 ;;		Unchanged: 0/0
  3085 ;; Data sizes:     COMRAM   BANK0   BANK1   BANK2   BANK3   BANK4   BANK5
  3086 ;;      Params:         4       0       0       0       0       0       0
  3087 ;;      Locals:         3       0       0       0       0       0       0
  3088 ;;      Temps:          0       0       0       0       0       0       0
  3089 ;;      Totals:         7       0       0       0       0       0       0
  3090 ;;Total ram usage:        7 bytes
  3091 ;; Hardware stack levels used: 1
  3092 ;; This function calls:
  3093 ;;		Nothing
  3094 ;; This function is called by:
  3095 ;;		_sprintf
  3096 ;; This function uses a non-reentrant model
  3097 ;;
  3098                           
  3099                           	psect	text9
  3100  0019D4                     __ptext9:
  3101                           	callstack 0
  3102  0019D4                     ___lwdiv:
  3103                           	callstack 28
  3104  0019D4  0E00               	movlw	0
  3105  0019D6  6E06               	movwf	(___lwdiv@quotient+1)^0,c
  3106  0019D8  0E00               	movlw	0
  3107  0019DA  6E05               	movwf	___lwdiv@quotient^0,c
  3108  0019DC  5003               	movf	___lwdiv@divisor^0,w,c
  3109  0019DE  1004               	iorwf	(___lwdiv@divisor+1)^0,w,c
  3110  0019E0  B4D8               	btfsc	status,2,c
  3111  0019E2  EFF5  F00C         	goto	u1221
  3112  0019E6  EFF7  F00C         	goto	u1220
  3113  0019EA                     u1221:
  3114  0019EA  EF1F  F00D         	goto	l801
  3115  0019EE                     u1220:
  3116  0019EE  0E01               	movlw	1
  3117  0019F0  6E07               	movwf	___lwdiv@counter^0,c
  3118  0019F2  EFFF  F00C         	goto	l1970
  3119  0019F6                     l1968:
  3120  0019F6  90D8               	bcf	status,0,c
  3121  0019F8  3603               	rlcf	___lwdiv@divisor^0,f,c
  3122  0019FA  3604               	rlcf	(___lwdiv@divisor+1)^0,f,c
  3123  0019FC  2A07               	incf	___lwdiv@counter^0,f,c
  3124  0019FE                     l1970:
  3125  0019FE  AE04               	btfss	(___lwdiv@divisor+1)^0,7,c
  3126  001A00  EF04  F00D         	goto	u1231
  3127  001A04  EF06  F00D         	goto	u1230
  3128  001A08                     u1231:
  3129  001A08  EFFB  F00C         	goto	l1968
  3130  001A0C                     u1230:
  3131  001A0C                     l1972:
  3132  001A0C  90D8               	bcf	status,0,c
  3133  001A0E  3605               	rlcf	___lwdiv@quotient^0,f,c
  3134  001A10  3606               	rlcf	(___lwdiv@quotient+1)^0,f,c
  3135  001A12  5003               	movf	___lwdiv@divisor^0,w,c
  3136  001A14  5C01               	subwf	___lwdiv@dividend^0,w,c
  3137  001A16  5004               	movf	(___lwdiv@divisor+1)^0,w,c
  3138  001A18  5802               	subwfb	(___lwdiv@dividend+1)^0,w,c
  3139  001A1A  A0D8               	btfss	status,0,c
  3140  001A1C  EF12  F00D         	goto	u1241
  3141  001A20  EF14  F00D         	goto	u1240
  3142  001A24                     u1241:
  3143  001A24  EF19  F00D         	goto	l1980
  3144  001A28                     u1240:
  3145  001A28  5003               	movf	___lwdiv@divisor^0,w,c
  3146  001A2A  5E01               	subwf	___lwdiv@dividend^0,f,c
  3147  001A2C  5004               	movf	(___lwdiv@divisor+1)^0,w,c
  3148  001A2E  5A02               	subwfb	(___lwdiv@dividend+1)^0,f,c
  3149  001A30  8005               	bsf	___lwdiv@quotient^0,0,c
  3150  001A32                     l1980:
  3151  001A32  90D8               	bcf	status,0,c
  3152  001A34  3204               	rrcf	(___lwdiv@divisor+1)^0,f,c
  3153  001A36  3203               	rrcf	___lwdiv@divisor^0,f,c
  3154  001A38  2E07               	decfsz	___lwdiv@counter^0,f,c
  3155  001A3A  EF06  F00D         	goto	l1972
  3156  001A3E                     l801:
  3157  001A3E  C005  F001         	movff	___lwdiv@quotient,?___lwdiv
  3158  001A42  C006  F002         	movff	___lwdiv@quotient+1,?___lwdiv+1
  3159  001A46  0012               	return		;funcret
  3160  001A48                     __end_of___lwdiv:
  3161                           	callstack 0
  3162                           
  3163 ;; *************** function _USART_String_Transmit *****************
  3164 ;; Defined at:
  3165 ;;		line 129 in file "main.c"
  3166 ;; Parameters:    Size  Location     Type
  3167 ;;  string          2    1[COMRAM] PTR unsigned char 
  3168 ;;		 -> xvalueASCII(50), 
  3169 ;; Auto vars:     Size  Location     Type
  3170 ;;		None
  3171 ;; Return value:  Size  Location     Type
  3172 ;;                  1    wreg      void 
  3173 ;; Registers used:
  3174 ;;		wreg, fsr2l, fsr2h, status,2, status,0, cstack
  3175 ;; Tracked objects:
  3176 ;;		On entry : 0/0
  3177 ;;		On exit  : 0/0
  3178 ;;		Unchanged: 0/0
  3179 ;; Data sizes:     COMRAM   BANK0   BANK1   BANK2   BANK3   BANK4   BANK5
  3180 ;;      Params:         2       0       0       0       0       0       0
  3181 ;;      Locals:         0       0       0       0       0       0       0
  3182 ;;      Temps:          0       0       0       0       0       0       0
  3183 ;;      Totals:         2       0       0       0       0       0       0
  3184 ;;Total ram usage:        2 bytes
  3185 ;; Hardware stack levels used: 1
  3186 ;; Hardware stack levels required when called: 1
  3187 ;; This function calls:
  3188 ;;		_EUSART_Write
  3189 ;;		_EUSART_is_tx_done
  3190 ;;		_EUSART_is_tx_ready
  3191 ;; This function is called by:
  3192 ;;		_UART_Tempreture_Output
  3193 ;; This function uses a non-reentrant model
  3194 ;;
  3195                           
  3196                           	psect	text10
  3197  001AAC                     __ptext10:
  3198                           	callstack 0
  3199  001AAC                     _USART_String_Transmit:
  3200                           	callstack 28
  3201  001AAC                     l2170:
  3202  001AAC  ECF2  F00D         	call	_EUSART_is_tx_ready	;wreg free
  3203  001AB0  0900               	iorlw	0
  3204  001AB2  B4D8               	btfsc	status,2,c
  3205  001AB4  EF5E  F00D         	goto	u1531
  3206  001AB8  EF60  F00D         	goto	u1530
  3207  001ABC                     u1531:
  3208  001ABC  EF56  F00D         	goto	l2170
  3209  001AC0                     u1530:
  3210  001AC0  EF6B  F00D         	goto	l2176
  3211  001AC4                     l2172:
  3212                           
  3213                           ;main.c: 133: EUSART_Write(*string++);
  3214  001AC4  C002  FFD9         	movff	USART_String_Transmit@string,fsr2l
  3215  001AC8  C003  FFDA         	movff	USART_String_Transmit@string+1,fsr2h
  3216  001ACC  50DF               	movf	indf2,w,c
  3217  001ACE  EC2A  F00E         	call	_EUSART_Write
  3218  001AD2  4A02               	infsnz	USART_String_Transmit@string^0,f,c
  3219  001AD4  2A03               	incf	(USART_String_Transmit@string+1)^0,f,c
  3220  001AD6                     l2176:
  3221  001AD6  C002  FFD9         	movff	USART_String_Transmit@string,fsr2l
  3222  001ADA  C003  FFDA         	movff	USART_String_Transmit@string+1,fsr2h
  3223  001ADE  50DF               	movf	indf2,w,c
  3224  001AE0  A4D8               	btfss	status,2,c
  3225  001AE2  EF75  F00D         	goto	u1541
  3226  001AE6  EF77  F00D         	goto	u1540
  3227  001AEA                     u1541:
  3228  001AEA  EF62  F00D         	goto	l2172
  3229  001AEE                     u1540:
  3230  001AEE                     l2178:
  3231  001AEE  EC40  F00E         	call	_EUSART_is_tx_done	;wreg free
  3232  001AF2  0900               	iorlw	0
  3233  001AF4  B4D8               	btfsc	status,2,c
  3234  001AF6  EF7F  F00D         	goto	u1551
  3235  001AFA  EF81  F00D         	goto	u1550
  3236  001AFE                     u1551:
  3237  001AFE  EF77  F00D         	goto	l2178
  3238  001B02                     u1550:
  3239  001B02  0012               	return		;funcret
  3240  001B04                     __end_of_USART_String_Transmit:
  3241                           	callstack 0
  3242                           
  3243 ;; *************** function _EUSART_is_tx_ready *****************
  3244 ;; Defined at:
  3245 ;;		line 94 in file "mcc_generated_files/eusart.c"
  3246 ;; Parameters:    Size  Location     Type
  3247 ;;		None
  3248 ;; Auto vars:     Size  Location     Type
  3249 ;;		None
  3250 ;; Return value:  Size  Location     Type
  3251 ;;                  1    wreg      unsigned char 
  3252 ;; Registers used:
  3253 ;;		wreg, status,2
  3254 ;; Tracked objects:
  3255 ;;		On entry : 0/0
  3256 ;;		On exit  : 0/0
  3257 ;;		Unchanged: 0/0
  3258 ;; Data sizes:     COMRAM   BANK0   BANK1   BANK2   BANK3   BANK4   BANK5
  3259 ;;      Params:         0       0       0       0       0       0       0
  3260 ;;      Locals:         1       0       0       0       0       0       0
  3261 ;;      Temps:          0       0       0       0       0       0       0
  3262 ;;      Totals:         1       0       0       0       0       0       0
  3263 ;;Total ram usage:        1 bytes
  3264 ;; Hardware stack levels used: 1
  3265 ;; This function calls:
  3266 ;;		Nothing
  3267 ;; This function is called by:
  3268 ;;		_USART_String_Transmit
  3269 ;; This function uses a non-reentrant model
  3270 ;;
  3271                           
  3272                           	psect	text11
  3273  001BE4                     __ptext11:
  3274                           	callstack 0
  3275  001BE4                     _EUSART_is_tx_ready:
  3276                           	callstack 28
  3277  001BE4                     
  3278                           ;eusart.c: 96: return (bool)(PIR1bits.TX1IF && TXSTAbits.TXEN);
  3279  001BE4  0E00               	movlw	0
  3280  001BE6  6E01               	movwf	_EUSART_is_tx_ready$327^0,c
  3281  001BE8  A89E               	btfss	158,4,c	;volatile
  3282  001BEA  EFF9  F00D         	goto	u1161
  3283  001BEE  EFFB  F00D         	goto	u1160
  3284  001BF2                     u1161:
  3285  001BF2  EF04  F00E         	goto	l87
  3286  001BF6                     u1160:
  3287  001BF6  AAAC               	btfss	172,5,c	;volatile
  3288  001BF8  EF00  F00E         	goto	u1171
  3289  001BFC  EF02  F00E         	goto	u1170
  3290  001C00                     u1171:
  3291  001C00  EF04  F00E         	goto	l87
  3292  001C04                     u1170:
  3293  001C04  0E01               	movlw	1
  3294  001C06  6E01               	movwf	_EUSART_is_tx_ready$327^0,c
  3295  001C08                     l87:
  3296  001C08  5001               	movf	_EUSART_is_tx_ready$327^0,w,c
  3297  001C0A  0012               	return		;funcret
  3298  001C0C                     __end_of_EUSART_is_tx_ready:
  3299                           	callstack 0
  3300                           
  3301 ;; *************** function _EUSART_is_tx_done *****************
  3302 ;; Defined at:
  3303 ;;		line 104 in file "mcc_generated_files/eusart.c"
  3304 ;; Parameters:    Size  Location     Type
  3305 ;;		None
  3306 ;; Auto vars:     Size  Location     Type
  3307 ;;		None
  3308 ;; Return value:  Size  Location     Type
  3309 ;;                  1    wreg      unsigned char 
  3310 ;; Registers used:
  3311 ;;		wreg
  3312 ;; Tracked objects:
  3313 ;;		On entry : 0/0
  3314 ;;		On exit  : 0/0
  3315 ;;		Unchanged: 0/0
  3316 ;; Data sizes:     COMRAM   BANK0   BANK1   BANK2   BANK3   BANK4   BANK5
  3317 ;;      Params:         0       0       0       0       0       0       0
  3318 ;;      Locals:         0       0       0       0       0       0       0
  3319 ;;      Temps:          0       0       0       0       0       0       0
  3320 ;;      Totals:         0       0       0       0       0       0       0
  3321 ;;Total ram usage:        0 bytes
  3322 ;; Hardware stack levels used: 1
  3323 ;; This function calls:
  3324 ;;		Nothing
  3325 ;; This function is called by:
  3326 ;;		_USART_String_Transmit
  3327 ;; This function uses a non-reentrant model
  3328 ;;
  3329                           
  3330                           	psect	text12
  3331  001C80                     __ptext12:
  3332                           	callstack 0
  3333  001C80                     _EUSART_is_tx_done:
  3334                           	callstack 28
  3335  001C80                     
  3336                           ;eusart.c: 106: return TXSTAbits.TRMT;
  3337  001C80  B2AC               	btfsc	172,1,c	;volatile
  3338  001C82  EF45  F00E         	goto	u1181
  3339  001C86  EF48  F00E         	goto	u1180
  3340  001C8A                     u1181:
  3341  001C8A  0E01               	movlw	1
  3342  001C8C  EF49  F00E         	goto	u1186
  3343  001C90                     u1180:
  3344  001C90  0E00               	movlw	0
  3345  001C92                     u1186:
  3346  001C92  0012               	return		;funcret
  3347  001C94                     __end_of_EUSART_is_tx_done:
  3348                           	callstack 0
  3349                           
  3350 ;; *************** function _EUSART_Write *****************
  3351 ;; Defined at:
  3352 ;;		line 132 in file "mcc_generated_files/eusart.c"
  3353 ;; Parameters:    Size  Location     Type
  3354 ;;  txData          1    wreg     unsigned char 
  3355 ;; Auto vars:     Size  Location     Type
  3356 ;;  txData          1    0[COMRAM] unsigned char 
  3357 ;; Return value:  Size  Location     Type
  3358 ;;                  1    wreg      void 
  3359 ;; Registers used:
  3360 ;;		wreg
  3361 ;; Tracked objects:
  3362 ;;		On entry : 0/0
  3363 ;;		On exit  : 0/0
  3364 ;;		Unchanged: 0/0
  3365 ;; Data sizes:     COMRAM   BANK0   BANK1   BANK2   BANK3   BANK4   BANK5
  3366 ;;      Params:         0       0       0       0       0       0       0
  3367 ;;      Locals:         1       0       0       0       0       0       0
  3368 ;;      Temps:          0       0       0       0       0       0       0
  3369 ;;      Totals:         1       0       0       0       0       0       0
  3370 ;;Total ram usage:        1 bytes
  3371 ;; Hardware stack levels used: 1
  3372 ;; This function calls:
  3373 ;;		Nothing
  3374 ;; This function is called by:
  3375 ;;		_USART_String_Transmit
  3376 ;; This function uses a non-reentrant model
  3377 ;;
  3378                           
  3379                           	psect	text13
  3380  001C54                     __ptext13:
  3381                           	callstack 0
  3382  001C54                     _EUSART_Write:
  3383                           	callstack 28
  3384                           
  3385                           ;incstack = 0
  3386                           ;EUSART_Write@txData stored from wreg
  3387  001C54  6E01               	movwf	EUSART_Write@txData^0,c
  3388  001C56                     l107:
  3389  001C56  A89E               	btfss	158,4,c	;volatile
  3390  001C58  EF30  F00E         	goto	u1191
  3391  001C5C  EF32  F00E         	goto	u1190
  3392  001C60                     u1191:
  3393  001C60  EF2B  F00E         	goto	l107
  3394  001C64                     u1190:
  3395  001C64                     
  3396                           ;eusart.c: 136: };eusart.c: 138: TXREG = txData;
  3397  001C64  C001  FFAD         	movff	EUSART_Write@txData,4013	;volatile
  3398  001C68  0012               	return		;funcret
  3399  001C6A                     __end_of_EUSART_Write:
  3400                           	callstack 0
  3401                           
  3402 ;; *************** function _Seven_Segment_Tempreture_Output *****************
  3403 ;; Defined at:
  3404 ;;		line 71 in file "main.c"
  3405 ;; Parameters:    Size  Location     Type
  3406 ;;		None
  3407 ;; Auto vars:     Size  Location     Type
  3408 ;;		None
  3409 ;; Return value:  Size  Location     Type
  3410 ;;                  1    wreg      void 
  3411 ;; Registers used:
  3412 ;;		wreg, status,2, status,0, prodl, prodh, cstack
  3413 ;; Tracked objects:
  3414 ;;		On entry : 0/0
  3415 ;;		On exit  : 0/0
  3416 ;;		Unchanged: 0/0
  3417 ;; Data sizes:     COMRAM   BANK0   BANK1   BANK2   BANK3   BANK4   BANK5
  3418 ;;      Params:         0       0       0       0       0       0       0
  3419 ;;      Locals:         2       0       0       0       0       0       0
  3420 ;;      Temps:          2       0       0       0       0       0       0
  3421 ;;      Totals:         4       0       0       0       0       0       0
  3422 ;;Total ram usage:        4 bytes
  3423 ;; Hardware stack levels used: 1
  3424 ;; Hardware stack levels required when called: 1
  3425 ;; This function calls:
  3426 ;;		___awdiv
  3427 ;;		___awmod
  3428 ;;		___wmul
  3429 ;; This function is called by:
  3430 ;;		_main
  3431 ;; This function uses a non-reentrant model
  3432 ;;
  3433                           
  3434                           	psect	text14
  3435  001452                     __ptext14:
  3436                           	callstack 0
  3437  001452                     _Seven_Segment_Tempreture_Output:
  3438                           	callstack 29
  3439  001452                     
  3440                           ;main.c: 73: LATDbits.LATD0 = 1;
  3441  001452  808C               	bsf	140,0,c	;volatile
  3442  001454                     
  3443                           ;main.c: 75: First_Digit = ((LM35_Reading*10) % 100)%10;
  3444  001454  0E00               	movlw	0
  3445  001456  6E0A               	movwf	(___awmod@divisor+1)^0,c
  3446  001458  0E64               	movlw	100
  3447  00145A  6E09               	movwf	___awmod@divisor^0,c
  3448  00145C  C047  F001         	movff	_LM35_Reading,___wmul@multiplier
  3449  001460  C048  F002         	movff	_LM35_Reading+1,___wmul@multiplier+1
  3450  001464  0E00               	movlw	0
  3451  001466  6E04               	movwf	(___wmul@multiplicand+1)^0,c
  3452  001468  0E0A               	movlw	10
  3453  00146A  6E03               	movwf	___wmul@multiplicand^0,c
  3454  00146C  EC06  F00E         	call	___wmul	;wreg free
  3455  001470  C001  F007         	movff	?___wmul,___awmod@dividend
  3456  001474  C002  F008         	movff	?___wmul+1,___awmod@dividend+1
  3457  001478  EC50  F00C         	call	___awmod	;wreg free
  3458  00147C  C007  F017         	movff	?___awmod,_Seven_Segment_Tempreture_Output$1327
  3459  001480  C008  F018         	movff	?___awmod+1,_Seven_Segment_Tempreture_Output$1327+1
  3460  001484                     
  3461                           ;main.c: 75: First_Digit = ((LM35_Reading*10) % 100)%10;
  3462  001484  C017  F007         	movff	_Seven_Segment_Tempreture_Output$1327,___awmod@dividend
  3463  001488  C018  F008         	movff	_Seven_Segment_Tempreture_Output$1327+1,___awmod@dividend+1
  3464  00148C  0E00               	movlw	0
  3465  00148E  6E0A               	movwf	(___awmod@divisor+1)^0,c
  3466  001490  0E0A               	movlw	10
  3467  001492  6E09               	movwf	___awmod@divisor^0,c
  3468  001494  EC50  F00C         	call	___awmod	;wreg free
  3469  001498  5007               	movf	?___awmod^0,w,c
  3470  00149A  6E57               	movwf	_First_Digit^0,c
  3471  00149C                     
  3472                           ;main.c: 76: RAM = LATB;
  3473  00149C  CF8A F04F          	movff	3978,_RAM	;volatile
  3474  0014A0                     
  3475                           ;main.c: 77: LATB = First_Digit | (RAM&=0xF0) ;
  3476  0014A0  0EF0               	movlw	240
  3477  0014A2  164F               	andwf	_RAM^0,f,c
  3478  0014A4  504F               	movf	_RAM^0,w,c
  3479  0014A6  1057               	iorwf	_First_Digit^0,w,c
  3480  0014A8  6E8A               	movwf	138,c	;volatile
  3481  0014AA                     
  3482                           ;main.c: 78: LATAbits.LATA1 = 1;
  3483  0014AA  8289               	bsf	137,1,c	;volatile
  3484  0014AC                     
  3485                           ;main.c: 79: LATAbits.LATA2 = !1;
  3486  0014AC  9489               	bcf	137,2,c	;volatile
  3487  0014AE                     
  3488                           ;main.c: 80: LATAbits.LATA3 = !1;
  3489  0014AE  9689               	bcf	137,3,c	;volatile
  3490  0014B0                     
  3491                           ;main.c: 81: LATAbits.LATA5 = !1;
  3492  0014B0  9A89               	bcf	137,5,c	;volatile
  3493  0014B2                     
  3494                           ;main.c: 82: LATDbits.LATD0 = 1;
  3495  0014B2  808C               	bsf	140,0,c	;volatile
  3496  0014B4                     
  3497                           ;main.c: 83: _delay((unsigned long)((100)*(20000000/4000.0)));
  3498  0014B4  0E03               	movlw	3
  3499  0014B6  6E16               	movwf	(??_Seven_Segment_Tempreture_Output+1)^0,c
  3500  0014B8  0E8A               	movlw	138
  3501  0014BA  6E15               	movwf	??_Seven_Segment_Tempreture_Output^0,c
  3502  0014BC  0E56               	movlw	86
  3503  0014BE                     u2297:
  3504  0014BE  2EE8               	decfsz	wreg,f,c
  3505  0014C0  D7FE               	bra	u2297
  3506  0014C2  2E15               	decfsz	??_Seven_Segment_Tempreture_Output^0,f,c
  3507  0014C4  D7FC               	bra	u2297
  3508  0014C6  2E16               	decfsz	(??_Seven_Segment_Tempreture_Output+1)^0,f,c
  3509  0014C8  D7FA               	bra	u2297
  3510  0014CA                     
  3511                           ;main.c: 85: Second_Digit = ((LM35_Reading*10) % 100)/10;
  3512  0014CA  0E00               	movlw	0
  3513  0014CC  6E0A               	movwf	(___awmod@divisor+1)^0,c
  3514  0014CE  0E64               	movlw	100
  3515  0014D0  6E09               	movwf	___awmod@divisor^0,c
  3516  0014D2  C047  F001         	movff	_LM35_Reading,___wmul@multiplier
  3517  0014D6  C048  F002         	movff	_LM35_Reading+1,___wmul@multiplier+1
  3518  0014DA  0E00               	movlw	0
  3519  0014DC  6E04               	movwf	(___wmul@multiplicand+1)^0,c
  3520  0014DE  0E0A               	movlw	10
  3521  0014E0  6E03               	movwf	___wmul@multiplicand^0,c
  3522  0014E2  EC06  F00E         	call	___wmul	;wreg free
  3523  0014E6  C001  F007         	movff	?___wmul,___awmod@dividend
  3524  0014EA  C002  F008         	movff	?___wmul+1,___awmod@dividend+1
  3525  0014EE  EC50  F00C         	call	___awmod	;wreg free
  3526  0014F2  C007  F00D         	movff	?___awmod,___awdiv@dividend
  3527  0014F6  C008  F00E         	movff	?___awmod+1,___awdiv@dividend+1
  3528  0014FA  0E00               	movlw	0
  3529  0014FC  6E10               	movwf	(___awdiv@divisor+1)^0,c
  3530  0014FE  0E0A               	movlw	10
  3531  001500  6E0F               	movwf	___awdiv@divisor^0,c
  3532  001502  ECEE  F00B         	call	___awdiv	;wreg free
  3533  001506  500D               	movf	?___awdiv^0,w,c
  3534  001508  6E56               	movwf	_Second_Digit^0,c
  3535  00150A                     
  3536                           ;main.c: 86: RAM = LATB;
  3537  00150A  CF8A F04F          	movff	3978,_RAM	;volatile
  3538  00150E                     
  3539                           ;main.c: 87: LATB = Second_Digit | (RAM&=0xF0) ;
  3540  00150E  0EF0               	movlw	240
  3541  001510  164F               	andwf	_RAM^0,f,c
  3542  001512  504F               	movf	_RAM^0,w,c
  3543  001514  1056               	iorwf	_Second_Digit^0,w,c
  3544  001516  6E8A               	movwf	138,c	;volatile
  3545  001518                     
  3546                           ;main.c: 88: LATAbits.LATA1 = !1;
  3547  001518  9289               	bcf	137,1,c	;volatile
  3548  00151A                     
  3549                           ;main.c: 89: LATAbits.LATA2 = 1;
  3550  00151A  8489               	bsf	137,2,c	;volatile
  3551  00151C                     
  3552                           ;main.c: 90: LATAbits.LATA3 = !1;
  3553  00151C  9689               	bcf	137,3,c	;volatile
  3554  00151E                     
  3555                           ;main.c: 91: LATAbits.LATA5 = !1;
  3556  00151E  9A89               	bcf	137,5,c	;volatile
  3557  001520                     
  3558                           ;main.c: 92: LATDbits.LATD0 = !1;
  3559  001520  908C               	bcf	140,0,c	;volatile
  3560  001522                     
  3561                           ;main.c: 93: _delay((unsigned long)((100)*(20000000/4000.0)));
  3562  001522  0E03               	movlw	3
  3563  001524  6E16               	movwf	(??_Seven_Segment_Tempreture_Output+1)^0,c
  3564  001526  0E8A               	movlw	138
  3565  001528  6E15               	movwf	??_Seven_Segment_Tempreture_Output^0,c
  3566  00152A  0E56               	movlw	86
  3567  00152C                     u2307:
  3568  00152C  2EE8               	decfsz	wreg,f,c
  3569  00152E  D7FE               	bra	u2307
  3570  001530  2E15               	decfsz	??_Seven_Segment_Tempreture_Output^0,f,c
  3571  001532  D7FC               	bra	u2307
  3572  001534  2E16               	decfsz	(??_Seven_Segment_Tempreture_Output+1)^0,f,c
  3573  001536  D7FA               	bra	u2307
  3574  001538                     
  3575                           ;main.c: 95: Third_Digit = ((LM35_Reading*10) % 1000)/100;
  3576  001538  0E03               	movlw	3
  3577  00153A  6E0A               	movwf	(___awmod@divisor+1)^0,c
  3578  00153C  0EE8               	movlw	232
  3579  00153E  6E09               	movwf	___awmod@divisor^0,c
  3580  001540  C047  F001         	movff	_LM35_Reading,___wmul@multiplier
  3581  001544  C048  F002         	movff	_LM35_Reading+1,___wmul@multiplier+1
  3582  001548  0E00               	movlw	0
  3583  00154A  6E04               	movwf	(___wmul@multiplicand+1)^0,c
  3584  00154C  0E0A               	movlw	10
  3585  00154E  6E03               	movwf	___wmul@multiplicand^0,c
  3586  001550  EC06  F00E         	call	___wmul	;wreg free
  3587  001554  C001  F007         	movff	?___wmul,___awmod@dividend
  3588  001558  C002  F008         	movff	?___wmul+1,___awmod@dividend+1
  3589  00155C  EC50  F00C         	call	___awmod	;wreg free
  3590  001560  C007  F00D         	movff	?___awmod,___awdiv@dividend
  3591  001564  C008  F00E         	movff	?___awmod+1,___awdiv@dividend+1
  3592  001568  0E00               	movlw	0
  3593  00156A  6E10               	movwf	(___awdiv@divisor+1)^0,c
  3594  00156C  0E64               	movlw	100
  3595  00156E  6E0F               	movwf	___awdiv@divisor^0,c
  3596  001570  ECEE  F00B         	call	___awdiv	;wreg free
  3597  001574  500D               	movf	?___awdiv^0,w,c
  3598  001576  6E55               	movwf	_Third_Digit^0,c
  3599  001578                     
  3600                           ;main.c: 96: RAM = LATB;
  3601  001578  CF8A F04F          	movff	3978,_RAM	;volatile
  3602  00157C                     
  3603                           ;main.c: 97: LATB = Third_Digit | (RAM&=0xF0);
  3604  00157C  0EF0               	movlw	240
  3605  00157E  164F               	andwf	_RAM^0,f,c
  3606  001580  504F               	movf	_RAM^0,w,c
  3607  001582  1055               	iorwf	_Third_Digit^0,w,c
  3608  001584  6E8A               	movwf	138,c	;volatile
  3609  001586                     
  3610                           ;main.c: 98: LATAbits.LATA1 = !1;
  3611  001586  9289               	bcf	137,1,c	;volatile
  3612  001588                     
  3613                           ;main.c: 99: LATAbits.LATA2 = !1;
  3614  001588  9489               	bcf	137,2,c	;volatile
  3615  00158A                     
  3616                           ;main.c: 100: LATAbits.LATA3 = 1;
  3617  00158A  8689               	bsf	137,3,c	;volatile
  3618  00158C                     
  3619                           ;main.c: 101: LATAbits.LATA5 = !1;
  3620  00158C  9A89               	bcf	137,5,c	;volatile
  3621  00158E                     
  3622                           ;main.c: 102: LATDbits.LATD0 = 1;
  3623  00158E  808C               	bsf	140,0,c	;volatile
  3624  001590                     
  3625                           ;main.c: 103: _delay((unsigned long)((100)*(20000000/4000.0)));
  3626  001590  0E03               	movlw	3
  3627  001592  6E16               	movwf	(??_Seven_Segment_Tempreture_Output+1)^0,c
  3628  001594  0E8A               	movlw	138
  3629  001596  6E15               	movwf	??_Seven_Segment_Tempreture_Output^0,c
  3630  001598  0E56               	movlw	86
  3631  00159A                     u2317:
  3632  00159A  2EE8               	decfsz	wreg,f,c
  3633  00159C  D7FE               	bra	u2317
  3634  00159E  2E15               	decfsz	??_Seven_Segment_Tempreture_Output^0,f,c
  3635  0015A0  D7FC               	bra	u2317
  3636  0015A2  2E16               	decfsz	(??_Seven_Segment_Tempreture_Output+1)^0,f,c
  3637  0015A4  D7FA               	bra	u2317
  3638  0015A6                     
  3639                           ;main.c: 105: Fourth_Digit = (LM35_Reading*10) / 1000;
  3640  0015A6  C047  F001         	movff	_LM35_Reading,___wmul@multiplier
  3641  0015AA  C048  F002         	movff	_LM35_Reading+1,___wmul@multiplier+1
  3642  0015AE  0E00               	movlw	0
  3643  0015B0  6E04               	movwf	(___wmul@multiplicand+1)^0,c
  3644  0015B2  0E0A               	movlw	10
  3645  0015B4  6E03               	movwf	___wmul@multiplicand^0,c
  3646  0015B6  EC06  F00E         	call	___wmul	;wreg free
  3647  0015BA  C001  F00D         	movff	?___wmul,___awdiv@dividend
  3648  0015BE  C002  F00E         	movff	?___wmul+1,___awdiv@dividend+1
  3649  0015C2  0E03               	movlw	3
  3650  0015C4  6E10               	movwf	(___awdiv@divisor+1)^0,c
  3651  0015C6  0EE8               	movlw	232
  3652  0015C8  6E0F               	movwf	___awdiv@divisor^0,c
  3653  0015CA  ECEE  F00B         	call	___awdiv	;wreg free
  3654  0015CE  500D               	movf	?___awdiv^0,w,c
  3655  0015D0  6E54               	movwf	_Fourth_Digit^0,c
  3656  0015D2                     
  3657                           ;main.c: 106: RAM = LATB;
  3658  0015D2  CF8A F04F          	movff	3978,_RAM	;volatile
  3659  0015D6                     
  3660                           ;main.c: 107: LATB = Fourth_Digit | (RAM&=0xF0);
  3661  0015D6  0EF0               	movlw	240
  3662  0015D8  164F               	andwf	_RAM^0,f,c
  3663  0015DA  504F               	movf	_RAM^0,w,c
  3664  0015DC  1054               	iorwf	_Fourth_Digit^0,w,c
  3665  0015DE  6E8A               	movwf	138,c	;volatile
  3666  0015E0                     
  3667                           ;main.c: 108: LATAbits.LATA1 = !1;
  3668  0015E0  9289               	bcf	137,1,c	;volatile
  3669  0015E2                     
  3670                           ;main.c: 109: LATAbits.LATA2 = !1;
  3671  0015E2  9489               	bcf	137,2,c	;volatile
  3672  0015E4                     
  3673                           ;main.c: 110: LATAbits.LATA3 = !1;
  3674  0015E4  9689               	bcf	137,3,c	;volatile
  3675  0015E6                     
  3676                           ;main.c: 111: LATAbits.LATA5 = 1;
  3677  0015E6  8A89               	bsf	137,5,c	;volatile
  3678  0015E8                     
  3679                           ;main.c: 112: LATDbits.LATD0 = 1;
  3680  0015E8  808C               	bsf	140,0,c	;volatile
  3681  0015EA                     
  3682                           ;main.c: 113: _delay((unsigned long)((100)*(20000000/4000.0)));
  3683  0015EA  0E03               	movlw	3
  3684  0015EC  6E16               	movwf	(??_Seven_Segment_Tempreture_Output+1)^0,c
  3685  0015EE  0E8A               	movlw	138
  3686  0015F0  6E15               	movwf	??_Seven_Segment_Tempreture_Output^0,c
  3687  0015F2  0E56               	movlw	86
  3688  0015F4                     u2327:
  3689  0015F4  2EE8               	decfsz	wreg,f,c
  3690  0015F6  D7FE               	bra	u2327
  3691  0015F8  2E15               	decfsz	??_Seven_Segment_Tempreture_Output^0,f,c
  3692  0015FA  D7FC               	bra	u2327
  3693  0015FC  2E16               	decfsz	(??_Seven_Segment_Tempreture_Output+1)^0,f,c
  3694  0015FE  D7FA               	bra	u2327
  3695  001600  0012               	return		;funcret
  3696  001602                     __end_of_Seven_Segment_Tempreture_Output:
  3697                           	callstack 0
  3698                           
  3699 ;; *************** function ___wmul *****************
  3700 ;; Defined at:
  3701 ;;		line 15 in file "C:\Program Files\Microchip\xc8\v2.36\pic\sources\c90\common\Umul16.c"
  3702 ;; Parameters:    Size  Location     Type
  3703 ;;  multiplier      2    0[COMRAM] unsigned int 
  3704 ;;  multiplicand    2    2[COMRAM] unsigned int 
  3705 ;; Auto vars:     Size  Location     Type
  3706 ;;  product         2    4[COMRAM] unsigned int 
  3707 ;; Return value:  Size  Location     Type
  3708 ;;                  2    0[COMRAM] unsigned int 
  3709 ;; Registers used:
  3710 ;;		wreg, status,2, status,0, prodl, prodh
  3711 ;; Tracked objects:
  3712 ;;		On entry : 0/0
  3713 ;;		On exit  : 0/0
  3714 ;;		Unchanged: 0/0
  3715 ;; Data sizes:     COMRAM   BANK0   BANK1   BANK2   BANK3   BANK4   BANK5
  3716 ;;      Params:         4       0       0       0       0       0       0
  3717 ;;      Locals:         2       0       0       0       0       0       0
  3718 ;;      Temps:          0       0       0       0       0       0       0
  3719 ;;      Totals:         6       0       0       0       0       0       0
  3720 ;;Total ram usage:        6 bytes
  3721 ;; Hardware stack levels used: 1
  3722 ;; This function calls:
  3723 ;;		Nothing
  3724 ;; This function is called by:
  3725 ;;		_Seven_Segment_Tempreture_Output
  3726 ;;		_UART_Tempreture_Output
  3727 ;;		_sprintf
  3728 ;; This function uses a non-reentrant model
  3729 ;;
  3730                           
  3731                           	psect	text15
  3732  001C0C                     __ptext15:
  3733                           	callstack 0
  3734  001C0C                     ___wmul:
  3735                           	callstack 28
  3736  001C0C  5001               	movf	___wmul@multiplier^0,w,c
  3737  001C0E  0203               	mulwf	___wmul@multiplicand^0,c
  3738  001C10  CFF3 F005          	movff	prodl,___wmul@product
  3739  001C14  CFF4 F006          	movff	prodh,___wmul@product+1
  3740  001C18  5001               	movf	___wmul@multiplier^0,w,c
  3741  001C1A  0204               	mulwf	(___wmul@multiplicand+1)^0,c
  3742  001C1C  50F3               	movf	243,w,c
  3743  001C1E  2606               	addwf	(___wmul@product+1)^0,f,c
  3744  001C20  5002               	movf	(___wmul@multiplier+1)^0,w,c
  3745  001C22  0203               	mulwf	___wmul@multiplicand^0,c
  3746  001C24  50F3               	movf	243,w,c
  3747  001C26  2606               	addwf	(___wmul@product+1)^0,f,c
  3748  001C28  C005  F001         	movff	___wmul@product,?___wmul
  3749  001C2C  C006  F002         	movff	___wmul@product+1,?___wmul+1
  3750  001C30  0012               	return		;funcret
  3751  001C32                     __end_of___wmul:
  3752                           	callstack 0
  3753                           
  3754 ;; *************** function ___awmod *****************
  3755 ;; Defined at:
  3756 ;;		line 7 in file "C:\Program Files\Microchip\xc8\v2.36\pic\sources\c90\common\awmod.c"
  3757 ;; Parameters:    Size  Location     Type
  3758 ;;  dividend        2    6[COMRAM] int 
  3759 ;;  divisor         2    8[COMRAM] int 
  3760 ;; Auto vars:     Size  Location     Type
  3761 ;;  sign            1   11[COMRAM] unsigned char 
  3762 ;;  counter         1   10[COMRAM] unsigned char 
  3763 ;; Return value:  Size  Location     Type
  3764 ;;                  2    6[COMRAM] int 
  3765 ;; Registers used:
  3766 ;;		wreg, status,2, status,0
  3767 ;; Tracked objects:
  3768 ;;		On entry : 0/0
  3769 ;;		On exit  : 0/0
  3770 ;;		Unchanged: 0/0
  3771 ;; Data sizes:     COMRAM   BANK0   BANK1   BANK2   BANK3   BANK4   BANK5
  3772 ;;      Params:         4       0       0       0       0       0       0
  3773 ;;      Locals:         2       0       0       0       0       0       0
  3774 ;;      Temps:          0       0       0       0       0       0       0
  3775 ;;      Totals:         6       0       0       0       0       0       0
  3776 ;;Total ram usage:        6 bytes
  3777 ;; Hardware stack levels used: 1
  3778 ;; This function calls:
  3779 ;;		Nothing
  3780 ;; This function is called by:
  3781 ;;		_Seven_Segment_Tempreture_Output
  3782 ;; This function uses a non-reentrant model
  3783 ;;
  3784                           
  3785                           	psect	text16
  3786  0018A0                     __ptext16:
  3787                           	callstack 0
  3788  0018A0                     ___awmod:
  3789                           	callstack 29
  3790  0018A0  0E00               	movlw	0
  3791  0018A2  6E0C               	movwf	___awmod@sign^0,c
  3792  0018A4  BE08               	btfsc	(___awmod@dividend+1)^0,7,c
  3793  0018A6  EF59  F00C         	goto	u1620
  3794  0018AA  EF57  F00C         	goto	u1621
  3795  0018AE                     u1621:
  3796  0018AE  EF5F  F00C         	goto	l2232
  3797  0018B2                     u1620:
  3798  0018B2  6C07               	negf	___awmod@dividend^0,c
  3799  0018B4  1E08               	comf	(___awmod@dividend+1)^0,f,c
  3800  0018B6  B0D8               	btfsc	status,0,c
  3801  0018B8  2A08               	incf	(___awmod@dividend+1)^0,f,c
  3802  0018BA  0E01               	movlw	1
  3803  0018BC  6E0C               	movwf	___awmod@sign^0,c
  3804  0018BE                     l2232:
  3805  0018BE  BE0A               	btfsc	(___awmod@divisor+1)^0,7,c
  3806  0018C0  EF66  F00C         	goto	u1630
  3807  0018C4  EF64  F00C         	goto	u1631
  3808  0018C8                     u1631:
  3809  0018C8  EF6A  F00C         	goto	l2236
  3810  0018CC                     u1630:
  3811  0018CC  6C09               	negf	___awmod@divisor^0,c
  3812  0018CE  1E0A               	comf	(___awmod@divisor+1)^0,f,c
  3813  0018D0  B0D8               	btfsc	status,0,c
  3814  0018D2  2A0A               	incf	(___awmod@divisor+1)^0,f,c
  3815  0018D4                     l2236:
  3816  0018D4  5009               	movf	___awmod@divisor^0,w,c
  3817  0018D6  100A               	iorwf	(___awmod@divisor+1)^0,w,c
  3818  0018D8  B4D8               	btfsc	status,2,c
  3819  0018DA  EF71  F00C         	goto	u1641
  3820  0018DE  EF73  F00C         	goto	u1640
  3821  0018E2                     u1641:
  3822  0018E2  EF97  F00C         	goto	l2252
  3823  0018E6                     u1640:
  3824  0018E6  0E01               	movlw	1
  3825  0018E8  6E0B               	movwf	___awmod@counter^0,c
  3826  0018EA  EF7B  F00C         	goto	l2242
  3827  0018EE                     l2240:
  3828  0018EE  90D8               	bcf	status,0,c
  3829  0018F0  3609               	rlcf	___awmod@divisor^0,f,c
  3830  0018F2  360A               	rlcf	(___awmod@divisor+1)^0,f,c
  3831  0018F4  2A0B               	incf	___awmod@counter^0,f,c
  3832  0018F6                     l2242:
  3833  0018F6  AE0A               	btfss	(___awmod@divisor+1)^0,7,c
  3834  0018F8  EF80  F00C         	goto	u1651
  3835  0018FC  EF82  F00C         	goto	u1650
  3836  001900                     u1651:
  3837  001900  EF77  F00C         	goto	l2240
  3838  001904                     u1650:
  3839  001904                     l2244:
  3840  001904  5009               	movf	___awmod@divisor^0,w,c
  3841  001906  5C07               	subwf	___awmod@dividend^0,w,c
  3842  001908  500A               	movf	(___awmod@divisor+1)^0,w,c
  3843  00190A  5808               	subwfb	(___awmod@dividend+1)^0,w,c
  3844  00190C  A0D8               	btfss	status,0,c
  3845  00190E  EF8B  F00C         	goto	u1661
  3846  001912  EF8D  F00C         	goto	u1660
  3847  001916                     u1661:
  3848  001916  EF91  F00C         	goto	l2248
  3849  00191A                     u1660:
  3850  00191A  5009               	movf	___awmod@divisor^0,w,c
  3851  00191C  5E07               	subwf	___awmod@dividend^0,f,c
  3852  00191E  500A               	movf	(___awmod@divisor+1)^0,w,c
  3853  001920  5A08               	subwfb	(___awmod@dividend+1)^0,f,c
  3854  001922                     l2248:
  3855  001922  90D8               	bcf	status,0,c
  3856  001924  320A               	rrcf	(___awmod@divisor+1)^0,f,c
  3857  001926  3209               	rrcf	___awmod@divisor^0,f,c
  3858  001928  2E0B               	decfsz	___awmod@counter^0,f,c
  3859  00192A  EF82  F00C         	goto	l2244
  3860  00192E                     l2252:
  3861  00192E  500C               	movf	___awmod@sign^0,w,c
  3862  001930  B4D8               	btfsc	status,2,c
  3863  001932  EF9D  F00C         	goto	u1671
  3864  001936  EF9F  F00C         	goto	u1670
  3865  00193A                     u1671:
  3866  00193A  EFA3  F00C         	goto	l2256
  3867  00193E                     u1670:
  3868  00193E  6C07               	negf	___awmod@dividend^0,c
  3869  001940  1E08               	comf	(___awmod@dividend+1)^0,f,c
  3870  001942  B0D8               	btfsc	status,0,c
  3871  001944  2A08               	incf	(___awmod@dividend+1)^0,f,c
  3872  001946                     l2256:
  3873  001946  C007  F007         	movff	___awmod@dividend,?___awmod
  3874  00194A  C008  F008         	movff	___awmod@dividend+1,?___awmod+1
  3875  00194E  0012               	return		;funcret
  3876  001950                     __end_of___awmod:
  3877                           	callstack 0
  3878                           
  3879 ;; *************** function ___awdiv *****************
  3880 ;; Defined at:
  3881 ;;		line 7 in file "C:\Program Files\Microchip\xc8\v2.36\pic\sources\c90\common\awdiv.c"
  3882 ;; Parameters:    Size  Location     Type
  3883 ;;  dividend        2   12[COMRAM] int 
  3884 ;;  divisor         2   14[COMRAM] int 
  3885 ;; Auto vars:     Size  Location     Type
  3886 ;;  quotient        2   18[COMRAM] int 
  3887 ;;  sign            1   17[COMRAM] unsigned char 
  3888 ;;  counter         1   16[COMRAM] unsigned char 
  3889 ;; Return value:  Size  Location     Type
  3890 ;;                  2   12[COMRAM] int 
  3891 ;; Registers used:
  3892 ;;		wreg, status,2, status,0
  3893 ;; Tracked objects:
  3894 ;;		On entry : 0/0
  3895 ;;		On exit  : 0/0
  3896 ;;		Unchanged: 0/0
  3897 ;; Data sizes:     COMRAM   BANK0   BANK1   BANK2   BANK3   BANK4   BANK5
  3898 ;;      Params:         4       0       0       0       0       0       0
  3899 ;;      Locals:         4       0       0       0       0       0       0
  3900 ;;      Temps:          0       0       0       0       0       0       0
  3901 ;;      Totals:         8       0       0       0       0       0       0
  3902 ;;Total ram usage:        8 bytes
  3903 ;; Hardware stack levels used: 1
  3904 ;; This function calls:
  3905 ;;		Nothing
  3906 ;; This function is called by:
  3907 ;;		_Seven_Segment_Tempreture_Output
  3908 ;; This function uses a non-reentrant model
  3909 ;;
  3910                           
  3911                           	psect	text17
  3912  0017DC                     __ptext17:
  3913                           	callstack 0
  3914  0017DC                     ___awdiv:
  3915                           	callstack 29
  3916  0017DC  0E00               	movlw	0
  3917  0017DE  6E12               	movwf	___awdiv@sign^0,c
  3918  0017E0  BE10               	btfsc	(___awdiv@divisor+1)^0,7,c
  3919  0017E2  EFF7  F00B         	goto	u1560
  3920  0017E6  EFF5  F00B         	goto	u1561
  3921  0017EA                     u1561:
  3922  0017EA  EFFD  F00B         	goto	l2188
  3923  0017EE                     u1560:
  3924  0017EE  6C0F               	negf	___awdiv@divisor^0,c
  3925  0017F0  1E10               	comf	(___awdiv@divisor+1)^0,f,c
  3926  0017F2  B0D8               	btfsc	status,0,c
  3927  0017F4  2A10               	incf	(___awdiv@divisor+1)^0,f,c
  3928  0017F6  0E01               	movlw	1
  3929  0017F8  6E12               	movwf	___awdiv@sign^0,c
  3930  0017FA                     l2188:
  3931  0017FA  BE0E               	btfsc	(___awdiv@dividend+1)^0,7,c
  3932  0017FC  EF04  F00C         	goto	u1570
  3933  001800  EF02  F00C         	goto	u1571
  3934  001804                     u1571:
  3935  001804  EF0A  F00C         	goto	l2194
  3936  001808                     u1570:
  3937  001808  6C0D               	negf	___awdiv@dividend^0,c
  3938  00180A  1E0E               	comf	(___awdiv@dividend+1)^0,f,c
  3939  00180C  B0D8               	btfsc	status,0,c
  3940  00180E  2A0E               	incf	(___awdiv@dividend+1)^0,f,c
  3941  001810  0E01               	movlw	1
  3942  001812  1A12               	xorwf	___awdiv@sign^0,f,c
  3943  001814                     l2194:
  3944  001814  0E00               	movlw	0
  3945  001816  6E14               	movwf	(___awdiv@quotient+1)^0,c
  3946  001818  0E00               	movlw	0
  3947  00181A  6E13               	movwf	___awdiv@quotient^0,c
  3948  00181C  500F               	movf	___awdiv@divisor^0,w,c
  3949  00181E  1010               	iorwf	(___awdiv@divisor+1)^0,w,c
  3950  001820  B4D8               	btfsc	status,2,c
  3951  001822  EF15  F00C         	goto	u1581
  3952  001826  EF17  F00C         	goto	u1580
  3953  00182A                     u1581:
  3954  00182A  EF3F  F00C         	goto	l2216
  3955  00182E                     u1580:
  3956  00182E  0E01               	movlw	1
  3957  001830  6E11               	movwf	___awdiv@counter^0,c
  3958  001832  EF1F  F00C         	goto	l2202
  3959  001836                     l2200:
  3960  001836  90D8               	bcf	status,0,c
  3961  001838  360F               	rlcf	___awdiv@divisor^0,f,c
  3962  00183A  3610               	rlcf	(___awdiv@divisor+1)^0,f,c
  3963  00183C  2A11               	incf	___awdiv@counter^0,f,c
  3964  00183E                     l2202:
  3965  00183E  AE10               	btfss	(___awdiv@divisor+1)^0,7,c
  3966  001840  EF24  F00C         	goto	u1591
  3967  001844  EF26  F00C         	goto	u1590
  3968  001848                     u1591:
  3969  001848  EF1B  F00C         	goto	l2200
  3970  00184C                     u1590:
  3971  00184C                     l2204:
  3972  00184C  90D8               	bcf	status,0,c
  3973  00184E  3613               	rlcf	___awdiv@quotient^0,f,c
  3974  001850  3614               	rlcf	(___awdiv@quotient+1)^0,f,c
  3975  001852  500F               	movf	___awdiv@divisor^0,w,c
  3976  001854  5C0D               	subwf	___awdiv@dividend^0,w,c
  3977  001856  5010               	movf	(___awdiv@divisor+1)^0,w,c
  3978  001858  580E               	subwfb	(___awdiv@dividend+1)^0,w,c
  3979  00185A  A0D8               	btfss	status,0,c
  3980  00185C  EF32  F00C         	goto	u1601
  3981  001860  EF34  F00C         	goto	u1600
  3982  001864                     u1601:
  3983  001864  EF39  F00C         	goto	l2212
  3984  001868                     u1600:
  3985  001868  500F               	movf	___awdiv@divisor^0,w,c
  3986  00186A  5E0D               	subwf	___awdiv@dividend^0,f,c
  3987  00186C  5010               	movf	(___awdiv@divisor+1)^0,w,c
  3988  00186E  5A0E               	subwfb	(___awdiv@dividend+1)^0,f,c
  3989  001870  8013               	bsf	___awdiv@quotient^0,0,c
  3990  001872                     l2212:
  3991  001872  90D8               	bcf	status,0,c
  3992  001874  3210               	rrcf	(___awdiv@divisor+1)^0,f,c
  3993  001876  320F               	rrcf	___awdiv@divisor^0,f,c
  3994  001878  2E11               	decfsz	___awdiv@counter^0,f,c
  3995  00187A  EF26  F00C         	goto	l2204
  3996  00187E                     l2216:
  3997  00187E  5012               	movf	___awdiv@sign^0,w,c
  3998  001880  B4D8               	btfsc	status,2,c
  3999  001882  EF45  F00C         	goto	u1611
  4000  001886  EF47  F00C         	goto	u1610
  4001  00188A                     u1611:
  4002  00188A  EF4B  F00C         	goto	l2220
  4003  00188E                     u1610:
  4004  00188E  6C13               	negf	___awdiv@quotient^0,c
  4005  001890  1E14               	comf	(___awdiv@quotient+1)^0,f,c
  4006  001892  B0D8               	btfsc	status,0,c
  4007  001894  2A14               	incf	(___awdiv@quotient+1)^0,f,c
  4008  001896                     l2220:
  4009  001896  C013  F00D         	movff	___awdiv@quotient,?___awdiv
  4010  00189A  C014  F00E         	movff	___awdiv@quotient+1,?___awdiv+1
  4011  00189E  0012               	return		;funcret
  4012  0018A0                     __end_of___awdiv:
  4013                           	callstack 0
  4014                           
  4015 ;; *************** function _SYSTEM_Initialize *****************
  4016 ;; Defined at:
  4017 ;;		line 50 in file "mcc_generated_files/mcc.c"
  4018 ;; Parameters:    Size  Location     Type
  4019 ;;		None
  4020 ;; Auto vars:     Size  Location     Type
  4021 ;;		None
  4022 ;; Return value:  Size  Location     Type
  4023 ;;                  1    wreg      void 
  4024 ;; Registers used:
  4025 ;;		wreg, status,2, status,0, cstack
  4026 ;; Tracked objects:
  4027 ;;		On entry : 0/0
  4028 ;;		On exit  : 0/0
  4029 ;;		Unchanged: 0/0
  4030 ;; Data sizes:     COMRAM   BANK0   BANK1   BANK2   BANK3   BANK4   BANK5
  4031 ;;      Params:         0       0       0       0       0       0       0
  4032 ;;      Locals:         0       0       0       0       0       0       0
  4033 ;;      Temps:          0       0       0       0       0       0       0
  4034 ;;      Totals:         0       0       0       0       0       0       0
  4035 ;;Total ram usage:        0 bytes
  4036 ;; Hardware stack levels used: 1
  4037 ;; Hardware stack levels required when called: 2
  4038 ;; This function calls:
  4039 ;;		_ADC_Initialize
  4040 ;;		_EUSART_Initialize
  4041 ;;		_OSCILLATOR_Initialize
  4042 ;;		_PIN_MANAGER_Initialize
  4043 ;; This function is called by:
  4044 ;;		_main
  4045 ;; This function uses a non-reentrant model
  4046 ;;
  4047                           
  4048                           	psect	text18
  4049  001C94                     __ptext18:
  4050                           	callstack 0
  4051  001C94                     _SYSTEM_Initialize:
  4052                           	callstack 28
  4053  001C94                     
  4054                           ;mcc.c: 53: PIN_MANAGER_Initialize();
  4055  001C94  ECBE  F00D         	call	_PIN_MANAGER_Initialize	;wreg free
  4056                           
  4057                           ;mcc.c: 54: OSCILLATOR_Initialize();
  4058  001C98  EC53  F00E         	call	_OSCILLATOR_Initialize	;wreg free
  4059                           
  4060                           ;mcc.c: 55: ADC_Initialize();
  4061  001C9C  EC35  F00E         	call	_ADC_Initialize	;wreg free
  4062  001CA0                     
  4063                           ;mcc.c: 56: EUSART_Initialize();
  4064  001CA0  EC82  F00D         	call	_EUSART_Initialize	;wreg free
  4065  001CA4  0012               	return		;funcret
  4066  001CA6                     __end_of_SYSTEM_Initialize:
  4067                           	callstack 0
  4068                           
  4069 ;; *************** function _PIN_MANAGER_Initialize *****************
  4070 ;; Defined at:
  4071 ;;		line 55 in file "mcc_generated_files/pin_manager.c"
  4072 ;; Parameters:    Size  Location     Type
  4073 ;;		None
  4074 ;; Auto vars:     Size  Location     Type
  4075 ;;		None
  4076 ;; Return value:  Size  Location     Type
  4077 ;;                  1    wreg      void 
  4078 ;; Registers used:
  4079 ;;		wreg, status,2
  4080 ;; Tracked objects:
  4081 ;;		On entry : 0/0
  4082 ;;		On exit  : 0/0
  4083 ;;		Unchanged: 0/0
  4084 ;; Data sizes:     COMRAM   BANK0   BANK1   BANK2   BANK3   BANK4   BANK5
  4085 ;;      Params:         0       0       0       0       0       0       0
  4086 ;;      Locals:         0       0       0       0       0       0       0
  4087 ;;      Temps:          0       0       0       0       0       0       0
  4088 ;;      Totals:         0       0       0       0       0       0       0
  4089 ;;Total ram usage:        0 bytes
  4090 ;; Hardware stack levels used: 1
  4091 ;; This function calls:
  4092 ;;		Nothing
  4093 ;; This function is called by:
  4094 ;;		_SYSTEM_Initialize
  4095 ;; This function uses a non-reentrant model
  4096 ;;
  4097                           
  4098                           	psect	text19
  4099  001B7C                     __ptext19:
  4100                           	callstack 0
  4101  001B7C                     _PIN_MANAGER_Initialize:
  4102                           	callstack 29
  4103  001B7C                     
  4104                           ;pin_manager.c: 60: LATE = 0x00;
  4105  001B7C  0E00               	movlw	0
  4106  001B7E  6E8D               	movwf	141,c	;volatile
  4107                           
  4108                           ;pin_manager.c: 61: LATD = 0x00;
  4109  001B80  0E00               	movlw	0
  4110  001B82  6E8C               	movwf	140,c	;volatile
  4111                           
  4112                           ;pin_manager.c: 62: LATA = 0x00;
  4113  001B84  0E00               	movlw	0
  4114  001B86  6E89               	movwf	137,c	;volatile
  4115                           
  4116                           ;pin_manager.c: 63: LATB = 0x00;
  4117  001B88  0E00               	movlw	0
  4118  001B8A  6E8A               	movwf	138,c	;volatile
  4119                           
  4120                           ;pin_manager.c: 64: LATC = 0x00;
  4121  001B8C  0E00               	movlw	0
  4122  001B8E  6E8B               	movwf	139,c	;volatile
  4123                           
  4124                           ;pin_manager.c: 69: TRISE = 0x07;
  4125  001B90  0E07               	movlw	7
  4126  001B92  6E96               	movwf	150,c	;volatile
  4127                           
  4128                           ;pin_manager.c: 70: TRISA = 0xD1;
  4129  001B94  0ED1               	movlw	209
  4130  001B96  6E92               	movwf	146,c	;volatile
  4131                           
  4132                           ;pin_manager.c: 71: TRISB = 0x00;
  4133  001B98  0E00               	movlw	0
  4134  001B9A  6E93               	movwf	147,c	;volatile
  4135                           
  4136                           ;pin_manager.c: 72: TRISC = 0xBF;
  4137  001B9C  0EBF               	movlw	191
  4138  001B9E  6E94               	movwf	148,c	;volatile
  4139                           
  4140                           ;pin_manager.c: 73: TRISD = 0x00;
  4141  001BA0  0E00               	movlw	0
  4142  001BA2  6E95               	movwf	149,c	;volatile
  4143  001BA4                     
  4144                           ;pin_manager.c: 78: ANSEL = 0xFF;
  4145  001BA4  687E               	setf	126,c	;volatile
  4146                           
  4147                           ;pin_manager.c: 79: ANSELH = 0x1F;
  4148  001BA6  0E1F               	movlw	31
  4149  001BA8  6E7F               	movwf	127,c	;volatile
  4150                           
  4151                           ;pin_manager.c: 84: WPUB = 0x00;
  4152  001BAA  0E00               	movlw	0
  4153  001BAC  6E7C               	movwf	124,c	;volatile
  4154  001BAE                     
  4155                           ;pin_manager.c: 85: INTCON2bits.nRBPU = 1;
  4156  001BAE  8EF1               	bsf	241,7,c	;volatile
  4157  001BB0  0012               	return		;funcret
  4158  001BB2                     __end_of_PIN_MANAGER_Initialize:
  4159                           	callstack 0
  4160                           
  4161 ;; *************** function _OSCILLATOR_Initialize *****************
  4162 ;; Defined at:
  4163 ;;		line 59 in file "mcc_generated_files/mcc.c"
  4164 ;; Parameters:    Size  Location     Type
  4165 ;;		None
  4166 ;; Auto vars:     Size  Location     Type
  4167 ;;		None
  4168 ;; Return value:  Size  Location     Type
  4169 ;;                  1    wreg      void 
  4170 ;; Registers used:
  4171 ;;		wreg, status,2
  4172 ;; Tracked objects:
  4173 ;;		On entry : 0/0
  4174 ;;		On exit  : 0/0
  4175 ;;		Unchanged: 0/0
  4176 ;; Data sizes:     COMRAM   BANK0   BANK1   BANK2   BANK3   BANK4   BANK5
  4177 ;;      Params:         0       0       0       0       0       0       0
  4178 ;;      Locals:         0       0       0       0       0       0       0
  4179 ;;      Temps:          0       0       0       0       0       0       0
  4180 ;;      Totals:         0       0       0       0       0       0       0
  4181 ;;Total ram usage:        0 bytes
  4182 ;; Hardware stack levels used: 1
  4183 ;; This function calls:
  4184 ;;		Nothing
  4185 ;; This function is called by:
  4186 ;;		_SYSTEM_Initialize
  4187 ;; This function uses a non-reentrant model
  4188 ;;
  4189                           
  4190                           	psect	text20
  4191  001CA6                     __ptext20:
  4192                           	callstack 0
  4193  001CA6                     _OSCILLATOR_Initialize:
  4194                           	callstack 29
  4195  001CA6                     
  4196                           ;mcc.c: 62: OSCCON = 0x60;
  4197  001CA6  0E60               	movlw	96
  4198  001CA8  6ED3               	movwf	211,c	;volatile
  4199                           
  4200                           ;mcc.c: 64: OSCTUNE = 0x00;
  4201  001CAA  0E00               	movlw	0
  4202  001CAC  6E9B               	movwf	155,c	;volatile
  4203  001CAE  0012               	return		;funcret
  4204  001CB0                     __end_of_OSCILLATOR_Initialize:
  4205                           	callstack 0
  4206                           
  4207 ;; *************** function _EUSART_Initialize *****************
  4208 ;; Defined at:
  4209 ;;		line 66 in file "mcc_generated_files/eusart.c"
  4210 ;; Parameters:    Size  Location     Type
  4211 ;;		None
  4212 ;; Auto vars:     Size  Location     Type
  4213 ;;		None
  4214 ;; Return value:  Size  Location     Type
  4215 ;;                  1    wreg      void 
  4216 ;; Registers used:
  4217 ;;		wreg, status,2, status,0, cstack
  4218 ;; Tracked objects:
  4219 ;;		On entry : 0/0
  4220 ;;		On exit  : 0/0
  4221 ;;		Unchanged: 0/0
  4222 ;; Data sizes:     COMRAM   BANK0   BANK1   BANK2   BANK3   BANK4   BANK5
  4223 ;;      Params:         0       0       0       0       0       0       0
  4224 ;;      Locals:         0       0       0       0       0       0       0
  4225 ;;      Temps:          0       0       0       0       0       0       0
  4226 ;;      Totals:         0       0       0       0       0       0       0
  4227 ;;Total ram usage:        0 bytes
  4228 ;; Hardware stack levels used: 1
  4229 ;; Hardware stack levels required when called: 1
  4230 ;; This function calls:
  4231 ;;		_EUSART_SetErrorHandler
  4232 ;;		_EUSART_SetFramingErrorHandler
  4233 ;;		_EUSART_SetOverrunErrorHandler
  4234 ;; This function is called by:
  4235 ;;		_SYSTEM_Initialize
  4236 ;; This function uses a non-reentrant model
  4237 ;;
  4238                           
  4239                           	psect	text21
  4240  001B04                     __ptext21:
  4241                           	callstack 0
  4242  001B04                     _EUSART_Initialize:
  4243                           	callstack 28
  4244  001B04                     
  4245                           ;eusart.c: 71: BAUDCON = 0x08;
  4246  001B04  0E08               	movlw	8
  4247  001B06  6EB8               	movwf	184,c	;volatile
  4248                           
  4249                           ;eusart.c: 74: RCSTA = 0x90;
  4250  001B08  0E90               	movlw	144
  4251  001B0A  6EAB               	movwf	171,c	;volatile
  4252                           
  4253                           ;eusart.c: 77: TXSTA = 0x24;
  4254  001B0C  0E24               	movlw	36
  4255  001B0E  6EAC               	movwf	172,c	;volatile
  4256                           
  4257                           ;eusart.c: 80: SPBRG = 0x08;
  4258  001B10  0E08               	movlw	8
  4259  001B12  6EAF               	movwf	175,c	;volatile
  4260                           
  4261                           ;eusart.c: 83: SPBRGH = 0x02;
  4262  001B14  0E02               	movlw	2
  4263  001B16  6EB0               	movwf	176,c	;volatile
  4264  001B18                     
  4265                           ;eusart.c: 86: EUSART_SetFramingErrorHandler(EUSART_DefaultFramingErrorHandler);
  4266  001B18  0E00               	movlw	0
  4267  001B1A  6E01               	movwf	EUSART_SetFramingErrorHandler@interruptHandler^0,c
  4268  001B1C  0E00               	movlw	0
  4269  001B1E  6E02               	movwf	(EUSART_SetFramingErrorHandler@interruptHandler+1)^0,c
  4270  001B20  EC5D  F00E         	call	_EUSART_SetFramingErrorHandler	;wreg free
  4271  001B24                     
  4272                           ;eusart.c: 87: EUSART_SetOverrunErrorHandler(EUSART_DefaultOverrunErrorHandler);
  4273  001B24  0E00               	movlw	0
  4274  001B26  6E01               	movwf	EUSART_SetOverrunErrorHandler@interruptHandler^0,c
  4275  001B28  0E00               	movlw	0
  4276  001B2A  6E02               	movwf	(EUSART_SetOverrunErrorHandler@interruptHandler+1)^0,c
  4277  001B2C  EC58  F00E         	call	_EUSART_SetOverrunErrorHandler	;wreg free
  4278  001B30                     
  4279                           ;eusart.c: 88: EUSART_SetErrorHandler(EUSART_DefaultErrorHandler);
  4280  001B30  0E00               	movlw	0
  4281  001B32  6E01               	movwf	EUSART_SetErrorHandler@interruptHandler^0,c
  4282  001B34  0E00               	movlw	0
  4283  001B36  6E02               	movwf	(EUSART_SetErrorHandler@interruptHandler+1)^0,c
  4284  001B38  EC62  F00E         	call	_EUSART_SetErrorHandler	;wreg free
  4285  001B3C                     
  4286                           ;eusart.c: 90: eusartRxLastError.status = 0;
  4287  001B3C  0E00               	movlw	0
  4288  001B3E  6E58               	movwf	_eusartRxLastError^0,c	;volatile
  4289  001B40  0012               	return		;funcret
  4290  001B42                     __end_of_EUSART_Initialize:
  4291                           	callstack 0
  4292                           
  4293 ;; *************** function _EUSART_SetOverrunErrorHandler *****************
  4294 ;; Defined at:
  4295 ;;		line 161 in file "mcc_generated_files/eusart.c"
  4296 ;; Parameters:    Size  Location     Type
  4297 ;;  interruptHan    2    0[COMRAM] PTR FTN()void 
  4298 ;;		 -> EUSART_DefaultOverrunErrorHandler(1), 
  4299 ;; Auto vars:     Size  Location     Type
  4300 ;;		None
  4301 ;; Return value:  Size  Location     Type
  4302 ;;                  1    wreg      void 
  4303 ;; Registers used:
  4304 ;;		wreg, status,2, status,0
  4305 ;; Tracked objects:
  4306 ;;		On entry : 0/0
  4307 ;;		On exit  : 0/0
  4308 ;;		Unchanged: 0/0
  4309 ;; Data sizes:     COMRAM   BANK0   BANK1   BANK2   BANK3   BANK4   BANK5
  4310 ;;      Params:         2       0       0       0       0       0       0
  4311 ;;      Locals:         0       0       0       0       0       0       0
  4312 ;;      Temps:          0       0       0       0       0       0       0
  4313 ;;      Totals:         2       0       0       0       0       0       0
  4314 ;;Total ram usage:        2 bytes
  4315 ;; Hardware stack levels used: 1
  4316 ;; This function calls:
  4317 ;;		Nothing
  4318 ;; This function is called by:
  4319 ;;		_EUSART_Initialize
  4320 ;; This function uses a non-reentrant model
  4321 ;;
  4322                           
  4323                           	psect	text22
  4324  001CB0                     __ptext22:
  4325                           	callstack 0
  4326  001CB0                     _EUSART_SetOverrunErrorHandler:
  4327                           	callstack 28
  4328  001CB0                     
  4329                           ;eusart.c: 162: EUSART_OverrunErrorHandler = interruptHandler;
  4330  001CB0  C001  F04B         	movff	EUSART_SetOverrunErrorHandler@interruptHandler,_EUSART_OverrunErrorHandler
  4331  001CB4  C002  F04C         	movff	EUSART_SetOverrunErrorHandler@interruptHandler+1,_EUSART_OverrunErrorHandler+1
  4332  001CB8  0012               	return		;funcret
  4333  001CBA                     __end_of_EUSART_SetOverrunErrorHandler:
  4334                           	callstack 0
  4335                           
  4336 ;; *************** function _EUSART_SetFramingErrorHandler *****************
  4337 ;; Defined at:
  4338 ;;		line 157 in file "mcc_generated_files/eusart.c"
  4339 ;; Parameters:    Size  Location     Type
  4340 ;;  interruptHan    2    0[COMRAM] PTR FTN()void 
  4341 ;;		 -> EUSART_DefaultFramingErrorHandler(1), 
  4342 ;; Auto vars:     Size  Location     Type
  4343 ;;		None
  4344 ;; Return value:  Size  Location     Type
  4345 ;;                  1    wreg      void 
  4346 ;; Registers used:
  4347 ;;		wreg, status,2, status,0
  4348 ;; Tracked objects:
  4349 ;;		On entry : 0/0
  4350 ;;		On exit  : 0/0
  4351 ;;		Unchanged: 0/0
  4352 ;; Data sizes:     COMRAM   BANK0   BANK1   BANK2   BANK3   BANK4   BANK5
  4353 ;;      Params:         2       0       0       0       0       0       0
  4354 ;;      Locals:         0       0       0       0       0       0       0
  4355 ;;      Temps:          0       0       0       0       0       0       0
  4356 ;;      Totals:         2       0       0       0       0       0       0
  4357 ;;Total ram usage:        2 bytes
  4358 ;; Hardware stack levels used: 1
  4359 ;; This function calls:
  4360 ;;		Nothing
  4361 ;; This function is called by:
  4362 ;;		_EUSART_Initialize
  4363 ;; This function uses a non-reentrant model
  4364 ;;
  4365                           
  4366                           	psect	text23
  4367  001CBA                     __ptext23:
  4368                           	callstack 0
  4369  001CBA                     _EUSART_SetFramingErrorHandler:
  4370                           	callstack 28
  4371  001CBA                     
  4372                           ;eusart.c: 158: EUSART_FramingErrorHandler = interruptHandler;
  4373  001CBA  C001  F04D         	movff	EUSART_SetFramingErrorHandler@interruptHandler,_EUSART_FramingErrorHandler
  4374  001CBE  C002  F04E         	movff	EUSART_SetFramingErrorHandler@interruptHandler+1,_EUSART_FramingErrorHandler+1
  4375  001CC2  0012               	return		;funcret
  4376  001CC4                     __end_of_EUSART_SetFramingErrorHandler:
  4377                           	callstack 0
  4378                           
  4379 ;; *************** function _EUSART_SetErrorHandler *****************
  4380 ;; Defined at:
  4381 ;;		line 165 in file "mcc_generated_files/eusart.c"
  4382 ;; Parameters:    Size  Location     Type
  4383 ;;  interruptHan    2    0[COMRAM] PTR FTN()void 
  4384 ;;		 -> EUSART_DefaultErrorHandler(1), 
  4385 ;; Auto vars:     Size  Location     Type
  4386 ;;		None
  4387 ;; Return value:  Size  Location     Type
  4388 ;;                  1    wreg      void 
  4389 ;; Registers used:
  4390 ;;		wreg, status,2, status,0
  4391 ;; Tracked objects:
  4392 ;;		On entry : 0/0
  4393 ;;		On exit  : 0/0
  4394 ;;		Unchanged: 0/0
  4395 ;; Data sizes:     COMRAM   BANK0   BANK1   BANK2   BANK3   BANK4   BANK5
  4396 ;;      Params:         2       0       0       0       0       0       0
  4397 ;;      Locals:         0       0       0       0       0       0       0
  4398 ;;      Temps:          0       0       0       0       0       0       0
  4399 ;;      Totals:         2       0       0       0       0       0       0
  4400 ;;Total ram usage:        2 bytes
  4401 ;; Hardware stack levels used: 1
  4402 ;; This function calls:
  4403 ;;		Nothing
  4404 ;; This function is called by:
  4405 ;;		_EUSART_Initialize
  4406 ;; This function uses a non-reentrant model
  4407 ;;
  4408                           
  4409                           	psect	text24
  4410  001CC4                     __ptext24:
  4411                           	callstack 0
  4412  001CC4                     _EUSART_SetErrorHandler:
  4413                           	callstack 28
  4414  001CC4                     
  4415                           ;eusart.c: 166: EUSART_ErrorHandler = interruptHandler;
  4416  001CC4  C001  F049         	movff	EUSART_SetErrorHandler@interruptHandler,_EUSART_ErrorHandler
  4417  001CC8  C002  F04A         	movff	EUSART_SetErrorHandler@interruptHandler+1,_EUSART_ErrorHandler+1
  4418  001CCC  0012               	return		;funcret
  4419  001CCE                     __end_of_EUSART_SetErrorHandler:
  4420                           	callstack 0
  4421                           
  4422 ;; *************** function _ADC_Initialize *****************
  4423 ;; Defined at:
  4424 ;;		line 62 in file "mcc_generated_files/adc.c"
  4425 ;; Parameters:    Size  Location     Type
  4426 ;;		None
  4427 ;; Auto vars:     Size  Location     Type
  4428 ;;		None
  4429 ;; Return value:  Size  Location     Type
  4430 ;;                  1    wreg      void 
  4431 ;; Registers used:
  4432 ;;		wreg, status,2
  4433 ;; Tracked objects:
  4434 ;;		On entry : 0/0
  4435 ;;		On exit  : 0/0
  4436 ;;		Unchanged: 0/0
  4437 ;; Data sizes:     COMRAM   BANK0   BANK1   BANK2   BANK3   BANK4   BANK5
  4438 ;;      Params:         0       0       0       0       0       0       0
  4439 ;;      Locals:         0       0       0       0       0       0       0
  4440 ;;      Temps:          0       0       0       0       0       0       0
  4441 ;;      Totals:         0       0       0       0       0       0       0
  4442 ;;Total ram usage:        0 bytes
  4443 ;; Hardware stack levels used: 1
  4444 ;; This function calls:
  4445 ;;		Nothing
  4446 ;; This function is called by:
  4447 ;;		_SYSTEM_Initialize
  4448 ;; This function uses a non-reentrant model
  4449 ;;
  4450                           
  4451                           	psect	text25
  4452  001C6A                     __ptext25:
  4453                           	callstack 0
  4454  001C6A                     _ADC_Initialize:
  4455                           	callstack 29
  4456  001C6A                     
  4457                           ;adc.c: 67: ADCON1 = 0x00;
  4458  001C6A  0E00               	movlw	0
  4459  001C6C  6EC1               	movwf	193,c	;volatile
  4460                           
  4461                           ;adc.c: 70: ADCON2 = 0xBA;
  4462  001C6E  0EBA               	movlw	186
  4463  001C70  6EC0               	movwf	192,c	;volatile
  4464                           
  4465                           ;adc.c: 73: ADRESL = 0x00;
  4466  001C72  0E00               	movlw	0
  4467  001C74  6EC3               	movwf	195,c	;volatile
  4468                           
  4469                           ;adc.c: 76: ADRESH = 0x00;
  4470  001C76  0E00               	movlw	0
  4471  001C78  6EC4               	movwf	196,c	;volatile
  4472                           
  4473                           ;adc.c: 79: ADCON0 = 0x01;
  4474  001C7A  0E01               	movlw	1
  4475  001C7C  6EC2               	movwf	194,c	;volatile
  4476  001C7E  0012               	return		;funcret
  4477  001C80                     __end_of_ADC_Initialize:
  4478                           	callstack 0
  4479                           
  4480 ;; *************** function _ADC_GetConversion *****************
  4481 ;; Defined at:
  4482 ;;		line 110 in file "mcc_generated_files/adc.c"
  4483 ;; Parameters:    Size  Location     Type
  4484 ;;  channel         1    wreg     enum E2566
  4485 ;; Auto vars:     Size  Location     Type
  4486 ;;  channel         1    4[COMRAM] enum E2566
  4487 ;; Return value:  Size  Location     Type
  4488 ;;                  2    0[COMRAM] unsigned int 
  4489 ;; Registers used:
  4490 ;;		wreg, status,2, status,0
  4491 ;; Tracked objects:
  4492 ;;		On entry : 0/0
  4493 ;;		On exit  : 0/0
  4494 ;;		Unchanged: 0/0
  4495 ;; Data sizes:     COMRAM   BANK0   BANK1   BANK2   BANK3   BANK4   BANK5
  4496 ;;      Params:         2       0       0       0       0       0       0
  4497 ;;      Locals:         1       0       0       0       0       0       0
  4498 ;;      Temps:          2       0       0       0       0       0       0
  4499 ;;      Totals:         5       0       0       0       0       0       0
  4500 ;;Total ram usage:        5 bytes
  4501 ;; Hardware stack levels used: 1
  4502 ;; This function calls:
  4503 ;;		Nothing
  4504 ;; This function is called by:
  4505 ;;		_main
  4506 ;; This function uses a non-reentrant model
  4507 ;;
  4508                           
  4509                           	psect	text26
  4510  001B42                     __ptext26:
  4511                           	callstack 0
  4512  001B42                     _ADC_GetConversion:
  4513                           	callstack 30
  4514                           
  4515                           ;incstack = 0
  4516                           ;ADC_GetConversion@channel stored from wreg
  4517  001B42  6E05               	movwf	ADC_GetConversion@channel^0,c
  4518  001B44                     
  4519                           ;adc.c: 113: ADCON0bits.CHS = channel;
  4520  001B44  C005  F003         	movff	ADC_GetConversion@channel,??_ADC_GetConversion
  4521  001B48  4603               	rlncf	??_ADC_GetConversion^0,f,c
  4522  001B4A  4603               	rlncf	??_ADC_GetConversion^0,f,c
  4523  001B4C  50C2               	movf	194,w,c	;volatile
  4524  001B4E  1803               	xorwf	??_ADC_GetConversion^0,w,c
  4525  001B50  0BC3               	andlw	-61
  4526  001B52  1803               	xorwf	??_ADC_GetConversion^0,w,c
  4527  001B54  6EC2               	movwf	194,c	;volatile
  4528  001B56                     
  4529                           ;adc.c: 116: ADCON0bits.ADON = 1;
  4530  001B56  80C2               	bsf	194,0,c	;volatile
  4531  001B58                     
  4532                           ;adc.c: 119: ADCON0bits.GO_nDONE = 1;
  4533  001B58  82C2               	bsf	194,1,c	;volatile
  4534  001B5A                     l34:
  4535  001B5A  B2C2               	btfsc	194,1,c	;volatile
  4536  001B5C  EFB2  F00D         	goto	u1681
  4537  001B60  EFB4  F00D         	goto	u1680
  4538  001B64                     u1681:
  4539  001B64  EFAD  F00D         	goto	l34
  4540  001B68                     u1680:
  4541  001B68                     
  4542                           ;adc.c: 124: };adc.c: 127: return ((adc_result_t)((ADRESH << 8) + ADRESL));
  4543  001B68  50C4               	movf	196,w,c	;volatile
  4544  001B6A  6E04               	movwf	(??_ADC_GetConversion+1)^0,c
  4545  001B6C  6A03               	clrf	??_ADC_GetConversion^0,c
  4546  001B6E  50C3               	movf	195,w,c	;volatile
  4547  001B70  2403               	addwf	??_ADC_GetConversion^0,w,c
  4548  001B72  6E01               	movwf	?_ADC_GetConversion^0,c
  4549  001B74  0E00               	movlw	0
  4550  001B76  2004               	addwfc	(??_ADC_GetConversion+1)^0,w,c
  4551  001B78  6E02               	movwf	(?_ADC_GetConversion+1)^0,c
  4552  001B7A  0012               	return		;funcret
  4553  001B7C                     __end_of_ADC_GetConversion:
  4554                           	callstack 0
  4555                           
  4556                           	psect	rparam
  4557  0000                     
  4558                           	psect	idloc
  4559                           
  4560                           ;Config register IDLOC0 @ 0x200000
  4561                           ;	unspecified, using default values
  4562  200000                     	org	2097152
  4563  200000  FF                 	db	255
  4564                           
  4565                           ;Config register IDLOC1 @ 0x200001
  4566                           ;	unspecified, using default values
  4567  200001                     	org	2097153
  4568  200001  FF                 	db	255
  4569                           
  4570                           ;Config register IDLOC2 @ 0x200002
  4571                           ;	unspecified, using default values
  4572  200002                     	org	2097154
  4573  200002  FF                 	db	255
  4574                           
  4575                           ;Config register IDLOC3 @ 0x200003
  4576                           ;	unspecified, using default values
  4577  200003                     	org	2097155
  4578  200003  FF                 	db	255
  4579                           
  4580                           ;Config register IDLOC4 @ 0x200004
  4581                           ;	unspecified, using default values
  4582  200004                     	org	2097156
  4583  200004  FF                 	db	255
  4584                           
  4585                           ;Config register IDLOC5 @ 0x200005
  4586                           ;	unspecified, using default values
  4587  200005                     	org	2097157
  4588  200005  FF                 	db	255
  4589                           
  4590                           ;Config register IDLOC6 @ 0x200006
  4591                           ;	unspecified, using default values
  4592  200006                     	org	2097158
  4593  200006  FF                 	db	255
  4594                           
  4595                           ;Config register IDLOC7 @ 0x200007
  4596                           ;	unspecified, using default values
  4597  200007                     	org	2097159
  4598  200007  FF                 	db	255
  4599                           
  4600                           	psect	config
  4601                           
  4602                           ; Padding undefined space
  4603  300000                     	org	3145728
  4604  300000  FF                 	db	255
  4605                           
  4606                           ;Config register CONFIG1H @ 0x300001
  4607                           ;	Oscillator Selection bits
  4608                           ;	FOSC = HS, HS oscillator
  4609                           ;	Fail-Safe Clock Monitor Enable bit
  4610                           ;	FCMEN = OFF, Fail-Safe Clock Monitor disabled
  4611                           ;	Internal/External Oscillator Switchover bit
  4612                           ;	IESO = OFF, Oscillator Switchover mode disabled
  4613  300001                     	org	3145729
  4614  300001  02                 	db	2
  4615                           
  4616                           ;Config register CONFIG2L @ 0x300002
  4617                           ;	Power-up Timer Enable bit
  4618                           ;	PWRT = OFF, PWRT disabled
  4619                           ;	Brown-out Reset Enable bits
  4620                           ;	BOREN = SBORDIS, Brown-out Reset enabled in hardware only (SBOREN is disabled)
  4621                           ;	Brown Out Reset Voltage bits
  4622                           ;	BORV = 18, VBOR set to 1.8 V nominal
  4623  300002                     	org	3145730
  4624  300002  1F                 	db	31
  4625                           
  4626                           ;Config register CONFIG2H @ 0x300003
  4627                           ;	Watchdog Timer Enable bit
  4628                           ;	WDTEN = OFF, WDT is controlled by SWDTEN bit of the WDTCON register
  4629                           ;	Watchdog Timer Postscale Select bits
  4630                           ;	WDTPS = 32768, 1:32768
  4631  300003                     	org	3145731
  4632  300003  1E                 	db	30
  4633                           
  4634                           ; Padding undefined space
  4635  300004                     	org	3145732
  4636  300004  FF                 	db	255
  4637                           
  4638                           ;Config register CONFIG3H @ 0x300005
  4639                           ;	CCP2 MUX bit
  4640                           ;	CCP2MX = PORTC, CCP2 input/output is multiplexed with RC1
  4641                           ;	PORTB A/D Enable bit
  4642                           ;	PBADEN = ON, PORTB<4:0> pins are configured as analog input channels on Reset
  4643                           ;	Low-Power Timer1 Oscillator Enable bit
  4644                           ;	LPT1OSC = OFF, Timer1 configured for higher power operation
  4645                           ;	HFINTOSC Fast Start-up
  4646                           ;	HFOFST = ON, HFINTOSC starts clocking the CPU without waiting for the oscillator to st
      +                          ablize.
  4647                           ;	MCLR Pin Enable bit
  4648                           ;	MCLRE = ON, MCLR pin enabled; RE3 input pin disabled
  4649  300005                     	org	3145733
  4650  300005  8B                 	db	139
  4651                           
  4652                           ;Config register CONFIG4L @ 0x300006
  4653                           ;	Stack Full/Underflow Reset Enable bit
  4654                           ;	STVREN = ON, Stack full/underflow will cause Reset
  4655                           ;	Single-Supply ICSP Enable bit
  4656                           ;	LVP = OFF, Single-Supply ICSP disabled
  4657                           ;	Extended Instruction Set Enable bit
  4658                           ;	XINST = OFF, Instruction set extension and Indexed Addressing mode disabled (Legacy mo
      +                          de)
  4659                           ;	Background Debugger Enable bit
  4660                           ;	DEBUG = OFF, Background debugger disabled, RB6 and RB7 configured as general purpose I
      +                          /O pins
  4661  300006                     	org	3145734
  4662  300006  81                 	db	129
  4663                           
  4664                           ; Padding undefined space
  4665  300007                     	org	3145735
  4666  300007  FF                 	db	255
  4667                           
  4668                           ;Config register CONFIG5L @ 0x300008
  4669                           ;	Code Protection Block 0
  4670                           ;	CP0 = OFF, Block 0 (000800-001FFFh) not code-protected
  4671                           ;	Code Protection Block 1
  4672                           ;	CP1 = OFF, Block 1 (002000-003FFFh) not code-protected
  4673                           ;	Code Protection Block 2
  4674                           ;	CP2 = OFF, Block 2 (004000-005FFFh) not code-protected
  4675                           ;	Code Protection Block 3
  4676                           ;	CP3 = OFF, Block 3 (006000-007FFFh) not code-protected
  4677  300008                     	org	3145736
  4678  300008  0F                 	db	15
  4679                           
  4680                           ;Config register CONFIG5H @ 0x300009
  4681                           ;	Boot Block Code Protection bit
  4682                           ;	CPB = OFF, Boot block (000000-0007FFh) not code-protected
  4683                           ;	Data EEPROM Code Protection bit
  4684                           ;	CPD = OFF, Data EEPROM not code-protected
  4685  300009                     	org	3145737
  4686  300009  C0                 	db	192
  4687                           
  4688                           ;Config register CONFIG6L @ 0x30000A
  4689                           ;	Write Protection Block 0
  4690                           ;	WRT0 = OFF, Block 0 (000800-001FFFh) not write-protected
  4691                           ;	Write Protection Block 1
  4692                           ;	WRT1 = OFF, Block 1 (002000-003FFFh) not write-protected
  4693                           ;	Write Protection Block 2
  4694                           ;	WRT2 = OFF, Block 2 (004000-005FFFh) not write-protected
  4695                           ;	Write Protection Block 3
  4696                           ;	WRT3 = OFF, Block 3 (006000-007FFFh) not write-protected
  4697  30000A                     	org	3145738
  4698  30000A  0F                 	db	15
  4699                           
  4700                           ;Config register CONFIG6H @ 0x30000B
  4701                           ;	Configuration Register Write Protection bit
  4702                           ;	WRTC = OFF, Configuration registers (300000-3000FFh) not write-protected
  4703                           ;	Boot Block Write Protection bit
  4704                           ;	WRTB = OFF, Boot Block (000000-0007FFh) not write-protected
  4705                           ;	Data EEPROM Write Protection bit
  4706                           ;	WRTD = OFF, Data EEPROM not write-protected
  4707  30000B                     	org	3145739
  4708  30000B  E0                 	db	224
  4709                           
  4710                           ;Config register CONFIG7L @ 0x30000C
  4711                           ;	Table Read Protection Block 0
  4712                           ;	EBTR0 = OFF, Block 0 (000800-001FFFh) not protected from table reads executed in other
      +                           blocks
  4713                           ;	Table Read Protection Block 1
  4714                           ;	EBTR1 = OFF, Block 1 (002000-003FFFh) not protected from table reads executed in other
      +                           blocks
  4715                           ;	Table Read Protection Block 2
  4716                           ;	EBTR2 = OFF, Block 2 (004000-005FFFh) not protected from table reads executed in other
      +                           blocks
  4717                           ;	Table Read Protection Block 3
  4718                           ;	EBTR3 = OFF, Block 3 (006000-007FFFh) not protected from table reads executed in other
      +                           blocks
  4719  30000C                     	org	3145740
  4720  30000C  0F                 	db	15
  4721                           
  4722                           ;Config register CONFIG7H @ 0x30000D
  4723                           ;	Boot Block Table Read Protection bit
  4724                           ;	EBTRB = OFF, Boot Block (000000-0007FFh) not protected from table reads executed in ot
      +                          her blocks
  4725  30000D                     	org	3145741
  4726  30000D  40                 	db	64
  4727                           tosu	equ	0xFFF
  4728                           tosh	equ	0xFFE
  4729                           tosl	equ	0xFFD
  4730                           stkptr	equ	0xFFC
  4731                           pclatu	equ	0xFFB
  4732                           pclath	equ	0xFFA
  4733                           pcl	equ	0xFF9
  4734                           tblptru	equ	0xFF8
  4735                           tblptrh	equ	0xFF7
  4736                           tblptrl	equ	0xFF6
  4737                           tablat	equ	0xFF5
  4738                           prodh	equ	0xFF4
  4739                           prodl	equ	0xFF3
  4740                           indf0	equ	0xFEF
  4741                           postinc0	equ	0xFEE
  4742                           postdec0	equ	0xFED
  4743                           preinc0	equ	0xFEC
  4744                           plusw0	equ	0xFEB
  4745                           fsr0h	equ	0xFEA
  4746                           fsr0l	equ	0xFE9
  4747                           wreg	equ	0xFE8
  4748                           indf1	equ	0xFE7
  4749                           postinc1	equ	0xFE6
  4750                           postdec1	equ	0xFE5
  4751                           preinc1	equ	0xFE4
  4752                           plusw1	equ	0xFE3
  4753                           fsr1h	equ	0xFE2
  4754                           fsr1l	equ	0xFE1
  4755                           bsr	equ	0xFE0
  4756                           indf2	equ	0xFDF
  4757                           postinc2	equ	0xFDE
  4758                           postdec2	equ	0xFDD
  4759                           preinc2	equ	0xFDC
  4760                           plusw2	equ	0xFDB
  4761                           fsr2h	equ	0xFDA
  4762                           fsr2l	equ	0xFD9
  4763                           status	equ	0xFD8

Data Sizes:
    Strings     48
    Constant    10
    Data        0
    BSS         57
    Persistent  17
    Stack       0

Auto Spaces:
    Space          Size  Autos    Used
    COMRAM           95     64      88
    BANK0           160      0      50
    BANK1           256      0       0
    BANK2           256      0       0
    BANK3           256      0       0
    BANK4           256      0       0
    BANK5           256      0       0

Pointer List with Targets:

    ADC_InterruptHandler	PTR FTN()void  size(2) Largest target is 1
		 -> Absolute function(), 

    sprintf@cp	PTR const unsigned char  size(2) Largest target is 15
		 -> STR_4(CODE[7]), ?_sprintf(COMRAM[2]), STR_3(CODE[13]), STR_2(CODE[15]), 
		 -> decimal(COMRAM[2]), 

    sprintf@f	PTR const unsigned char  size(2) Largest target is 13
		 -> STR_1(CODE[13]), 

    sprintf@sp	PTR unsigned char  size(2) Largest target is 50
		 -> xvalueASCII(BANK0[50]), 

    sprintf@ap	PTR void [1] size(2) Largest target is 2
		 -> ?_sprintf(COMRAM[2]), 

    USART_String_Transmit@string	PTR unsigned char  size(2) Largest target is 50
		 -> xvalueASCII(BANK0[50]), 

    EUSART_SetErrorHandler@interruptHandler	PTR FTN()void  size(2) Largest target is 1
		 -> EUSART_DefaultErrorHandler(), 

    EUSART_ErrorHandler	PTR FTN()void  size(2) Largest target is 1
		 -> Absolute function(), EUSART_DefaultErrorHandler(), 

    EUSART_SetOverrunErrorHandler@interruptHandler	PTR FTN()void  size(2) Largest target is 1
		 -> EUSART_DefaultOverrunErrorHandler(), 

    EUSART_OverrunErrorHandler	PTR FTN()void  size(2) Largest target is 1
		 -> Absolute function(), EUSART_DefaultOverrunErrorHandler(), 

    EUSART_SetFramingErrorHandler@interruptHandler	PTR FTN()void  size(2) Largest target is 1
		 -> EUSART_DefaultFramingErrorHandler(), 

    EUSART_FramingErrorHandler	PTR FTN()void  size(2) Largest target is 1
		 -> Absolute function(), EUSART_DefaultFramingErrorHandler(), 


Critical Paths under _main in COMRAM

    _main->___fltol
    ___xxtofl->_ADC_GetConversion
    ___fltol->___fldiv
    ___fldiv->___flmul
    _UART_Tempreture_Output->_sprintf
    _sprintf->___lwmod
    ___lwmod->___lwdiv
    _USART_String_Transmit->_EUSART_Write
    _USART_String_Transmit->_EUSART_is_tx_ready
    _Seven_Segment_Tempreture_Output->___awdiv
    ___awmod->___wmul
    ___awdiv->___awmod
    _EUSART_Initialize->_EUSART_SetErrorHandler
    _EUSART_Initialize->_EUSART_SetFramingErrorHandler
    _EUSART_Initialize->_EUSART_SetOverrunErrorHandler

Critical Paths under _main in BANK0

    None.

Critical Paths under _main in BANK1

    None.

Critical Paths under _main in BANK2

    None.

Critical Paths under _main in BANK3

    None.

Critical Paths under _main in BANK4

    None.

Critical Paths under _main in BANK5

    None.

Call Graph Tables:

 ---------------------------------------------------------------------------------
 (Depth) Function   	        Calls       Base Space   Used Autos Params    Refs
 ---------------------------------------------------------------------------------
 (0) _main                                                 4     4      0   11427
                                             60 COMRAM     4     4      0
                  _ADC_GetConversion
                  _SYSTEM_Initialize
    _Seven_Segment_Tempreture_Output
             _UART_Tempreture_Output
                            ___fldiv
                            ___flmul
                            ___fltol
                           ___xxtofl
 ---------------------------------------------------------------------------------
 (1) ___xxtofl                                            14    10      4     398
                                              5 COMRAM    14    10      4
                  _ADC_GetConversion (ARG)
 ---------------------------------------------------------------------------------
 (1) ___fltol                                             10     6      4     305
                                             50 COMRAM    10     6      4
                            ___fldiv (ARG)
                            ___flmul (ARG)
 ---------------------------------------------------------------------------------
 (1) ___flmul                                             25    17      8    1744
                                              0 COMRAM    25    17      8
 ---------------------------------------------------------------------------------
 (1) ___fldiv                                             25    17      8    1551
                                             25 COMRAM    25    17      8
                            ___flmul (ARG)
 ---------------------------------------------------------------------------------
 (1) _UART_Tempreture_Output                               0     0      0    4336
              _USART_String_Transmit
                             ___wmul
                            _sprintf
 ---------------------------------------------------------------------------------
 (2) _sprintf                                             33    21     12    3098
                                             12 COMRAM    29    17     12
                            ___lwdiv
                            ___lwmod
                             ___wmul
                            _isdigit
 ---------------------------------------------------------------------------------
 (3) _isdigit                                              3     3      0      68
                                              0 COMRAM     3     3      0
 ---------------------------------------------------------------------------------
 (3) ___lwmod                                              5     1      4     311
                                              7 COMRAM     5     1      4
                            ___lwdiv (ARG)
 ---------------------------------------------------------------------------------
 (3) ___lwdiv                                              7     3      4     314
                                              0 COMRAM     7     3      4
 ---------------------------------------------------------------------------------
 (2) _USART_String_Transmit                                2     0      2     167
                                              1 COMRAM     2     0      2
                       _EUSART_Write
                  _EUSART_is_tx_done
                 _EUSART_is_tx_ready
 ---------------------------------------------------------------------------------
 (3) _EUSART_is_tx_ready                                   1     1      0      24
                                              0 COMRAM     1     1      0
 ---------------------------------------------------------------------------------
 (3) _EUSART_is_tx_done                                    0     0      0       0
 ---------------------------------------------------------------------------------
 (3) _EUSART_Write                                         1     1      0      22
                                              0 COMRAM     1     1      0
 ---------------------------------------------------------------------------------
 (1) _Seven_Segment_Tempreture_Output                      4     4      0    2754
                                             20 COMRAM     4     4      0
                            ___awdiv
                            ___awmod
                             ___wmul
 ---------------------------------------------------------------------------------
 (3) ___wmul                                               6     2      4    1071
                                              0 COMRAM     6     2      4
 ---------------------------------------------------------------------------------
 (2) ___awmod                                              6     2      4     904
                                              6 COMRAM     6     2      4
                             ___wmul (ARG)
 ---------------------------------------------------------------------------------
 (2) ___awdiv                                              8     4      4     756
                                             12 COMRAM     8     4      4
                            ___awmod (ARG)
                             ___wmul (ARG)
 ---------------------------------------------------------------------------------
 (1) _SYSTEM_Initialize                                    0     0      0     294
                     _ADC_Initialize
                  _EUSART_Initialize
              _OSCILLATOR_Initialize
             _PIN_MANAGER_Initialize
 ---------------------------------------------------------------------------------
 (2) _PIN_MANAGER_Initialize                               0     0      0       0
 ---------------------------------------------------------------------------------
 (2) _OSCILLATOR_Initialize                                0     0      0       0
 ---------------------------------------------------------------------------------
 (2) _EUSART_Initialize                                    0     0      0     294
             _EUSART_SetErrorHandler
      _EUSART_SetFramingErrorHandler
      _EUSART_SetOverrunErrorHandler
 ---------------------------------------------------------------------------------
 (3) _EUSART_SetOverrunErrorHandler                        2     0      2      98
                                              0 COMRAM     2     0      2
 ---------------------------------------------------------------------------------
 (3) _EUSART_SetFramingErrorHandler                        2     0      2      98
                                              0 COMRAM     2     0      2
 ---------------------------------------------------------------------------------
 (3) _EUSART_SetErrorHandler                               2     0      2      98
                                              0 COMRAM     2     0      2
 ---------------------------------------------------------------------------------
 (2) _ADC_Initialize                                       0     0      0       0
 ---------------------------------------------------------------------------------
 (1) _ADC_GetConversion                                    5     3      2      22
                                              0 COMRAM     5     3      2
 ---------------------------------------------------------------------------------
 Estimated maximum stack depth 3
 ---------------------------------------------------------------------------------

 Call Graph Graphs:

 _main (ROOT)
   _ADC_GetConversion
   _SYSTEM_Initialize
     _ADC_Initialize
     _EUSART_Initialize
       _EUSART_SetErrorHandler
       _EUSART_SetFramingErrorHandler
       _EUSART_SetOverrunErrorHandler
     _OSCILLATOR_Initialize
     _PIN_MANAGER_Initialize
   _Seven_Segment_Tempreture_Output
     ___awdiv
       ___awmod (ARG)
         ___wmul (ARG)
       ___wmul (ARG)
     ___awmod
     ___wmul
   _UART_Tempreture_Output
     _USART_String_Transmit
       _EUSART_Write
       _EUSART_is_tx_done
       _EUSART_is_tx_ready
     ___wmul
     _sprintf
       ___lwdiv
       ___lwmod
         ___lwdiv (ARG)
       ___wmul
       _isdigit
   ___fldiv
     ___flmul (ARG)
   ___flmul
   ___fltol
     ___fldiv (ARG)
     ___flmul (ARG)
   ___xxtofl
     _ADC_GetConversion (ARG)

 Address spaces:
Name               Size   Autos  Total    Cost      Usage
BIGRAM             5FF      0       0      29        0.0%
EEDATA             100      0       0       0        0.0%
BITBANK5           100      0       0      14        0.0%
BANK5              100      0       0      15        0.0%
BITBANK4           100      0       0      12        0.0%
BANK4              100      0       0      13        0.0%
BITBANK3           100      0       0      10        0.0%
BANK3              100      0       0      11        0.0%
BITBANK2           100      0       0       8        0.0%
BANK2              100      0       0       9        0.0%
BITBANK1           100      0       0       6        0.0%
BANK1              100      0       0       7        0.0%
BITBANK0            A0      0       0       4        0.0%
BANK0               A0      0      32       5       31.2%
BITCOMRAM           5F      0       0       0        0.0%
COMRAM              5F     40      58       1       92.6%
BITBIGSFRhhhl       1D      0       0      17        0.0%
BITBIGSFRllllll     1C      0       0      27        0.0%
BITBIGSFRhhl         E      0       0      18        0.0%
BITBIGSFRhhhh        D      0       0      16        0.0%
BITBIGSFRlllh        C      0       0      21        0.0%
BITBIGSFRllllll      9      0       0      25        0.0%
BITBIGSFRllhh        7      0       0      20        0.0%
BITBIGSFRlh          7      0       0      19        0.0%
BITBIGSFRlllllh      4      0       0      23        0.0%
BITBIGSFRlllllh      4      0       0      24        0.0%
BITBIGSFRllllh       2      0       0      22        0.0%
BITBIGSFRllllll      1      0       0      26        0.0%
BIGSFR               0      0       0     200        0.0%
BITSFR               0      0       0     200        0.0%
SFR                  0      0       0     200        0.0%
STACK                0      0       0       2        0.0%
NULL                 0      0       0       0        0.0%
ABS                  0      0      8A      28        0.0%
DATA                 0      0      8A       3        0.0%
CODE                 0      0       0       0        0.0%


Microchip Technology PIC18 Macro Assembler V2.36 build 20220127204148 
Symbol Table                                                                                   Fri Dec 23 16:15:48 2022

                                 ___fldiv@aexp 0032                                   ___fldiv@bexp 0031  
                                 ___fldiv@sign 002A                       ??_UART_Tempreture_Output 002A  
                                           l34 1B5A                                             l19 1C7E  
                                           l37 1B7A                                             l83 1B40  
                                           l94 1C92                                             l87 1C08  
                                           l88 1C0A                                   ___awdiv@sign 0012  
                          ___wmul@multiplicand 0003                                            l110 1C68  
                                          l122 1CC2                                            l107 1C56  
                                          l125 1CB8                                            l143 1CA4  
                                          l128 1CCC                                            l233 170C  
                                          l146 1CAE                                            l322 1C30  
                                          l243 19D2                                            l239 1600  
                                          l255 1B02                                            l319 0AD8  
                                          l179 1BB0                                            l611 1706  
                                          l553 189E                                            l801 1A3E  
                                          l811 1AA2                                            l566 194E  
                                          l903 1142                                            l808 1A46  
                                          l905 11BA                                            l818 1AAA  
                                          l906 11A8                                            l931 0D94  
                                          l924 0B9E                                            l941 0EC4  
                                          l933 0E0C                                            l934 0DFA  
                                          l928 0F02                                            l892 129C  
                                          l972 138C                                            l965 12F4  
                                          l894 10FC                                            l968 1450  
                                          l897 10C0                                            l986 1BE2  
                                          l979 13E8                                            _RAM 004F  
               ?_EUSART_SetFramingErrorHandler 0001                                   ___awmod@sign 000C  
                                          wreg 000FE8                                   ___flmul@aexp 0012  
                                 ___flmul@bexp 0013                                   ___flmul@sign 000D  
                                 ___flmul@temp 0018                                   ___flmul@prod 0014  
                                 ___fltol@exp1 003C                                           l2000 1C6A  
                                         l2010 1B3C                                           l2002 1B04  
                                         l2004 1B18                                           l2012 1B7C  
                                         l2020 063C                                           l2006 1B24  
                                         l2014 1BA4                                           l2110 0906  
                                         l2102 08C4                                           l2030 067E  
                                         l2022 0648                                           l2008 1B30  
                                         l2016 1BAE                                           l2200 1836  
                                         l2120 0964                                           l2112 0918  
                                         l2040 06C2                                           l2024 065A  
                                         l2018 1CA6                                           l2210 1870  
                                         l2202 183E                                           l2130 09A0  
                                         l2122 096C                                           l2114 092E  
                                         l2106 08F2                                           l2050 073C  
                                         l2042 06DE                                           l2034 0684  
                                         l2026 0666                                           l2220 1896  
                                         l2212 1872                                           l2204 184C  
                                         l2300 14AE                                           l2140 09F0  
                                         l2132 09B2                                           l2124 097A  
                                         l2116 0934                                           l2108 08F4  
                                         l2060 076E                                           l2052 0744  
                                         l2044 0706                                           l2036 069C  
                                         l2028 066E                                           l2214 1878  
                                         l2206 1852                                           l2230 18BA  
                                         l2310 150A                                           l2302 14B0  
                                         l2150 0A3A                                           l2142 09FC  
                                         l2134 09BE                                           l2126 0990  
                                         l2118 0958                                           l2070 07E4  
                                         l2062 07AA                                           l2054 0756  
                                         l2046 070A                                           l2038 06BA  
                                         l2208 1868                                           l2216 187E  
                                         l2240 18EE                                           l2232 18BE  
                                         l2224 18A0                                           l2320 151E  
                                         l2312 150E                                           l2304 14B2  
                                         l2160 0A98                                           l2144 0A00  
                                         l2136 09C2                                           l2152 0A3E  
                                         l2128 099C                                           l2080 0838  
                                         l2072 07E8                                           l2064 07C0  
                                         l2056 075E                                           l2048 072C  
                                         l2400 0FD0                                           l2218 188E  
                                         l2250 1928                                           l2242 18F6  
                                         l2234 18CC                                           l2226 18A4  
                                         l2330 157C                                           l2322 1520  
                                         l2314 1518                                           l2306 14B4  
                                         l2170 1AAC                                           l2154 0A46  
                                         l2146 0A18                                           l2138 09DE  
                                         l2090 08A6                                           l2074 0806  
                                         l2066 07CC                                           l2058 076A  
                                         l2162 0AAA                                           l2402 0FE6  
                                         l2260 1B44                                           l2180 17DC  
                                         l2244 1904                                           l2252 192E  
                                         l2236 18D4                                           l2228 18B2  
                                         l2340 158E                                           l2332 1586  
                                         l2324 1522                                           l2316 151A  
                                         l2308 14CA                                           l2172 1AC4  
                                         l2156 0A88                                           l2148 0A2E  
                                         l2092 08B4                                           l2164 0ACC  
                                         l2076 0830                                           l2068 07D8  
                                         l2084 0856                                           l2420 103A  
                                         l2404 0FF6                                           l2412 1016  
                                         l2500 0ADA                                           l2262 1B56  
                                         l2270 1C94                                           l2190 1808  
                                         l2182 17E0                                           l2254 193E  
                                         l2246 191A                                           l2238 18E6  
                                         l2350 15E0                                           l2342 1590  
                                         l2334 1588                                           l2326 1538  
                                         l2318 151C                                           l2174 1AD2  
                                         l2158 0A94                                           l2094 08B8  
                                         l2086 088E                                           l2078 0834  
                                         l2430 108C                                           l2422 1054  
                                         l2414 1026                                           l2406 0FFE  
                                         l2510 0B16                                           l2502 0AE6  
                                         l2264 1B58                                           l2272 1CA0  
                                         l2192 1810                                           l2184 17EE  
                                         l2256 1946                                           l2248 1922  
                                         l2360 15EA                                           l2352 15E2  
                                         l2344 15A6                                           l2336 158A  
                                         l2328 1578                                           l2176 1AD6  
                                         l2168 1AAC                                           l2096 08C0  
                                         l2088 089E                                           l2280 198A  
                                         l2440 10E8                                           l2432 109C  
                                         l2424 1064                                           l2416 1026  
                                         l2408 1002                                           l2600 0E1C  
                                         l2520 0B48                                           l2512 0B26  
                                         l2504 0AF4                                           l2266 1B68  
                                         l2194 1814                                           l2186 17F6  
                                         l2354 15E4                                           l2346 15D2  
                                         l2338 158C                                           l2290 1484  
                                         l2178 1AEE                                           l2282 1992  
                                         l2274 1950                                           l2450 1128  
                                         l2442 10EA                                           l2434 10B0  
                                         l2426 1074                                           l2370 0F30  
                                         l2362 0F04                                           l2610 0E7E  
                                         l2602 0E28                                           l2530 0B88  
                                         l2522 0B56                                           l2514 0B2C  
                                         l2506 0AF6                                           l2196 181C  
                                         l2188 17FA                                           l2356 15E6  
                                         l2348 15D6                                           l2292 149C  
                                         l2284 19C6                                           l2276 195C  
                                         l2460 1164                                           l2452 1132  
                                         l2444 10FA                                           l2436 10BE  
                                         l2428 1084                                           l2380 0F6A  
                                         l2372 0F40                                           l2364 0F10  
                                         l2620 0EE6                                           l2612 0E92  
                                         l2604 0E36                                           l2540 0BD2  
                                         l2532 0B8E                                           l2524 0B58  
                                         l2516 0B3C                                           l2508 0B06  
                                         l2700 13CA                                           l2198 182E  
                                         l2358 15E8                                           l2294 14A0  
                                         l2286 1452                                           l2278 197C  
                                         l2470 11D6                                           l2462 1172  
                                         l2454 1140                                           l2446 110C  
                                         l2438 10CA                                           l2390 0F96  
                                         l2382 0F70                                           l2374 0F50  
                                         l2366 0F1E                                           l2622 0EE8  
                                         l2614 0EAC                                           l2606 0E60  
                                         l2550 0C22                                           l2542 0BDE  
                                         l2534 0BAE                                           l2526 0B68  
                                         l2518 0B42                                           l2630 1602  
                                         l2710 1420                                           l2702 13D8  
                                         l1920 1CBA                                           l2296 14AA  
                                         l2288 1454                                           l2480 1242  
                                         l2472 11E4                                           l2464 11A0  
                                         l2448 1122                                           l2456 1152  
                                         l2392 0FA6                                           l2384 0F76  
                                         l2376 0F52                                           l2368 0F20  
                                         l2616 0EC8                                           l2624 0EEE  
                                         l2608 0E64                                           l2560 0C64  
                                         l2552 0C2E                                           l2544 0BE8  
                                         l2536 0BBE                                           l2528 0B78  
                                         l2640 1658                                           l2632 1618  
                                         l2712 1430                                           l2704 13F6  
                                         l2720 1708                                           l1922 1CB0  
                                         l2298 14AC                                           l1930 1BF6  
                                         l2490 1290                                           l2482 125C  
                                         l2474 120E                                           l2458 1160  
                                         l2394 0FB6                                           l2386 0F84  
                                         l2378 0F5A                                           l2626 0EF2  
                                         l2618 0ED8                                           l2570 0CC6  
                                         l2562 0C70                                           l2554 0C3A  
                                         l2546 0BFE                                           l2642 1668  
                                         l2714 143E                                           l2706 13F8  
                                         l2722 1734                                           l1924 1CC4  
                                         l1940 1C56                                           l1932 1C04  
                                         l2492 1292                                           l2484 1278  
                                         l2468 11CA                                           l2476 1212  
                                         l2396 0FB8                                           l2388 0F86  
                                         l2580 0D5C                                           l2572 0CD2  
                                         l2564 0C80                                           l2556 0C48  
                                         l2548 0C0A                                           l2652 1692  
                                         l2644 166C                                           l2636 162C  
                                         l2716 1440                                           l2708 13FC  
                                         l2724 178C                                           l1942 1C64  
                                         l1926 1BE4                                           l1950 1BD8  
                                         l2486 127C                                           l2478 122C  
                                         l2398 0FC0                                           l2590 0DB2  
                                         l2582 0D7A                                           l2574 0CEE  
                                         l2566 0C9A                                           l2558 0C54  
                                         l2670 16F6                                           l2662 16BA  
                                         l2654 169C                                           l2646 167A  
                                         l2638 1656                                           l2726 17CC  
                                         l1936 1C80                                           l1928 1BE8  
                                         l1952 1BDC                                           l1944 1BB4  
                                         l2488 128A                                           l2592 0DB6  
                                         l2584 0D84                                           l2576 0D18  
                                         l2568 0CAA                                           l2664 16C6  
                                         l2656 16A6                                           l2680 1304  
                                         l2728 17D0                                           l1970 19FE  
                                         l1962 19D4                                           l1946 1BB8  
                                         l2594 0DC4                                           l2586 0D92  
                                         l2578 0D4E                                           l2666 16D6  
                                         l2690 1342                                           l2682 131A  
                                         l2674 12A0                                           l1956 1C0C  
                                         l1980 1A32                                           l1972 1A0C  
                                         l1964 19DC                                           l1948 1BC8  
                                         l2596 0DF2                                           l2588 0DA4  
                                         l2668 16E6                                           l2692 1374  
                                         l2676 12B0                                           l1958 1C28  
                                         l1982 1A38                                           l1974 1A12  
                                         l1966 19EE                                           l1990 1A6A  
                                         l2694 1376                                           l2686 132E  
                                         l2678 12BE                                           l1976 1A28  
                                         l1968 19F6                                           l1992 1A78  
                                         l1984 1A48                                           l2696 1382  
                                         l2688 1336                                           l1978 1A30  
                                         l1994 1A8E                                           l1986 1A5A  
                                         l2698 13BE                                           l1996 1A96  
                                         l1988 1A62                                           l1998 1A9C  
                                         STR_1 0627                                           STR_2 060B  
                                         STR_3 061A                                           STR_4 0634  
                                         u1200 1BC8                                           u2000 0BBE  
                                         u1201 1BC4                                           u2001 0BBA  
                                         u1210 1BD8                                           u2010 0D38  
                                         u1211 1BD4                                           u1220 19EE  
                                         u1300 0728                                           u2100 0EAC  
                                         u2020 0D92                                           u1221 19EA  
                                         u1301 0724                                           u2101 0EA8  
                                         u2021 0D8E                                           u1230 1A0C  
                                         u1310 0756                                           u2110 0EE6  
                                         u2030 0DB2                                           u1231 1A08  
                                         u1311 0752                                           u2111 0EE2  
                                         u2031 0DAE                                           u2015 0D2E  
                                         u1160 1BF6                                           u1240 1A28  
                                         u1400 0906                                           u1320 079A  
                                         u2040 0DC4                                           u2120 1618  
                                         u2200 12BE                                           u1161 1BF2  
                                         u1241 1A24                                           u1401 0902  
                                         u2041 0DC0                                           u2121 1614  
                                         u2201 12BA                                           u1170 1C04  
                                         u1250 1A5A                                           u1410 0918  
                                         u1330 07AA                                           u2050 0DF2  
                                         u2130 164C                                           u2210 131A  
                                         u1171 1C00                                           u1251 1A56  
                                         u1411 0914                                           u1331 07A6  
                                         u2051 0DEE                                           u2211 1316  
                                         u1180 1C90                                           u1260 1A78  
                                         u1500 0A2E                                           u1420 092E  
                                         u1340 07C0                                           u2060 0E08  
                                         u2140 167A                                           u2220 1370  
                                         u1181 1C8A                                           u1261 1A74  
                                         u1501 0A2A                                           u1421 092A  
                                         u1341 07BC                                           u2061 0E04  
                                         u2141 1676                                           u2221 136C  
                                         _LATA 000F89                                           u1190 1C64  
                                         u1270 1A8E                                           u1510 0AAA  
                                         u1430 0958                                           u1350 0802  
                                         u2070 0E1C                                           u2150 168E  
                                         u2230 13BA                                           _LATB 000F8A  
                                         u1191 1C60                                           u1271 1A8A  
                                         u1511 0AA6                                           u1431 0954  
                                         u1351 07FE                                           u1327 0790  
                                         u2071 0E18                                           u2151 168A  
                                         u2135 1642                                           u2231 13B6  
                                         _LATC 000F8B                                           u1600 1868  
                                         u1520 0ACC                                           u1440 097A  
                                         u1360 082E                                           u1280 065A  
                                         u2080 0E36                                           u2160 16B6  
                                         u2240 13D8                                           _LATD 000F8C  
                                         u1601 1864                                           u1521 0AC8  
                                         u1441 0976                                           u1281 0656  
                                         u2081 0E32                                           u2161 16B2  
                                         u2241 13D4                                           _LATE 000F8D  
                                         u1610 188E                                           u1186 1C92  
                                         u1530 1AC0                                           u1450 0990  
                                         u1370 0852                                           u1290 06BA  
                                         u2090 0E7E                                           u2170 16D6  
                                         u2250 13E8                                           u1611 188A  
                                         u2307 152C                                           u1531 1ABC  
                                         u1451 098C                                           u1371 084E  
                                         u1291 06B6                                           u2091 0E7A  
                                         u2171 16D2                                           u2251 13E4  
                                         u1620 18B2                                           u1540 1AEE  
                                         u1460 09B2                                           u1380 08B4  
                                         u1700 0F1E                                           u2180 16E6  
                                         u2260 13F6                                           u1621 18AE  
                                         u2317 159A                                           u1541 1AEA  
                                         u1461 09AE                                           u1381 08B0  
                                         u1701 0F1A                                           u2181 16E2  
                                         u2261 13F2                                           u1630 18CC  
                                         u1550 1B02                                           u1470 09DA  
                                         u1390 08EE                                           u1710 0F30  
                                         u2270 1430                                           u2190 12B0  
                                         u1631 18C8                                           u2327 15F4  
                                         u1551 1AFE                                           u1471 09D6  
                                         u1391 08EA                                           u1367 0824  
                                         u1711 0F2C                                           u2271 142C  
                                         u2191 12AC                                           u1560 17EE  
                                         u1640 18E6                                           u1480 09F0  
                                         u1800 10E8                                           u1720 0F40  
                                         u2280 143E                                           u1561 17EA  
                                         u1641 18E2                                           u1481 09EC  
                                         u1801 10E4                                           u1721 0F3C  
                                         u2281 143A                                           u1570 1808  
                                         u1650 1904                                           u1490 0A18  
                                         u1810 110C                                           u1730 0F84  
                                         u1571 1804                                           u1651 1900  
                                         u1491 0A14                                           u1811 1108  
                                         u1731 0F80                                           u1580 182E  
                                         u1660 191A                                           u1900 122C  
                                         u1820 1122                                           u1740 0F96  
                                         u1581 182A                                           u1661 1916  
                                         u1901 1228                                           u1821 111E  
                                         u1741 0F92                                           u1590 184C  
                                         u1670 193E                                           u1910 125C  
                                         u1830 1140                                           u1750 0FA6  
                                         u1591 1848                                           u1671 193A  
                                         u1911 1258                                           u1831 113C  
                                         u1751 0FA2                                           u1680 1B68  
                                         u1920 128A                                           u1840 1160  
                                         u1760 0FE6                                           u1681 1B64  
                                         u2297 14BE                                           u1921 1286  
                                         u1841 115C                                           u1761 0FE2  
                                         u1690 198A                                           u1850 1172  
                                         u1770 1026                                           u1930 0AF4  
                                         u1691 1986                                           u1851 116E  
                                         u1771 1022                                           u1931 0AF0  
                                         u1860 11A0                                           u1780 109C  
                                         u1940 0B06                                           u1861 119C  
                                         u1781 1098                                           u1941 0B02  
                                         u1870 11B6                                           u1790 10BE  
                                         u1950 0B16                                           u1871 11B2  
                                         u1791 10BA                                           u1951 0B12  
                                         u1880 11CA                                           u1960 0B56  
                                         u1881 11C6                                           u1961 0B52  
                                         u1890 11E4                                           u1970 0B68  
                                         u1891 11E0                                           u1971 0B64  
                                         u1980 0B78                                           u1981 0B74  
                                         u1990 0BAE                                           u1991 0BAA  
                                         _WPUB 000F7C                                           _main 1708  
                                         fsr0h 000FEA                                           indf0 000FEF  
                                         fsr2h 000FDA                                           fsr0l 000FE9  
                                         indf2 000FDF                                           fsr2l 000FD9  
                                         prodh 000FF4                                           prodl 000FF3  
                                         start 0000                                ___fldiv@new_exp 002B  
                                 ___param_bank 000000                                  ?_EUSART_Write 0001  
                __end_of_OSCILLATOR_Initialize 1CB0                                  ___fltol@sign1 003B  
                                        ?_main 0001                                __end_of___fldiv 129E  
                              __end_of___awdiv 18A0                                __end_of___awmod 1950  
                              __end_of___flmul 0F04                                __end_of___fltol 1708  
                                        _ANSEL 000F7E                                ___awdiv@divisor 000F  
                              __end_of___lwdiv 1A48                                __end_of___lwmod 1AAC  
                              ___awdiv@counter 0011                                          _RCREG 000FAE  
                                        _RCSTA 000FAB                                          _SPBRG 000FAF  
                                        _TRISA 000F92                                          _TRISB 000F93  
                                        _TRISC 000F94                                          _TRISD 000F95  
                                        _TRISE 000F96                                          _TXREG 000FAD  
                                        _TXSTA 000FAC                                    _xvalueASCII 0060  
                       ?_USART_String_Transmit 0002                                __end_of_dpowers 060B  
                              __end_of_isdigit 1BE4                                          _whole 0045  
                                        tablat 000FF5                                          status 000FD8  
                              __end_of_sprintf 0ADA                                __initialization 1C32  
                                 __end_of_main 17DC                                 ??_EUSART_Write 0001  
                                       ??_main 003D                                  __activetblptr 000002  
            _EUSART_DefaultFramingErrorHandler 000000                                         _ADCON0 000FC2  
                                       _ADCON1 000FC1                                         _ADCON2 000FC0  
                   _EUSART_OverrunErrorHandler 004B                                         _ADRESH 000FC4  
                                       _ADRESL 000FC3                               ___awdiv@dividend 000D  
                                       _ANSELH 000F7F                     __end_of_EUSART_is_tx_ready 1C0C  
                                       _OSCCON 000FD3                                         _SPBRGH 000FB0  
                             __end_of___xxtofl 1452                                         ___wmul 1C0C  
                                    ??___fldiv 0022                                      ??___awdiv 0011  
                                    ??___awmod 000B                                      ??___flmul 0009  
                                    ??___fltol 0037                                      ??___lwdiv 0005  
                                    ??___lwmod 000C                                         clear_0 1C38  
                                       clear_1 1C44                               ___awdiv@quotient 0013  
                              ___awmod@divisor 0009                                         isa$std 000001  
                              ___awmod@counter 000B                                      ??_isdigit 0001  
                                 __mediumconst 0000                                         tblptrh 000FF7  
                                       tblptrl 000FF6                                         tblptru 000FF8  
                                  _First_Digit 0057                       ADC_GetConversion@channel 0005  
                                    ??_sprintf 0019                         _UART_Tempreture_Output 1950  
                                 ___xxtofl@arg 0010                                   ___xxtofl@exp 000F  
                            _SYSTEM_Initialize 1C94                                   ___xxtofl@val 0006  
                                   __accesstop 0060                        __end_of__initialization 1C4A  
                           ?_SYSTEM_Initialize 0001                                  ___rparam_used 000001  
                                   ___fltol@f1 0033                                 __pcstackCOMRAM 0001  
                          ??_SYSTEM_Initialize 0003                ??_EUSART_SetOverrunErrorHandler 0003  
                    __end_of_SYSTEM_Initialize 1CA6                                   sprintf@width 0028  
                                   __pbssBANK0 0060                           __end_of_EUSART_Write 1C6A  
                                   __pnvCOMRAM 0041                                        ?___wmul 0001  
                                      _BAUDCON 000FB8                                   _LM35_Reading 0047  
                      ??_USART_String_Transmit 0004                                      ?___xxtofl 0006  
                                      _OSCTUNE 000F9B                       ??_EUSART_SetErrorHandler 0003  
                         _ADC_InterruptHandler 0052                                        __Hparam 0000  
                                      __Lparam 0000                                    _Third_Digit 0055  
                                      ___fldiv 0F04                                        ___awdiv 17DC  
                                      ___awmod 18A0                                        ___flmul 0ADA  
                                      _Voltage 0041                                        ___fltol 1602  
                                      ___lwdiv 19D4                                        ___lwmod 1A48  
                                 __psmallconst 0600                                        _decimal 0050  
                                      __pcinit 1C32                                        __ramtop 0600  
                                      __ptext0 1708                                        __ptext1 129E  
                                      __ptext2 1602                                        __ptext3 0ADA  
                                      __ptext4 0F04                                        __ptext5 1950  
                                      __ptext6 063C                                        __ptext7 1BB2  
                                      __ptext8 1A48                                        __ptext9 19D4  
                                      _dpowers 0601                          _OSCILLATOR_Initialize 1CA6  
                                      _isdigit 1BB2                                     ??___xxtofl 000A  
                             ___awmod@dividend 0007                       ??_PIN_MANAGER_Initialize 0001  
                                      _sprintf 063C                           end_of_initialization 1C4A  
        __end_of_EUSART_SetOverrunErrorHandler 1CBA                  _EUSART_SetOverrunErrorHandler 1CB0  
                                __Lmediumconst 0000                              _EUSART_Initialize 1B04  
                           ?_EUSART_Initialize 0001                                      _RCSTAbits 000FAB  
                                      postdec2 000FDD                                        postinc0 000FEE  
                                      postinc2 000FDE                             _EUSART_is_tx_ready 1BE4  
                          ??_EUSART_Initialize 0003                            ?_EUSART_is_tx_ready 0001  
                                ___xxtofl@sign 000E                        ?_UART_Tempreture_Output 0001  
                                  ___fldiv@grs 002D                                    ___fldiv@rem 0026  
                                  ___flmul@grs 000E                      __end_of_EUSART_Initialize 1B42  
                         ??_EUSART_is_tx_ready 0001                                      _TXSTAbits 000FAC  
                   _EUSART_DefaultErrorHandler 000000                                 __end_of___wmul 1C32  
                                 _EUSART_Write 1C54                                 _ADC_Initialize 1C6A  
                       ?_OSCILLATOR_Initialize 0001                 __end_of_UART_Tempreture_Output 19D4  
                          start_initialization 1C32                         _EUSART_is_tx_ready$327 0001  
               ?_EUSART_SetOverrunErrorHandler 0001                     _EUSART_FramingErrorHandler 004D  
                                 _Fourth_Digit 0054                                       ??___wmul 0005  
                       _EUSART_SetErrorHandler 1CC4                         __end_of_ADC_Initialize 1C80  
                                    ___fldiv@a 001E                                      ___fldiv@b 001A  
                                    ___flmul@a 0005                                      ___flmul@b 0001  
                                  __pbssCOMRAM 0052                  __end_of_USART_String_Transmit 1B04  
                                 _isdigit$1111 0002                                    sprintf@flag 0026  
                                  sprintf@prec 001D                                      _main$1326 003D  
                             ___lwdiv@dividend 0001                         _PIN_MANAGER_Initialize 1B7C  
                                     ?___fldiv 001A                                       ?___awdiv 000D  
                                     ?___awmod 0007                                       ?___flmul 0001  
                                     ?___fltol 0033                                       ?___lwdiv 0001  
                                     ?___lwmod 0008                                ?_ADC_Initialize 0001  
                                  __smallconst 0600                                       ?_isdigit 0001  
                                 _Second_Digit 0056                               ___lwdiv@quotient 0005  
                                     ?_sprintf 000D                                 ___wmul@product 0005  
                                     _LATAbits 000F89         EUSART_SetErrorHandler@interruptHandler 0001  
                                     _LATDbits 000F8C                              _eusartRxLastError 0058  
                                     _PIR1bits 000F9E                ??_EUSART_SetFramingErrorHandler 0003  
                            _EUSART_is_tx_done 1C80              _EUSART_DefaultOverrunErrorHandler 000000  
                           ?_EUSART_is_tx_done 0001           _Seven_Segment_Tempreture_Output$1327 0017  
                                   _ADCON0bits 000FC2                              ___wmul@multiplier 0001  
                          ??_EUSART_is_tx_done 0001                                    _INTCON2bits 000FF1  
      __end_of_Seven_Segment_Tempreture_Output 1602              ??_Seven_Segment_Tempreture_Output 0015  
             ?_Seven_Segment_Tempreture_Output 0001                _Seven_Segment_Tempreture_Output 1452  
                    __end_of_EUSART_is_tx_done 1C94                                       __Hrparam 0000  
                                     __Lrparam 0000                              _ADC_GetConversion 1B42  
                      ??_OSCILLATOR_Initialize 0001                            _EUSART_ErrorHandler 0049  
                           ?_ADC_GetConversion 0001                            ??_ADC_GetConversion 0003  
                                   sprintf@len 0024                                     sprintf@val 0022  
                                     ___xxtofl 129E                                ___lwdiv@divisor 0003  
                              ___lwdiv@counter 0007                                       __ptext10 1AAC  
                                     __ptext11 1BE4                                       __ptext20 1CA6  
                                     __ptext12 1C80                                       __ptext21 1B04  
                                     __ptext13 1C54                                       __ptext22 1CB0  
                                     __ptext14 1452                                       __ptext23 1CBA  
                                     __ptext15 1C0C                                       __ptext24 1CC4  
                                     __ptext16 18A0                                       __ptext25 1C6A  
                                     __ptext17 17DC                                       __ptext26 1B42  
                                     __ptext18 1C94                                       __ptext19 1B7C  
                    __end_of_ADC_GetConversion 1B7C                        ?_EUSART_SetErrorHandler 0001  
EUSART_SetOverrunErrorHandler@interruptHandler 0001                                       isa$xinst 000000  
                  USART_String_Transmit@string 0002          __end_of_EUSART_SetFramingErrorHandler 1CC4  
                _EUSART_SetFramingErrorHandler 1CBA                                     _INTCONbits 000FF2  
                                     isdigit@c 0003                                      sprintf@ap 001E  
                                    sprintf@cp 0020                                      sprintf@sp 000D  
                             ___lwmod@dividend 0008                        ?_PIN_MANAGER_Initialize 0001  
               __end_of_EUSART_SetErrorHandler 1CCE                               ??_ADC_Initialize 0001  
EUSART_SetFramingErrorHandler@interruptHandler 0001                                       sprintf@c 0027  
                                     sprintf@f 000F                                ___lwmod@divisor 000A  
                              ___lwmod@counter 000C                          _USART_String_Transmit 1AAC  
                           EUSART_Write@txData 0001                 __end_of_PIN_MANAGER_Initialize 1BB2  
