

Microchip MPLAB XC8 Assembler V2.41 build 20230208172133 
                                                                                               Sun Jul 09 11:38:29 2023

Microchip MPLAB XC8 C Compiler v2.41 (Free license) build 20230208172133 Og1 
     1                           	processor	18F45K20
     2                           	fnconf	rparam,??,?,0
     3                           	pagewidth 120
     4                           	opt	flic
     5                           	psect	idataCOMRAM,global,class=CODE,delta=1,noexec
     6                           	psect	cinit,global,reloc=2,class=CODE,delta=1
     7                           	psect	bssCOMRAM,global,class=COMRAM,space=1,delta=1,lowdata,noexec
     8                           	psect	dataCOMRAM,global,class=COMRAM,space=1,delta=1,lowdata,noexec
     9                           	psect	bssBANK0,global,class=BANK0,space=1,delta=1,lowdata,noexec
    10                           	psect	cstackCOMRAM,global,class=COMRAM,space=1,delta=1,lowdata,noexec
    11                           	psect	text0,global,reloc=2,class=CODE,delta=1
    12                           	psect	text1,global,reloc=2,class=CODE,delta=1,group=1
    13                           	psect	text2,global,reloc=2,class=CODE,delta=1,group=1
    14                           	psect	text3,global,reloc=2,class=CODE,delta=1,group=1
    15                           	psect	text4,global,reloc=2,class=CODE,delta=1,group=1
    16                           	psect	text5,global,reloc=2,class=CODE,delta=1,group=1
    17                           	psect	text6,global,reloc=2,class=CODE,delta=1,group=1
    18                           	psect	text7,global,reloc=2,class=CODE,delta=1
    19                           	psect	text8,global,reloc=2,class=CODE,delta=1
    20                           	psect	text9,global,reloc=2,class=CODE,delta=1
    21                           	psect	text10,global,reloc=2,class=CODE,delta=1
    22                           	psect	text11,global,reloc=2,class=CODE,delta=1
    23                           	psect	text12,global,reloc=2,class=CODE,delta=1
    24                           	psect	text13,global,reloc=2,class=CODE,delta=1
    25                           	psect	text14,global,reloc=2,class=CODE,delta=1
    26                           	psect	intsave_regs,global,class=BIGRAM,space=1,delta=1,noexec
    27                           	psect	rparam,global,class=COMRAM,space=1,delta=1,noexec
    28                           	psect	idloc,global,abs,ovrld,class=IDLOC,space=5,delta=1,noexec
    29                           	psect	config,global,abs,ovrld,class=CONFIG,space=4,delta=1,noexec
    30   000000                     
    31                           ; Version 2.20
    32                           ; Generated 12/02/2020 GMT
    33                           ; 
    34                           ; Copyright © 2020, Microchip Technology Inc. and its subsidiaries ("Microchip")
    35                           ; All rights reserved.
    36                           ; 
    37                           ; This software is developed by Microchip Technology Inc. and its subsidiaries ("Microch
      +                          ip").
    38                           ; 
    39                           ; Redistribution and use in source and binary forms, with or without modification, are
    40                           ; permitted provided that the following conditions are met:
    41                           ; 
    42                           ;     1. Redistributions of source code must retain the above copyright notice, this lis
      +                          t of
    43                           ;        conditions and the following disclaimer.
    44                           ; 
    45                           ;     2. Redistributions in binary form must reproduce the above copyright notice, this 
      +                          list
    46                           ;        of conditions and the following disclaimer in the documentation and/or other
    47                           ;        materials provided with the distribution.
    48                           ; 
    49                           ;     3. Microchip's name may not be used to endorse or promote products derived from th
      +                          is
    50                           ;        software without specific prior written permission.
    51                           ; 
    52                           ; THIS SOFTWARE IS PROVIDED BY MICROCHIP "AS IS" AND ANY EXPRESS OR IMPLIED WARRANTIES,
    53                           ; INCLUDING, BUT NOT LIMITED TO, THE IMPLIED WARRANTIES OF MERCHANTABILITY AND FITNESS F
      +                          OR
    54                           ; PURPOSE ARE DISCLAIMED.  IN NO EVENT SHALL MICROCHIP BE LIABLE FOR ANY DIRECT, INDIREC
      +                          T,
    55                           ; INCIDENTAL, SPECIAL, EXEMPLARY, OR CONSEQUENTIAL DAMAGES (INCLUDING BUT NOT LIMITED TO
    56                           ; PROCUREMENT OF SUBSTITUTE GOODS OR SERVICES; LOSS OF USE, DATA OR PROFITS; OR BUSINESS
    57                           ; INTERRUPTION) HOWSOEVER CAUSED AND ON ANY THEORY OF LIABILITY, WHETHER IN CONTRACT, ST
      +                          RICT
    58                           ; LIABILITY, OR TORT (INCLUDING NEGLIGENCE OR OTHERWISE) ARISING IN ANY WAY OUT OF THE U
      +                          SE OF
    59                           ; THIS SOFTWARE, EVEN IF ADVISED OF THE POSSIBILITY OF SUCH DAMAGE.
    60                           ; 
    61                           ; 
    62                           ; Code-generator required, PIC18F45K20 Definitions
    63                           ; 
    64                           ; SFR Addresses
    65   000000                     
    66                           	psect	idataCOMRAM
    67   006F64                     __pidataCOMRAM:
    68                           	callstack 0
    69                           
    70                           ;initializer for _Number_Mapping
    71   006F64  C0                 	db	192
    72   006F65  F9                 	db	249
    73   006F66  A4                 	db	164
    74   006F67  B0                 	db	176
    75   006F68  99                 	db	153
    76   006F69  92                 	db	146
    77   006F6A  82                 	db	130
    78   006F6B  F8                 	db	248
    79   006F6C  80                 	db	128
    80   006F6D  90                 	db	144
    81   000000                     _TRISD	set	3989
    82   000000                     _TRISC	set	3988
    83   000000                     _TRISB	set	3987
    84   000000                     _LATC	set	3979
    85   000000                     _LATB	set	3978
    86   000000                     _ADCON0	set	4034
    87   000000                     _ADRESL	set	4035
    88   000000                     _LATAbits	set	3977
    89   000000                     _LATBbits	set	3978
    90   000000                     _ADCON0bits	set	4034
    91   000000                     _WPUB	set	3964
    92   000000                     _ANSEL	set	3966
    93   000000                     _LATA	set	3977
    94   000000                     _LATD	set	3980
    95   000000                     _LATE	set	3981
    96   000000                     _OSCTUNE	set	3995
    97   000000                     _ADCON2	set	4032
    98   000000                     _ADCON1	set	4033
    99   000000                     _OSCCON	set	4051
   100   000000                     _ADRESH	set	4036
   101   000000                     _INTCON2bits	set	4081
   102   000000                     _TRISA	set	3986
   103   000000                     _TRISE	set	3990
   104   000000                     _ANSELH	set	3967
   105   000000                     _INTCONbits	set	4082
   106                           
   107                           ; #config settings
   108                           
   109                           	psect	cinit
   110   007004                     __pcinit:
   111                           	callstack 0
   112   007004                     start_initialization:
   113                           	callstack 0
   114   007004                     __initialization:
   115                           	callstack 0
   116                           
   117                           ; Initialize objects allocated to COMRAM (10 bytes)
   118                           ; load TBLPTR registers with __pidataCOMRAM
   119   007004  0E64               	movlw	low __pidataCOMRAM
   120   007006  6EF6               	movwf	tblptrl,c
   121   007008  0E6F               	movlw	high __pidataCOMRAM
   122   00700A  6EF7               	movwf	tblptrh,c
   123   00700C  0E00               	movlw	low (__pidataCOMRAM shr (0+16))
   124   00700E  6EF8               	movwf	tblptru,c
   125   007010  EE00  F054         	lfsr	0,__pdataCOMRAM
   126   007014  EE10 F00A          	lfsr	1,10
   127   007018                     copy_data0:
   128   007018  0009               	tblrd		*+
   129   00701A  CFF5 FFEE          	movff	tablat,postinc0
   130   00701E  50E5               	movf	postdec1,w,c
   131   007020  50E1               	movf	fsr1l,w,c
   132   007022  E1FA               	bnz	copy_data0
   133                           
   134                           ; Clear objects allocated to BANK0 (50 bytes)
   135   007024  EE00  F060         	lfsr	0,__pbssBANK0
   136   007028  0E32               	movlw	50
   137   00702A                     clear_0:
   138   00702A  6AEE               	clrf	postinc0,c
   139   00702C  06E8               	decf	wreg,f,c
   140   00702E  E1FD               	bnz	clear_0
   141                           
   142                           ; Clear objects allocated to COMRAM (17 bytes)
   143   007030  EE00  F043         	lfsr	0,__pbssCOMRAM
   144   007034  0E11               	movlw	17
   145   007036                     clear_1:
   146   007036  6AEE               	clrf	postinc0,c
   147   007038  06E8               	decf	wreg,f,c
   148   00703A  E1FD               	bnz	clear_1
   149   00703C                     end_of_initialization:
   150                           	callstack 0
   151   00703C                     __end_of__initialization:
   152                           	callstack 0
   153   00703C  0E00               	movlw	low (__Lmediumconst shr (0+16))
   154   00703E  6EF8               	movwf	tblptru,c
   155   007040  0100               	movlb	0
   156   007042  EF07  F03C         	goto	_main	;jump to C main() function
   157                           
   158                           	psect	bssCOMRAM
   159   000043                     __pbssCOMRAM:
   160                           	callstack 0
   161   000043                     _Voltage:
   162                           	callstack 0
   163   000043                     	ds	4
   164   000047                     _decimal:
   165                           	callstack 0
   166   000047                     	ds	2
   167   000049                     _whole:
   168                           	callstack 0
   169   000049                     	ds	2
   170   00004B                     _ADC_InterruptHandler:
   171                           	callstack 0
   172   00004B                     	ds	2
   173   00004D                     _RAM:
   174                           	callstack 0
   175   00004D                     	ds	1
   176   00004E                     _Fourth_Digit:
   177                           	callstack 0
   178   00004E                     	ds	1
   179   00004F                     _Third_Digit:
   180                           	callstack 0
   181   00004F                     	ds	1
   182   000050                     _Second_Digit:
   183                           	callstack 0
   184   000050                     	ds	1
   185   000051                     _First_Digit:
   186                           	callstack 0
   187   000051                     	ds	1
   188   000052                     _TMP36_Reading:
   189                           	callstack 0
   190   000052                     	ds	2
   191                           
   192                           	psect	dataCOMRAM
   193   000054                     __pdataCOMRAM:
   194                           	callstack 0
   195   000054                     _Number_Mapping:
   196                           	callstack 0
   197   000054                     	ds	10
   198                           
   199                           	psect	bssBANK0
   200   000060                     __pbssBANK0:
   201                           	callstack 0
   202   000060                     _xvalueASCII:
   203                           	callstack 0
   204   000060                     	ds	50
   205                           
   206                           	psect	cstackCOMRAM
   207   000001                     __pcstackCOMRAM:
   208                           	callstack 0
   209   000001                     ??_ADC_SelectChannel:
   210   000001                     ?_ADC_GetConversionResult:
   211                           	callstack 0
   212   000001                     ?___awmod:
   213                           	callstack 0
   214   000001                     ?___flmul:
   215                           	callstack 0
   216   000001                     ___awmod@dividend:
   217                           	callstack 0
   218   000001                     ___flmul@b:
   219                           	callstack 0
   220                           
   221                           ; 4 bytes @ 0x0
   222   000001                     	ds	1
   223   000002                     ADC_SelectChannel@channel:
   224                           	callstack 0
   225                           
   226                           ; 1 bytes @ 0x1
   227   000002                     	ds	1
   228   000003                     ??_ADC_GetConversionResult:
   229   000003                     ___awmod@divisor:
   230                           	callstack 0
   231                           
   232                           ; 2 bytes @ 0x2
   233   000003                     	ds	2
   234   000005                     ?___xxtofl:
   235                           	callstack 0
   236   000005                     ___awmod@counter:
   237                           	callstack 0
   238   000005                     ___flmul@a:
   239                           	callstack 0
   240   000005                     ___xxtofl@val:
   241                           	callstack 0
   242                           
   243                           ; 4 bytes @ 0x4
   244   000005                     	ds	1
   245   000006                     ___awmod@sign:
   246                           	callstack 0
   247                           
   248                           ; 1 bytes @ 0x5
   249   000006                     	ds	1
   250   000007                     ?___awdiv:
   251                           	callstack 0
   252   000007                     ___awdiv@dividend:
   253                           	callstack 0
   254                           
   255                           ; 2 bytes @ 0x6
   256   000007                     	ds	2
   257   000009                     ??___flmul:
   258   000009                     ??___xxtofl:
   259   000009                     ___awdiv@divisor:
   260                           	callstack 0
   261                           
   262                           ; 2 bytes @ 0x8
   263   000009                     	ds	2
   264   00000B                     ___awdiv@counter:
   265                           	callstack 0
   266                           
   267                           ; 1 bytes @ 0xA
   268   00000B                     	ds	1
   269   00000C                     ___awdiv@sign:
   270                           	callstack 0
   271                           
   272                           ; 1 bytes @ 0xB
   273   00000C                     	ds	1
   274   00000D                     ___flmul@sign:
   275                           	callstack 0
   276   00000D                     ___xxtofl@sign:
   277                           	callstack 0
   278   00000D                     ___awdiv@quotient:
   279                           	callstack 0
   280                           
   281                           ; 2 bytes @ 0xC
   282   00000D                     	ds	1
   283   00000E                     ___xxtofl@exp:
   284                           	callstack 0
   285   00000E                     ___flmul@grs:
   286                           	callstack 0
   287                           
   288                           ; 4 bytes @ 0xD
   289   00000E                     	ds	1
   290   00000F                     ___xxtofl@arg:
   291                           	callstack 0
   292                           
   293                           ; 4 bytes @ 0xE
   294   00000F                     	ds	3
   295   000012                     ___flmul@aexp:
   296                           	callstack 0
   297                           
   298                           ; 1 bytes @ 0x11
   299   000012                     	ds	1
   300   000013                     ___flmul@bexp:
   301                           	callstack 0
   302                           
   303                           ; 1 bytes @ 0x12
   304   000013                     	ds	1
   305   000014                     ___flmul@prod:
   306                           	callstack 0
   307                           
   308                           ; 4 bytes @ 0x13
   309   000014                     	ds	4
   310   000018                     ___flmul@temp:
   311                           	callstack 0
   312                           
   313                           ; 2 bytes @ 0x17
   314   000018                     	ds	2
   315   00001A                     ?___fldiv:
   316                           	callstack 0
   317   00001A                     ___fldiv@b:
   318                           	callstack 0
   319                           
   320                           ; 4 bytes @ 0x19
   321   00001A                     	ds	4
   322   00001E                     ___fldiv@a:
   323                           	callstack 0
   324                           
   325                           ; 4 bytes @ 0x1D
   326   00001E                     	ds	4
   327   000022                     ??___fldiv:
   328                           
   329                           ; 1 bytes @ 0x21
   330   000022                     	ds	4
   331   000026                     ___fldiv@rem:
   332                           	callstack 0
   333                           
   334                           ; 4 bytes @ 0x25
   335   000026                     	ds	4
   336   00002A                     ___fldiv@sign:
   337                           	callstack 0
   338                           
   339                           ; 1 bytes @ 0x29
   340   00002A                     	ds	1
   341   00002B                     ___fldiv@new_exp:
   342                           	callstack 0
   343                           
   344                           ; 2 bytes @ 0x2A
   345   00002B                     	ds	2
   346   00002D                     ___fldiv@grs:
   347                           	callstack 0
   348                           
   349                           ; 4 bytes @ 0x2C
   350   00002D                     	ds	4
   351   000031                     ___fldiv@bexp:
   352                           	callstack 0
   353                           
   354                           ; 1 bytes @ 0x30
   355   000031                     	ds	1
   356   000032                     ___fldiv@aexp:
   357                           	callstack 0
   358                           
   359                           ; 1 bytes @ 0x31
   360   000032                     	ds	1
   361   000033                     ?___fltol:
   362                           	callstack 0
   363   000033                     ___fltol@f1:
   364                           	callstack 0
   365                           
   366                           ; 4 bytes @ 0x32
   367   000033                     	ds	4
   368   000037                     ??___fltol:
   369                           
   370                           ; 1 bytes @ 0x36
   371   000037                     	ds	4
   372   00003B                     ___fltol@sign1:
   373                           	callstack 0
   374                           
   375                           ; 1 bytes @ 0x3A
   376   00003B                     	ds	1
   377   00003C                     ___fltol@exp1:
   378                           	callstack 0
   379                           
   380                           ; 1 bytes @ 0x3B
   381   00003C                     	ds	1
   382   00003D                     ??_main:
   383                           
   384                           ; 1 bytes @ 0x3C
   385   00003D                     	ds	2
   386   00003F                     _main$1009:
   387                           	callstack 0
   388                           
   389                           ; 2 bytes @ 0x3E
   390   00003F                     	ds	2
   391   000041                     main@TMP36_Reading_Convert:
   392                           	callstack 0
   393                           
   394                           ; 2 bytes @ 0x40
   395   000041                     	ds	2
   396                           
   397 ;;
   398 ;;Main: autosize = 0, tempsize = 2, incstack = 0, save=0
   399 ;;
   400 ;; *************** function _main *****************
   401 ;; Defined at:
   402 ;;		line 57 in file "main.c"
   403 ;; Parameters:    Size  Location     Type
   404 ;;		None
   405 ;; Auto vars:     Size  Location     Type
   406 ;;  TMP36_Readin    2   64[COMRAM] int 
   407 ;; Return value:  Size  Location     Type
   408 ;;                  1    wreg      void 
   409 ;; Registers used:
   410 ;;		wreg, fsr2l, fsr2h, status,2, status,0, prodl, prodh, cstack
   411 ;; Tracked objects:
   412 ;;		On entry : 0/0
   413 ;;		On exit  : 0/0
   414 ;;		Unchanged: 0/0
   415 ;; Data sizes:     COMRAM   BANK0   BANK1   BANK2   BANK3   BANK4   BANK5
   416 ;;      Params:         0       0       0       0       0       0       0
   417 ;;      Locals:         4       0       0       0       0       0       0
   418 ;;      Temps:          2       0       0       0       0       0       0
   419 ;;      Totals:         6       0       0       0       0       0       0
   420 ;;Total ram usage:        6 bytes
   421 ;; Hardware stack levels required when called: 2
   422 ;; This function calls:
   423 ;;		_ADC_GetConversionResult
   424 ;;		_ADC_IsConversionDone
   425 ;;		_ADC_SelectChannel
   426 ;;		_ADC_StartConversion
   427 ;;		_SYSTEM_Initialize
   428 ;;		___awdiv
   429 ;;		___awmod
   430 ;;		___fldiv
   431 ;;		___flmul
   432 ;;		___fltol
   433 ;;		___xxtofl
   434 ;; This function is called by:
   435 ;;		Startup code after reset
   436 ;; This function uses a non-reentrant model
   437 ;;
   438                           
   439                           	psect	text0
   440   00780E                     __ptext0:
   441                           	callstack 0
   442   00780E                     _main:
   443                           	callstack 29
   444   00780E                     
   445                           ;main.c: 60:     SYSTEM_Initialize();
   446   00780E  ECB7  F037         	call	_SYSTEM_Initialize	;wreg free
   447   007812                     l1907:
   448                           
   449                           ;main.c: 63:     { ADC_SelectChannel(0);
   450   007812  0E00               	movlw	0
   451   007814  ECDD  F037         	call	_ADC_SelectChannel
   452   007818                     
   453                           ;main.c: 64:         ADC_StartConversion();
   454   007818  ECAB  F037         	call	_ADC_StartConversion	;wreg free
   455   00781C                     l1911:
   456   00781C  ECC8  F037         	call	_ADC_IsConversionDone	;wreg free
   457   007820  0900               	iorlw	0
   458   007822  A4D8               	btfss	status,2,c
   459   007824  EF16  F03C         	goto	u1511
   460   007828  EF18  F03C         	goto	u1510
   461   00782C                     u1511:
   462   00782C  EF0E  F03C         	goto	l1911
   463   007830                     u1510:
   464   007830                     
   465                           ;main.c: 66:         Voltage= ADC_GetConversionResult();
   466   007830  ECBE  F037         	call	_ADC_GetConversionResult	;wreg free
   467   007834  C001  F005         	movff	?_ADC_GetConversionResult,___xxtofl@val
   468   007838  C002  F006         	movff	?_ADC_GetConversionResult+1,___xxtofl@val+1
   469   00783C  6A07               	clrf	(___xxtofl@val+2)^0,c
   470   00783E  6A08               	clrf	(___xxtofl@val+3)^0,c
   471   007840  0E00               	movlw	0
   472   007842  EC60  F039         	call	___xxtofl
   473   007846  C005  F043         	movff	?___xxtofl,_Voltage
   474   00784A  C006  F044         	movff	?___xxtofl+1,_Voltage+1
   475   00784E  C007  F045         	movff	?___xxtofl+2,_Voltage+2
   476   007852  C008  F046         	movff	?___xxtofl+3,_Voltage+3
   477   007856                     
   478                           ;main.c: 67:         TMP36_Reading = (((Voltage*3300)/1024));
   479   007856  0E00               	movlw	0
   480   007858  6E1E               	movwf	___fldiv@a^0,c
   481   00785A  0E00               	movlw	0
   482   00785C  6E1F               	movwf	(___fldiv@a+1)^0,c
   483   00785E  0E80               	movlw	128
   484   007860  6E20               	movwf	(___fldiv@a+2)^0,c
   485   007862  0E44               	movlw	68
   486   007864  6E21               	movwf	(___fldiv@a+3)^0,c
   487   007866  0E00               	movlw	0
   488   007868  6E05               	movwf	___flmul@a^0,c
   489   00786A  0E40               	movlw	64
   490   00786C  6E06               	movwf	(___flmul@a+1)^0,c
   491   00786E  0E4E               	movlw	78
   492   007870  6E07               	movwf	(___flmul@a+2)^0,c
   493   007872  0E45               	movlw	69
   494   007874  6E08               	movwf	(___flmul@a+3)^0,c
   495   007876  C043  F001         	movff	_Voltage,___flmul@b
   496   00787A  C044  F002         	movff	_Voltage+1,___flmul@b+1
   497   00787E  C045  F003         	movff	_Voltage+2,___flmul@b+2
   498   007882  C046  F004         	movff	_Voltage+3,___flmul@b+3
   499   007886  ECEB  F03D         	call	___flmul	;wreg free
   500   00788A  C001  F01A         	movff	?___flmul,___fldiv@b
   501   00788E  C002  F01B         	movff	?___flmul+1,___fldiv@b+1
   502   007892  C003  F01C         	movff	?___flmul+2,___fldiv@b+2
   503   007896  C004  F01D         	movff	?___flmul+3,___fldiv@b+3
   504   00789A  EC3A  F03A         	call	___fldiv	;wreg free
   505   00789E  C01A  F033         	movff	?___fldiv,___fltol@f1
   506   0078A2  C01B  F034         	movff	?___fldiv+1,___fltol@f1+1
   507   0078A6  C01C  F035         	movff	?___fldiv+2,___fltol@f1+2
   508   0078AA  C01D  F036         	movff	?___fldiv+3,___fltol@f1+3
   509   0078AE  ECDD  F038         	call	___fltol	;wreg free
   510   0078B2  C033  F052         	movff	?___fltol,_TMP36_Reading
   511   0078B6  C034  F053         	movff	?___fltol+1,_TMP36_Reading+1
   512   0078BA                     
   513                           ;main.c: 68:         TMP36_Reading = ((TMP36_Reading-500)/10);
   514   0078BA  0E0C               	movlw	12
   515   0078BC  2452               	addwf	_TMP36_Reading^0,w,c
   516   0078BE  6E07               	movwf	___awdiv@dividend^0,c
   517   0078C0  0EFE               	movlw	254
   518   0078C2  2053               	addwfc	(_TMP36_Reading+1)^0,w,c
   519   0078C4  6E08               	movwf	(___awdiv@dividend+1)^0,c
   520   0078C6  0E00               	movlw	0
   521   0078C8  6E0A               	movwf	(___awdiv@divisor+1)^0,c
   522   0078CA  0E0A               	movlw	10
   523   0078CC  6E09               	movwf	___awdiv@divisor^0,c
   524   0078CE  EC7B  F038         	call	___awdiv	;wreg free
   525   0078D2  C007  F052         	movff	?___awdiv,_TMP36_Reading
   526   0078D6  C008  F053         	movff	?___awdiv+1,_TMP36_Reading+1
   527   0078DA                     
   528                           ;main.c: 69:         if(TMP36_Reading>=0){
   529   0078DA  BE53               	btfsc	(_TMP36_Reading+1)^0,7,c
   530   0078DC  EF72  F03C         	goto	u1521
   531   0078E0  EF74  F03C         	goto	u1520
   532   0078E4                     u1521:
   533   0078E4  EF26  F03D         	goto	l1981
   534   0078E8                     u1520:
   535   0078E8                     
   536                           ;main.c: 70:                 First_Digit = (TMP36_Reading % 100)%10;
   537   0078E8  0E00               	movlw	0
   538   0078EA  6E04               	movwf	(___awmod@divisor+1)^0,c
   539   0078EC  0E64               	movlw	100
   540   0078EE  6E03               	movwf	___awmod@divisor^0,c
   541   0078F0  C052  F001         	movff	_TMP36_Reading,___awmod@dividend
   542   0078F4  C053  F002         	movff	_TMP36_Reading+1,___awmod@dividend+1
   543   0078F8  EC23  F038         	call	___awmod	;wreg free
   544   0078FC  C001  F03F         	movff	?___awmod,_main$1009
   545   007900  C002  F040         	movff	?___awmod+1,_main$1009+1
   546                           
   547                           ;main.c: 70:                 First_Digit = (TMP36_Reading % 100)%10;
   548   007904  C03F  F001         	movff	_main$1009,___awmod@dividend
   549   007908  C040  F002         	movff	_main$1009+1,___awmod@dividend+1
   550   00790C  0E00               	movlw	0
   551   00790E  6E04               	movwf	(___awmod@divisor+1)^0,c
   552   007910  0E0A               	movlw	10
   553   007912  6E03               	movwf	___awmod@divisor^0,c
   554   007914  EC23  F038         	call	___awmod	;wreg free
   555   007918  5001               	movf	?___awmod^0,w,c
   556   00791A  6E51               	movwf	_First_Digit^0,c
   557   00791C                     
   558                           ;main.c: 71:                 LATB = Number_Mapping[First_Digit] ;
   559   00791C  0E54               	movlw	low _Number_Mapping
   560   00791E  2451               	addwf	_First_Digit^0,w,c
   561   007920  6ED9               	movwf	fsr2l,c
   562   007922  6ADA               	clrf	fsr2h,c
   563   007924  0E00               	movlw	high _Number_Mapping
   564   007926  22DA               	addwfc	fsr2h,f,c
   565   007928  50DF               	movf	indf2,w,c
   566   00792A  6E8A               	movwf	138,c	;volatile
   567   00792C                     
   568                           ;main.c: 72:                 LATBbits.LATB7 = 1;
   569   00792C  8E8A               	bsf	138,7,c	;volatile
   570   00792E                     
   571                           ;main.c: 73:                 LATAbits.LATA1 = 1;
   572   00792E  8289               	bsf	137,1,c	;volatile
   573   007930                     
   574                           ;main.c: 74:                 LATAbits.LATA2 = !1;
   575   007930  9489               	bcf	137,2,c	;volatile
   576   007932                     
   577                           ;main.c: 75:                 LATAbits.LATA3 = !1;
   578   007932  9689               	bcf	137,3,c	;volatile
   579   007934                     
   580                           ;main.c: 76:                 LATAbits.LATA5 = !1;
   581   007934  9A89               	bcf	137,5,c	;volatile
   582   007936                     
   583                           ;main.c: 77:                 _delay((unsigned long)((255)*(20000000/4000.0)));
   584   007936  0E07               	movlw	7
   585   007938  6E3E               	movwf	(??_main+1)^0,c
   586   00793A  0E78               	movlw	120
   587   00793C  6E3D               	movwf	??_main^0,c
   588   00793E  0ED2               	movlw	210
   589   007940                     u1547:
   590   007940  2EE8               	decfsz	wreg,f,c
   591   007942  D7FE               	bra	u1547
   592   007944  2E3D               	decfsz	??_main^0,f,c
   593   007946  D7FC               	bra	u1547
   594   007948  2E3E               	decfsz	(??_main+1)^0,f,c
   595   00794A  D7FA               	bra	u1547
   596   00794C                     
   597                           ;main.c: 79:                 Second_Digit = (TMP36_Reading % 100)/10;
   598   00794C  0E00               	movlw	0
   599   00794E  6E04               	movwf	(___awmod@divisor+1)^0,c
   600   007950  0E64               	movlw	100
   601   007952  6E03               	movwf	___awmod@divisor^0,c
   602   007954  C052  F001         	movff	_TMP36_Reading,___awmod@dividend
   603   007958  C053  F002         	movff	_TMP36_Reading+1,___awmod@dividend+1
   604   00795C  EC23  F038         	call	___awmod	;wreg free
   605   007960  C001  F007         	movff	?___awmod,___awdiv@dividend
   606   007964  C002  F008         	movff	?___awmod+1,___awdiv@dividend+1
   607   007968  0E00               	movlw	0
   608   00796A  6E0A               	movwf	(___awdiv@divisor+1)^0,c
   609   00796C  0E0A               	movlw	10
   610   00796E  6E09               	movwf	___awdiv@divisor^0,c
   611   007970  EC7B  F038         	call	___awdiv	;wreg free
   612   007974  5007               	movf	?___awdiv^0,w,c
   613   007976  6E50               	movwf	_Second_Digit^0,c
   614   007978                     
   615                           ;main.c: 80:                 LATB = Number_Mapping[Second_Digit] ;
   616   007978  0E54               	movlw	low _Number_Mapping
   617   00797A  2450               	addwf	_Second_Digit^0,w,c
   618   00797C  6ED9               	movwf	fsr2l,c
   619   00797E  6ADA               	clrf	fsr2h,c
   620   007980  0E00               	movlw	high _Number_Mapping
   621   007982  22DA               	addwfc	fsr2h,f,c
   622   007984  50DF               	movf	indf2,w,c
   623   007986  6E8A               	movwf	138,c	;volatile
   624   007988                     
   625                           ;main.c: 81:                 LATBbits.LATB7 = 1;
   626   007988  8E8A               	bsf	138,7,c	;volatile
   627   00798A                     
   628                           ;main.c: 82:                 LATAbits.LATA1 = !1;
   629   00798A  9289               	bcf	137,1,c	;volatile
   630   00798C                     
   631                           ;main.c: 83:                 LATAbits.LATA2 = 1;
   632   00798C  8489               	bsf	137,2,c	;volatile
   633   00798E                     
   634                           ;main.c: 84:                 LATAbits.LATA3 = !1;
   635   00798E  9689               	bcf	137,3,c	;volatile
   636   007990                     
   637                           ;main.c: 85:                 LATAbits.LATA5 = !1;
   638   007990  9A89               	bcf	137,5,c	;volatile
   639                           
   640                           ;main.c: 86:                 _delay((unsigned long)((255)*(20000000/4000.0)));
   641   007992  0E07               	movlw	7
   642   007994  6E3E               	movwf	(??_main+1)^0,c
   643   007996  0E78               	movlw	120
   644   007998  6E3D               	movwf	??_main^0,c
   645   00799A  0ED2               	movlw	210
   646   00799C                     u1557:
   647   00799C  2EE8               	decfsz	wreg,f,c
   648   00799E  D7FE               	bra	u1557
   649   0079A0  2E3D               	decfsz	??_main^0,f,c
   650   0079A2  D7FC               	bra	u1557
   651   0079A4  2E3E               	decfsz	(??_main+1)^0,f,c
   652   0079A6  D7FA               	bra	u1557
   653   0079A8                     
   654                           ;main.c: 88:                 Third_Digit = (TMP36_Reading % 1000)/100;
   655   0079A8  0E03               	movlw	3
   656   0079AA  6E04               	movwf	(___awmod@divisor+1)^0,c
   657   0079AC  0EE8               	movlw	232
   658   0079AE  6E03               	movwf	___awmod@divisor^0,c
   659   0079B0  C052  F001         	movff	_TMP36_Reading,___awmod@dividend
   660   0079B4  C053  F002         	movff	_TMP36_Reading+1,___awmod@dividend+1
   661   0079B8  EC23  F038         	call	___awmod	;wreg free
   662   0079BC  C001  F007         	movff	?___awmod,___awdiv@dividend
   663   0079C0  C002  F008         	movff	?___awmod+1,___awdiv@dividend+1
   664   0079C4  0E00               	movlw	0
   665   0079C6  6E0A               	movwf	(___awdiv@divisor+1)^0,c
   666   0079C8  0E64               	movlw	100
   667   0079CA  6E09               	movwf	___awdiv@divisor^0,c
   668   0079CC  EC7B  F038         	call	___awdiv	;wreg free
   669   0079D0  5007               	movf	?___awdiv^0,w,c
   670   0079D2  6E4F               	movwf	_Third_Digit^0,c
   671   0079D4                     
   672                           ;main.c: 89:                 LATB = Number_Mapping[Third_Digit] ;
   673   0079D4  0E54               	movlw	low _Number_Mapping
   674   0079D6  244F               	addwf	_Third_Digit^0,w,c
   675   0079D8  6ED9               	movwf	fsr2l,c
   676   0079DA  6ADA               	clrf	fsr2h,c
   677   0079DC  0E00               	movlw	high _Number_Mapping
   678   0079DE  22DA               	addwfc	fsr2h,f,c
   679   0079E0  50DF               	movf	indf2,w,c
   680   0079E2  6E8A               	movwf	138,c	;volatile
   681   0079E4                     
   682                           ;main.c: 90:                 LATBbits.LATB7 = 1;
   683   0079E4  8E8A               	bsf	138,7,c	;volatile
   684   0079E6                     
   685                           ;main.c: 91:                 LATAbits.LATA1 = !1;
   686   0079E6  9289               	bcf	137,1,c	;volatile
   687   0079E8                     
   688                           ;main.c: 92:                 LATAbits.LATA2 = !1;
   689   0079E8  9489               	bcf	137,2,c	;volatile
   690   0079EA                     
   691                           ;main.c: 93:                 LATAbits.LATA3 = 1;
   692   0079EA  8689               	bsf	137,3,c	;volatile
   693   0079EC                     
   694                           ;main.c: 94:                 LATAbits.LATA5 = !1;
   695   0079EC  9A89               	bcf	137,5,c	;volatile
   696   0079EE                     
   697                           ;main.c: 95:                 _delay((unsigned long)((255)*(20000000/4000.0)));
   698   0079EE  0E07               	movlw	7
   699   0079F0  6E3E               	movwf	(??_main+1)^0,c
   700   0079F2  0E78               	movlw	120
   701   0079F4  6E3D               	movwf	??_main^0,c
   702   0079F6  0ED2               	movlw	210
   703   0079F8                     u1567:
   704   0079F8  2EE8               	decfsz	wreg,f,c
   705   0079FA  D7FE               	bra	u1567
   706   0079FC  2E3D               	decfsz	??_main^0,f,c
   707   0079FE  D7FC               	bra	u1567
   708   007A00  2E3E               	decfsz	(??_main+1)^0,f,c
   709   007A02  D7FA               	bra	u1567
   710   007A04                     
   711                           ;main.c: 97:                 Fourth_Digit = TMP36_Reading / 1000;
   712   007A04  C052  F007         	movff	_TMP36_Reading,___awdiv@dividend
   713   007A08  C053  F008         	movff	_TMP36_Reading+1,___awdiv@dividend+1
   714   007A0C  0E03               	movlw	3
   715   007A0E  6E0A               	movwf	(___awdiv@divisor+1)^0,c
   716   007A10  0EE8               	movlw	232
   717   007A12  6E09               	movwf	___awdiv@divisor^0,c
   718   007A14  EC7B  F038         	call	___awdiv	;wreg free
   719   007A18  5007               	movf	?___awdiv^0,w,c
   720   007A1A  6E4E               	movwf	_Fourth_Digit^0,c
   721                           
   722                           ;main.c: 98:                 LATB = Number_Mapping[Fourth_Digit] ;
   723   007A1C  0E54               	movlw	low _Number_Mapping
   724   007A1E  244E               	addwf	_Fourth_Digit^0,w,c
   725   007A20  6ED9               	movwf	fsr2l,c
   726   007A22  6ADA               	clrf	fsr2h,c
   727   007A24  0E00               	movlw	high _Number_Mapping
   728   007A26  22DA               	addwfc	fsr2h,f,c
   729   007A28  50DF               	movf	indf2,w,c
   730   007A2A  6E8A               	movwf	138,c	;volatile
   731   007A2C                     
   732                           ;main.c: 99:                 LATBbits.LATB7 = 1;
   733   007A2C  8E8A               	bsf	138,7,c	;volatile
   734   007A2E                     
   735                           ;main.c: 100:                 LATAbits.LATA1 = !1;
   736   007A2E  9289               	bcf	137,1,c	;volatile
   737   007A30                     
   738                           ;main.c: 101:                 LATAbits.LATA2 = !1;
   739   007A30  9489               	bcf	137,2,c	;volatile
   740   007A32                     
   741                           ;main.c: 102:                 LATAbits.LATA3 = !1;
   742   007A32  9689               	bcf	137,3,c	;volatile
   743   007A34                     
   744                           ;main.c: 103:                 LATAbits.LATA5 = 1;
   745   007A34  8A89               	bsf	137,5,c	;volatile
   746   007A36                     
   747                           ;main.c: 104:                 _delay((unsigned long)((255)*(20000000/4000.0)));
   748   007A36  0E07               	movlw	7
   749   007A38  6E3E               	movwf	(??_main+1)^0,c
   750   007A3A  0E78               	movlw	120
   751   007A3C  6E3D               	movwf	??_main^0,c
   752   007A3E  0ED2               	movlw	210
   753   007A40                     u1577:
   754   007A40  2EE8               	decfsz	wreg,f,c
   755   007A42  D7FE               	bra	u1577
   756   007A44  2E3D               	decfsz	??_main^0,f,c
   757   007A46  D7FC               	bra	u1577
   758   007A48  2E3E               	decfsz	(??_main+1)^0,f,c
   759   007A4A  D7FA               	bra	u1577
   760   007A4C                     l1981:
   761                           
   762                           ;main.c: 106:         if(TMP36_Reading<=0){
   763   007A4C  BE53               	btfsc	(_TMP36_Reading+1)^0,7,c
   764   007A4E  EF33  F03D         	goto	u1530
   765   007A52  5053               	movf	(_TMP36_Reading+1)^0,w,c
   766   007A54  E106               	bnz	u1531
   767   007A56  0452               	decf	_TMP36_Reading^0,w,c
   768   007A58  B0D8               	btfsc	status,0,c
   769   007A5A  EF31  F03D         	goto	u1531
   770   007A5E  EF33  F03D         	goto	u1530
   771   007A62                     u1531:
   772   007A62  EF09  F03C         	goto	l1907
   773   007A66                     u1530:
   774   007A66                     
   775                           ;main.c: 107:             int TMP36_Reading_Convert;;main.c: 108:             TMP36_Read
      +                          ing_Convert = TMP36_Reading*-1;
   776   007A66  C052  F03D         	movff	_TMP36_Reading,??_main
   777   007A6A  C053  F03E         	movff	_TMP36_Reading+1,??_main+1
   778   007A6E  1E3D               	comf	??_main^0,f,c
   779   007A70  1E3E               	comf	(??_main+1)^0,f,c
   780   007A72  4A3D               	infsnz	??_main^0,f,c
   781   007A74  2A3E               	incf	(??_main+1)^0,f,c
   782   007A76  C03D  F041         	movff	??_main,main@TMP36_Reading_Convert
   783   007A7A  C03E  F042         	movff	??_main+1,main@TMP36_Reading_Convert+1
   784   007A7E                     
   785                           ;main.c: 109:             First_Digit = (TMP36_Reading_Convert % 100)%10;
   786   007A7E  0E00               	movlw	0
   787   007A80  6E04               	movwf	(___awmod@divisor+1)^0,c
   788   007A82  0E64               	movlw	100
   789   007A84  6E03               	movwf	___awmod@divisor^0,c
   790   007A86  C041  F001         	movff	main@TMP36_Reading_Convert,___awmod@dividend
   791   007A8A  C042  F002         	movff	main@TMP36_Reading_Convert+1,___awmod@dividend+1
   792   007A8E  EC23  F038         	call	___awmod	;wreg free
   793   007A92  C001  F03F         	movff	?___awmod,_main$1009
   794   007A96  C002  F040         	movff	?___awmod+1,_main$1009+1
   795                           
   796                           ;main.c: 109:             First_Digit = (TMP36_Reading_Convert % 100)%10;
   797   007A9A  C03F  F001         	movff	_main$1009,___awmod@dividend
   798   007A9E  C040  F002         	movff	_main$1009+1,___awmod@dividend+1
   799   007AA2  0E00               	movlw	0
   800   007AA4  6E04               	movwf	(___awmod@divisor+1)^0,c
   801   007AA6  0E0A               	movlw	10
   802   007AA8  6E03               	movwf	___awmod@divisor^0,c
   803   007AAA  EC23  F038         	call	___awmod	;wreg free
   804   007AAE  5001               	movf	?___awmod^0,w,c
   805   007AB0  6E51               	movwf	_First_Digit^0,c
   806   007AB2                     
   807                           ;main.c: 110:             LATB = Number_Mapping[First_Digit] ;
   808   007AB2  0E54               	movlw	low _Number_Mapping
   809   007AB4  2451               	addwf	_First_Digit^0,w,c
   810   007AB6  6ED9               	movwf	fsr2l,c
   811   007AB8  6ADA               	clrf	fsr2h,c
   812   007ABA  0E00               	movlw	high _Number_Mapping
   813   007ABC  22DA               	addwfc	fsr2h,f,c
   814   007ABE  50DF               	movf	indf2,w,c
   815   007AC0  6E8A               	movwf	138,c	;volatile
   816   007AC2                     
   817                           ;main.c: 111:             LATAbits.LATA1 = 1;
   818   007AC2  8289               	bsf	137,1,c	;volatile
   819   007AC4                     
   820                           ;main.c: 112:             LATAbits.LATA2 = !1;
   821   007AC4  9489               	bcf	137,2,c	;volatile
   822   007AC6                     
   823                           ;main.c: 113:             LATAbits.LATA3 = !1;
   824   007AC6  9689               	bcf	137,3,c	;volatile
   825   007AC8                     
   826                           ;main.c: 114:             LATAbits.LATA5 = !1;
   827   007AC8  9A89               	bcf	137,5,c	;volatile
   828   007ACA                     
   829                           ;main.c: 115:             _delay((unsigned long)((255)*(20000000/4000.0)));
   830   007ACA  0E07               	movlw	7
   831   007ACC  6E3E               	movwf	(??_main+1)^0,c
   832   007ACE  0E78               	movlw	120
   833   007AD0  6E3D               	movwf	??_main^0,c
   834   007AD2  0ED2               	movlw	210
   835   007AD4                     u1587:
   836   007AD4  2EE8               	decfsz	wreg,f,c
   837   007AD6  D7FE               	bra	u1587
   838   007AD8  2E3D               	decfsz	??_main^0,f,c
   839   007ADA  D7FC               	bra	u1587
   840   007ADC  2E3E               	decfsz	(??_main+1)^0,f,c
   841   007ADE  D7FA               	bra	u1587
   842   007AE0                     
   843                           ;main.c: 117:             Second_Digit = (TMP36_Reading_Convert % 100)/10;
   844   007AE0  0E00               	movlw	0
   845   007AE2  6E04               	movwf	(___awmod@divisor+1)^0,c
   846   007AE4  0E64               	movlw	100
   847   007AE6  6E03               	movwf	___awmod@divisor^0,c
   848   007AE8  C041  F001         	movff	main@TMP36_Reading_Convert,___awmod@dividend
   849   007AEC  C042  F002         	movff	main@TMP36_Reading_Convert+1,___awmod@dividend+1
   850   007AF0  EC23  F038         	call	___awmod	;wreg free
   851   007AF4  C001  F007         	movff	?___awmod,___awdiv@dividend
   852   007AF8  C002  F008         	movff	?___awmod+1,___awdiv@dividend+1
   853   007AFC  0E00               	movlw	0
   854   007AFE  6E0A               	movwf	(___awdiv@divisor+1)^0,c
   855   007B00  0E0A               	movlw	10
   856   007B02  6E09               	movwf	___awdiv@divisor^0,c
   857   007B04  EC7B  F038         	call	___awdiv	;wreg free
   858   007B08  5007               	movf	?___awdiv^0,w,c
   859   007B0A  6E50               	movwf	_Second_Digit^0,c
   860   007B0C                     
   861                           ;main.c: 118:             LATB = Number_Mapping[Second_Digit] ;
   862   007B0C  0E54               	movlw	low _Number_Mapping
   863   007B0E  2450               	addwf	_Second_Digit^0,w,c
   864   007B10  6ED9               	movwf	fsr2l,c
   865   007B12  6ADA               	clrf	fsr2h,c
   866   007B14  0E00               	movlw	high _Number_Mapping
   867   007B16  22DA               	addwfc	fsr2h,f,c
   868   007B18  50DF               	movf	indf2,w,c
   869   007B1A  6E8A               	movwf	138,c	;volatile
   870   007B1C                     
   871                           ;main.c: 119:             LATAbits.LATA1 = !1;
   872   007B1C  9289               	bcf	137,1,c	;volatile
   873   007B1E                     
   874                           ;main.c: 120:             LATAbits.LATA2 = 1;
   875   007B1E  8489               	bsf	137,2,c	;volatile
   876   007B20                     
   877                           ;main.c: 121:             LATAbits.LATA3 = !1;
   878   007B20  9689               	bcf	137,3,c	;volatile
   879   007B22                     
   880                           ;main.c: 122:             LATAbits.LATA5 = !1;
   881   007B22  9A89               	bcf	137,5,c	;volatile
   882                           
   883                           ;main.c: 123:             _delay((unsigned long)((255)*(20000000/4000.0)));
   884   007B24  0E07               	movlw	7
   885   007B26  6E3E               	movwf	(??_main+1)^0,c
   886   007B28  0E78               	movlw	120
   887   007B2A  6E3D               	movwf	??_main^0,c
   888   007B2C  0ED2               	movlw	210
   889   007B2E                     u1597:
   890   007B2E  2EE8               	decfsz	wreg,f,c
   891   007B30  D7FE               	bra	u1597
   892   007B32  2E3D               	decfsz	??_main^0,f,c
   893   007B34  D7FC               	bra	u1597
   894   007B36  2E3E               	decfsz	(??_main+1)^0,f,c
   895   007B38  D7FA               	bra	u1597
   896   007B3A                     
   897                           ;main.c: 125:             Third_Digit = (TMP36_Reading_Convert % 1000)/100;
   898   007B3A  0E03               	movlw	3
   899   007B3C  6E04               	movwf	(___awmod@divisor+1)^0,c
   900   007B3E  0EE8               	movlw	232
   901   007B40  6E03               	movwf	___awmod@divisor^0,c
   902   007B42  C041  F001         	movff	main@TMP36_Reading_Convert,___awmod@dividend
   903   007B46  C042  F002         	movff	main@TMP36_Reading_Convert+1,___awmod@dividend+1
   904   007B4A  EC23  F038         	call	___awmod	;wreg free
   905   007B4E  C001  F007         	movff	?___awmod,___awdiv@dividend
   906   007B52  C002  F008         	movff	?___awmod+1,___awdiv@dividend+1
   907   007B56  0E00               	movlw	0
   908   007B58  6E0A               	movwf	(___awdiv@divisor+1)^0,c
   909   007B5A  0E64               	movlw	100
   910   007B5C  6E09               	movwf	___awdiv@divisor^0,c
   911   007B5E  EC7B  F038         	call	___awdiv	;wreg free
   912   007B62  5007               	movf	?___awdiv^0,w,c
   913   007B64  6E4F               	movwf	_Third_Digit^0,c
   914   007B66                     
   915                           ;main.c: 126:             LATB = Number_Mapping[Third_Digit] ;
   916   007B66  0E54               	movlw	low _Number_Mapping
   917   007B68  244F               	addwf	_Third_Digit^0,w,c
   918   007B6A  6ED9               	movwf	fsr2l,c
   919   007B6C  6ADA               	clrf	fsr2h,c
   920   007B6E  0E00               	movlw	high _Number_Mapping
   921   007B70  22DA               	addwfc	fsr2h,f,c
   922   007B72  50DF               	movf	indf2,w,c
   923   007B74  6E8A               	movwf	138,c	;volatile
   924   007B76                     
   925                           ;main.c: 127:             LATAbits.LATA1 = !1;
   926   007B76  9289               	bcf	137,1,c	;volatile
   927   007B78                     
   928                           ;main.c: 128:             LATAbits.LATA2 = !1;
   929   007B78  9489               	bcf	137,2,c	;volatile
   930   007B7A                     
   931                           ;main.c: 129:             LATAbits.LATA3 = 1;
   932   007B7A  8689               	bsf	137,3,c	;volatile
   933   007B7C                     
   934                           ;main.c: 130:             LATAbits.LATA5 = !1;
   935   007B7C  9A89               	bcf	137,5,c	;volatile
   936   007B7E                     
   937                           ;main.c: 131:             _delay((unsigned long)((255)*(20000000/4000.0)));
   938   007B7E  0E07               	movlw	7
   939   007B80  6E3E               	movwf	(??_main+1)^0,c
   940   007B82  0E78               	movlw	120
   941   007B84  6E3D               	movwf	??_main^0,c
   942   007B86  0ED2               	movlw	210
   943   007B88                     u1607:
   944   007B88  2EE8               	decfsz	wreg,f,c
   945   007B8A  D7FE               	bra	u1607
   946   007B8C  2E3D               	decfsz	??_main^0,f,c
   947   007B8E  D7FC               	bra	u1607
   948   007B90  2E3E               	decfsz	(??_main+1)^0,f,c
   949   007B92  D7FA               	bra	u1607
   950   007B94                     
   951                           ;main.c: 133:             Fourth_Digit = TMP36_Reading_Convert / 1000;
   952   007B94  C041  F007         	movff	main@TMP36_Reading_Convert,___awdiv@dividend
   953   007B98  C042  F008         	movff	main@TMP36_Reading_Convert+1,___awdiv@dividend+1
   954   007B9C  0E03               	movlw	3
   955   007B9E  6E0A               	movwf	(___awdiv@divisor+1)^0,c
   956   007BA0  0EE8               	movlw	232
   957   007BA2  6E09               	movwf	___awdiv@divisor^0,c
   958   007BA4  EC7B  F038         	call	___awdiv	;wreg free
   959   007BA8  5007               	movf	?___awdiv^0,w,c
   960   007BAA  6E4E               	movwf	_Fourth_Digit^0,c
   961   007BAC                     
   962                           ;main.c: 134:             LATB = 0xBF ;
   963   007BAC  0EBF               	movlw	191
   964   007BAE  6E8A               	movwf	138,c	;volatile
   965   007BB0                     
   966                           ;main.c: 135:             LATAbits.LATA1 = !1;
   967   007BB0  9289               	bcf	137,1,c	;volatile
   968   007BB2                     
   969                           ;main.c: 136:             LATAbits.LATA2 = !1;
   970   007BB2  9489               	bcf	137,2,c	;volatile
   971   007BB4                     
   972                           ;main.c: 137:             LATAbits.LATA3 = !1;
   973   007BB4  9689               	bcf	137,3,c	;volatile
   974   007BB6                     
   975                           ;main.c: 138:             LATAbits.LATA5 = 1;
   976   007BB6  8A89               	bsf	137,5,c	;volatile
   977   007BB8                     
   978                           ;main.c: 139:             _delay((unsigned long)((255)*(20000000/4000.0)));
   979   007BB8  0E07               	movlw	7
   980   007BBA  6E3E               	movwf	(??_main+1)^0,c
   981   007BBC  0E78               	movlw	120
   982   007BBE  6E3D               	movwf	??_main^0,c
   983   007BC0  0ED2               	movlw	210
   984   007BC2                     u1617:
   985   007BC2  2EE8               	decfsz	wreg,f,c
   986   007BC4  D7FE               	bra	u1617
   987   007BC6  2E3D               	decfsz	??_main^0,f,c
   988   007BC8  D7FC               	bra	u1617
   989   007BCA  2E3E               	decfsz	(??_main+1)^0,f,c
   990   007BCC  D7FA               	bra	u1617
   991   007BCE  EF09  F03C         	goto	l1907
   992   007BD2  EF00  F000         	goto	start
   993   007BD6                     __end_of_main:
   994                           	callstack 0
   995                           
   996 ;; *************** function ___xxtofl *****************
   997 ;; Defined at:
   998 ;;		line 10 in file "C:\Program Files\Microchip\xc8\v2.41\pic\sources\c99\common\xxtofl.c"
   999 ;; Parameters:    Size  Location     Type
  1000 ;;  sign            1    wreg     unsigned char 
  1001 ;;  val             4    4[COMRAM] long 
  1002 ;; Auto vars:     Size  Location     Type
  1003 ;;  sign            1   12[COMRAM] unsigned char 
  1004 ;;  arg             4   14[COMRAM] unsigned long 
  1005 ;;  exp             1   13[COMRAM] unsigned char 
  1006 ;; Return value:  Size  Location     Type
  1007 ;;                  4    4[COMRAM] unsigned char 
  1008 ;; Registers used:
  1009 ;;		wreg, status,2, status,0
  1010 ;; Tracked objects:
  1011 ;;		On entry : 0/0
  1012 ;;		On exit  : 0/0
  1013 ;;		Unchanged: 0/0
  1014 ;; Data sizes:     COMRAM   BANK0   BANK1   BANK2   BANK3   BANK4   BANK5
  1015 ;;      Params:         4       0       0       0       0       0       0
  1016 ;;      Locals:         6       0       0       0       0       0       0
  1017 ;;      Temps:          4       0       0       0       0       0       0
  1018 ;;      Totals:        14       0       0       0       0       0       0
  1019 ;;Total ram usage:       14 bytes
  1020 ;; Hardware stack levels used: 1
  1021 ;; This function calls:
  1022 ;;		Nothing
  1023 ;; This function is called by:
  1024 ;;		_main
  1025 ;; This function uses a non-reentrant model
  1026 ;;
  1027                           
  1028                           	psect	text1
  1029   0072C0                     __ptext1:
  1030                           	callstack 0
  1031   0072C0                     ___xxtofl:
  1032                           	callstack 30
  1033                           
  1034                           ;incstack = 0
  1035                           ;___xxtofl@sign stored from wreg
  1036   0072C0  6E0D               	movwf	___xxtofl@sign^0,c
  1037   0072C2  500D               	movf	___xxtofl@sign^0,w,c
  1038   0072C4  B4D8               	btfsc	status,2,c
  1039   0072C6  EF67  F039         	goto	u1411
  1040   0072CA  EF69  F039         	goto	u1410
  1041   0072CE                     u1411:
  1042   0072CE  EF8B  F039         	goto	l803
  1043   0072D2                     u1410:
  1044   0072D2  BE08               	btfsc	(___xxtofl@val+3)^0,7,c
  1045   0072D4  EF70  F039         	goto	u1420
  1046   0072D8  EF6E  F039         	goto	u1421
  1047   0072DC                     u1421:
  1048   0072DC  EF8B  F039         	goto	l803
  1049   0072E0                     u1420:
  1050   0072E0  C005  F009         	movff	___xxtofl@val,??___xxtofl
  1051   0072E4  C006  F00A         	movff	___xxtofl@val+1,??___xxtofl+1
  1052   0072E8  C007  F00B         	movff	___xxtofl@val+2,??___xxtofl+2
  1053   0072EC  C008  F00C         	movff	___xxtofl@val+3,??___xxtofl+3
  1054   0072F0  1E09               	comf	??___xxtofl^0,f,c
  1055   0072F2  1E0A               	comf	(??___xxtofl+1)^0,f,c
  1056   0072F4  1E0B               	comf	(??___xxtofl+2)^0,f,c
  1057   0072F6  1E0C               	comf	(??___xxtofl+3)^0,f,c
  1058   0072F8  2A09               	incf	??___xxtofl^0,f,c
  1059   0072FA  0E00               	movlw	0
  1060   0072FC  220A               	addwfc	(??___xxtofl+1)^0,f,c
  1061   0072FE  220B               	addwfc	(??___xxtofl+2)^0,f,c
  1062   007300  220C               	addwfc	(??___xxtofl+3)^0,f,c
  1063   007302  C009  F00F         	movff	??___xxtofl,___xxtofl@arg
  1064   007306  C00A  F010         	movff	??___xxtofl+1,___xxtofl@arg+1
  1065   00730A  C00B  F011         	movff	??___xxtofl+2,___xxtofl@arg+2
  1066   00730E  C00C  F012         	movff	??___xxtofl+3,___xxtofl@arg+3
  1067   007312  EF93  F039         	goto	l1865
  1068   007316                     l803:
  1069   007316  C005  F00F         	movff	___xxtofl@val,___xxtofl@arg
  1070   00731A  C006  F010         	movff	___xxtofl@val+1,___xxtofl@arg+1
  1071   00731E  C007  F011         	movff	___xxtofl@val+2,___xxtofl@arg+2
  1072   007322  C008  F012         	movff	___xxtofl@val+3,___xxtofl@arg+3
  1073   007326                     l1865:
  1074   007326  5005               	movf	___xxtofl@val^0,w,c
  1075   007328  1006               	iorwf	(___xxtofl@val+1)^0,w,c
  1076   00732A  1007               	iorwf	(___xxtofl@val+2)^0,w,c
  1077   00732C  1008               	iorwf	(___xxtofl@val+3)^0,w,c
  1078   00732E  A4D8               	btfss	status,2,c
  1079   007330  EF9C  F039         	goto	u1431
  1080   007334  EF9E  F039         	goto	u1430
  1081   007338                     u1431:
  1082   007338  EFA8  F039         	goto	l1871
  1083   00733C                     u1430:
  1084   00733C  0E00               	movlw	0
  1085   00733E  6E05               	movwf	?___xxtofl^0,c
  1086   007340  0E00               	movlw	0
  1087   007342  6E06               	movwf	(?___xxtofl+1)^0,c
  1088   007344  0E00               	movlw	0
  1089   007346  6E07               	movwf	(?___xxtofl+2)^0,c
  1090   007348  0E00               	movlw	0
  1091   00734A  6E08               	movwf	(?___xxtofl+3)^0,c
  1092   00734C  EF39  F03A         	goto	l806
  1093   007350                     l1871:
  1094   007350  0E96               	movlw	150
  1095   007352  6E0E               	movwf	___xxtofl@exp^0,c
  1096   007354  EFB2  F039         	goto	l1875
  1097   007358                     l1873:
  1098   007358  2A0E               	incf	___xxtofl@exp^0,f,c
  1099   00735A  90D8               	bcf	status,0,c
  1100   00735C  3212               	rrcf	(___xxtofl@arg+3)^0,f,c
  1101   00735E  3211               	rrcf	(___xxtofl@arg+2)^0,f,c
  1102   007360  3210               	rrcf	(___xxtofl@arg+1)^0,f,c
  1103   007362  320F               	rrcf	___xxtofl@arg^0,f,c
  1104   007364                     l1875:
  1105   007364  0E00               	movlw	0
  1106   007366  140F               	andwf	___xxtofl@arg^0,w,c
  1107   007368  6E09               	movwf	??___xxtofl^0,c
  1108   00736A  0E00               	movlw	0
  1109   00736C  1410               	andwf	(___xxtofl@arg+1)^0,w,c
  1110   00736E  6E0A               	movwf	(??___xxtofl+1)^0,c
  1111   007370  0E00               	movlw	0
  1112   007372  1411               	andwf	(___xxtofl@arg+2)^0,w,c
  1113   007374  6E0B               	movwf	(??___xxtofl+2)^0,c
  1114   007376  0EFE               	movlw	254
  1115   007378  1412               	andwf	(___xxtofl@arg+3)^0,w,c
  1116   00737A  6E0C               	movwf	(??___xxtofl+3)^0,c
  1117   00737C  5009               	movf	??___xxtofl^0,w,c
  1118   00737E  100A               	iorwf	(??___xxtofl+1)^0,w,c
  1119   007380  100B               	iorwf	(??___xxtofl+2)^0,w,c
  1120   007382  100C               	iorwf	(??___xxtofl+3)^0,w,c
  1121   007384  A4D8               	btfss	status,2,c
  1122   007386  EFC7  F039         	goto	u1441
  1123   00738A  EFC9  F039         	goto	u1440
  1124   00738E                     u1441:
  1125   00738E  EFAC  F039         	goto	l1873
  1126   007392                     u1440:
  1127   007392  EFD7  F039         	goto	l810
  1128   007396                     l1877:
  1129   007396  2A0E               	incf	___xxtofl@exp^0,f,c
  1130   007398  0E01               	movlw	1
  1131   00739A  260F               	addwf	___xxtofl@arg^0,f,c
  1132   00739C  0E00               	movlw	0
  1133   00739E  2210               	addwfc	(___xxtofl@arg+1)^0,f,c
  1134   0073A0  2211               	addwfc	(___xxtofl@arg+2)^0,f,c
  1135   0073A2  2212               	addwfc	(___xxtofl@arg+3)^0,f,c
  1136   0073A4  90D8               	bcf	status,0,c
  1137   0073A6  3212               	rrcf	(___xxtofl@arg+3)^0,f,c
  1138   0073A8  3211               	rrcf	(___xxtofl@arg+2)^0,f,c
  1139   0073AA  3210               	rrcf	(___xxtofl@arg+1)^0,f,c
  1140   0073AC  320F               	rrcf	___xxtofl@arg^0,f,c
  1141   0073AE                     l810:
  1142   0073AE  0E00               	movlw	0
  1143   0073B0  140F               	andwf	___xxtofl@arg^0,w,c
  1144   0073B2  6E09               	movwf	??___xxtofl^0,c
  1145   0073B4  0E00               	movlw	0
  1146   0073B6  1410               	andwf	(___xxtofl@arg+1)^0,w,c
  1147   0073B8  6E0A               	movwf	(??___xxtofl+1)^0,c
  1148   0073BA  0E00               	movlw	0
  1149   0073BC  1411               	andwf	(___xxtofl@arg+2)^0,w,c
  1150   0073BE  6E0B               	movwf	(??___xxtofl+2)^0,c
  1151   0073C0  0EFF               	movlw	255
  1152   0073C2  1412               	andwf	(___xxtofl@arg+3)^0,w,c
  1153   0073C4  6E0C               	movwf	(??___xxtofl+3)^0,c
  1154   0073C6  5009               	movf	??___xxtofl^0,w,c
  1155   0073C8  100A               	iorwf	(??___xxtofl+1)^0,w,c
  1156   0073CA  100B               	iorwf	(??___xxtofl+2)^0,w,c
  1157   0073CC  100C               	iorwf	(??___xxtofl+3)^0,w,c
  1158   0073CE  A4D8               	btfss	status,2,c
  1159   0073D0  EFEC  F039         	goto	u1451
  1160   0073D4  EFEE  F039         	goto	u1450
  1161   0073D8                     u1451:
  1162   0073D8  EFCB  F039         	goto	l1877
  1163   0073DC                     u1450:
  1164   0073DC  EFF6  F039         	goto	l1885
  1165   0073E0                     l1883:
  1166   0073E0  060E               	decf	___xxtofl@exp^0,f,c
  1167   0073E2  90D8               	bcf	status,0,c
  1168   0073E4  360F               	rlcf	___xxtofl@arg^0,f,c
  1169   0073E6  3610               	rlcf	(___xxtofl@arg+1)^0,f,c
  1170   0073E8  3611               	rlcf	(___xxtofl@arg+2)^0,f,c
  1171   0073EA  3612               	rlcf	(___xxtofl@arg+3)^0,f,c
  1172   0073EC                     l1885:
  1173   0073EC  BE11               	btfsc	(___xxtofl@arg+2)^0,7,c
  1174   0073EE  EFFB  F039         	goto	u1461
  1175   0073F2  EFFD  F039         	goto	u1460
  1176   0073F6                     u1461:
  1177   0073F6  EF05  F03A         	goto	l817
  1178   0073FA                     u1460:
  1179   0073FA  0E02               	movlw	2
  1180   0073FC  600E               	cpfslt	___xxtofl@exp^0,c
  1181   0073FE  EF03  F03A         	goto	u1471
  1182   007402  EF05  F03A         	goto	u1470
  1183   007406                     u1471:
  1184   007406  EFF0  F039         	goto	l1883
  1185   00740A                     u1470:
  1186   00740A                     l817:
  1187   00740A  B00E               	btfsc	___xxtofl@exp^0,0,c
  1188   00740C  EF0A  F03A         	goto	u1481
  1189   007410  EF0C  F03A         	goto	u1480
  1190   007414                     u1481:
  1191   007414  EF0D  F03A         	goto	l1891
  1192   007418                     u1480:
  1193   007418  9E11               	bcf	(___xxtofl@arg+2)^0,7,c
  1194   00741A                     l1891:
  1195   00741A  90D8               	bcf	status,0,c
  1196   00741C  320E               	rrcf	___xxtofl@exp^0,f,c
  1197   00741E  C00E  F009         	movff	___xxtofl@exp,??___xxtofl
  1198   007422  6A0A               	clrf	(??___xxtofl+1)^0,c
  1199   007424  6A0B               	clrf	(??___xxtofl+2)^0,c
  1200   007426  6A0C               	clrf	(??___xxtofl+3)^0,c
  1201   007428  C009  F00C         	movff	??___xxtofl,??___xxtofl+3
  1202   00742C  6A0B               	clrf	(??___xxtofl+2)^0,c
  1203   00742E  6A0A               	clrf	(??___xxtofl+1)^0,c
  1204   007430  6A09               	clrf	??___xxtofl^0,c
  1205   007432  5009               	movf	??___xxtofl^0,w,c
  1206   007434  120F               	iorwf	___xxtofl@arg^0,f,c
  1207   007436  500A               	movf	(??___xxtofl+1)^0,w,c
  1208   007438  1210               	iorwf	(___xxtofl@arg+1)^0,f,c
  1209   00743A  500B               	movf	(??___xxtofl+2)^0,w,c
  1210   00743C  1211               	iorwf	(___xxtofl@arg+2)^0,f,c
  1211   00743E  500C               	movf	(??___xxtofl+3)^0,w,c
  1212   007440  1212               	iorwf	(___xxtofl@arg+3)^0,f,c
  1213   007442  500D               	movf	___xxtofl@sign^0,w,c
  1214   007444  B4D8               	btfsc	status,2,c
  1215   007446  EF27  F03A         	goto	u1491
  1216   00744A  EF29  F03A         	goto	u1490
  1217   00744E                     u1491:
  1218   00744E  EF31  F03A         	goto	l1901
  1219   007452                     u1490:
  1220   007452  BE08               	btfsc	(___xxtofl@val+3)^0,7,c
  1221   007454  EF30  F03A         	goto	u1500
  1222   007458  EF2E  F03A         	goto	u1501
  1223   00745C                     u1501:
  1224   00745C  EF31  F03A         	goto	l1901
  1225   007460                     u1500:
  1226   007460  8E12               	bsf	(___xxtofl@arg+3)^0,7,c
  1227   007462                     l1901:
  1228   007462  C00F  F005         	movff	___xxtofl@arg,?___xxtofl
  1229   007466  C010  F006         	movff	___xxtofl@arg+1,?___xxtofl+1
  1230   00746A  C011  F007         	movff	___xxtofl@arg+2,?___xxtofl+2
  1231   00746E  C012  F008         	movff	___xxtofl@arg+3,?___xxtofl+3
  1232   007472                     l806:
  1233   007472  0012               	return		;funcret
  1234   007474                     __end_of___xxtofl:
  1235                           	callstack 0
  1236                           
  1237 ;; *************** function ___fltol *****************
  1238 ;; Defined at:
  1239 ;;		line 43 in file "C:\Program Files\Microchip\xc8\v2.41\pic\sources\c99\common\fltol.c"
  1240 ;; Parameters:    Size  Location     Type
  1241 ;;  f1              4   50[COMRAM] unsigned char 
  1242 ;; Auto vars:     Size  Location     Type
  1243 ;;  exp1            1   59[COMRAM] unsigned char 
  1244 ;;  sign1           1   58[COMRAM] unsigned char 
  1245 ;; Return value:  Size  Location     Type
  1246 ;;                  4   50[COMRAM] long 
  1247 ;; Registers used:
  1248 ;;		wreg, status,2, status,0
  1249 ;; Tracked objects:
  1250 ;;		On entry : 0/0
  1251 ;;		On exit  : 0/0
  1252 ;;		Unchanged: 0/0
  1253 ;; Data sizes:     COMRAM   BANK0   BANK1   BANK2   BANK3   BANK4   BANK5
  1254 ;;      Params:         4       0       0       0       0       0       0
  1255 ;;      Locals:         2       0       0       0       0       0       0
  1256 ;;      Temps:          4       0       0       0       0       0       0
  1257 ;;      Totals:        10       0       0       0       0       0       0
  1258 ;;Total ram usage:       10 bytes
  1259 ;; Hardware stack levels used: 1
  1260 ;; This function calls:
  1261 ;;		Nothing
  1262 ;; This function is called by:
  1263 ;;		_main
  1264 ;; This function uses a non-reentrant model
  1265 ;;
  1266                           
  1267                           	psect	text2
  1268   0071BA                     __ptext2:
  1269                           	callstack 0
  1270   0071BA                     ___fltol:
  1271                           	callstack 30
  1272   0071BA  3435               	rlcf	(___fltol@f1+2)^0,w,c
  1273   0071BC  3436               	rlcf	(___fltol@f1+3)^0,w,c
  1274   0071BE  6E3C               	movwf	___fltol@exp1^0,c
  1275   0071C0  503C               	movf	___fltol@exp1^0,w,c
  1276   0071C2  A4D8               	btfss	status,2,c
  1277   0071C4  EFE6  F038         	goto	u1341
  1278   0071C8  EFE8  F038         	goto	u1340
  1279   0071CC                     u1341:
  1280   0071CC  EFF2  F038         	goto	l1821
  1281   0071D0                     u1340:
  1282   0071D0                     l1817:
  1283   0071D0  0E00               	movlw	0
  1284   0071D2  6E33               	movwf	?___fltol^0,c
  1285   0071D4  0E00               	movlw	0
  1286   0071D6  6E34               	movwf	(?___fltol+1)^0,c
  1287   0071D8  0E00               	movlw	0
  1288   0071DA  6E35               	movwf	(?___fltol+2)^0,c
  1289   0071DC  0E00               	movlw	0
  1290   0071DE  6E36               	movwf	(?___fltol+3)^0,c
  1291   0071E0  EF5F  F039         	goto	l445
  1292   0071E4                     l1821:
  1293   0071E4  C033  F037         	movff	___fltol@f1,??___fltol
  1294   0071E8  C034  F038         	movff	___fltol@f1+1,??___fltol+1
  1295   0071EC  C035  F039         	movff	___fltol@f1+2,??___fltol+2
  1296   0071F0  C036  F03A         	movff	___fltol@f1+3,??___fltol+3
  1297   0071F4  0E20               	movlw	32
  1298   0071F6  EF02  F039         	goto	u1350
  1299   0071FA                     u1355:
  1300   0071FA  90D8               	bcf	status,0,c
  1301   0071FC  323A               	rrcf	(??___fltol+3)^0,f,c
  1302   0071FE  3239               	rrcf	(??___fltol+2)^0,f,c
  1303   007200  3238               	rrcf	(??___fltol+1)^0,f,c
  1304   007202  3237               	rrcf	??___fltol^0,f,c
  1305   007204                     u1350:
  1306   007204  2EE8               	decfsz	wreg,f,c
  1307   007206  EFFD  F038         	goto	u1355
  1308   00720A  5037               	movf	??___fltol^0,w,c
  1309   00720C  6E3B               	movwf	___fltol@sign1^0,c
  1310   00720E  8E35               	bsf	(___fltol@f1+2)^0,7,c
  1311   007210  0EFF               	movlw	255
  1312   007212  1633               	andwf	___fltol@f1^0,f,c
  1313   007214  0EFF               	movlw	255
  1314   007216  1634               	andwf	(___fltol@f1+1)^0,f,c
  1315   007218  0EFF               	movlw	255
  1316   00721A  1635               	andwf	(___fltol@f1+2)^0,f,c
  1317   00721C  0E00               	movlw	0
  1318   00721E  1636               	andwf	(___fltol@f1+3)^0,f,c
  1319   007220  0E96               	movlw	150
  1320   007222  5E3C               	subwf	___fltol@exp1^0,f,c
  1321   007224  BE3C               	btfsc	___fltol@exp1^0,7,c
  1322   007226  EF19  F039         	goto	u1360
  1323   00722A  EF17  F039         	goto	u1361
  1324   00722E                     u1361:
  1325   00722E  EF2F  F039         	goto	l1841
  1326   007232                     u1360:
  1327   007232  503C               	movf	___fltol@exp1^0,w,c
  1328   007234  0A80               	xorlw	128
  1329   007236  0F97               	addlw	151
  1330   007238  B0D8               	btfsc	status,0,c
  1331   00723A  EF21  F039         	goto	u1371
  1332   00723E  EF23  F039         	goto	u1370
  1333   007242                     u1371:
  1334   007242  EF25  F039         	goto	l1837
  1335   007246                     u1370:
  1336   007246  EFE8  F038         	goto	l1817
  1337   00724A                     l1837:
  1338   00724A  90D8               	bcf	status,0,c
  1339   00724C  3236               	rrcf	(___fltol@f1+3)^0,f,c
  1340   00724E  3235               	rrcf	(___fltol@f1+2)^0,f,c
  1341   007250  3234               	rrcf	(___fltol@f1+1)^0,f,c
  1342   007252  3233               	rrcf	___fltol@f1^0,f,c
  1343   007254  3E3C               	incfsz	___fltol@exp1^0,f,c
  1344   007256  EF25  F039         	goto	l1837
  1345   00725A  EF47  F039         	goto	l1851
  1346   00725E                     l1841:
  1347   00725E  0E1F               	movlw	31
  1348   007260  643C               	cpfsgt	___fltol@exp1^0,c
  1349   007262  EF35  F039         	goto	u1381
  1350   007266  EF37  F039         	goto	u1380
  1351   00726A                     u1381:
  1352   00726A  EF3F  F039         	goto	l1849
  1353   00726E                     u1380:
  1354   00726E  EFE8  F038         	goto	l1817
  1355   007272                     l1847:
  1356   007272  90D8               	bcf	status,0,c
  1357   007274  3633               	rlcf	___fltol@f1^0,f,c
  1358   007276  3634               	rlcf	(___fltol@f1+1)^0,f,c
  1359   007278  3635               	rlcf	(___fltol@f1+2)^0,f,c
  1360   00727A  3636               	rlcf	(___fltol@f1+3)^0,f,c
  1361   00727C  063C               	decf	___fltol@exp1^0,f,c
  1362   00727E                     l1849:
  1363   00727E  503C               	movf	___fltol@exp1^0,w,c
  1364   007280  A4D8               	btfss	status,2,c
  1365   007282  EF45  F039         	goto	u1391
  1366   007286  EF47  F039         	goto	u1390
  1367   00728A                     u1391:
  1368   00728A  EF39  F039         	goto	l1847
  1369   00728E                     u1390:
  1370   00728E                     l1851:
  1371   00728E  503B               	movf	___fltol@sign1^0,w,c
  1372   007290  B4D8               	btfsc	status,2,c
  1373   007292  EF4D  F039         	goto	u1401
  1374   007296  EF4F  F039         	goto	u1400
  1375   00729A                     u1401:
  1376   00729A  EF57  F039         	goto	l1855
  1377   00729E                     u1400:
  1378   00729E  1E36               	comf	(___fltol@f1+3)^0,f,c
  1379   0072A0  1E35               	comf	(___fltol@f1+2)^0,f,c
  1380   0072A2  1E34               	comf	(___fltol@f1+1)^0,f,c
  1381   0072A4  6C33               	negf	___fltol@f1^0,c
  1382   0072A6  0E00               	movlw	0
  1383   0072A8  2234               	addwfc	(___fltol@f1+1)^0,f,c
  1384   0072AA  2235               	addwfc	(___fltol@f1+2)^0,f,c
  1385   0072AC  2236               	addwfc	(___fltol@f1+3)^0,f,c
  1386   0072AE                     l1855:
  1387   0072AE  C033  F033         	movff	___fltol@f1,?___fltol
  1388   0072B2  C034  F034         	movff	___fltol@f1+1,?___fltol+1
  1389   0072B6  C035  F035         	movff	___fltol@f1+2,?___fltol+2
  1390   0072BA  C036  F036         	movff	___fltol@f1+3,?___fltol+3
  1391   0072BE                     l445:
  1392   0072BE  0012               	return		;funcret
  1393   0072C0                     __end_of___fltol:
  1394                           	callstack 0
  1395                           
  1396 ;; *************** function ___flmul *****************
  1397 ;; Defined at:
  1398 ;;		line 8 in file "C:\Program Files\Microchip\xc8\v2.41\pic\sources\c99\common\sprcmul.c"
  1399 ;; Parameters:    Size  Location     Type
  1400 ;;  b               4    0[COMRAM] long 
  1401 ;;  a               4    4[COMRAM] long 
  1402 ;; Auto vars:     Size  Location     Type
  1403 ;;  prod            4   19[COMRAM] struct .
  1404 ;;  grs             4   13[COMRAM] unsigned long 
  1405 ;;  temp            2   23[COMRAM] struct .
  1406 ;;  bexp            1   18[COMRAM] unsigned char 
  1407 ;;  aexp            1   17[COMRAM] unsigned char 
  1408 ;;  sign            1   12[COMRAM] unsigned char 
  1409 ;; Return value:  Size  Location     Type
  1410 ;;                  4    0[COMRAM] unsigned char 
  1411 ;; Registers used:
  1412 ;;		wreg, status,2, status,0, prodl, prodh
  1413 ;; Tracked objects:
  1414 ;;		On entry : 0/0
  1415 ;;		On exit  : 0/0
  1416 ;;		Unchanged: 0/0
  1417 ;; Data sizes:     COMRAM   BANK0   BANK1   BANK2   BANK3   BANK4   BANK5
  1418 ;;      Params:         8       0       0       0       0       0       0
  1419 ;;      Locals:        13       0       0       0       0       0       0
  1420 ;;      Temps:          4       0       0       0       0       0       0
  1421 ;;      Totals:        25       0       0       0       0       0       0
  1422 ;;Total ram usage:       25 bytes
  1423 ;; Hardware stack levels used: 1
  1424 ;; This function calls:
  1425 ;;		Nothing
  1426 ;; This function is called by:
  1427 ;;		_main
  1428 ;; This function uses a non-reentrant model
  1429 ;;
  1430                           
  1431                           	psect	text3
  1432   007BD6                     __ptext3:
  1433                           	callstack 0
  1434   007BD6                     ___flmul:
  1435                           	callstack 30
  1436   007BD6  5004               	movf	(___flmul@b+3)^0,w,c
  1437   007BD8  0B80               	andlw	128
  1438   007BDA  6E0D               	movwf	___flmul@sign^0,c
  1439   007BDC  5004               	movf	(___flmul@b+3)^0,w,c
  1440   007BDE  2404               	addwf	(___flmul@b+3)^0,w,c
  1441   007BE0  6E13               	movwf	___flmul@bexp^0,c
  1442   007BE2  AE03               	btfss	(___flmul@b+2)^0,7,c
  1443   007BE4  EFF6  F03D         	goto	u1031
  1444   007BE8  EFF8  F03D         	goto	u1030
  1445   007BEC                     u1031:
  1446   007BEC  EFF9  F03D         	goto	l1611
  1447   007BF0                     u1030:
  1448   007BF0  8013               	bsf	___flmul@bexp^0,0,c
  1449   007BF2                     l1611:
  1450   007BF2  5013               	movf	___flmul@bexp^0,w,c
  1451   007BF4  B4D8               	btfsc	status,2,c
  1452   007BF6  EFFF  F03D         	goto	u1041
  1453   007BFA  EF01  F03E         	goto	u1040
  1454   007BFE                     u1041:
  1455   007BFE  EF14  F03E         	goto	l1619
  1456   007C02                     u1040:
  1457   007C02  2813               	incf	___flmul@bexp^0,w,c
  1458   007C04  A4D8               	btfss	status,2,c
  1459   007C06  EF07  F03E         	goto	u1051
  1460   007C0A  EF09  F03E         	goto	u1050
  1461   007C0E                     u1051:
  1462   007C0E  EF11  F03E         	goto	l1617
  1463   007C12                     u1050:
  1464   007C12  0E00               	movlw	0
  1465   007C14  6E01               	movwf	___flmul@b^0,c
  1466   007C16  0E00               	movlw	0
  1467   007C18  6E02               	movwf	(___flmul@b+1)^0,c
  1468   007C1A  0E00               	movlw	0
  1469   007C1C  6E03               	movwf	(___flmul@b+2)^0,c
  1470   007C1E  0E00               	movlw	0
  1471   007C20  6E04               	movwf	(___flmul@b+3)^0,c
  1472   007C22                     l1617:
  1473   007C22  8E03               	bsf	(___flmul@b+2)^0,7,c
  1474   007C24  EF1C  F03E         	goto	l1621
  1475   007C28                     l1619:
  1476   007C28  0E00               	movlw	0
  1477   007C2A  6E01               	movwf	___flmul@b^0,c
  1478   007C2C  0E00               	movlw	0
  1479   007C2E  6E02               	movwf	(___flmul@b+1)^0,c
  1480   007C30  0E00               	movlw	0
  1481   007C32  6E03               	movwf	(___flmul@b+2)^0,c
  1482   007C34  0E00               	movlw	0
  1483   007C36  6E04               	movwf	(___flmul@b+3)^0,c
  1484   007C38                     l1621:
  1485   007C38  5008               	movf	(___flmul@a+3)^0,w,c
  1486   007C3A  0B80               	andlw	128
  1487   007C3C  1A0D               	xorwf	___flmul@sign^0,f,c
  1488   007C3E  5008               	movf	(___flmul@a+3)^0,w,c
  1489   007C40  2408               	addwf	(___flmul@a+3)^0,w,c
  1490   007C42  6E12               	movwf	___flmul@aexp^0,c
  1491   007C44  AE07               	btfss	(___flmul@a+2)^0,7,c
  1492   007C46  EF27  F03E         	goto	u1061
  1493   007C4A  EF29  F03E         	goto	u1060
  1494   007C4E                     u1061:
  1495   007C4E  EF2A  F03E         	goto	l1629
  1496   007C52                     u1060:
  1497   007C52  8012               	bsf	___flmul@aexp^0,0,c
  1498   007C54                     l1629:
  1499   007C54  5012               	movf	___flmul@aexp^0,w,c
  1500   007C56  B4D8               	btfsc	status,2,c
  1501   007C58  EF30  F03E         	goto	u1071
  1502   007C5C  EF32  F03E         	goto	u1070
  1503   007C60                     u1071:
  1504   007C60  EF45  F03E         	goto	l1637
  1505   007C64                     u1070:
  1506   007C64  2812               	incf	___flmul@aexp^0,w,c
  1507   007C66  A4D8               	btfss	status,2,c
  1508   007C68  EF38  F03E         	goto	u1081
  1509   007C6C  EF3A  F03E         	goto	u1080
  1510   007C70                     u1081:
  1511   007C70  EF42  F03E         	goto	l1635
  1512   007C74                     u1080:
  1513   007C74  0E00               	movlw	0
  1514   007C76  6E05               	movwf	___flmul@a^0,c
  1515   007C78  0E00               	movlw	0
  1516   007C7A  6E06               	movwf	(___flmul@a+1)^0,c
  1517   007C7C  0E00               	movlw	0
  1518   007C7E  6E07               	movwf	(___flmul@a+2)^0,c
  1519   007C80  0E00               	movlw	0
  1520   007C82  6E08               	movwf	(___flmul@a+3)^0,c
  1521   007C84                     l1635:
  1522   007C84  8E07               	bsf	(___flmul@a+2)^0,7,c
  1523   007C86  EF4D  F03E         	goto	l762
  1524   007C8A                     l1637:
  1525   007C8A  0E00               	movlw	0
  1526   007C8C  6E05               	movwf	___flmul@a^0,c
  1527   007C8E  0E00               	movlw	0
  1528   007C90  6E06               	movwf	(___flmul@a+1)^0,c
  1529   007C92  0E00               	movlw	0
  1530   007C94  6E07               	movwf	(___flmul@a+2)^0,c
  1531   007C96  0E00               	movlw	0
  1532   007C98  6E08               	movwf	(___flmul@a+3)^0,c
  1533   007C9A                     l762:
  1534   007C9A  5012               	movf	___flmul@aexp^0,w,c
  1535   007C9C  B4D8               	btfsc	status,2,c
  1536   007C9E  EF53  F03E         	goto	u1091
  1537   007CA2  EF55  F03E         	goto	u1090
  1538   007CA6                     u1091:
  1539   007CA6  EF5D  F03E         	goto	l1641
  1540   007CAA                     u1090:
  1541   007CAA  5013               	movf	___flmul@bexp^0,w,c
  1542   007CAC  A4D8               	btfss	status,2,c
  1543   007CAE  EF5B  F03E         	goto	u1101
  1544   007CB2  EF5D  F03E         	goto	u1100
  1545   007CB6                     u1101:
  1546   007CB6  EF67  F03E         	goto	l1645
  1547   007CBA                     u1100:
  1548   007CBA                     l1641:
  1549   007CBA  0E00               	movlw	0
  1550   007CBC  6E01               	movwf	?___flmul^0,c
  1551   007CBE  0E00               	movlw	0
  1552   007CC0  6E02               	movwf	(?___flmul+1)^0,c
  1553   007CC2  0E00               	movlw	0
  1554   007CC4  6E03               	movwf	(?___flmul+2)^0,c
  1555   007CC6  0E00               	movlw	0
  1556   007CC8  6E04               	movwf	(?___flmul+3)^0,c
  1557   007CCA  EFFF  F03F         	goto	l766
  1558   007CCE                     l1645:
  1559   007CCE  5007               	movf	(___flmul@a+2)^0,w,c
  1560   007CD0  0201               	mulwf	___flmul@b^0,c
  1561   007CD2  CFF3 F018          	movff	prodl,___flmul@temp
  1562   007CD6  CFF4 F019          	movff	prodh,___flmul@temp+1
  1563   007CDA  5018               	movf	___flmul@temp^0,w,c
  1564   007CDC  6E0E               	movwf	___flmul@grs^0,c
  1565   007CDE  6A0F               	clrf	(___flmul@grs+1)^0,c
  1566   007CE0  6A10               	clrf	(___flmul@grs+2)^0,c
  1567   007CE2  6A11               	clrf	(___flmul@grs+3)^0,c
  1568   007CE4  5019               	movf	(___flmul@temp+1)^0,w,c
  1569   007CE6  6E14               	movwf	___flmul@prod^0,c
  1570   007CE8  6A15               	clrf	(___flmul@prod+1)^0,c
  1571   007CEA  6A16               	clrf	(___flmul@prod+2)^0,c
  1572   007CEC  6A17               	clrf	(___flmul@prod+3)^0,c
  1573   007CEE  5006               	movf	(___flmul@a+1)^0,w,c
  1574   007CF0  0202               	mulwf	(___flmul@b+1)^0,c
  1575   007CF2  CFF3 F018          	movff	prodl,___flmul@temp
  1576   007CF6  CFF4 F019          	movff	prodh,___flmul@temp+1
  1577   007CFA  5018               	movf	___flmul@temp^0,w,c
  1578   007CFC  260E               	addwf	___flmul@grs^0,f,c
  1579   007CFE  0E00               	movlw	0
  1580   007D00  220F               	addwfc	(___flmul@grs+1)^0,f,c
  1581   007D02  2210               	addwfc	(___flmul@grs+2)^0,f,c
  1582   007D04  2211               	addwfc	(___flmul@grs+3)^0,f,c
  1583   007D06  5019               	movf	(___flmul@temp+1)^0,w,c
  1584   007D08  2614               	addwf	___flmul@prod^0,f,c
  1585   007D0A  0E00               	movlw	0
  1586   007D0C  2215               	addwfc	(___flmul@prod+1)^0,f,c
  1587   007D0E  2216               	addwfc	(___flmul@prod+2)^0,f,c
  1588   007D10  2217               	addwfc	(___flmul@prod+3)^0,f,c
  1589   007D12  5005               	movf	___flmul@a^0,w,c
  1590   007D14  0203               	mulwf	(___flmul@b+2)^0,c
  1591   007D16  CFF3 F018          	movff	prodl,___flmul@temp
  1592   007D1A  CFF4 F019          	movff	prodh,___flmul@temp+1
  1593   007D1E  5018               	movf	___flmul@temp^0,w,c
  1594   007D20  260E               	addwf	___flmul@grs^0,f,c
  1595   007D22  0E00               	movlw	0
  1596   007D24  220F               	addwfc	(___flmul@grs+1)^0,f,c
  1597   007D26  2210               	addwfc	(___flmul@grs+2)^0,f,c
  1598   007D28  2211               	addwfc	(___flmul@grs+3)^0,f,c
  1599   007D2A  5019               	movf	(___flmul@temp+1)^0,w,c
  1600   007D2C  2614               	addwf	___flmul@prod^0,f,c
  1601   007D2E  0E00               	movlw	0
  1602   007D30  2215               	addwfc	(___flmul@prod+1)^0,f,c
  1603   007D32  2216               	addwfc	(___flmul@prod+2)^0,f,c
  1604   007D34  2217               	addwfc	(___flmul@prod+3)^0,f,c
  1605   007D36  C010  F011         	movff	___flmul@grs+2,___flmul@grs+3
  1606   007D3A  C00F  F010         	movff	___flmul@grs+1,___flmul@grs+2
  1607   007D3E  C00E  F00F         	movff	___flmul@grs,___flmul@grs+1
  1608   007D42  6A0E               	clrf	___flmul@grs^0,c
  1609   007D44  5005               	movf	___flmul@a^0,w,c
  1610   007D46  0202               	mulwf	(___flmul@b+1)^0,c
  1611   007D48  CFF3 F018          	movff	prodl,___flmul@temp
  1612   007D4C  CFF4 F019          	movff	prodh,___flmul@temp+1
  1613   007D50  5018               	movf	___flmul@temp^0,w,c
  1614   007D52  260E               	addwf	___flmul@grs^0,f,c
  1615   007D54  5019               	movf	(___flmul@temp+1)^0,w,c
  1616   007D56  220F               	addwfc	(___flmul@grs+1)^0,f,c
  1617   007D58  0E00               	movlw	0
  1618   007D5A  2210               	addwfc	(___flmul@grs+2)^0,f,c
  1619   007D5C  0E00               	movlw	0
  1620   007D5E  2211               	addwfc	(___flmul@grs+3)^0,f,c
  1621   007D60  5006               	movf	(___flmul@a+1)^0,w,c
  1622   007D62  0201               	mulwf	___flmul@b^0,c
  1623   007D64  CFF3 F018          	movff	prodl,___flmul@temp
  1624   007D68  CFF4 F019          	movff	prodh,___flmul@temp+1
  1625   007D6C  5018               	movf	___flmul@temp^0,w,c
  1626   007D6E  260E               	addwf	___flmul@grs^0,f,c
  1627   007D70  5019               	movf	(___flmul@temp+1)^0,w,c
  1628   007D72  220F               	addwfc	(___flmul@grs+1)^0,f,c
  1629   007D74  0E00               	movlw	0
  1630   007D76  2210               	addwfc	(___flmul@grs+2)^0,f,c
  1631   007D78  0E00               	movlw	0
  1632   007D7A  2211               	addwfc	(___flmul@grs+3)^0,f,c
  1633   007D7C  C010  F011         	movff	___flmul@grs+2,___flmul@grs+3
  1634   007D80  C00F  F010         	movff	___flmul@grs+1,___flmul@grs+2
  1635   007D84  C00E  F00F         	movff	___flmul@grs,___flmul@grs+1
  1636   007D88  6A0E               	clrf	___flmul@grs^0,c
  1637   007D8A  5005               	movf	___flmul@a^0,w,c
  1638   007D8C  0201               	mulwf	___flmul@b^0,c
  1639   007D8E  CFF3 F018          	movff	prodl,___flmul@temp
  1640   007D92  CFF4 F019          	movff	prodh,___flmul@temp+1
  1641   007D96  5018               	movf	___flmul@temp^0,w,c
  1642   007D98  260E               	addwf	___flmul@grs^0,f,c
  1643   007D9A  5019               	movf	(___flmul@temp+1)^0,w,c
  1644   007D9C  220F               	addwfc	(___flmul@grs+1)^0,f,c
  1645   007D9E  0E00               	movlw	0
  1646   007DA0  2210               	addwfc	(___flmul@grs+2)^0,f,c
  1647   007DA2  0E00               	movlw	0
  1648   007DA4  2211               	addwfc	(___flmul@grs+3)^0,f,c
  1649   007DA6  5007               	movf	(___flmul@a+2)^0,w,c
  1650   007DA8  0202               	mulwf	(___flmul@b+1)^0,c
  1651   007DAA  CFF3 F018          	movff	prodl,___flmul@temp
  1652   007DAE  CFF4 F019          	movff	prodh,___flmul@temp+1
  1653   007DB2  5018               	movf	___flmul@temp^0,w,c
  1654   007DB4  2614               	addwf	___flmul@prod^0,f,c
  1655   007DB6  5019               	movf	(___flmul@temp+1)^0,w,c
  1656   007DB8  2215               	addwfc	(___flmul@prod+1)^0,f,c
  1657   007DBA  0E00               	movlw	0
  1658   007DBC  2216               	addwfc	(___flmul@prod+2)^0,f,c
  1659   007DBE  0E00               	movlw	0
  1660   007DC0  2217               	addwfc	(___flmul@prod+3)^0,f,c
  1661   007DC2  5006               	movf	(___flmul@a+1)^0,w,c
  1662   007DC4  0203               	mulwf	(___flmul@b+2)^0,c
  1663   007DC6  CFF3 F018          	movff	prodl,___flmul@temp
  1664   007DCA  CFF4 F019          	movff	prodh,___flmul@temp+1
  1665   007DCE  5018               	movf	___flmul@temp^0,w,c
  1666   007DD0  2614               	addwf	___flmul@prod^0,f,c
  1667   007DD2  5019               	movf	(___flmul@temp+1)^0,w,c
  1668   007DD4  2215               	addwfc	(___flmul@prod+1)^0,f,c
  1669   007DD6  0E00               	movlw	0
  1670   007DD8  2216               	addwfc	(___flmul@prod+2)^0,f,c
  1671   007DDA  0E00               	movlw	0
  1672   007DDC  2217               	addwfc	(___flmul@prod+3)^0,f,c
  1673   007DDE  5007               	movf	(___flmul@a+2)^0,w,c
  1674   007DE0  0203               	mulwf	(___flmul@b+2)^0,c
  1675   007DE2  CFF3 F018          	movff	prodl,___flmul@temp
  1676   007DE6  CFF4 F019          	movff	prodh,___flmul@temp+1
  1677   007DEA  5018               	movf	___flmul@temp^0,w,c
  1678   007DEC  6E09               	movwf	??___flmul^0,c
  1679   007DEE  5019               	movf	(___flmul@temp+1)^0,w,c
  1680   007DF0  6E0A               	movwf	(??___flmul+1)^0,c
  1681   007DF2  6A0B               	clrf	(??___flmul+2)^0,c
  1682   007DF4  6A0C               	clrf	(??___flmul+3)^0,c
  1683   007DF6  C00B  F00C         	movff	??___flmul+2,??___flmul+3
  1684   007DFA  C00A  F00B         	movff	??___flmul+1,??___flmul+2
  1685   007DFE  C009  F00A         	movff	??___flmul,??___flmul+1
  1686   007E02  6A09               	clrf	??___flmul^0,c
  1687   007E04  5009               	movf	??___flmul^0,w,c
  1688   007E06  2614               	addwf	___flmul@prod^0,f,c
  1689   007E08  500A               	movf	(??___flmul+1)^0,w,c
  1690   007E0A  2215               	addwfc	(___flmul@prod+1)^0,f,c
  1691   007E0C  500B               	movf	(??___flmul+2)^0,w,c
  1692   007E0E  2216               	addwfc	(___flmul@prod+2)^0,f,c
  1693   007E10  500C               	movf	(??___flmul+3)^0,w,c
  1694   007E12  2217               	addwfc	(___flmul@prod+3)^0,f,c
  1695   007E14  C00E  F009         	movff	___flmul@grs,??___flmul
  1696   007E18  C00F  F00A         	movff	___flmul@grs+1,??___flmul+1
  1697   007E1C  C010  F00B         	movff	___flmul@grs+2,??___flmul+2
  1698   007E20  C011  F00C         	movff	___flmul@grs+3,??___flmul+3
  1699   007E24  0E19               	movlw	25
  1700   007E26  EF1A  F03F         	goto	u1110
  1701   007E2A                     u1115:
  1702   007E2A  90D8               	bcf	status,0,c
  1703   007E2C  320C               	rrcf	(??___flmul+3)^0,f,c
  1704   007E2E  320B               	rrcf	(??___flmul+2)^0,f,c
  1705   007E30  320A               	rrcf	(??___flmul+1)^0,f,c
  1706   007E32  3209               	rrcf	??___flmul^0,f,c
  1707   007E34                     u1110:
  1708   007E34  2EE8               	decfsz	wreg,f,c
  1709   007E36  EF15  F03F         	goto	u1115
  1710   007E3A  5009               	movf	??___flmul^0,w,c
  1711   007E3C  2614               	addwf	___flmul@prod^0,f,c
  1712   007E3E  500A               	movf	(??___flmul+1)^0,w,c
  1713   007E40  2215               	addwfc	(___flmul@prod+1)^0,f,c
  1714   007E42  500B               	movf	(??___flmul+2)^0,w,c
  1715   007E44  2216               	addwfc	(___flmul@prod+2)^0,f,c
  1716   007E46  500C               	movf	(??___flmul+3)^0,w,c
  1717   007E48  2217               	addwfc	(___flmul@prod+3)^0,f,c
  1718   007E4A  C010  F011         	movff	___flmul@grs+2,___flmul@grs+3
  1719   007E4E  C00F  F010         	movff	___flmul@grs+1,___flmul@grs+2
  1720   007E52  C00E  F00F         	movff	___flmul@grs,___flmul@grs+1
  1721   007E56  6A0E               	clrf	___flmul@grs^0,c
  1722   007E58  5012               	movf	___flmul@aexp^0,w,c
  1723   007E5A  C013  F009         	movff	___flmul@bexp,??___flmul
  1724   007E5E  6A0A               	clrf	(??___flmul+1)^0,c
  1725   007E60  2609               	addwf	??___flmul^0,f,c
  1726   007E62  0E00               	movlw	0
  1727   007E64  220A               	addwfc	(??___flmul+1)^0,f,c
  1728   007E66  0E82               	movlw	130
  1729   007E68  2409               	addwf	??___flmul^0,w,c
  1730   007E6A  6E18               	movwf	___flmul@temp^0,c
  1731   007E6C  0EFF               	movlw	255
  1732   007E6E  200A               	addwfc	(??___flmul+1)^0,w,c
  1733   007E70  6E19               	movwf	(___flmul@temp+1)^0,c
  1734   007E72  EF50  F03F         	goto	l1693
  1735   007E76                     l1687:
  1736   007E76  90D8               	bcf	status,0,c
  1737   007E78  3614               	rlcf	___flmul@prod^0,f,c
  1738   007E7A  3615               	rlcf	(___flmul@prod+1)^0,f,c
  1739   007E7C  3616               	rlcf	(___flmul@prod+2)^0,f,c
  1740   007E7E  3617               	rlcf	(___flmul@prod+3)^0,f,c
  1741   007E80  AE11               	btfss	(___flmul@grs+3)^0,7,c
  1742   007E82  EF45  F03F         	goto	u1121
  1743   007E86  EF47  F03F         	goto	u1120
  1744   007E8A                     u1121:
  1745   007E8A  EF48  F03F         	goto	l769
  1746   007E8E                     u1120:
  1747   007E8E  8014               	bsf	___flmul@prod^0,0,c
  1748   007E90                     l769:
  1749   007E90  90D8               	bcf	status,0,c
  1750   007E92  360E               	rlcf	___flmul@grs^0,f,c
  1751   007E94  360F               	rlcf	(___flmul@grs+1)^0,f,c
  1752   007E96  3610               	rlcf	(___flmul@grs+2)^0,f,c
  1753   007E98  3611               	rlcf	(___flmul@grs+3)^0,f,c
  1754   007E9A  0618               	decf	___flmul@temp^0,f,c
  1755   007E9C  A0D8               	btfss	status,0,c
  1756   007E9E  0619               	decf	(___flmul@temp+1)^0,f,c
  1757   007EA0                     l1693:
  1758   007EA0  AE16               	btfss	(___flmul@prod+2)^0,7,c
  1759   007EA2  EF55  F03F         	goto	u1131
  1760   007EA6  EF57  F03F         	goto	u1130
  1761   007EAA                     u1131:
  1762   007EAA  EF3B  F03F         	goto	l1687
  1763   007EAE                     u1130:
  1764   007EAE  0E00               	movlw	0
  1765   007EB0  6E12               	movwf	___flmul@aexp^0,c
  1766   007EB2  AE11               	btfss	(___flmul@grs+3)^0,7,c
  1767   007EB4  EF5E  F03F         	goto	u1141
  1768   007EB8  EF60  F03F         	goto	u1140
  1769   007EBC                     u1141:
  1770   007EBC  EF84  F03F         	goto	l771
  1771   007EC0                     u1140:
  1772   007EC0  0EFF               	movlw	255
  1773   007EC2  140E               	andwf	___flmul@grs^0,w,c
  1774   007EC4  6E09               	movwf	??___flmul^0,c
  1775   007EC6  0EFF               	movlw	255
  1776   007EC8  140F               	andwf	(___flmul@grs+1)^0,w,c
  1777   007ECA  6E0A               	movwf	(??___flmul+1)^0,c
  1778   007ECC  0EFF               	movlw	255
  1779   007ECE  1410               	andwf	(___flmul@grs+2)^0,w,c
  1780   007ED0  6E0B               	movwf	(??___flmul+2)^0,c
  1781   007ED2  0E7F               	movlw	127
  1782   007ED4  1411               	andwf	(___flmul@grs+3)^0,w,c
  1783   007ED6  6E0C               	movwf	(??___flmul+3)^0,c
  1784   007ED8  5009               	movf	??___flmul^0,w,c
  1785   007EDA  100A               	iorwf	(??___flmul+1)^0,w,c
  1786   007EDC  100B               	iorwf	(??___flmul+2)^0,w,c
  1787   007EDE  100C               	iorwf	(??___flmul+3)^0,w,c
  1788   007EE0  B4D8               	btfsc	status,2,c
  1789   007EE2  EF75  F03F         	goto	u1151
  1790   007EE6  EF77  F03F         	goto	u1150
  1791   007EEA                     u1151:
  1792   007EEA  EF7B  F03F         	goto	l772
  1793   007EEE                     u1150:
  1794   007EEE                     l1701:
  1795   007EEE  0E01               	movlw	1
  1796   007EF0  6E12               	movwf	___flmul@aexp^0,c
  1797   007EF2  EF84  F03F         	goto	l771
  1798   007EF6                     l772:
  1799   007EF6  A014               	btfss	___flmul@prod^0,0,c
  1800   007EF8  EF80  F03F         	goto	u1161
  1801   007EFC  EF82  F03F         	goto	u1160
  1802   007F00                     u1161:
  1803   007F00  EF84  F03F         	goto	l771
  1804   007F04                     u1160:
  1805   007F04  EF77  F03F         	goto	l1701
  1806   007F08                     l771:
  1807   007F08  5012               	movf	___flmul@aexp^0,w,c
  1808   007F0A  B4D8               	btfsc	status,2,c
  1809   007F0C  EF8A  F03F         	goto	u1171
  1810   007F10  EF8C  F03F         	goto	u1170
  1811   007F14                     u1171:
  1812   007F14  EFB0  F03F         	goto	l1713
  1813   007F18                     u1170:
  1814   007F18  0E01               	movlw	1
  1815   007F1A  2614               	addwf	___flmul@prod^0,f,c
  1816   007F1C  0E00               	movlw	0
  1817   007F1E  2215               	addwfc	(___flmul@prod+1)^0,f,c
  1818   007F20  2216               	addwfc	(___flmul@prod+2)^0,f,c
  1819   007F22  2217               	addwfc	(___flmul@prod+3)^0,f,c
  1820   007F24  A017               	btfss	(___flmul@prod+3)^0,0,c
  1821   007F26  EF97  F03F         	goto	u1181
  1822   007F2A  EF99  F03F         	goto	u1180
  1823   007F2E                     u1181:
  1824   007F2E  EFB0  F03F         	goto	l1713
  1825   007F32                     u1180:
  1826   007F32  C014  F009         	movff	___flmul@prod,??___flmul
  1827   007F36  C015  F00A         	movff	___flmul@prod+1,??___flmul+1
  1828   007F3A  C016  F00B         	movff	___flmul@prod+2,??___flmul+2
  1829   007F3E  C017  F00C         	movff	___flmul@prod+3,??___flmul+3
  1830   007F42  340C               	rlcf	(??___flmul+3)^0,w,c
  1831   007F44  320C               	rrcf	(??___flmul+3)^0,f,c
  1832   007F46  320B               	rrcf	(??___flmul+2)^0,f,c
  1833   007F48  320A               	rrcf	(??___flmul+1)^0,f,c
  1834   007F4A  3209               	rrcf	??___flmul^0,f,c
  1835   007F4C  C009  F014         	movff	??___flmul,___flmul@prod
  1836   007F50  C00A  F015         	movff	??___flmul+1,___flmul@prod+1
  1837   007F54  C00B  F016         	movff	??___flmul+2,___flmul@prod+2
  1838   007F58  C00C  F017         	movff	??___flmul+3,___flmul@prod+3
  1839   007F5C  4A18               	infsnz	___flmul@temp^0,f,c
  1840   007F5E  2A19               	incf	(___flmul@temp+1)^0,f,c
  1841   007F60                     l1713:
  1842   007F60  BE19               	btfsc	(___flmul@temp+1)^0,7,c
  1843   007F62  EFBB  F03F         	goto	u1191
  1844   007F66  5019               	movf	(___flmul@temp+1)^0,w,c
  1845   007F68  E108               	bnz	u1190
  1846   007F6A  2818               	incf	___flmul@temp^0,w,c
  1847   007F6C  A0D8               	btfss	status,0,c
  1848   007F6E  EFBB  F03F         	goto	u1191
  1849   007F72  EFBD  F03F         	goto	u1190
  1850   007F76                     u1191:
  1851   007F76  EFC7  F03F         	goto	l1717
  1852   007F7A                     u1190:
  1853   007F7A  0E00               	movlw	0
  1854   007F7C  6E14               	movwf	___flmul@prod^0,c
  1855   007F7E  0E00               	movlw	0
  1856   007F80  6E15               	movwf	(___flmul@prod+1)^0,c
  1857   007F82  0E80               	movlw	128
  1858   007F84  6E16               	movwf	(___flmul@prod+2)^0,c
  1859   007F86  0E7F               	movlw	127
  1860   007F88  6E17               	movwf	(___flmul@prod+3)^0,c
  1861   007F8A  EFF5  F03F         	goto	l1729
  1862   007F8E                     l1717:
  1863   007F8E  BE19               	btfsc	(___flmul@temp+1)^0,7,c
  1864   007F90  EFD4  F03F         	goto	u1200
  1865   007F94  5019               	movf	(___flmul@temp+1)^0,w,c
  1866   007F96  E106               	bnz	u1201
  1867   007F98  0418               	decf	___flmul@temp^0,w,c
  1868   007F9A  B0D8               	btfsc	status,0,c
  1869   007F9C  EFD2  F03F         	goto	u1201
  1870   007FA0  EFD4  F03F         	goto	u1200
  1871   007FA4                     u1201:
  1872   007FA4  EFE0  F03F         	goto	l779
  1873   007FA8                     u1200:
  1874   007FA8  0E00               	movlw	0
  1875   007FAA  6E14               	movwf	___flmul@prod^0,c
  1876   007FAC  0E00               	movlw	0
  1877   007FAE  6E15               	movwf	(___flmul@prod+1)^0,c
  1878   007FB0  0E00               	movlw	0
  1879   007FB2  6E16               	movwf	(___flmul@prod+2)^0,c
  1880   007FB4  0E00               	movlw	0
  1881   007FB6  6E17               	movwf	(___flmul@prod+3)^0,c
  1882   007FB8  0E00               	movlw	0
  1883   007FBA  6E0D               	movwf	___flmul@sign^0,c
  1884   007FBC  EFF5  F03F         	goto	l1729
  1885   007FC0                     l779:
  1886   007FC0  C018  F013         	movff	___flmul@temp,___flmul@bexp
  1887   007FC4  0EFF               	movlw	255
  1888   007FC6  1614               	andwf	___flmul@prod^0,f,c
  1889   007FC8  0EFF               	movlw	255
  1890   007FCA  1615               	andwf	(___flmul@prod+1)^0,f,c
  1891   007FCC  0E7F               	movlw	127
  1892   007FCE  1616               	andwf	(___flmul@prod+2)^0,f,c
  1893   007FD0  0E00               	movlw	0
  1894   007FD2  1617               	andwf	(___flmul@prod+3)^0,f,c
  1895   007FD4  A013               	btfss	___flmul@bexp^0,0,c
  1896   007FD6  EFEF  F03F         	goto	u1211
  1897   007FDA  EFF1  F03F         	goto	u1210
  1898   007FDE                     u1211:
  1899   007FDE  EFF2  F03F         	goto	l1727
  1900   007FE2                     u1210:
  1901   007FE2  8E16               	bsf	(___flmul@prod+2)^0,7,c
  1902   007FE4                     l1727:
  1903   007FE4  90D8               	bcf	status,0,c
  1904   007FE6  3013               	rrcf	___flmul@bexp^0,w,c
  1905   007FE8  6E17               	movwf	(___flmul@prod+3)^0,c
  1906   007FEA                     l1729:
  1907   007FEA  500D               	movf	___flmul@sign^0,w,c
  1908   007FEC  1217               	iorwf	(___flmul@prod+3)^0,f,c
  1909   007FEE  C014  F001         	movff	___flmul@prod,?___flmul
  1910   007FF2  C015  F002         	movff	___flmul@prod+1,?___flmul+1
  1911   007FF6  C016  F003         	movff	___flmul@prod+2,?___flmul+2
  1912   007FFA  C017  F004         	movff	___flmul@prod+3,?___flmul+3
  1913   007FFE                     l766:
  1914   007FFE  0012               	return		;funcret
  1915   008000                     __end_of___flmul:
  1916                           	callstack 0
  1917                           
  1918 ;; *************** function ___fldiv *****************
  1919 ;; Defined at:
  1920 ;;		line 11 in file "C:\Program Files\Microchip\xc8\v2.41\pic\sources\c99\common\sprcdiv.c"
  1921 ;; Parameters:    Size  Location     Type
  1922 ;;  b               4   25[COMRAM] unsigned char 
  1923 ;;  a               4   29[COMRAM] unsigned char 
  1924 ;; Auto vars:     Size  Location     Type
  1925 ;;  grs             4   44[COMRAM] unsigned long 
  1926 ;;  rem             4   37[COMRAM] unsigned long 
  1927 ;;  new_exp         2   42[COMRAM] short 
  1928 ;;  aexp            1   49[COMRAM] unsigned char 
  1929 ;;  bexp            1   48[COMRAM] unsigned char 
  1930 ;;  sign            1   41[COMRAM] unsigned char 
  1931 ;; Return value:  Size  Location     Type
  1932 ;;                  4   25[COMRAM] unsigned char 
  1933 ;; Registers used:
  1934 ;;		wreg, status,2, status,0
  1935 ;; Tracked objects:
  1936 ;;		On entry : 0/0
  1937 ;;		On exit  : 0/0
  1938 ;;		Unchanged: 0/0
  1939 ;; Data sizes:     COMRAM   BANK0   BANK1   BANK2   BANK3   BANK4   BANK5
  1940 ;;      Params:         8       0       0       0       0       0       0
  1941 ;;      Locals:        13       0       0       0       0       0       0
  1942 ;;      Temps:          4       0       0       0       0       0       0
  1943 ;;      Totals:        25       0       0       0       0       0       0
  1944 ;;Total ram usage:       25 bytes
  1945 ;; Hardware stack levels used: 1
  1946 ;; This function calls:
  1947 ;;		Nothing
  1948 ;; This function is called by:
  1949 ;;		_main
  1950 ;; This function uses a non-reentrant model
  1951 ;;
  1952                           
  1953                           	psect	text4
  1954   007474                     __ptext4:
  1955                           	callstack 0
  1956   007474                     ___fldiv:
  1957                           	callstack 30
  1958   007474  501D               	movf	(___fldiv@b+3)^0,w,c
  1959   007476  0B80               	andlw	128
  1960   007478  6E2A               	movwf	___fldiv@sign^0,c
  1961   00747A  501D               	movf	(___fldiv@b+3)^0,w,c
  1962   00747C  241D               	addwf	(___fldiv@b+3)^0,w,c
  1963   00747E  6E31               	movwf	___fldiv@bexp^0,c
  1964   007480  AE1C               	btfss	(___fldiv@b+2)^0,7,c
  1965   007482  EF45  F03A         	goto	u801
  1966   007486  EF47  F03A         	goto	u800
  1967   00748A                     u801:
  1968   00748A  EF48  F03A         	goto	l1473
  1969   00748E                     u800:
  1970   00748E  8031               	bsf	___fldiv@bexp^0,0,c
  1971   007490                     l1473:
  1972   007490  5031               	movf	___fldiv@bexp^0,w,c
  1973   007492  B4D8               	btfsc	status,2,c
  1974   007494  EF4E  F03A         	goto	u811
  1975   007498  EF50  F03A         	goto	u810
  1976   00749C                     u811:
  1977   00749C  EF65  F03A         	goto	l1483
  1978   0074A0                     u810:
  1979   0074A0  2831               	incf	___fldiv@bexp^0,w,c
  1980   0074A2  A4D8               	btfss	status,2,c
  1981   0074A4  EF56  F03A         	goto	u821
  1982   0074A8  EF58  F03A         	goto	u820
  1983   0074AC                     u821:
  1984   0074AC  EF60  F03A         	goto	l1479
  1985   0074B0                     u820:
  1986   0074B0  0E00               	movlw	0
  1987   0074B2  6E1A               	movwf	___fldiv@b^0,c
  1988   0074B4  0E00               	movlw	0
  1989   0074B6  6E1B               	movwf	(___fldiv@b+1)^0,c
  1990   0074B8  0E00               	movlw	0
  1991   0074BA  6E1C               	movwf	(___fldiv@b+2)^0,c
  1992   0074BC  0E00               	movlw	0
  1993   0074BE  6E1D               	movwf	(___fldiv@b+3)^0,c
  1994   0074C0                     l1479:
  1995   0074C0  8E1C               	bsf	(___fldiv@b+2)^0,7,c
  1996   0074C2  0E00               	movlw	0
  1997   0074C4  6E1D               	movwf	(___fldiv@b+3)^0,c
  1998   0074C6  EF6D  F03A         	goto	l1485
  1999   0074CA                     l1483:
  2000   0074CA  0E00               	movlw	0
  2001   0074CC  6E1A               	movwf	___fldiv@b^0,c
  2002   0074CE  0E00               	movlw	0
  2003   0074D0  6E1B               	movwf	(___fldiv@b+1)^0,c
  2004   0074D2  0E00               	movlw	0
  2005   0074D4  6E1C               	movwf	(___fldiv@b+2)^0,c
  2006   0074D6  0E00               	movlw	0
  2007   0074D8  6E1D               	movwf	(___fldiv@b+3)^0,c
  2008   0074DA                     l1485:
  2009   0074DA  5021               	movf	(___fldiv@a+3)^0,w,c
  2010   0074DC  0B80               	andlw	128
  2011   0074DE  1A2A               	xorwf	___fldiv@sign^0,f,c
  2012   0074E0  5021               	movf	(___fldiv@a+3)^0,w,c
  2013   0074E2  2421               	addwf	(___fldiv@a+3)^0,w,c
  2014   0074E4  6E32               	movwf	___fldiv@aexp^0,c
  2015   0074E6  AE20               	btfss	(___fldiv@a+2)^0,7,c
  2016   0074E8  EF78  F03A         	goto	u831
  2017   0074EC  EF7A  F03A         	goto	u830
  2018   0074F0                     u831:
  2019   0074F0  EF7B  F03A         	goto	l1493
  2020   0074F4                     u830:
  2021   0074F4  8032               	bsf	___fldiv@aexp^0,0,c
  2022   0074F6                     l1493:
  2023   0074F6  5032               	movf	___fldiv@aexp^0,w,c
  2024   0074F8  B4D8               	btfsc	status,2,c
  2025   0074FA  EF81  F03A         	goto	u841
  2026   0074FE  EF83  F03A         	goto	u840
  2027   007502                     u841:
  2028   007502  EF98  F03A         	goto	l1503
  2029   007506                     u840:
  2030   007506  2832               	incf	___fldiv@aexp^0,w,c
  2031   007508  A4D8               	btfss	status,2,c
  2032   00750A  EF89  F03A         	goto	u851
  2033   00750E  EF8B  F03A         	goto	u850
  2034   007512                     u851:
  2035   007512  EF93  F03A         	goto	l1499
  2036   007516                     u850:
  2037   007516  0E00               	movlw	0
  2038   007518  6E1E               	movwf	___fldiv@a^0,c
  2039   00751A  0E00               	movlw	0
  2040   00751C  6E1F               	movwf	(___fldiv@a+1)^0,c
  2041   00751E  0E00               	movlw	0
  2042   007520  6E20               	movwf	(___fldiv@a+2)^0,c
  2043   007522  0E00               	movlw	0
  2044   007524  6E21               	movwf	(___fldiv@a+3)^0,c
  2045   007526                     l1499:
  2046   007526  8E20               	bsf	(___fldiv@a+2)^0,7,c
  2047   007528  0E00               	movlw	0
  2048   00752A  6E21               	movwf	(___fldiv@a+3)^0,c
  2049   00752C  EFA0  F03A         	goto	l1505
  2050   007530                     l1503:
  2051   007530  0E00               	movlw	0
  2052   007532  6E1E               	movwf	___fldiv@a^0,c
  2053   007534  0E00               	movlw	0
  2054   007536  6E1F               	movwf	(___fldiv@a+1)^0,c
  2055   007538  0E00               	movlw	0
  2056   00753A  6E20               	movwf	(___fldiv@a+2)^0,c
  2057   00753C  0E00               	movlw	0
  2058   00753E  6E21               	movwf	(___fldiv@a+3)^0,c
  2059   007540                     l1505:
  2060   007540  501E               	movf	___fldiv@a^0,w,c
  2061   007542  101F               	iorwf	(___fldiv@a+1)^0,w,c
  2062   007544  1020               	iorwf	(___fldiv@a+2)^0,w,c
  2063   007546  1021               	iorwf	(___fldiv@a+3)^0,w,c
  2064   007548  A4D8               	btfss	status,2,c
  2065   00754A  EFA9  F03A         	goto	u861
  2066   00754E  EFAB  F03A         	goto	u860
  2067   007552                     u861:
  2068   007552  EFC3  F03A         	goto	l1517
  2069   007556                     u860:
  2070   007556  0E00               	movlw	0
  2071   007558  6E1A               	movwf	___fldiv@b^0,c
  2072   00755A  0E00               	movlw	0
  2073   00755C  6E1B               	movwf	(___fldiv@b+1)^0,c
  2074   00755E  0E00               	movlw	0
  2075   007560  6E1C               	movwf	(___fldiv@b+2)^0,c
  2076   007562  0E00               	movlw	0
  2077   007564  6E1D               	movwf	(___fldiv@b+3)^0,c
  2078   007566  0E80               	movlw	128
  2079   007568  121C               	iorwf	(___fldiv@b+2)^0,f,c
  2080   00756A  0E7F               	movlw	127
  2081   00756C  121D               	iorwf	(___fldiv@b+3)^0,f,c
  2082   00756E                     l1511:
  2083   00756E  502A               	movf	___fldiv@sign^0,w,c
  2084   007570  121D               	iorwf	(___fldiv@b+3)^0,f,c
  2085   007572  C01A  F01A         	movff	___fldiv@b,?___fldiv
  2086   007576  C01B  F01B         	movff	___fldiv@b+1,?___fldiv+1
  2087   00757A  C01C  F01C         	movff	___fldiv@b+2,?___fldiv+2
  2088   00757E  C01D  F01D         	movff	___fldiv@b+3,?___fldiv+3
  2089   007582  EF06  F03C         	goto	l730
  2090   007586                     l1517:
  2091   007586  5031               	movf	___fldiv@bexp^0,w,c
  2092   007588  A4D8               	btfss	status,2,c
  2093   00758A  EFC9  F03A         	goto	u871
  2094   00758E  EFCB  F03A         	goto	u870
  2095   007592                     u871:
  2096   007592  EFD5  F03A         	goto	l1525
  2097   007596                     u870:
  2098   007596  0E00               	movlw	0
  2099   007598  6E1A               	movwf	?___fldiv^0,c
  2100   00759A  0E00               	movlw	0
  2101   00759C  6E1B               	movwf	(?___fldiv+1)^0,c
  2102   00759E  0E00               	movlw	0
  2103   0075A0  6E1C               	movwf	(?___fldiv+2)^0,c
  2104   0075A2  0E00               	movlw	0
  2105   0075A4  6E1D               	movwf	(?___fldiv+3)^0,c
  2106   0075A6  EF06  F03C         	goto	l730
  2107   0075AA                     l1525:
  2108   0075AA  5032               	movf	___fldiv@aexp^0,w,c
  2109   0075AC  C031  F022         	movff	___fldiv@bexp,??___fldiv
  2110   0075B0  6A23               	clrf	(??___fldiv+1)^0,c
  2111   0075B2  5E22               	subwf	??___fldiv^0,f,c
  2112   0075B4  0E00               	movlw	0
  2113   0075B6  5A23               	subwfb	(??___fldiv+1)^0,f,c
  2114   0075B8  0E7F               	movlw	127
  2115   0075BA  2422               	addwf	??___fldiv^0,w,c
  2116   0075BC  6E2B               	movwf	___fldiv@new_exp^0,c
  2117   0075BE  0E00               	movlw	0
  2118   0075C0  2023               	addwfc	(??___fldiv+1)^0,w,c
  2119   0075C2  6E2C               	movwf	(___fldiv@new_exp+1)^0,c
  2120   0075C4  C01A  F026         	movff	___fldiv@b,___fldiv@rem
  2121   0075C8  C01B  F027         	movff	___fldiv@b+1,___fldiv@rem+1
  2122   0075CC  C01C  F028         	movff	___fldiv@b+2,___fldiv@rem+2
  2123   0075D0  C01D  F029         	movff	___fldiv@b+3,___fldiv@rem+3
  2124   0075D4  0E00               	movlw	0
  2125   0075D6  6E1A               	movwf	___fldiv@b^0,c
  2126   0075D8  0E00               	movlw	0
  2127   0075DA  6E1B               	movwf	(___fldiv@b+1)^0,c
  2128   0075DC  0E00               	movlw	0
  2129   0075DE  6E1C               	movwf	(___fldiv@b+2)^0,c
  2130   0075E0  0E00               	movlw	0
  2131   0075E2  6E1D               	movwf	(___fldiv@b+3)^0,c
  2132   0075E4  0E00               	movlw	0
  2133   0075E6  6E2D               	movwf	___fldiv@grs^0,c
  2134   0075E8  0E00               	movlw	0
  2135   0075EA  6E2E               	movwf	(___fldiv@grs+1)^0,c
  2136   0075EC  0E00               	movlw	0
  2137   0075EE  6E2F               	movwf	(___fldiv@grs+2)^0,c
  2138   0075F0  0E00               	movlw	0
  2139   0075F2  6E30               	movwf	(___fldiv@grs+3)^0,c
  2140   0075F4  0E00               	movlw	0
  2141   0075F6  6E32               	movwf	___fldiv@aexp^0,c
  2142   0075F8  EF36  F03B         	goto	l732
  2143   0075FC                     l1535:
  2144   0075FC  5032               	movf	___fldiv@aexp^0,w,c
  2145   0075FE  B4D8               	btfsc	status,2,c
  2146   007600  EF04  F03B         	goto	u881
  2147   007604  EF06  F03B         	goto	u880
  2148   007608                     u881:
  2149   007608  EF1D  F03B         	goto	l1543
  2150   00760C                     u880:
  2151   00760C  90D8               	bcf	status,0,c
  2152   00760E  3626               	rlcf	___fldiv@rem^0,f,c
  2153   007610  3627               	rlcf	(___fldiv@rem+1)^0,f,c
  2154   007612  3628               	rlcf	(___fldiv@rem+2)^0,f,c
  2155   007614  3629               	rlcf	(___fldiv@rem+3)^0,f,c
  2156   007616  90D8               	bcf	status,0,c
  2157   007618  361A               	rlcf	___fldiv@b^0,f,c
  2158   00761A  361B               	rlcf	(___fldiv@b+1)^0,f,c
  2159   00761C  361C               	rlcf	(___fldiv@b+2)^0,f,c
  2160   00761E  361D               	rlcf	(___fldiv@b+3)^0,f,c
  2161   007620  AE30               	btfss	(___fldiv@grs+3)^0,7,c
  2162   007622  EF15  F03B         	goto	u891
  2163   007626  EF17  F03B         	goto	u890
  2164   00762A                     u891:
  2165   00762A  EF18  F03B         	goto	l735
  2166   00762E                     u890:
  2167   00762E  801A               	bsf	___fldiv@b^0,0,c
  2168   007630                     l735:
  2169   007630  90D8               	bcf	status,0,c
  2170   007632  362D               	rlcf	___fldiv@grs^0,f,c
  2171   007634  362E               	rlcf	(___fldiv@grs+1)^0,f,c
  2172   007636  362F               	rlcf	(___fldiv@grs+2)^0,f,c
  2173   007638  3630               	rlcf	(___fldiv@grs+3)^0,f,c
  2174   00763A                     l1543:
  2175   00763A  501E               	movf	___fldiv@a^0,w,c
  2176   00763C  5C26               	subwf	___fldiv@rem^0,w,c
  2177   00763E  501F               	movf	(___fldiv@a+1)^0,w,c
  2178   007640  5827               	subwfb	(___fldiv@rem+1)^0,w,c
  2179   007642  5020               	movf	(___fldiv@a+2)^0,w,c
  2180   007644  5828               	subwfb	(___fldiv@rem+2)^0,w,c
  2181   007646  5021               	movf	(___fldiv@a+3)^0,w,c
  2182   007648  5829               	subwfb	(___fldiv@rem+3)^0,w,c
  2183   00764A  A0D8               	btfss	status,0,c
  2184   00764C  EF2A  F03B         	goto	u901
  2185   007650  EF2C  F03B         	goto	u900
  2186   007654                     u901:
  2187   007654  EF35  F03B         	goto	l1549
  2188   007658                     u900:
  2189   007658  8C30               	bsf	(___fldiv@grs+3)^0,6,c
  2190   00765A  501E               	movf	___fldiv@a^0,w,c
  2191   00765C  5E26               	subwf	___fldiv@rem^0,f,c
  2192   00765E  501F               	movf	(___fldiv@a+1)^0,w,c
  2193   007660  5A27               	subwfb	(___fldiv@rem+1)^0,f,c
  2194   007662  5020               	movf	(___fldiv@a+2)^0,w,c
  2195   007664  5A28               	subwfb	(___fldiv@rem+2)^0,f,c
  2196   007666  5021               	movf	(___fldiv@a+3)^0,w,c
  2197   007668  5A29               	subwfb	(___fldiv@rem+3)^0,f,c
  2198   00766A                     l1549:
  2199   00766A  2A32               	incf	___fldiv@aexp^0,f,c
  2200   00766C                     l732:
  2201   00766C  0E19               	movlw	25
  2202   00766E  6432               	cpfsgt	___fldiv@aexp^0,c
  2203   007670  EF3C  F03B         	goto	u911
  2204   007674  EF3E  F03B         	goto	u910
  2205   007678                     u911:
  2206   007678  EFFE  F03A         	goto	l1535
  2207   00767C                     u910:
  2208   00767C  5026               	movf	___fldiv@rem^0,w,c
  2209   00767E  1027               	iorwf	(___fldiv@rem+1)^0,w,c
  2210   007680  1028               	iorwf	(___fldiv@rem+2)^0,w,c
  2211   007682  1029               	iorwf	(___fldiv@rem+3)^0,w,c
  2212   007684  B4D8               	btfsc	status,2,c
  2213   007686  EF47  F03B         	goto	u921
  2214   00768A  EF49  F03B         	goto	u920
  2215   00768E                     u921:
  2216   00768E  EF61  F03B         	goto	l1561
  2217   007692                     u920:
  2218   007692  802D               	bsf	___fldiv@grs^0,0,c
  2219   007694  EF61  F03B         	goto	l1561
  2220   007698                     l1555:
  2221   007698  90D8               	bcf	status,0,c
  2222   00769A  361A               	rlcf	___fldiv@b^0,f,c
  2223   00769C  361B               	rlcf	(___fldiv@b+1)^0,f,c
  2224   00769E  361C               	rlcf	(___fldiv@b+2)^0,f,c
  2225   0076A0  361D               	rlcf	(___fldiv@b+3)^0,f,c
  2226   0076A2  AE30               	btfss	(___fldiv@grs+3)^0,7,c
  2227   0076A4  EF56  F03B         	goto	u931
  2228   0076A8  EF58  F03B         	goto	u930
  2229   0076AC                     u931:
  2230   0076AC  EF59  F03B         	goto	l741
  2231   0076B0                     u930:
  2232   0076B0  801A               	bsf	___fldiv@b^0,0,c
  2233   0076B2                     l741:
  2234   0076B2  90D8               	bcf	status,0,c
  2235   0076B4  362D               	rlcf	___fldiv@grs^0,f,c
  2236   0076B6  362E               	rlcf	(___fldiv@grs+1)^0,f,c
  2237   0076B8  362F               	rlcf	(___fldiv@grs+2)^0,f,c
  2238   0076BA  3630               	rlcf	(___fldiv@grs+3)^0,f,c
  2239   0076BC  062B               	decf	___fldiv@new_exp^0,f,c
  2240   0076BE  A0D8               	btfss	status,0,c
  2241   0076C0  062C               	decf	(___fldiv@new_exp+1)^0,f,c
  2242   0076C2                     l1561:
  2243   0076C2  AE1C               	btfss	(___fldiv@b+2)^0,7,c
  2244   0076C4  EF66  F03B         	goto	u941
  2245   0076C8  EF68  F03B         	goto	u940
  2246   0076CC                     u941:
  2247   0076CC  EF4C  F03B         	goto	l1555
  2248   0076D0                     u940:
  2249   0076D0  0E00               	movlw	0
  2250   0076D2  6E32               	movwf	___fldiv@aexp^0,c
  2251   0076D4  AE30               	btfss	(___fldiv@grs+3)^0,7,c
  2252   0076D6  EF6F  F03B         	goto	u951
  2253   0076DA  EF71  F03B         	goto	u950
  2254   0076DE                     u951:
  2255   0076DE  EF95  F03B         	goto	l743
  2256   0076E2                     u950:
  2257   0076E2  0EFF               	movlw	255
  2258   0076E4  142D               	andwf	___fldiv@grs^0,w,c
  2259   0076E6  6E22               	movwf	??___fldiv^0,c
  2260   0076E8  0EFF               	movlw	255
  2261   0076EA  142E               	andwf	(___fldiv@grs+1)^0,w,c
  2262   0076EC  6E23               	movwf	(??___fldiv+1)^0,c
  2263   0076EE  0EFF               	movlw	255
  2264   0076F0  142F               	andwf	(___fldiv@grs+2)^0,w,c
  2265   0076F2  6E24               	movwf	(??___fldiv+2)^0,c
  2266   0076F4  0E7F               	movlw	127
  2267   0076F6  1430               	andwf	(___fldiv@grs+3)^0,w,c
  2268   0076F8  6E25               	movwf	(??___fldiv+3)^0,c
  2269   0076FA  5022               	movf	??___fldiv^0,w,c
  2270   0076FC  1023               	iorwf	(??___fldiv+1)^0,w,c
  2271   0076FE  1024               	iorwf	(??___fldiv+2)^0,w,c
  2272   007700  1025               	iorwf	(??___fldiv+3)^0,w,c
  2273   007702  B4D8               	btfsc	status,2,c
  2274   007704  EF86  F03B         	goto	u961
  2275   007708  EF88  F03B         	goto	u960
  2276   00770C                     u961:
  2277   00770C  EF8C  F03B         	goto	l744
  2278   007710                     u960:
  2279   007710                     l1569:
  2280   007710  0E01               	movlw	1
  2281   007712  6E32               	movwf	___fldiv@aexp^0,c
  2282   007714  EF95  F03B         	goto	l743
  2283   007718                     l744:
  2284   007718  A01A               	btfss	___fldiv@b^0,0,c
  2285   00771A  EF91  F03B         	goto	u971
  2286   00771E  EF93  F03B         	goto	u970
  2287   007722                     u971:
  2288   007722  EF95  F03B         	goto	l743
  2289   007726                     u970:
  2290   007726  EF88  F03B         	goto	l1569
  2291   00772A                     l743:
  2292   00772A  5032               	movf	___fldiv@aexp^0,w,c
  2293   00772C  B4D8               	btfsc	status,2,c
  2294   00772E  EF9B  F03B         	goto	u981
  2295   007732  EF9D  F03B         	goto	u980
  2296   007736                     u981:
  2297   007736  EFC1  F03B         	goto	l1581
  2298   00773A                     u980:
  2299   00773A  0E01               	movlw	1
  2300   00773C  261A               	addwf	___fldiv@b^0,f,c
  2301   00773E  0E00               	movlw	0
  2302   007740  221B               	addwfc	(___fldiv@b+1)^0,f,c
  2303   007742  221C               	addwfc	(___fldiv@b+2)^0,f,c
  2304   007744  221D               	addwfc	(___fldiv@b+3)^0,f,c
  2305   007746  A01D               	btfss	(___fldiv@b+3)^0,0,c
  2306   007748  EFA8  F03B         	goto	u991
  2307   00774C  EFAA  F03B         	goto	u990
  2308   007750                     u991:
  2309   007750  EFC1  F03B         	goto	l1581
  2310   007754                     u990:
  2311   007754  C01A  F022         	movff	___fldiv@b,??___fldiv
  2312   007758  C01B  F023         	movff	___fldiv@b+1,??___fldiv+1
  2313   00775C  C01C  F024         	movff	___fldiv@b+2,??___fldiv+2
  2314   007760  C01D  F025         	movff	___fldiv@b+3,??___fldiv+3
  2315   007764  3425               	rlcf	(??___fldiv+3)^0,w,c
  2316   007766  3225               	rrcf	(??___fldiv+3)^0,f,c
  2317   007768  3224               	rrcf	(??___fldiv+2)^0,f,c
  2318   00776A  3223               	rrcf	(??___fldiv+1)^0,f,c
  2319   00776C  3222               	rrcf	??___fldiv^0,f,c
  2320   00776E  C022  F01A         	movff	??___fldiv,___fldiv@b
  2321   007772  C023  F01B         	movff	??___fldiv+1,___fldiv@b+1
  2322   007776  C024  F01C         	movff	??___fldiv+2,___fldiv@b+2
  2323   00777A  C025  F01D         	movff	??___fldiv+3,___fldiv@b+3
  2324   00777E  4A2B               	infsnz	___fldiv@new_exp^0,f,c
  2325   007780  2A2C               	incf	(___fldiv@new_exp+1)^0,f,c
  2326   007782                     l1581:
  2327   007782  BE2C               	btfsc	(___fldiv@new_exp+1)^0,7,c
  2328   007784  EFCC  F03B         	goto	u1001
  2329   007788  502C               	movf	(___fldiv@new_exp+1)^0,w,c
  2330   00778A  E108               	bnz	u1000
  2331   00778C  282B               	incf	___fldiv@new_exp^0,w,c
  2332   00778E  A0D8               	btfss	status,0,c
  2333   007790  EFCC  F03B         	goto	u1001
  2334   007794  EFCE  F03B         	goto	u1000
  2335   007798                     u1001:
  2336   007798  EFD9  F03B         	goto	l1585
  2337   00779C                     u1000:
  2338   00779C  0E00               	movlw	0
  2339   00779E  6E2C               	movwf	(___fldiv@new_exp+1)^0,c
  2340   0077A0  682B               	setf	___fldiv@new_exp^0,c
  2341   0077A2  0E00               	movlw	0
  2342   0077A4  6E1A               	movwf	___fldiv@b^0,c
  2343   0077A6  0E00               	movlw	0
  2344   0077A8  6E1B               	movwf	(___fldiv@b+1)^0,c
  2345   0077AA  0E00               	movlw	0
  2346   0077AC  6E1C               	movwf	(___fldiv@b+2)^0,c
  2347   0077AE  0E00               	movlw	0
  2348   0077B0  6E1D               	movwf	(___fldiv@b+3)^0,c
  2349   0077B2                     l1585:
  2350   0077B2  BE2C               	btfsc	(___fldiv@new_exp+1)^0,7,c
  2351   0077B4  EFE6  F03B         	goto	u1010
  2352   0077B8  502C               	movf	(___fldiv@new_exp+1)^0,w,c
  2353   0077BA  E106               	bnz	u1011
  2354   0077BC  042B               	decf	___fldiv@new_exp^0,w,c
  2355   0077BE  B0D8               	btfsc	status,0,c
  2356   0077C0  EFE4  F03B         	goto	u1011
  2357   0077C4  EFE6  F03B         	goto	u1010
  2358   0077C8                     u1011:
  2359   0077C8  EFF4  F03B         	goto	l1589
  2360   0077CC                     u1010:
  2361   0077CC  0E00               	movlw	0
  2362   0077CE  6E2C               	movwf	(___fldiv@new_exp+1)^0,c
  2363   0077D0  0E00               	movlw	0
  2364   0077D2  6E2B               	movwf	___fldiv@new_exp^0,c
  2365   0077D4  0E00               	movlw	0
  2366   0077D6  6E1A               	movwf	___fldiv@b^0,c
  2367   0077D8  0E00               	movlw	0
  2368   0077DA  6E1B               	movwf	(___fldiv@b+1)^0,c
  2369   0077DC  0E00               	movlw	0
  2370   0077DE  6E1C               	movwf	(___fldiv@b+2)^0,c
  2371   0077E0  0E00               	movlw	0
  2372   0077E2  6E1D               	movwf	(___fldiv@b+3)^0,c
  2373   0077E4  0E00               	movlw	0
  2374   0077E6  6E2A               	movwf	___fldiv@sign^0,c
  2375   0077E8                     l1589:
  2376   0077E8  C02B  F031         	movff	___fldiv@new_exp,___fldiv@bexp
  2377   0077EC  A031               	btfss	___fldiv@bexp^0,0,c
  2378   0077EE  EFFB  F03B         	goto	u1021
  2379   0077F2  EFFD  F03B         	goto	u1020
  2380   0077F6                     u1021:
  2381   0077F6  EF00  F03C         	goto	l1595
  2382   0077FA                     u1020:
  2383   0077FA  8E1C               	bsf	(___fldiv@b+2)^0,7,c
  2384   0077FC  EF01  F03C         	goto	l1597
  2385   007800                     l1595:
  2386   007800  9E1C               	bcf	(___fldiv@b+2)^0,7,c
  2387   007802                     l1597:
  2388   007802  90D8               	bcf	status,0,c
  2389   007804  3031               	rrcf	___fldiv@bexp^0,w,c
  2390   007806  6E1D               	movwf	(___fldiv@b+3)^0,c
  2391   007808  EFB7  F03A         	goto	l1511
  2392   00780C                     l730:
  2393   00780C  0012               	return		;funcret
  2394   00780E                     __end_of___fldiv:
  2395                           	callstack 0
  2396                           
  2397 ;; *************** function ___awmod *****************
  2398 ;; Defined at:
  2399 ;;		line 7 in file "C:\Program Files\Microchip\xc8\v2.41\pic\sources\c99\common\awmod.c"
  2400 ;; Parameters:    Size  Location     Type
  2401 ;;  dividend        2    0[COMRAM] int 
  2402 ;;  divisor         2    2[COMRAM] int 
  2403 ;; Auto vars:     Size  Location     Type
  2404 ;;  sign            1    5[COMRAM] unsigned char 
  2405 ;;  counter         1    4[COMRAM] unsigned char 
  2406 ;; Return value:  Size  Location     Type
  2407 ;;                  2    0[COMRAM] int 
  2408 ;; Registers used:
  2409 ;;		wreg, status,2, status,0
  2410 ;; Tracked objects:
  2411 ;;		On entry : 0/0
  2412 ;;		On exit  : 0/0
  2413 ;;		Unchanged: 0/0
  2414 ;; Data sizes:     COMRAM   BANK0   BANK1   BANK2   BANK3   BANK4   BANK5
  2415 ;;      Params:         4       0       0       0       0       0       0
  2416 ;;      Locals:         2       0       0       0       0       0       0
  2417 ;;      Temps:          0       0       0       0       0       0       0
  2418 ;;      Totals:         6       0       0       0       0       0       0
  2419 ;;Total ram usage:        6 bytes
  2420 ;; Hardware stack levels used: 1
  2421 ;; This function calls:
  2422 ;;		Nothing
  2423 ;; This function is called by:
  2424 ;;		_main
  2425 ;; This function uses a non-reentrant model
  2426 ;;
  2427                           
  2428                           	psect	text5
  2429   007046                     __ptext5:
  2430                           	callstack 0
  2431   007046                     ___awmod:
  2432                           	callstack 30
  2433   007046  0E00               	movlw	0
  2434   007048  6E06               	movwf	___awmod@sign^0,c
  2435   00704A  BE02               	btfsc	(___awmod@dividend+1)^0,7,c
  2436   00704C  EF2C  F038         	goto	u1280
  2437   007050  EF2A  F038         	goto	u1281
  2438   007054                     u1281:
  2439   007054  EF32  F038         	goto	l1787
  2440   007058                     u1280:
  2441   007058  6C01               	negf	___awmod@dividend^0,c
  2442   00705A  1E02               	comf	(___awmod@dividend+1)^0,f,c
  2443   00705C  B0D8               	btfsc	status,0,c
  2444   00705E  2A02               	incf	(___awmod@dividend+1)^0,f,c
  2445   007060  0E01               	movlw	1
  2446   007062  6E06               	movwf	___awmod@sign^0,c
  2447   007064                     l1787:
  2448   007064  BE04               	btfsc	(___awmod@divisor+1)^0,7,c
  2449   007066  EF39  F038         	goto	u1290
  2450   00706A  EF37  F038         	goto	u1291
  2451   00706E                     u1291:
  2452   00706E  EF3D  F038         	goto	l1791
  2453   007072                     u1290:
  2454   007072  6C03               	negf	___awmod@divisor^0,c
  2455   007074  1E04               	comf	(___awmod@divisor+1)^0,f,c
  2456   007076  B0D8               	btfsc	status,0,c
  2457   007078  2A04               	incf	(___awmod@divisor+1)^0,f,c
  2458   00707A                     l1791:
  2459   00707A  5003               	movf	___awmod@divisor^0,w,c
  2460   00707C  1004               	iorwf	(___awmod@divisor+1)^0,w,c
  2461   00707E  B4D8               	btfsc	status,2,c
  2462   007080  EF44  F038         	goto	u1301
  2463   007084  EF46  F038         	goto	u1300
  2464   007088                     u1301:
  2465   007088  EF6A  F038         	goto	l1807
  2466   00708C                     u1300:
  2467   00708C  0E01               	movlw	1
  2468   00708E  6E05               	movwf	___awmod@counter^0,c
  2469   007090  EF4E  F038         	goto	l1797
  2470   007094                     l1795:
  2471   007094  90D8               	bcf	status,0,c
  2472   007096  3603               	rlcf	___awmod@divisor^0,f,c
  2473   007098  3604               	rlcf	(___awmod@divisor+1)^0,f,c
  2474   00709A  2A05               	incf	___awmod@counter^0,f,c
  2475   00709C                     l1797:
  2476   00709C  AE04               	btfss	(___awmod@divisor+1)^0,7,c
  2477   00709E  EF53  F038         	goto	u1311
  2478   0070A2  EF55  F038         	goto	u1310
  2479   0070A6                     u1311:
  2480   0070A6  EF4A  F038         	goto	l1795
  2481   0070AA                     u1310:
  2482   0070AA                     l1799:
  2483   0070AA  5003               	movf	___awmod@divisor^0,w,c
  2484   0070AC  5C01               	subwf	___awmod@dividend^0,w,c
  2485   0070AE  5004               	movf	(___awmod@divisor+1)^0,w,c
  2486   0070B0  5802               	subwfb	(___awmod@dividend+1)^0,w,c
  2487   0070B2  A0D8               	btfss	status,0,c
  2488   0070B4  EF5E  F038         	goto	u1321
  2489   0070B8  EF60  F038         	goto	u1320
  2490   0070BC                     u1321:
  2491   0070BC  EF64  F038         	goto	l1803
  2492   0070C0                     u1320:
  2493   0070C0  5003               	movf	___awmod@divisor^0,w,c
  2494   0070C2  5E01               	subwf	___awmod@dividend^0,f,c
  2495   0070C4  5004               	movf	(___awmod@divisor+1)^0,w,c
  2496   0070C6  5A02               	subwfb	(___awmod@dividend+1)^0,f,c
  2497   0070C8                     l1803:
  2498   0070C8  90D8               	bcf	status,0,c
  2499   0070CA  3204               	rrcf	(___awmod@divisor+1)^0,f,c
  2500   0070CC  3203               	rrcf	___awmod@divisor^0,f,c
  2501   0070CE  2E05               	decfsz	___awmod@counter^0,f,c
  2502   0070D0  EF55  F038         	goto	l1799
  2503   0070D4                     l1807:
  2504   0070D4  5006               	movf	___awmod@sign^0,w,c
  2505   0070D6  B4D8               	btfsc	status,2,c
  2506   0070D8  EF70  F038         	goto	u1331
  2507   0070DC  EF72  F038         	goto	u1330
  2508   0070E0                     u1331:
  2509   0070E0  EF76  F038         	goto	l1811
  2510   0070E4                     u1330:
  2511   0070E4  6C01               	negf	___awmod@dividend^0,c
  2512   0070E6  1E02               	comf	(___awmod@dividend+1)^0,f,c
  2513   0070E8  B0D8               	btfsc	status,0,c
  2514   0070EA  2A02               	incf	(___awmod@dividend+1)^0,f,c
  2515   0070EC                     l1811:
  2516   0070EC  C001  F001         	movff	___awmod@dividend,?___awmod
  2517   0070F0  C002  F002         	movff	___awmod@dividend+1,?___awmod+1
  2518   0070F4  0012               	return		;funcret
  2519   0070F6                     __end_of___awmod:
  2520                           	callstack 0
  2521                           
  2522 ;; *************** function ___awdiv *****************
  2523 ;; Defined at:
  2524 ;;		line 7 in file "C:\Program Files\Microchip\xc8\v2.41\pic\sources\c99\common\awdiv.c"
  2525 ;; Parameters:    Size  Location     Type
  2526 ;;  dividend        2    6[COMRAM] int 
  2527 ;;  divisor         2    8[COMRAM] int 
  2528 ;; Auto vars:     Size  Location     Type
  2529 ;;  quotient        2   12[COMRAM] int 
  2530 ;;  sign            1   11[COMRAM] unsigned char 
  2531 ;;  counter         1   10[COMRAM] unsigned char 
  2532 ;; Return value:  Size  Location     Type
  2533 ;;                  2    6[COMRAM] int 
  2534 ;; Registers used:
  2535 ;;		wreg, status,2, status,0
  2536 ;; Tracked objects:
  2537 ;;		On entry : 0/0
  2538 ;;		On exit  : 0/0
  2539 ;;		Unchanged: 0/0
  2540 ;; Data sizes:     COMRAM   BANK0   BANK1   BANK2   BANK3   BANK4   BANK5
  2541 ;;      Params:         4       0       0       0       0       0       0
  2542 ;;      Locals:         4       0       0       0       0       0       0
  2543 ;;      Temps:          0       0       0       0       0       0       0
  2544 ;;      Totals:         8       0       0       0       0       0       0
  2545 ;;Total ram usage:        8 bytes
  2546 ;; Hardware stack levels used: 1
  2547 ;; This function calls:
  2548 ;;		Nothing
  2549 ;; This function is called by:
  2550 ;;		_main
  2551 ;; This function uses a non-reentrant model
  2552 ;;
  2553                           
  2554                           	psect	text6
  2555   0070F6                     __ptext6:
  2556                           	callstack 0
  2557   0070F6                     ___awdiv:
  2558                           	callstack 30
  2559   0070F6  0E00               	movlw	0
  2560   0070F8  6E0C               	movwf	___awdiv@sign^0,c
  2561   0070FA  BE0A               	btfsc	(___awdiv@divisor+1)^0,7,c
  2562   0070FC  EF84  F038         	goto	u1220
  2563   007100  EF82  F038         	goto	u1221
  2564   007104                     u1221:
  2565   007104  EF8A  F038         	goto	l1743
  2566   007108                     u1220:
  2567   007108  6C09               	negf	___awdiv@divisor^0,c
  2568   00710A  1E0A               	comf	(___awdiv@divisor+1)^0,f,c
  2569   00710C  B0D8               	btfsc	status,0,c
  2570   00710E  2A0A               	incf	(___awdiv@divisor+1)^0,f,c
  2571   007110  0E01               	movlw	1
  2572   007112  6E0C               	movwf	___awdiv@sign^0,c
  2573   007114                     l1743:
  2574   007114  BE08               	btfsc	(___awdiv@dividend+1)^0,7,c
  2575   007116  EF91  F038         	goto	u1230
  2576   00711A  EF8F  F038         	goto	u1231
  2577   00711E                     u1231:
  2578   00711E  EF97  F038         	goto	l1749
  2579   007122                     u1230:
  2580   007122  6C07               	negf	___awdiv@dividend^0,c
  2581   007124  1E08               	comf	(___awdiv@dividend+1)^0,f,c
  2582   007126  B0D8               	btfsc	status,0,c
  2583   007128  2A08               	incf	(___awdiv@dividend+1)^0,f,c
  2584   00712A  0E01               	movlw	1
  2585   00712C  1A0C               	xorwf	___awdiv@sign^0,f,c
  2586   00712E                     l1749:
  2587   00712E  0E00               	movlw	0
  2588   007130  6E0E               	movwf	(___awdiv@quotient+1)^0,c
  2589   007132  0E00               	movlw	0
  2590   007134  6E0D               	movwf	___awdiv@quotient^0,c
  2591   007136  5009               	movf	___awdiv@divisor^0,w,c
  2592   007138  100A               	iorwf	(___awdiv@divisor+1)^0,w,c
  2593   00713A  B4D8               	btfsc	status,2,c
  2594   00713C  EFA2  F038         	goto	u1241
  2595   007140  EFA4  F038         	goto	u1240
  2596   007144                     u1241:
  2597   007144  EFCC  F038         	goto	l1771
  2598   007148                     u1240:
  2599   007148  0E01               	movlw	1
  2600   00714A  6E0B               	movwf	___awdiv@counter^0,c
  2601   00714C  EFAC  F038         	goto	l1757
  2602   007150                     l1755:
  2603   007150  90D8               	bcf	status,0,c
  2604   007152  3609               	rlcf	___awdiv@divisor^0,f,c
  2605   007154  360A               	rlcf	(___awdiv@divisor+1)^0,f,c
  2606   007156  2A0B               	incf	___awdiv@counter^0,f,c
  2607   007158                     l1757:
  2608   007158  AE0A               	btfss	(___awdiv@divisor+1)^0,7,c
  2609   00715A  EFB1  F038         	goto	u1251
  2610   00715E  EFB3  F038         	goto	u1250
  2611   007162                     u1251:
  2612   007162  EFA8  F038         	goto	l1755
  2613   007166                     u1250:
  2614   007166                     l1759:
  2615   007166  90D8               	bcf	status,0,c
  2616   007168  360D               	rlcf	___awdiv@quotient^0,f,c
  2617   00716A  360E               	rlcf	(___awdiv@quotient+1)^0,f,c
  2618   00716C  5009               	movf	___awdiv@divisor^0,w,c
  2619   00716E  5C07               	subwf	___awdiv@dividend^0,w,c
  2620   007170  500A               	movf	(___awdiv@divisor+1)^0,w,c
  2621   007172  5808               	subwfb	(___awdiv@dividend+1)^0,w,c
  2622   007174  A0D8               	btfss	status,0,c
  2623   007176  EFBF  F038         	goto	u1261
  2624   00717A  EFC1  F038         	goto	u1260
  2625   00717E                     u1261:
  2626   00717E  EFC6  F038         	goto	l1767
  2627   007182                     u1260:
  2628   007182  5009               	movf	___awdiv@divisor^0,w,c
  2629   007184  5E07               	subwf	___awdiv@dividend^0,f,c
  2630   007186  500A               	movf	(___awdiv@divisor+1)^0,w,c
  2631   007188  5A08               	subwfb	(___awdiv@dividend+1)^0,f,c
  2632   00718A  800D               	bsf	___awdiv@quotient^0,0,c
  2633   00718C                     l1767:
  2634   00718C  90D8               	bcf	status,0,c
  2635   00718E  320A               	rrcf	(___awdiv@divisor+1)^0,f,c
  2636   007190  3209               	rrcf	___awdiv@divisor^0,f,c
  2637   007192  2E0B               	decfsz	___awdiv@counter^0,f,c
  2638   007194  EFB3  F038         	goto	l1759
  2639   007198                     l1771:
  2640   007198  500C               	movf	___awdiv@sign^0,w,c
  2641   00719A  B4D8               	btfsc	status,2,c
  2642   00719C  EFD2  F038         	goto	u1271
  2643   0071A0  EFD4  F038         	goto	u1270
  2644   0071A4                     u1271:
  2645   0071A4  EFD8  F038         	goto	l1775
  2646   0071A8                     u1270:
  2647   0071A8  6C0D               	negf	___awdiv@quotient^0,c
  2648   0071AA  1E0E               	comf	(___awdiv@quotient+1)^0,f,c
  2649   0071AC  B0D8               	btfsc	status,0,c
  2650   0071AE  2A0E               	incf	(___awdiv@quotient+1)^0,f,c
  2651   0071B0                     l1775:
  2652   0071B0  C00D  F007         	movff	___awdiv@quotient,?___awdiv
  2653   0071B4  C00E  F008         	movff	___awdiv@quotient+1,?___awdiv+1
  2654   0071B8  0012               	return		;funcret
  2655   0071BA                     __end_of___awdiv:
  2656                           	callstack 0
  2657                           
  2658 ;; *************** function _SYSTEM_Initialize *****************
  2659 ;; Defined at:
  2660 ;;		line 50 in file "mcc_generated_files/mcc.c"
  2661 ;; Parameters:    Size  Location     Type
  2662 ;;		None
  2663 ;; Auto vars:     Size  Location     Type
  2664 ;;		None
  2665 ;; Return value:  Size  Location     Type
  2666 ;;                  1    wreg      void 
  2667 ;; Registers used:
  2668 ;;		wreg, status,2, cstack
  2669 ;; Tracked objects:
  2670 ;;		On entry : 0/0
  2671 ;;		On exit  : 0/0
  2672 ;;		Unchanged: 0/0
  2673 ;; Data sizes:     COMRAM   BANK0   BANK1   BANK2   BANK3   BANK4   BANK5
  2674 ;;      Params:         0       0       0       0       0       0       0
  2675 ;;      Locals:         0       0       0       0       0       0       0
  2676 ;;      Temps:          0       0       0       0       0       0       0
  2677 ;;      Totals:         0       0       0       0       0       0       0
  2678 ;;Total ram usage:        0 bytes
  2679 ;; Hardware stack levels used: 1
  2680 ;; Hardware stack levels required when called: 1
  2681 ;; This function calls:
  2682 ;;		_ADC_Initialize
  2683 ;;		_OSCILLATOR_Initialize
  2684 ;;		_PIN_MANAGER_Initialize
  2685 ;; This function is called by:
  2686 ;;		_main
  2687 ;; This function uses a non-reentrant model
  2688 ;;
  2689                           
  2690                           	psect	text7
  2691   006F6E                     __ptext7:
  2692                           	callstack 0
  2693   006F6E                     _SYSTEM_Initialize:
  2694                           	callstack 29
  2695   006F6E                     
  2696                           ;mcc_generated_files/mcc.c: 53:     PIN_MANAGER_Initialize();
  2697   006F6E  ECE9  F037         	call	_PIN_MANAGER_Initialize	;wreg free
  2698                           
  2699                           ;mcc_generated_files/mcc.c: 54:     OSCILLATOR_Initialize();
  2700   006F72  ECAD  F037         	call	_OSCILLATOR_Initialize	;wreg free
  2701                           
  2702                           ;mcc_generated_files/mcc.c: 55:     ADC_Initialize();
  2703   006F76  ECD2  F037         	call	_ADC_Initialize	;wreg free
  2704   006F7A  0012               	return		;funcret
  2705   006F7C                     __end_of_SYSTEM_Initialize:
  2706                           	callstack 0
  2707                           
  2708 ;; *************** function _PIN_MANAGER_Initialize *****************
  2709 ;; Defined at:
  2710 ;;		line 55 in file "mcc_generated_files/pin_manager.c"
  2711 ;; Parameters:    Size  Location     Type
  2712 ;;		None
  2713 ;; Auto vars:     Size  Location     Type
  2714 ;;		None
  2715 ;; Return value:  Size  Location     Type
  2716 ;;                  1    wreg      void 
  2717 ;; Registers used:
  2718 ;;		wreg, status,2
  2719 ;; Tracked objects:
  2720 ;;		On entry : 0/0
  2721 ;;		On exit  : 0/0
  2722 ;;		Unchanged: 0/0
  2723 ;; Data sizes:     COMRAM   BANK0   BANK1   BANK2   BANK3   BANK4   BANK5
  2724 ;;      Params:         0       0       0       0       0       0       0
  2725 ;;      Locals:         0       0       0       0       0       0       0
  2726 ;;      Temps:          0       0       0       0       0       0       0
  2727 ;;      Totals:         0       0       0       0       0       0       0
  2728 ;;Total ram usage:        0 bytes
  2729 ;; Hardware stack levels used: 1
  2730 ;; This function calls:
  2731 ;;		Nothing
  2732 ;; This function is called by:
  2733 ;;		_SYSTEM_Initialize
  2734 ;; This function uses a non-reentrant model
  2735 ;;
  2736                           
  2737                           	psect	text8
  2738   006FD2                     __ptext8:
  2739                           	callstack 0
  2740   006FD2                     _PIN_MANAGER_Initialize:
  2741                           	callstack 29
  2742   006FD2                     
  2743                           ;mcc_generated_files/pin_manager.c: 60:     LATE = 0x00;
  2744   006FD2  0E00               	movlw	0
  2745   006FD4  6E8D               	movwf	141,c	;volatile
  2746                           
  2747                           ;mcc_generated_files/pin_manager.c: 61:     LATD = 0x00;
  2748   006FD6  0E00               	movlw	0
  2749   006FD8  6E8C               	movwf	140,c	;volatile
  2750                           
  2751                           ;mcc_generated_files/pin_manager.c: 62:     LATA = 0x00;
  2752   006FDA  0E00               	movlw	0
  2753   006FDC  6E89               	movwf	137,c	;volatile
  2754                           
  2755                           ;mcc_generated_files/pin_manager.c: 63:     LATB = 0x00;
  2756   006FDE  0E00               	movlw	0
  2757   006FE0  6E8A               	movwf	138,c	;volatile
  2758                           
  2759                           ;mcc_generated_files/pin_manager.c: 64:     LATC = 0x00;
  2760   006FE2  0E00               	movlw	0
  2761   006FE4  6E8B               	movwf	139,c	;volatile
  2762                           
  2763                           ;mcc_generated_files/pin_manager.c: 69:     TRISE = 0x07;
  2764   006FE6  0E07               	movlw	7
  2765   006FE8  6E96               	movwf	150,c	;volatile
  2766                           
  2767                           ;mcc_generated_files/pin_manager.c: 70:     TRISA = 0xD1;
  2768   006FEA  0ED1               	movlw	209
  2769   006FEC  6E92               	movwf	146,c	;volatile
  2770                           
  2771                           ;mcc_generated_files/pin_manager.c: 71:     TRISB = 0x00;
  2772   006FEE  0E00               	movlw	0
  2773   006FF0  6E93               	movwf	147,c	;volatile
  2774   006FF2                     
  2775                           ;mcc_generated_files/pin_manager.c: 72:     TRISC = 0xFF;
  2776   006FF2  6894               	setf	148,c	;volatile
  2777   006FF4                     
  2778                           ;mcc_generated_files/pin_manager.c: 73:     TRISD = 0xFF;
  2779   006FF4  6895               	setf	149,c	;volatile
  2780   006FF6                     
  2781                           ;mcc_generated_files/pin_manager.c: 78:     ANSEL = 0xFF;
  2782   006FF6  687E               	setf	126,c	;volatile
  2783                           
  2784                           ;mcc_generated_files/pin_manager.c: 79:     ANSELH = 0x1F;
  2785   006FF8  0E1F               	movlw	31
  2786   006FFA  6E7F               	movwf	127,c	;volatile
  2787                           
  2788                           ;mcc_generated_files/pin_manager.c: 84:     WPUB = 0x00;
  2789   006FFC  0E00               	movlw	0
  2790   006FFE  6E7C               	movwf	124,c	;volatile
  2791   007000                     
  2792                           ;mcc_generated_files/pin_manager.c: 85:     INTCON2bits.nRBPU = 1;
  2793   007000  8EF1               	bsf	241,7,c	;volatile
  2794   007002  0012               	return		;funcret
  2795   007004                     __end_of_PIN_MANAGER_Initialize:
  2796                           	callstack 0
  2797                           
  2798 ;; *************** function _OSCILLATOR_Initialize *****************
  2799 ;; Defined at:
  2800 ;;		line 58 in file "mcc_generated_files/mcc.c"
  2801 ;; Parameters:    Size  Location     Type
  2802 ;;		None
  2803 ;; Auto vars:     Size  Location     Type
  2804 ;;		None
  2805 ;; Return value:  Size  Location     Type
  2806 ;;                  1    wreg      void 
  2807 ;; Registers used:
  2808 ;;		wreg, status,2
  2809 ;; Tracked objects:
  2810 ;;		On entry : 0/0
  2811 ;;		On exit  : 0/0
  2812 ;;		Unchanged: 0/0
  2813 ;; Data sizes:     COMRAM   BANK0   BANK1   BANK2   BANK3   BANK4   BANK5
  2814 ;;      Params:         0       0       0       0       0       0       0
  2815 ;;      Locals:         0       0       0       0       0       0       0
  2816 ;;      Temps:          0       0       0       0       0       0       0
  2817 ;;      Totals:         0       0       0       0       0       0       0
  2818 ;;Total ram usage:        0 bytes
  2819 ;; Hardware stack levels used: 1
  2820 ;; This function calls:
  2821 ;;		Nothing
  2822 ;; This function is called by:
  2823 ;;		_SYSTEM_Initialize
  2824 ;; This function uses a non-reentrant model
  2825 ;;
  2826                           
  2827                           	psect	text9
  2828   006F5A                     __ptext9:
  2829                           	callstack 0
  2830   006F5A                     _OSCILLATOR_Initialize:
  2831                           	callstack 29
  2832   006F5A                     
  2833                           ;mcc_generated_files/mcc.c: 61:     OSCCON = 0x60;
  2834   006F5A  0E60               	movlw	96
  2835   006F5C  6ED3               	movwf	211,c	;volatile
  2836                           
  2837                           ;mcc_generated_files/mcc.c: 63:     OSCTUNE = 0x00;
  2838   006F5E  0E00               	movlw	0
  2839   006F60  6E9B               	movwf	155,c	;volatile
  2840   006F62  0012               	return		;funcret
  2841   006F64                     __end_of_OSCILLATOR_Initialize:
  2842                           	callstack 0
  2843                           
  2844 ;; *************** function _ADC_Initialize *****************
  2845 ;; Defined at:
  2846 ;;		line 62 in file "mcc_generated_files/adc.c"
  2847 ;; Parameters:    Size  Location     Type
  2848 ;;		None
  2849 ;; Auto vars:     Size  Location     Type
  2850 ;;		None
  2851 ;; Return value:  Size  Location     Type
  2852 ;;                  1    wreg      void 
  2853 ;; Registers used:
  2854 ;;		wreg, status,2
  2855 ;; Tracked objects:
  2856 ;;		On entry : 0/0
  2857 ;;		On exit  : 0/0
  2858 ;;		Unchanged: 0/0
  2859 ;; Data sizes:     COMRAM   BANK0   BANK1   BANK2   BANK3   BANK4   BANK5
  2860 ;;      Params:         0       0       0       0       0       0       0
  2861 ;;      Locals:         0       0       0       0       0       0       0
  2862 ;;      Temps:          0       0       0       0       0       0       0
  2863 ;;      Totals:         0       0       0       0       0       0       0
  2864 ;;Total ram usage:        0 bytes
  2865 ;; Hardware stack levels used: 1
  2866 ;; This function calls:
  2867 ;;		Nothing
  2868 ;; This function is called by:
  2869 ;;		_SYSTEM_Initialize
  2870 ;; This function uses a non-reentrant model
  2871 ;;
  2872                           
  2873                           	psect	text10
  2874   006FA4                     __ptext10:
  2875                           	callstack 0
  2876   006FA4                     _ADC_Initialize:
  2877                           	callstack 29
  2878   006FA4                     
  2879                           ;mcc_generated_files/adc.c: 67:     ADCON1 = 0x00;
  2880   006FA4  0E00               	movlw	0
  2881   006FA6  6EC1               	movwf	193,c	;volatile
  2882                           
  2883                           ;mcc_generated_files/adc.c: 70:     ADCON2 = 0xBA;
  2884   006FA8  0EBA               	movlw	186
  2885   006FAA  6EC0               	movwf	192,c	;volatile
  2886                           
  2887                           ;mcc_generated_files/adc.c: 73:     ADRESL = 0x00;
  2888   006FAC  0E00               	movlw	0
  2889   006FAE  6EC3               	movwf	195,c	;volatile
  2890                           
  2891                           ;mcc_generated_files/adc.c: 76:     ADRESH = 0x00;
  2892   006FB0  0E00               	movlw	0
  2893   006FB2  6EC4               	movwf	196,c	;volatile
  2894                           
  2895                           ;mcc_generated_files/adc.c: 79:     ADCON0 = 0x01;
  2896   006FB4  0E01               	movlw	1
  2897   006FB6  6EC2               	movwf	194,c	;volatile
  2898   006FB8  0012               	return		;funcret
  2899   006FBA                     __end_of_ADC_Initialize:
  2900                           	callstack 0
  2901                           
  2902 ;; *************** function _ADC_StartConversion *****************
  2903 ;; Defined at:
  2904 ;;		line 91 in file "mcc_generated_files/adc.c"
  2905 ;; Parameters:    Size  Location     Type
  2906 ;;		None
  2907 ;; Auto vars:     Size  Location     Type
  2908 ;;		None
  2909 ;; Return value:  Size  Location     Type
  2910 ;;                  1    wreg      void 
  2911 ;; Registers used:
  2912 ;;		None
  2913 ;; Tracked objects:
  2914 ;;		On entry : 0/0
  2915 ;;		On exit  : 0/0
  2916 ;;		Unchanged: 0/0
  2917 ;; Data sizes:     COMRAM   BANK0   BANK1   BANK2   BANK3   BANK4   BANK5
  2918 ;;      Params:         0       0       0       0       0       0       0
  2919 ;;      Locals:         0       0       0       0       0       0       0
  2920 ;;      Temps:          0       0       0       0       0       0       0
  2921 ;;      Totals:         0       0       0       0       0       0       0
  2922 ;;Total ram usage:        0 bytes
  2923 ;; Hardware stack levels used: 1
  2924 ;; This function calls:
  2925 ;;		Nothing
  2926 ;; This function is called by:
  2927 ;;		_main
  2928 ;; This function uses a non-reentrant model
  2929 ;;
  2930                           
  2931                           	psect	text11
  2932   006F56                     __ptext11:
  2933                           	callstack 0
  2934   006F56                     _ADC_StartConversion:
  2935                           	callstack 30
  2936   006F56                     
  2937                           ;mcc_generated_files/adc.c: 94:     ADCON0bits.GO_nDONE = 1;
  2938   006F56  82C2               	bsf	194,1,c	;volatile
  2939   006F58  0012               	return		;funcret
  2940   006F5A                     __end_of_ADC_StartConversion:
  2941                           	callstack 0
  2942                           
  2943 ;; *************** function _ADC_SelectChannel *****************
  2944 ;; Defined at:
  2945 ;;		line 83 in file "mcc_generated_files/adc.c"
  2946 ;; Parameters:    Size  Location     Type
  2947 ;;  channel         1    wreg     enum E2717
  2948 ;; Auto vars:     Size  Location     Type
  2949 ;;  channel         1    1[COMRAM] enum E2717
  2950 ;; Return value:  Size  Location     Type
  2951 ;;                  1    wreg      void 
  2952 ;; Registers used:
  2953 ;;		wreg, status,2, status,0
  2954 ;; Tracked objects:
  2955 ;;		On entry : 0/0
  2956 ;;		On exit  : 0/0
  2957 ;;		Unchanged: 0/0
  2958 ;; Data sizes:     COMRAM   BANK0   BANK1   BANK2   BANK3   BANK4   BANK5
  2959 ;;      Params:         0       0       0       0       0       0       0
  2960 ;;      Locals:         1       0       0       0       0       0       0
  2961 ;;      Temps:          1       0       0       0       0       0       0
  2962 ;;      Totals:         2       0       0       0       0       0       0
  2963 ;;Total ram usage:        2 bytes
  2964 ;; Hardware stack levels used: 1
  2965 ;; This function calls:
  2966 ;;		Nothing
  2967 ;; This function is called by:
  2968 ;;		_main
  2969 ;; This function uses a non-reentrant model
  2970 ;;
  2971                           
  2972                           	psect	text12
  2973   006FBA                     __ptext12:
  2974                           	callstack 0
  2975   006FBA                     _ADC_SelectChannel:
  2976                           	callstack 30
  2977                           
  2978                           ;incstack = 0
  2979                           ;ADC_SelectChannel@channel stored from wreg
  2980   006FBA  6E02               	movwf	ADC_SelectChannel@channel^0,c
  2981   006FBC                     
  2982                           ;mcc_generated_files/adc.c: 83: void ADC_SelectChannel(adc_channel_t channel);mcc_genera
      +                          ted_files/adc.c: 84: {;mcc_generated_files/adc.c: 86:     ADCON0bits.CHS = channel;
  2983   006FBC  C002  F001         	movff	ADC_SelectChannel@channel,??_ADC_SelectChannel
  2984   006FC0  4601               	rlncf	??_ADC_SelectChannel^0,f,c
  2985   006FC2  4601               	rlncf	??_ADC_SelectChannel^0,f,c
  2986   006FC4  50C2               	movf	194,w,c	;volatile
  2987   006FC6  1801               	xorwf	??_ADC_SelectChannel^0,w,c
  2988   006FC8  0BC3               	andlw	-61
  2989   006FCA  1801               	xorwf	??_ADC_SelectChannel^0,w,c
  2990   006FCC  6EC2               	movwf	194,c	;volatile
  2991   006FCE                     
  2992                           ;mcc_generated_files/adc.c: 88:     ADCON0bits.ADON = 1;
  2993   006FCE  80C2               	bsf	194,0,c	;volatile
  2994   006FD0  0012               	return		;funcret
  2995   006FD2                     __end_of_ADC_SelectChannel:
  2996                           	callstack 0
  2997                           
  2998 ;; *************** function _ADC_IsConversionDone *****************
  2999 ;; Defined at:
  3000 ;;		line 98 in file "mcc_generated_files/adc.c"
  3001 ;; Parameters:    Size  Location     Type
  3002 ;;		None
  3003 ;; Auto vars:     Size  Location     Type
  3004 ;;		None
  3005 ;; Return value:  Size  Location     Type
  3006 ;;                  1    wreg      _Bool 
  3007 ;; Registers used:
  3008 ;;		wreg
  3009 ;; Tracked objects:
  3010 ;;		On entry : 0/0
  3011 ;;		On exit  : 0/0
  3012 ;;		Unchanged: 0/0
  3013 ;; Data sizes:     COMRAM   BANK0   BANK1   BANK2   BANK3   BANK4   BANK5
  3014 ;;      Params:         0       0       0       0       0       0       0
  3015 ;;      Locals:         0       0       0       0       0       0       0
  3016 ;;      Temps:          0       0       0       0       0       0       0
  3017 ;;      Totals:         0       0       0       0       0       0       0
  3018 ;;Total ram usage:        0 bytes
  3019 ;; Hardware stack levels used: 1
  3020 ;; This function calls:
  3021 ;;		Nothing
  3022 ;; This function is called by:
  3023 ;;		_main
  3024 ;; This function uses a non-reentrant model
  3025 ;;
  3026                           
  3027                           	psect	text13
  3028   006F90                     __ptext13:
  3029                           	callstack 0
  3030   006F90                     _ADC_IsConversionDone:
  3031                           	callstack 30
  3032   006F90                     
  3033                           ;mcc_generated_files/adc.c: 101:     return ((_Bool)(!ADCON0bits.GO_nDONE));
  3034   006F90  A2C2               	btfss	194,1,c	;volatile
  3035   006F92  EFCD  F037         	goto	u781
  3036   006F96  EFD0  F037         	goto	u780
  3037   006F9A                     u781:
  3038   006F9A  0E01               	movlw	1
  3039   006F9C  EFD1  F037         	goto	u790
  3040   006FA0                     u780:
  3041   006FA0  0E00               	movlw	0
  3042   006FA2                     u790:
  3043   006FA2  0012               	return		;funcret
  3044   006FA4                     __end_of_ADC_IsConversionDone:
  3045                           	callstack 0
  3046                           
  3047 ;; *************** function _ADC_GetConversionResult *****************
  3048 ;; Defined at:
  3049 ;;		line 104 in file "mcc_generated_files/adc.c"
  3050 ;; Parameters:    Size  Location     Type
  3051 ;;		None
  3052 ;; Auto vars:     Size  Location     Type
  3053 ;;		None
  3054 ;; Return value:  Size  Location     Type
  3055 ;;                  2    0[COMRAM] unsigned short 
  3056 ;; Registers used:
  3057 ;;		wreg, status,2, status,0
  3058 ;; Tracked objects:
  3059 ;;		On entry : 0/0
  3060 ;;		On exit  : 0/0
  3061 ;;		Unchanged: 0/0
  3062 ;; Data sizes:     COMRAM   BANK0   BANK1   BANK2   BANK3   BANK4   BANK5
  3063 ;;      Params:         2       0       0       0       0       0       0
  3064 ;;      Locals:         0       0       0       0       0       0       0
  3065 ;;      Temps:          2       0       0       0       0       0       0
  3066 ;;      Totals:         4       0       0       0       0       0       0
  3067 ;;Total ram usage:        4 bytes
  3068 ;; Hardware stack levels used: 1
  3069 ;; This function calls:
  3070 ;;		Nothing
  3071 ;; This function is called by:
  3072 ;;		_main
  3073 ;; This function uses a non-reentrant model
  3074 ;;
  3075                           
  3076                           	psect	text14
  3077   006F7C                     __ptext14:
  3078                           	callstack 0
  3079   006F7C                     _ADC_GetConversionResult:
  3080                           	callstack 30
  3081   006F7C                     
  3082                           ;mcc_generated_files/adc.c: 107:      return ((adc_result_t)((ADRESH << 8) + ADRESL));
  3083   006F7C  50C4               	movf	196,w,c	;volatile
  3084   006F7E  6E04               	movwf	(??_ADC_GetConversionResult+1)^0,c
  3085   006F80  6A03               	clrf	??_ADC_GetConversionResult^0,c
  3086   006F82  50C3               	movf	195,w,c	;volatile
  3087   006F84  2403               	addwf	??_ADC_GetConversionResult^0,w,c
  3088   006F86  6E01               	movwf	?_ADC_GetConversionResult^0,c
  3089   006F88  0E00               	movlw	0
  3090   006F8A  2004               	addwfc	(??_ADC_GetConversionResult+1)^0,w,c
  3091   006F8C  6E02               	movwf	(?_ADC_GetConversionResult+1)^0,c
  3092   006F8E  0012               	return		;funcret
  3093   006F90                     __end_of_ADC_GetConversionResult:
  3094                           	callstack 0
  3095   000000                     
  3096                           	psect	rparam
  3097   000000                     
  3098                           	psect	idloc
  3099                           
  3100                           ;Config register IDLOC0 @ 0x200000
  3101                           ;	unspecified, using default values
  3102   200000                     	org	2097152
  3103   200000  FF                 	db	255
  3104                           
  3105                           ;Config register IDLOC1 @ 0x200001
  3106                           ;	unspecified, using default values
  3107   200001                     	org	2097153
  3108   200001  FF                 	db	255
  3109                           
  3110                           ;Config register IDLOC2 @ 0x200002
  3111                           ;	unspecified, using default values
  3112   200002                     	org	2097154
  3113   200002  FF                 	db	255
  3114                           
  3115                           ;Config register IDLOC3 @ 0x200003
  3116                           ;	unspecified, using default values
  3117   200003                     	org	2097155
  3118   200003  FF                 	db	255
  3119                           
  3120                           ;Config register IDLOC4 @ 0x200004
  3121                           ;	unspecified, using default values
  3122   200004                     	org	2097156
  3123   200004  FF                 	db	255
  3124                           
  3125                           ;Config register IDLOC5 @ 0x200005
  3126                           ;	unspecified, using default values
  3127   200005                     	org	2097157
  3128   200005  FF                 	db	255
  3129                           
  3130                           ;Config register IDLOC6 @ 0x200006
  3131                           ;	unspecified, using default values
  3132   200006                     	org	2097158
  3133   200006  FF                 	db	255
  3134                           
  3135                           ;Config register IDLOC7 @ 0x200007
  3136                           ;	unspecified, using default values
  3137   200007                     	org	2097159
  3138   200007  FF                 	db	255
  3139                           
  3140                           	psect	config
  3141                           
  3142                           ; Padding undefined space
  3143   300000                     	org	3145728
  3144   300000  FF                 	db	255
  3145                           
  3146                           ;Config register CONFIG1H @ 0x300001
  3147                           ;	Oscillator Selection bits
  3148                           ;	FOSC = HS, HS oscillator
  3149                           ;	Fail-Safe Clock Monitor Enable bit
  3150                           ;	FCMEN = OFF, Fail-Safe Clock Monitor disabled
  3151                           ;	Internal/External Oscillator Switchover bit
  3152                           ;	IESO = OFF, Oscillator Switchover mode disabled
  3153   300001                     	org	3145729
  3154   300001  02                 	db	2
  3155                           
  3156                           ;Config register CONFIG2L @ 0x300002
  3157                           ;	Power-up Timer Enable bit
  3158                           ;	PWRT = OFF, PWRT disabled
  3159                           ;	Brown-out Reset Enable bits
  3160                           ;	BOREN = SBORDIS, Brown-out Reset enabled in hardware only (SBOREN is disabled)
  3161                           ;	Brown Out Reset Voltage bits
  3162                           ;	BORV = 18, VBOR set to 1.8 V nominal
  3163   300002                     	org	3145730
  3164   300002  1F                 	db	31
  3165                           
  3166                           ;Config register CONFIG2H @ 0x300003
  3167                           ;	Watchdog Timer Enable bit
  3168                           ;	WDTEN = OFF, WDT is controlled by SWDTEN bit of the WDTCON register
  3169                           ;	Watchdog Timer Postscale Select bits
  3170                           ;	WDTPS = 32768, 1:32768
  3171   300003                     	org	3145731
  3172   300003  1E                 	db	30
  3173                           
  3174                           ; Padding undefined space
  3175   300004                     	org	3145732
  3176   300004  FF                 	db	255
  3177                           
  3178                           ;Config register CONFIG3H @ 0x300005
  3179                           ;	CCP2 MUX bit
  3180                           ;	CCP2MX = PORTC, CCP2 input/output is multiplexed with RC1
  3181                           ;	PORTB A/D Enable bit
  3182                           ;	PBADEN = ON, PORTB<4:0> pins are configured as analog input channels on Reset
  3183                           ;	Low-Power Timer1 Oscillator Enable bit
  3184                           ;	LPT1OSC = OFF, Timer1 configured for higher power operation
  3185                           ;	HFINTOSC Fast Start-up
  3186                           ;	HFOFST = ON, HFINTOSC starts clocking the CPU without waiting for the oscillator to st
      +                          ablize.
  3187                           ;	MCLR Pin Enable bit
  3188                           ;	MCLRE = ON, MCLR pin enabled; RE3 input pin disabled
  3189   300005                     	org	3145733
  3190   300005  8B                 	db	139
  3191                           
  3192                           ;Config register CONFIG4L @ 0x300006
  3193                           ;	Stack Full/Underflow Reset Enable bit
  3194                           ;	STVREN = ON, Stack full/underflow will cause Reset
  3195                           ;	Single-Supply ICSP Enable bit
  3196                           ;	LVP = OFF, Single-Supply ICSP disabled
  3197                           ;	Extended Instruction Set Enable bit
  3198                           ;	XINST = OFF, Instruction set extension and Indexed Addressing mode disabled (Legacy mo
      +                          de)
  3199                           ;	Background Debugger Enable bit
  3200                           ;	DEBUG = OFF, Background debugger disabled, RB6 and RB7 configured as general purpose I
      +                          /O pins
  3201   300006                     	org	3145734
  3202   300006  81                 	db	129
  3203                           
  3204                           ; Padding undefined space
  3205   300007                     	org	3145735
  3206   300007  FF                 	db	255
  3207                           
  3208                           ;Config register CONFIG5L @ 0x300008
  3209                           ;	Code Protection Block 0
  3210                           ;	CP0 = OFF, Block 0 (000800-001FFFh) not code-protected
  3211                           ;	Code Protection Block 1
  3212                           ;	CP1 = OFF, Block 1 (002000-003FFFh) not code-protected
  3213                           ;	Code Protection Block 2
  3214                           ;	CP2 = OFF, Block 2 (004000-005FFFh) not code-protected
  3215                           ;	Code Protection Block 3
  3216                           ;	CP3 = OFF, Block 3 (006000-007FFFh) not code-protected
  3217   300008                     	org	3145736
  3218   300008  0F                 	db	15
  3219                           
  3220                           ;Config register CONFIG5H @ 0x300009
  3221                           ;	Boot Block Code Protection bit
  3222                           ;	CPB = OFF, Boot block (000000-0007FFh) not code-protected
  3223                           ;	Data EEPROM Code Protection bit
  3224                           ;	CPD = OFF, Data EEPROM not code-protected
  3225   300009                     	org	3145737
  3226   300009  C0                 	db	192
  3227                           
  3228                           ;Config register CONFIG6L @ 0x30000A
  3229                           ;	Write Protection Block 0
  3230                           ;	WRT0 = OFF, Block 0 (000800-001FFFh) not write-protected
  3231                           ;	Write Protection Block 1
  3232                           ;	WRT1 = OFF, Block 1 (002000-003FFFh) not write-protected
  3233                           ;	Write Protection Block 2
  3234                           ;	WRT2 = OFF, Block 2 (004000-005FFFh) not write-protected
  3235                           ;	Write Protection Block 3
  3236                           ;	WRT3 = OFF, Block 3 (006000-007FFFh) not write-protected
  3237   30000A                     	org	3145738
  3238   30000A  0F                 	db	15
  3239                           
  3240                           ;Config register CONFIG6H @ 0x30000B
  3241                           ;	Configuration Register Write Protection bit
  3242                           ;	WRTC = OFF, Configuration registers (300000-3000FFh) not write-protected
  3243                           ;	Boot Block Write Protection bit
  3244                           ;	WRTB = OFF, Boot Block (000000-0007FFh) not write-protected
  3245                           ;	Data EEPROM Write Protection bit
  3246                           ;	WRTD = OFF, Data EEPROM not write-protected
  3247   30000B                     	org	3145739
  3248   30000B  E0                 	db	224
  3249                           
  3250                           ;Config register CONFIG7L @ 0x30000C
  3251                           ;	Table Read Protection Block 0
  3252                           ;	EBTR0 = OFF, Block 0 (000800-001FFFh) not protected from table reads executed in other
      +                           blocks
  3253                           ;	Table Read Protection Block 1
  3254                           ;	EBTR1 = OFF, Block 1 (002000-003FFFh) not protected from table reads executed in other
      +                           blocks
  3255                           ;	Table Read Protection Block 2
  3256                           ;	EBTR2 = OFF, Block 2 (004000-005FFFh) not protected from table reads executed in other
      +                           blocks
  3257                           ;	Table Read Protection Block 3
  3258                           ;	EBTR3 = OFF, Block 3 (006000-007FFFh) not protected from table reads executed in other
      +                           blocks
  3259   30000C                     	org	3145740
  3260   30000C  0F                 	db	15
  3261                           
  3262                           ;Config register CONFIG7H @ 0x30000D
  3263                           ;	Boot Block Table Read Protection bit
  3264                           ;	EBTRB = OFF, Boot Block (000000-0007FFh) not protected from table reads executed in ot
      +                          her blocks
  3265   30000D                     	org	3145741
  3266   30000D  40                 	db	64
  3267                           tosu	equ	0xFFF
  3268                           tosh	equ	0xFFE
  3269                           tosl	equ	0xFFD
  3270                           stkptr	equ	0xFFC
  3271                           pclatu	equ	0xFFB
  3272                           pclath	equ	0xFFA
  3273                           pcl	equ	0xFF9
  3274                           tblptru	equ	0xFF8
  3275                           tblptrh	equ	0xFF7
  3276                           tblptrl	equ	0xFF6
  3277                           tablat	equ	0xFF5
  3278                           prodh	equ	0xFF4
  3279                           prodl	equ	0xFF3
  3280                           indf0	equ	0xFEF
  3281                           postinc0	equ	0xFEE
  3282                           postdec0	equ	0xFED
  3283                           preinc0	equ	0xFEC
  3284                           plusw0	equ	0xFEB
  3285                           fsr0h	equ	0xFEA
  3286                           fsr0l	equ	0xFE9
  3287                           wreg	equ	0xFE8
  3288                           indf1	equ	0xFE7
  3289                           postinc1	equ	0xFE6
  3290                           postdec1	equ	0xFE5
  3291                           preinc1	equ	0xFE4
  3292                           plusw1	equ	0xFE3
  3293                           fsr1h	equ	0xFE2
  3294                           fsr1l	equ	0xFE1
  3295                           bsr	equ	0xFE0
  3296                           indf2	equ	0xFDF
  3297                           postinc2	equ	0xFDE
  3298                           postdec2	equ	0xFDD
  3299                           preinc2	equ	0xFDC
  3300                           plusw2	equ	0xFDB
  3301                           fsr2h	equ	0xFDA
  3302                           fsr2l	equ	0xFD9
  3303                           status	equ	0xFD8

Data Sizes:
    Strings     0
    Constant    0
    Data        10
    BSS         67
    Persistent  0
    Stack       0

Auto Spaces:
    Space          Size  Autos    Used
    COMRAM           95     66      93
    BANK0           160      0      50
    BANK1           256      0       0
    BANK2           256      0       0
    BANK3           256      0       0
    BANK4           256      0       0
    BANK5           256      0       0

Pointer List with Targets:

    ADC_InterruptHandler	PTR FTN()void  size(2) Largest target is 1
		 -> NULL(), 


Critical Paths under _main in COMRAM

    _main->___fltol
    ___xxtofl->_ADC_GetConversionResult
    ___fltol->___fldiv
    ___fldiv->___flmul
    ___awdiv->___awmod

Critical Paths under _main in BANK0

    None.

Critical Paths under _main in BANK1

    None.

Critical Paths under _main in BANK2

    None.

Critical Paths under _main in BANK3

    None.

Critical Paths under _main in BANK4

    None.

Critical Paths under _main in BANK5

    None.

Call Graph Tables:

 ---------------------------------------------------------------------------------
 (Depth) Function   	        Calls       Base Space   Used Autos Params    Refs
 ---------------------------------------------------------------------------------
 (0) _main                                                 6     6      0    6879
                                             60 COMRAM     6     6      0
            _ADC_GetConversionResult
               _ADC_IsConversionDone
                  _ADC_SelectChannel
                _ADC_StartConversion
                  _SYSTEM_Initialize
                            ___awdiv
                            ___awmod
                            ___fldiv
                            ___flmul
                            ___fltol
                           ___xxtofl
 ---------------------------------------------------------------------------------
 (1) ___xxtofl                                            14    10      4     398
                                              4 COMRAM    14    10      4
            _ADC_GetConversionResult (ARG)
 ---------------------------------------------------------------------------------
 (1) ___fltol                                             10     6      4     305
                                             50 COMRAM    10     6      4
                            ___fldiv (ARG)
                            ___flmul (ARG)
 ---------------------------------------------------------------------------------
 (1) ___flmul                                             25    17      8    1744
                                              0 COMRAM    25    17      8
 ---------------------------------------------------------------------------------
 (1) ___fldiv                                             25    17      8    1399
                                             25 COMRAM    25    17      8
                            ___flmul (ARG)
 ---------------------------------------------------------------------------------
 (1) ___awmod                                              6     2      4    1512
                                              0 COMRAM     6     2      4
 ---------------------------------------------------------------------------------
 (1) ___awdiv                                              8     4      4    1364
                                              6 COMRAM     8     4      4
                            ___awmod (ARG)
 ---------------------------------------------------------------------------------
 (1) _SYSTEM_Initialize                                    0     0      0       0
                     _ADC_Initialize
              _OSCILLATOR_Initialize
             _PIN_MANAGER_Initialize
 ---------------------------------------------------------------------------------
 (2) _PIN_MANAGER_Initialize                               0     0      0       0
 ---------------------------------------------------------------------------------
 (2) _OSCILLATOR_Initialize                                0     0      0       0
 ---------------------------------------------------------------------------------
 (2) _ADC_Initialize                                       0     0      0       0
 ---------------------------------------------------------------------------------
 (1) _ADC_StartConversion                                  0     0      0       0
 ---------------------------------------------------------------------------------
 (1) _ADC_SelectChannel                                    2     2      0      22
                                              0 COMRAM     2     2      0
 ---------------------------------------------------------------------------------
 (1) _ADC_IsConversionDone                                 0     0      0       0
 ---------------------------------------------------------------------------------
 (1) _ADC_GetConversionResult                              4     2      2       0
                                              0 COMRAM     4     2      2
 ---------------------------------------------------------------------------------
 Estimated maximum stack depth 2
 ---------------------------------------------------------------------------------

 Call Graph Graphs:

 _main (ROOT)
   _ADC_GetConversionResult
   _ADC_IsConversionDone
   _ADC_SelectChannel
   _ADC_StartConversion
   _SYSTEM_Initialize
     _ADC_Initialize
     _OSCILLATOR_Initialize
     _PIN_MANAGER_Initialize
   ___awdiv
     ___awmod (ARG)
   ___awmod
   ___fldiv
     ___flmul (ARG)
   ___flmul
   ___fltol
     ___fldiv (ARG)
     ___flmul (ARG)
   ___xxtofl
     _ADC_GetConversionResult (ARG)

 Address spaces:
Name               Size   Autos  Total    Cost      Usage
BIGRAM             5FF      0       0      26        0.0%
EEDATA             100      0       0       0        0.0%
BITBANK5           100      0       0      14        0.0%
BANK5              100      0       0      15        0.0%
BITBANK4           100      0       0      12        0.0%
BANK4              100      0       0      13        0.0%
BITBANK3           100      0       0      10        0.0%
BANK3              100      0       0      11        0.0%
BITBANK2           100      0       0       8        0.0%
BANK2              100      0       0       9        0.0%
BITBANK1           100      0       0       6        0.0%
BANK1              100      0       0       7        0.0%
BITBANK0            A0      0       0       4        0.0%
BANK0               A0      0      32       5       31.2%
BITCOMRAM           5F      0       0       0        0.0%
COMRAM              5F     42      5D       1       97.9%
BITBIGSFRlh         24      0       0      19        0.0%
BITBIGSFRhhhl       1D      0       0      17        0.0%
BITBIGSFRllllll     1C      0       0      24        0.0%
BITBIGSFRhhl         E      0       0      18        0.0%
BITBIGSFRhhhh        D      0       0      16        0.0%
BITBIGSFRllllh       9      0       0      22        0.0%
BITBIGSFRllhh        4      0       0      20        0.0%
BITBIGSFRllhll       4      0       0      21        0.0%
BITBIGSFRlllllh      1      0       0      23        0.0%
BIGSFR               0      0       0     200        0.0%
BITSFR               0      0       0     200        0.0%
SFR                  0      0       0     200        0.0%
STACK                0      0       0       2        0.0%
NULL                 0      0       0       0        0.0%
ABS                  0      0      8F      25        0.0%
DATA                 0      0      8F       3        0.0%
CODE                 0      0       0       0        0.0%


Microchip Technology PIC18 Macro Assembler V2.41 build 20230208172133 
Symbol Table                                                                                   Sun Jul 09 11:38:29 2023

                   ___fldiv@aexp 0032                     ___fldiv@bexp 0031                     ___fldiv@sign 002A  
                             l22 6FD0                               l31 6F8E                               l25 6F58  
                             l19 6FB8                               l28 6FA2                               l53 6F7A  
                             l56 6F62                               l89 7002                     ___awdiv@sign 000C  
                            l445 72BE                              l392 70F4                              l730 780C  
                            l810 73AE                              l379 71B8                              l803 7316  
                            l732 766C                              l741 76B2                              l806 7472  
                            l743 772A                              l735 7630                              l744 7718  
                            l817 740A                              l762 7C9A                              l771 7F08  
                            l772 7EF6                              l766 7FFE                              l769 7E90  
                            l779 7FC0                              _RAM 004D                              u800 748E  
                            u801 748A                              u810 74A0                              u811 749C  
                            u900 7658                              u820 74B0                              u901 7654  
                            u821 74AC                              u910 767C                              u830 74F4  
                            u911 7678                              u831 74F0                              u920 7692  
                            u840 7506                              u921 768E                              u841 7502  
                            u930 76B0                              u850 7516                              u931 76AC  
                            u851 7512                              u780 6FA0                              u940 76D0  
                            u860 7556                              u781 6F9A                              u941 76CC  
                            u861 7552                              u790 6FA2                              u950 76E2  
                            u870 7596                              u951 76DE                              u871 7592  
                            u960 7710                              u880 760C                              u961 770C  
                            u881 7608                              u970 7726                              u890 762E  
                            u971 7722                              u891 762A                              u980 773A  
                            u981 7736                              u990 7754                              u991 7750  
                   ___awmod@sign 0006                              wreg 0FE8                     ___flmul@aexp 0012  
                   ___flmul@bexp 0013                     ___flmul@sign 000D                     ___flmul@temp 0018  
                   ___flmul@prod 0014                     ___fltol@exp1 003C                             l2001 7B0C  
                           l2011 7B3A                             l2003 7B1C                             l2021 7B7C  
                           l2013 7B66                             l2005 7B1E                             l2031 7BB2  
                           l2023 7B7E                             l2015 7B76                             l2007 7B20  
                           l2033 7BB4                             l2025 7B94                             l2017 7B78  
                           l2009 7B22                             l2035 7BB6                             l2027 7BAC  
                           l2019 7B7A                             l1501 7528                             l2037 7BB8  
                           l2029 7BB0                             l1511 756E                             l1503 7530  
                           l1441 6FF2                             l1521 7596                             l1513 7572  
                           l1505 7540                             l1451 6FBC                             l1443 6FF4  
                           l1531 75E4                             l1507 7556                             l1611 7BF2  
                           l1461 6F7C                             l1453 6FCE                             l1437 6FA4  
                           l1445 6FF6                             l1541 762E                             l1533 75F4  
                           l1525 75AA                             l1509 7566                             l1517 7586  
                           l1701 7EEE                             l1621 7C38                             l1613 7C02  
                           l1605 7BD6                             l1455 6F56                             l1447 7000  
                           l1439 6FD2                             l1551 767C                             l1543 763A  
                           l1535 75FC                             l1527 75C4                             l1519 7596  
                           l1471 748E                             l1711 7F5C                             l1631 7C64  
                           l1623 7C3E                             l1615 7C12                             l1607 7BE2  
                           l1457 6F90                             l1449 6F5A                             l1465 6F6E  
                           l1801 70C0                             l1553 7692                             l1561 76C2  
                           l1545 7658                             l1537 760C                             l1529 75D4  
                           l1481 74C2                             l1473 7490                             l1721 7FC4  
                           l1705 7F18                             l1713 7F60                             l1641 7CBA  
                           l1633 7C74                             l1625 7C44                             l1617 7C22  
                           l1609 7BF0                             l1811 70EC                             l1803 70C8  
                           l1563 76D0                             l1555 7698                             l1547 765A  
                           l1539 7620                             l1491 74F4                             l1475 74A0  
                           l1483 74CA                             l1467 7474                             l1731 7FEE  
                           l1723 7FD4                             l1715 7F7A                             l1707 7F24  
                           l1651 7CFA                             l1635 7C84                             l1627 7C52  
                           l1619 7C28                             l1741 7110                             l1805 70CE  
                           l1573 773A                             l1581 7782                             l1565 76D4  
                           l1557 76A2                             l1549 766A                             l1493 74F6  
                           l1485 74DA                             l1477 74B0                             l1469 7480  
                           l1725 7FE2                             l1717 7F8E                             l1709 7F32  
                           l1661 7D44                             l1653 7D06                             l1645 7CCE  
                           l1637 7C8A                             l1629 7C54                             l1821 71E4  
                           l1901 7462                             l1751 7136                             l1743 7114  
                           l1735 70F6                             l1807 70D4                             l1591 77EC  
                           l1583 779C                             l1575 7746                             l1567 76E2  
                           l1559 76B0                             l1495 7506                             l1487 74E0  
                           l1479 74C0                             l1727 7FE4                             l1719 7FA8  
                           l1671 7D96                             l1663 7D50                             l1655 7D1E  
                           l1647 7CDA                             l1639 7CAA                             l1831 7232  
                           l1823 720E                             l1815 71BA                             l1911 781C  
                           l1761 716C                             l1753 7148                             l1745 7122  
                           l1737 70FA                             l1809 70E4                             l1593 77FA  
                           l1585 77B2                             l1577 7754                             l1569 7710  
                           l1497 7516                             l1489 74E6                             l1729 7FEA  
                           l1681 7E14                             l1673 7DA6                             l1665 7D60  
                           l1657 7D2A                             l1649 7CE4                             l1841 725E  
                           l1825 7210                             l1817 71D0                             l1921 78E8  
                           l1913 7830                             l1905 780E                             l1763 7182  
                           l1755 7150                             l1771 7198                             l1747 712A  
                           l1739 7108                             l1595 7800                             l1587 77CC  
                           l1579 777E                             l1499 7526                             l1691 7E8E  
                           l1683 7E4A                             l1675 7DC2                             l1667 7D6C  
                           l1659 7D36                             l1851 728E                             l1827 7220  
                           l1931 7932                             l1923 791C                             l1915 7856  
                           l1907 7812                             l1773 71A8                             l1765 718A  
                           l1757 7158                             l1749 712E                             l1781 704A  
                           l1597 7802                             l1589 77E8                             l1693 7EA0  
                           l1685 7E58                             l1677 7DCE                             l1669 7D7C  
                           l1853 729E                             l1837 724A                             l1829 7224  
                           l1861 72D2                             l1941 7988                             l1933 7934  
                           l1925 792C                             l1917 78BA                             l1909 7818  
                           l1775 71B0                             l1767 718C                             l1759 7166  
                           l1791 707A                             l1783 7058                             l1695 7EAE  
                           l1687 7E76                             l1679 7DEA                             l1855 72AE  
                           l1847 7272                             l1839 7254                             l1871 7350  
                           l1863 72E0                             l1951 79A8                             l1943 798A  
                           l1935 7936                             l1927 792E                             l1919 78DA  
                           l1769 7192                             l1793 708C                             l1785 7060  
                           l1697 7EB2                             l1689 7E80                             l1849 727E  
                           l1881 73A4                             l1873 7358                             l1865 7326  
                           l1961 79EA                             l1953 79D4                             l1945 798C  
                           l1937 794C                             l1929 7930                             l1795 7094  
                           l1787 7064                             l1779 7046                             l1699 7EC0  
                           l1891 741A                             l1883 73E0                             l1875 7364  
                           l1867 733C                             l1859 72C2                             l1971 7A2E  
                           l1963 79EC                             l1955 79E4                             l1947 798E  
                           l1939 7978                             l1797 709C                             l1789 7072  
                           l1893 741E                             l1885 73EC                             l1877 7396  
                           l1973 7A30                             l1965 79EE                             l1957 79E6  
                           l1949 7990                             l1981 7A4C                             l1799 70AA  
                           l1895 7442                             l1887 73FA                             l1879 7398  
                           l1991 7AC4                             l1983 7A66                             l1975 7A32  
                           l1967 7A04                             l1959 79E8                             l1897 7452  
                           l1889 7418                             l1993 7AC6                             l1985 7A7E  
                           l1977 7A34                             l1969 7A2C                             l1899 7460  
                           l1995 7AC8                             l1987 7AB2                             l1979 7A36  
                           l1997 7ACA                             l1989 7AC2                             l1999 7AE0  
                           u1000 779C                             u1001 7798                             u1010 77CC  
                           u1011 77C8                             u1020 77FA                             u1100 7CBA  
                           u1021 77F6                             u1101 7CB6                             u1110 7E34  
                           u1030 7BF0                             u1031 7BEC                             u1200 7FA8  
                           u1120 7E8E                             u1040 7C02                             u1201 7FA4  
                           u1121 7E8A                             u1041 7BFE                             u1210 7FE2  
                           u1130 7EAE                             u1050 7C12                             u1211 7FDE  
                           u1131 7EAA                             u1115 7E2A                             u1051 7C0E  
                           u1220 7108                             u1300 708C                             u1140 7EC0  
                           u1060 7C52                             u1221 7104                             u1301 7088  
                           u1141 7EBC                             u1061 7C4E                             u1230 7122  
                           u1310 70AA                             u1150 7EEE                             u1070 7C64  
                           u1231 711E                             u1311 70A6                             u1151 7EEA  
                           u1071 7C60                             u1240 7148                             u1320 70C0  
                           u1160 7F04                             u1080 7C74                             u1400 729E  
                           u1241 7144                             u1321 70BC                             u1161 7F00  
                           u1081 7C70                             u1401 729A                             u1250 7166  
                           u1330 70E4                             u1170 7F18                             u1090 7CAA  
                           u1410 72D2                             u1251 7162                             u1331 70E0  
                           u1171 7F14                             u1091 7CA6                             u1411 72CE  
                           u1260 7182                             u1180 7F32                             u1340 71D0  
                           u1500 7460                             u1420 72E0                             u1261 717E  
                           u1181 7F2E                             u1341 71CC                             u1501 745C  
                           u1421 72DC                             _LATA 0F89                             u1270 71A8  
                           u1190 7F7A                             u1350 7204                             u1430 733C  
                           u1510 7830                             _LATB 0F8A                             u1271 71A4  
                           u1191 7F76                             u1431 7338                             u1511 782C  
                           _LATC 0F8B                             u1280 7058                             u1360 7232  
                           u1440 7392                             u1520 78E8                             _LATD 0F8C  
                           u1281 7054                             u1361 722E                             u1441 738E  
                           u1521 78E4                             _LATE 0F8D                             u1290 7072  
                           u1370 7246                             u1450 73DC                             u1530 7A66  
                           u1291 706E                             u1371 7242                             u1355 71FA  
                           u1451 73D8                             u1531 7A62                             u1380 726E  
                           u1460 73FA                             u1381 726A                             u1461 73F6  
                           u1390 728E                             u1470 740A                             u1391 728A  
                           u1471 7406                             u1607 7B88                             u1480 7418  
                           u1481 7414                             u1617 7BC2                             u1490 7452  
                           u1491 744E                             u1547 7940                             u1557 799C  
                           u1567 79F8                             u1577 7A40                             u1587 7AD4  
                           u1597 7B2E                             _WPUB 0F7C                             _main 780E  
                           indf2 0FDF                             fsr1l 0FE1                             fsr2l 0FD9  
                           prodh 0FF4                             prodl 0FF3                             start 0000  
                ___fldiv@new_exp 002B                     ___param_bank 0000    __end_of_OSCILLATOR_Initialize 6F64  
                  ___fltol@sign1 003B                            ?_main 0001                  __end_of___fldiv 780E  
                __end_of___awdiv 71BA                  __end_of___awmod 70F6                  __end_of___flmul 8000  
                __end_of___fltol 72C0                            _ANSEL 0F7E                  ___awdiv@divisor 0009  
                ___awdiv@counter 000B                            _TRISA 0F92                            _TRISB 0F93  
                          _TRISC 0F94                            _TRISD 0F95                            _TRISE 0F96  
                    _xvalueASCII 0060        main@TMP36_Reading_Convert 0041                            _whole 0049  
                          tablat 0FF5                            status 0FD8                  __initialization 7004  
                   __end_of_main 7BD6                           ??_main 003D                    __activetblptr 0002  
                         _ADCON0 0FC2                           _ADCON1 0FC1                           _ADCON2 0FC0  
                         _ADRESH 0FC4                           _ADRESL 0FC3                 ___awdiv@dividend 0007  
                         _ANSELH 0F7F                           _OSCCON 0FD3                 __end_of___xxtofl 7474  
                      ??___fldiv 0022                        ??___awdiv 000B                        ??___awmod 0005  
                      ??___flmul 0009                        ??___fltol 0037                           clear_0 702A  
                         clear_1 7036                 ___awdiv@quotient 000D                  ___awmod@divisor 0003  
                         isa$std 0001                  ___awmod@counter 0005                     __pdataCOMRAM 0054  
                         tblptrh 0FF7                           tblptrl 0FF6                           tblptru 0FF8  
                    _First_Digit 0051                     ___xxtofl@arg 000F                     ___xxtofl@exp 000E  
              _SYSTEM_Initialize 6F6E                     ___xxtofl@val 0005                       __accesstop 0060  
        __end_of__initialization 703C               ?_SYSTEM_Initialize 0001                    ___rparam_used 0001  
                     ___fltol@f1 0033                   __pcstackCOMRAM 0001              ??_SYSTEM_Initialize 0001  
        _ADC_GetConversionResult 6F7C                   _Number_Mapping 0054        __end_of_SYSTEM_Initialize 6F7C  
                     __pbssBANK0 0060                        ?___xxtofl 0005                          _OSCTUNE 0F9B  
           _ADC_InterruptHandler 004B                          __Hparam 0000                          __Lparam 0000  
                    _Third_Digit 004F                          ___fldiv 7474                          ___awdiv 70F6  
                        ___awmod 7046                          ___flmul 7BD6                          _Voltage 0043  
                        ___fltol 71BA        ??_ADC_GetConversionResult 0003                          _decimal 0047  
                        __pcinit 7004                          __ramtop 0600                          __ptext0 780E  
                        __ptext1 72C0                          __ptext2 71BA                          __ptext3 7BD6  
                        __ptext4 7474                          __ptext5 7046                          __ptext6 70F6  
                        __ptext7 6F6E                          __ptext8 6FD2                          __ptext9 6F5A  
          _OSCILLATOR_Initialize 6F5A                       ??___xxtofl 0009                 ___awmod@dividend 0001  
       ??_PIN_MANAGER_Initialize 0001             end_of_initialization 703C                    __Lmediumconst 0000  
   __end_of_ADC_IsConversionDone 6FA4                          postdec1 0FE5                          postinc0 0FEE  
                  ___xxtofl@sign 000D              _ADC_StartConversion 6F56                      ___fldiv@grs 002D  
                    ___fldiv@rem 0026                      ___flmul@grs 000E             ?_ADC_StartConversion 0001  
                  __pidataCOMRAM 6F64                   _ADC_Initialize 6FA4           ?_OSCILLATOR_Initialize 0001  
            start_initialization 7004                    _TMP36_Reading 0052            ??_ADC_StartConversion 0001  
                   _Fourth_Digit 004E           __end_of_ADC_Initialize 6FBA                        ___fldiv@a 001E  
                      ___fldiv@b 001A                        ___flmul@a 0005                        ___flmul@b 0001  
                    __pbssCOMRAM 0043             _ADC_IsConversionDone 6F90                        _main$1009 003F  
         _PIN_MANAGER_Initialize 6FD2                _ADC_SelectChannel 6FBA                         ?___fldiv 001A  
                       ?___awdiv 0007                         ?___awmod 0001                         ?___flmul 0001  
                       ?___fltol 0033                  ?_ADC_Initialize 0001               ?_ADC_SelectChannel 0001  
                   _Second_Digit 0050              ??_ADC_SelectChannel 0001            ?_ADC_IsConversionDone 0001  
                       _LATAbits 0F89                         _LATBbits 0F8A        __end_of_ADC_SelectChannel 6FD2  
                     _ADCON0bits 0FC2         ADC_SelectChannel@channel 0002                      _INTCON2bits 0FF1  
                      copy_data0 7018                         __Hrparam 0000                         __Lrparam 0000  
       ?_ADC_GetConversionResult 0001          ??_OSCILLATOR_Initialize 0001           ??_ADC_IsConversionDone 0001  
                       ___xxtofl 72C0                         __ptext10 6FA4                         __ptext11 6F56  
                       __ptext12 6FBA                         __ptext13 6F90                         __ptext14 6F7C  
                       isa$xinst 0000                       _INTCONbits 0FF2      __end_of_ADC_StartConversion 6F5A  
        ?_PIN_MANAGER_Initialize 0001  __end_of_ADC_GetConversionResult 6F90                 ??_ADC_Initialize 0001  
 __end_of_PIN_MANAGER_Initialize 7004  
